 PhysX_32

 Timestamp is 5c5f4b67 (Sat Feb  9 14:51:35 2019)

 Preferred load address is 10000000

 Start         Length     Name                   Class
 0001:00000000 00004d40H .text$di                CODE
 0001:00004d40 001a8717H .text$mn                CODE
 0001:001ad457 0000003eH .text$x                 CODE
 0002:00000000 00000170H .idata$5                DATA
 0002:00000170 00000004H .00cfg                  DATA
 0002:00000174 00000004H .CRT$XCA                DATA
 0002:00000178 00000b7cH .CRT$XCU                DATA
 0002:00000cf4 00000004H .CRT$XCZ                DATA
 0002:00000cf8 00000004H .CRT$XIA                DATA
 0002:00000cfc 0000000cH .CRT$XIC                DATA
 0002:00000d08 00000004H .CRT$XIZ                DATA
 0002:00000d0c 00000004H .CRT$XPA                DATA
 0002:00000d10 00000008H .CRT$XPX                DATA
 0002:00000d18 00000004H .CRT$XPXA               DATA
 0002:00000d1c 00000004H .CRT$XPZ                DATA
 0002:00000d20 00000004H .CRT$XTA                DATA
 0002:00000d24 0000000cH .CRT$XTZ                DATA
 0002:00000d28 00000000H .gfids$y                DATA
 0002:00000d30 0001a654H .rdata                  DATA
 0002:0001b384 000002acH .rdata$r                DATA
 0002:0001b630 0000001cH .rdata$sxdata           DATA
 0002:0001b64c 000003dcH .rdata$zzzdbg           DATA
 0002:0001ba28 00000004H .rtc$IAA                DATA
 0002:0001ba2c 00000004H .rtc$IZZ                DATA
 0002:0001ba30 00000004H .rtc$TAA                DATA
 0002:0001ba34 00000004H .rtc$TZZ                DATA
 0002:0001ba38 000008a4H .xdata$x                DATA
 0002:0001c2dc 00000040H .didat$2                DATA
 0002:0001c31c 00000020H .didat$3                DATA
 0002:0001c33c 00000330H .didat$4                DATA
 0002:0001c66c 00004558H .didat$6                DATA
 0002:00020bc4 0000033cH .didat$7                DATA
 0002:00020f00 00002300H .edata                  DATA
 0002:00023200 00000014H .idata$2                DATA
 0002:00023214 00000014H .idata$3                DATA
 0002:00023228 00000170H .idata$4                DATA
 0002:00023398 000006b2H .idata$6                DATA
 0003:00000000 00000e80H .data                   DATA
 0003:00000e80 00002618H .data$r                 DATA
 0003:00003498 00000338H .didat$5                DATA
 0003:000037d0 000041d0H .bss                    DATA
 0004:00000000 000004e0H _RDATA                  DATA
 0005:00000000 000000a0H .rsrc$01                DATA
 0005:000000a0 00000488H .rsrc$02                DATA

  Address         Publics by Value              Rva+Base       Lib:Object

 0000:00000000       __except_list              00000000     <absolute>
 0000:00000000       ___guard_iat_table         00000000     <absolute>
 0000:00000000       ___guard_fids_count        00000000     <absolute>
 0000:00000000       ___enclave_config          00000000     <absolute>
 0000:00000000       ___volatile_metadata       00000000     <absolute>
 0000:00000000       ___hybrid_auxiliary_iat    00000000     <absolute>
 0000:00000000       ___hybrid_code_map         00000000     <absolute>
 0000:00000000       ___guard_longjmp_count     00000000     <absolute>
 0000:00000000       ___guard_longjmp_table     00000000     <absolute>
 0000:00000000       ___guard_iat_count         00000000     <absolute>
 0000:00000000       ___guard_fids_table        00000000     <absolute>
 0000:00000000       ___dynamic_value_reloc_table 00000000     <absolute>
 0000:00000000       ___hybrid_code_map_count   00000000     <absolute>
 0000:00000007       ___safe_se_handler_count   00000007     <absolute>
 0000:00000100       ___guard_flags             00000100     <absolute>
 0000:00000000       ___ImageBase               10000000     <linker-defined>
 0001:00004d40       ??0PxPhysicsGeneratedValues@physx@@QAE@PBVPxPhysics@1@@Z 10005d40 f   PxAutoGeneratedMetaDataObjects.obj
 0001:00004d60       ??0PxPhysicsGeneratedInfo@physx@@QAE@XZ 10005d60 f   PxAutoGeneratedMetaDataObjects.obj
 0001:00004e70       ??0PxMaterialGeneratedValues@physx@@QAE@PBVPxMaterial@1@@Z 10005e70 f   PxAutoGeneratedMetaDataObjects.obj
 0001:00004ee0       ??0PxMaterialGeneratedInfo@physx@@QAE@XZ 10005ee0 f   PxAutoGeneratedMetaDataObjects.obj
 0001:00004fe0       ??0PxActorGeneratedValues@physx@@QAE@PBVPxActor@1@@Z 10005fe0 f   PxAutoGeneratedMetaDataObjects.obj
 0001:00005040       ??0PxActorGeneratedInfo@physx@@QAE@XZ 10006040 f   PxAutoGeneratedMetaDataObjects.obj
 0001:00005100       ??0PxRigidActorGeneratedValues@physx@@QAE@PBVPxRigidActor@1@@Z 10006100 f   PxAutoGeneratedMetaDataObjects.obj
 0001:00005160       ??0PxRigidActorGeneratedInfo@physx@@QAE@XZ 10006160 f   PxAutoGeneratedMetaDataObjects.obj
 0001:000051e0       ??0PxRigidBodyGeneratedValues@physx@@QAE@PBVPxRigidBody@1@@Z 100061e0 f   PxAutoGeneratedMetaDataObjects.obj
 0001:000052e0       ??0PxRigidBodyGeneratedInfo@physx@@QAE@XZ 100062e0 f   PxAutoGeneratedMetaDataObjects.obj
 0001:00005530       ??0PxRigidDynamicGeneratedValues@physx@@QAE@PBVPxRigidDynamic@1@@Z 10006530 f   PxAutoGeneratedMetaDataObjects.obj
 0001:000055e0       ??0PxRigidDynamicGeneratedInfo@physx@@QAE@XZ 100065e0 f   PxAutoGeneratedMetaDataObjects.obj
 0001:00005730       ??0PxRigidStaticGeneratedValues@physx@@QAE@PBVPxRigidStatic@1@@Z 10006730 f   PxAutoGeneratedMetaDataObjects.obj
 0001:00005750       ??0PxRigidStaticGeneratedInfo@physx@@QAE@XZ 10006750 f   PxAutoGeneratedMetaDataObjects.obj
 0001:00005780       ??0PxArticulationLinkGeneratedValues@physx@@QAE@PBVPxArticulationLink@1@@Z 10006780 f   PxAutoGeneratedMetaDataObjects.obj
 0001:000057e0       ??0PxArticulationLinkGeneratedInfo@physx@@QAE@XZ 100067e0 f   PxAutoGeneratedMetaDataObjects.obj
 0001:00005890       ??0PxArticulationJointBaseGeneratedValues@physx@@QAE@PBVPxArticulationJointBase@1@@Z 10006890 f   PxAutoGeneratedMetaDataObjects.obj
 0001:000058c0       ??0PxArticulationJointBaseGeneratedInfo@physx@@QAE@XZ 100068c0 f   PxAutoGeneratedMetaDataObjects.obj
 0001:00005900       ??0PxArticulationJointGeneratedValues@physx@@QAE@PBVPxArticulationJoint@1@@Z 10006900 f   PxAutoGeneratedMetaDataObjects.obj
 0001:00005a10       ??0PxArticulationJointGeneratedInfo@physx@@QAE@XZ 10006a10 f   PxAutoGeneratedMetaDataObjects.obj
 0001:00005ca0       ??0PxArticulationBaseGeneratedValues@physx@@QAE@PBVPxArticulationBase@1@@Z 10006ca0 f   PxAutoGeneratedMetaDataObjects.obj
 0001:00005d20       ??0PxArticulationBaseGeneratedInfo@physx@@QAE@XZ 10006d20 f   PxAutoGeneratedMetaDataObjects.obj
 0001:00005e70       ??0PxArticulationGeneratedValues@physx@@QAE@PBVPxArticulation@1@@Z 10006e70 f   PxAutoGeneratedMetaDataObjects.obj
 0001:00005ec0       ??0PxArticulationGeneratedInfo@physx@@QAE@XZ 10006ec0 f   PxAutoGeneratedMetaDataObjects.obj
 0001:00005f70       ??0PxAggregateGeneratedValues@physx@@QAE@PBVPxAggregate@1@@Z 10006f70 f   PxAutoGeneratedMetaDataObjects.obj
 0001:00005fa0       ??0PxAggregateGeneratedInfo@physx@@QAE@XZ 10006fa0 f   PxAutoGeneratedMetaDataObjects.obj
 0001:00006000       ??0PxConstraintGeneratedValues@physx@@QAE@PBVPxConstraint@1@@Z 10007000 f   PxAutoGeneratedMetaDataObjects.obj
 0001:00006070       ??0PxConstraintGeneratedInfo@physx@@QAE@XZ 10007070 f   PxAutoGeneratedMetaDataObjects.obj
 0001:00006140       ??0PxShapeGeneratedValues@physx@@QAE@PBVPxShape@1@@Z 10007140 f   PxAutoGeneratedMetaDataObjects.obj
 0001:00006210       ??0PxShapeGeneratedInfo@physx@@QAE@XZ 10007210 f   PxAutoGeneratedMetaDataObjects.obj
 0001:00006400       ??0PxPruningStructureGeneratedValues@physx@@QAE@PBVPxPruningStructure@1@@Z 10007400 f   PxAutoGeneratedMetaDataObjects.obj
 0001:00006420       ??0PxPruningStructureGeneratedInfo@physx@@QAE@XZ 10007420 f   PxAutoGeneratedMetaDataObjects.obj
 0001:00006460       ??0PxTolerancesScaleGeneratedValues@physx@@QAE@PBVPxTolerancesScale@1@@Z 10007460 f   PxAutoGeneratedMetaDataObjects.obj
 0001:00006490       ??0PxTolerancesScaleGeneratedInfo@physx@@QAE@XZ 10007490 f   PxAutoGeneratedMetaDataObjects.obj
 0001:000064e0       ??0PxGeometryGeneratedValues@physx@@QAE@PBVPxGeometry@1@@Z 100074e0 f   PxAutoGeneratedMetaDataObjects.obj
 0001:000064f0       ??0PxGeometryGeneratedInfo@physx@@QAE@XZ 100074f0 f   PxAutoGeneratedMetaDataObjects.obj
 0001:00006500       ??0PxBoxGeometryGeneratedValues@physx@@QAE@PBVPxBoxGeometry@1@@Z 10007500 f   PxAutoGeneratedMetaDataObjects.obj
 0001:00006520       ??0PxBoxGeometryGeneratedInfo@physx@@QAE@XZ 10007520 f   PxAutoGeneratedMetaDataObjects.obj
 0001:00006540       ??0PxCapsuleGeometryGeneratedValues@physx@@QAE@PBVPxCapsuleGeometry@1@@Z 10007540 f   PxAutoGeneratedMetaDataObjects.obj
 0001:00006560       ??0PxCapsuleGeometryGeneratedInfo@physx@@QAE@XZ 10007560 f   PxAutoGeneratedMetaDataObjects.obj
 0001:000065a0       ??0PxMeshScaleGeneratedValues@physx@@QAE@PBVPxMeshScale@1@@Z 100075a0 f   PxAutoGeneratedMetaDataObjects.obj
 0001:000065e0       ??0PxMeshScaleGeneratedInfo@physx@@QAE@XZ 100075e0 f   PxAutoGeneratedMetaDataObjects.obj
 0001:00006620       ??0PxConvexMeshGeometryGeneratedValues@physx@@QAE@PBVPxConvexMeshGeometry@1@@Z 10007620 f   PxAutoGeneratedMetaDataObjects.obj
 0001:00006660       ??0PxConvexMeshGeometryGeneratedInfo@physx@@QAE@XZ 10007660 f   PxAutoGeneratedMetaDataObjects.obj
 0001:000066c0       ??0PxSphereGeometryGeneratedValues@physx@@QAE@PBVPxSphereGeometry@1@@Z 100076c0 f   PxAutoGeneratedMetaDataObjects.obj
 0001:000066d0       ??0PxSphereGeometryGeneratedInfo@physx@@QAE@XZ 100076d0 f   PxAutoGeneratedMetaDataObjects.obj
 0001:000066f0       ??0PxPlaneGeometryGeneratedValues@physx@@QAE@PBVPxPlaneGeometry@1@@Z 100076f0 f   PxAutoGeneratedMetaDataObjects.obj
 0001:00006700       ??0PxPlaneGeometryGeneratedInfo@physx@@QAE@XZ 10007700 f   PxAutoGeneratedMetaDataObjects.obj
 0001:00006710       ??0PxTriangleMeshGeometryGeneratedValues@physx@@QAE@PBVPxTriangleMeshGeometry@1@@Z 10007710 f   PxAutoGeneratedMetaDataObjects.obj
 0001:00006750       ??0PxTriangleMeshGeometryGeneratedInfo@physx@@QAE@XZ 10007750 f   PxAutoGeneratedMetaDataObjects.obj
 0001:000067b0       ??0PxHeightFieldGeometryGeneratedValues@physx@@QAE@PBVPxHeightFieldGeometry@1@@Z 100077b0 f   PxAutoGeneratedMetaDataObjects.obj
 0001:000067e0       ??0PxHeightFieldGeometryGeneratedInfo@physx@@QAE@XZ 100077e0 f   PxAutoGeneratedMetaDataObjects.obj
 0001:00006870       ??0PxHeightFieldDescGeneratedValues@physx@@QAE@PBVPxHeightFieldDesc@1@@Z 10007870 f   PxAutoGeneratedMetaDataObjects.obj
 0001:000068b0       ??0PxHeightFieldDescGeneratedInfo@physx@@QAE@XZ 100078b0 f   PxAutoGeneratedMetaDataObjects.obj
 0001:00006960       ??0PxArticulationJointReducedCoordinateGeneratedValues@physx@@QAE@PBVPxArticulationJointReducedCoordinate@1@@Z 10007960 f   PxAutoGeneratedMetaDataObjects.obj
 0001:000069d0       ??0PxArticulationJointReducedCoordinateGeneratedInfo@physx@@QAE@XZ 100079d0 f   PxAutoGeneratedMetaDataObjects.obj
 0001:00006a90       ??0PxSceneGeneratedValues@physx@@QAE@PBVPxScene@1@@Z 10007a90 f   PxAutoGeneratedMetaDataObjects.obj
 0001:00006d50       ??0PxSceneGeneratedInfo@physx@@QAE@XZ 10007d50 f   PxAutoGeneratedMetaDataObjects.obj
 0001:00007200       ??0PxSceneLimitsGeneratedValues@physx@@QAE@PBVPxSceneLimits@1@@Z 10008200 f   PxAutoGeneratedMetaDataObjects.obj
 0001:00007240       ??0PxSceneLimitsGeneratedInfo@physx@@QAE@XZ 10008240 f   PxAutoGeneratedMetaDataObjects.obj
 0001:00007330       ??0PxgDynamicsMemoryConfigGeneratedValues@physx@@QAE@PBUPxgDynamicsMemoryConfig@1@@Z 10008330 f   PxAutoGeneratedMetaDataObjects.obj
 0001:00007370       ??0PxgDynamicsMemoryConfigGeneratedInfo@physx@@QAE@XZ 10008370 f   PxAutoGeneratedMetaDataObjects.obj
 0001:00007460       ??0PxSceneDescGeneratedValues@physx@@QAE@PBVPxSceneDesc@1@@Z 10008460 f   PxAutoGeneratedMetaDataObjects.obj
 0001:00007620       ??0PxSceneDescGeneratedInfo@physx@@QAE@XZ 10008620 f   PxAutoGeneratedMetaDataObjects.obj
 0001:00007c00       ??0PxSimulationStatisticsGeneratedValues@physx@@QAE@PBVPxSimulationStatistics@1@@Z 10008c00 f   PxAutoGeneratedMetaDataObjects.obj
 0001:00007d00       ??0PxSimulationStatisticsGeneratedInfo@physx@@QAE@XZ 10008d00 f   PxAutoGeneratedMetaDataObjects.obj
 0001:00008030       ?getPxPhysics_TolerancesScale@@YA?BVPxTolerancesScale@physx@@PBVPxPhysics@2@@Z 10009030 f   PxAutoGeneratedMetaDataObjects.obj
 0001:00008050       ?getPxPhysics_TriangleMeshes@@YAIPBVPxPhysics@physx@@PAPAVPxTriangleMesh@2@I@Z 10009050 f   PxAutoGeneratedMetaDataObjects.obj
 0001:00008070       ?getNbPxPhysics_TriangleMeshes@@YAIPBVPxPhysics@physx@@@Z 10009070 f   PxAutoGeneratedMetaDataObjects.obj
 0001:00008080       ?createPxPhysics_TriangleMeshes@@YAPAVPxTriangleMesh@physx@@PAVPxPhysics@2@AAVPxInputStream@2@@Z 10009080 f   PxAutoGeneratedMetaDataObjects.obj
 0001:00008090       ?getPxPhysics_HeightFields@@YAIPBVPxPhysics@physx@@PAPAVPxHeightField@2@I@Z 10009090 f   PxAutoGeneratedMetaDataObjects.obj
 0001:000080b0       ?getNbPxPhysics_HeightFields@@YAIPBVPxPhysics@physx@@@Z 100090b0 f   PxAutoGeneratedMetaDataObjects.obj
 0001:000080c0       ?createPxPhysics_HeightFields@@YAPAVPxHeightField@physx@@PAVPxPhysics@2@AAVPxInputStream@2@@Z 100090c0 f   PxAutoGeneratedMetaDataObjects.obj
 0001:000080d0       ?getPxPhysics_ConvexMeshes@@YAIPBVPxPhysics@physx@@PAPAVPxConvexMesh@2@I@Z 100090d0 f   PxAutoGeneratedMetaDataObjects.obj
 0001:000080f0       ?getNbPxPhysics_ConvexMeshes@@YAIPBVPxPhysics@physx@@@Z 100090f0 f   PxAutoGeneratedMetaDataObjects.obj
 0001:00008100       ?createPxPhysics_ConvexMeshes@@YAPAVPxConvexMesh@physx@@PAVPxPhysics@2@AAVPxInputStream@2@@Z 10009100 f   PxAutoGeneratedMetaDataObjects.obj
 0001:00008110       ?getPxPhysics_BVHStructures@@YAIPBVPxPhysics@physx@@PAPAVPxBVHStructure@2@I@Z 10009110 f   PxAutoGeneratedMetaDataObjects.obj
 0001:00008130       ?getNbPxPhysics_BVHStructures@@YAIPBVPxPhysics@physx@@@Z 10009130 f   PxAutoGeneratedMetaDataObjects.obj
 0001:00008140       ?createPxPhysics_BVHStructures@@YAPAVPxBVHStructure@physx@@PAVPxPhysics@2@AAVPxInputStream@2@@Z 10009140 f   PxAutoGeneratedMetaDataObjects.obj
 0001:00008150       ?getPxPhysics_Scenes@@YAIPBVPxPhysics@physx@@PAPAVPxScene@2@I@Z 10009150 f   PxAutoGeneratedMetaDataObjects.obj
 0001:00008170       ?getNbPxPhysics_Scenes@@YAIPBVPxPhysics@physx@@@Z 10009170 f   PxAutoGeneratedMetaDataObjects.obj
 0001:00008180       ?createPxPhysics_Scenes@@YAPAVPxScene@physx@@PAVPxPhysics@2@ABVPxSceneDesc@2@@Z 10009180 f   PxAutoGeneratedMetaDataObjects.obj
 0001:00008190       ?getPxPhysics_Shapes@@YAIPBVPxPhysics@physx@@PAPAVPxShape@2@I@Z 10009190 f   PxAutoGeneratedMetaDataObjects.obj
 0001:000081b0       ?getNbPxPhysics_Shapes@@YAIPBVPxPhysics@physx@@@Z 100091b0 f   PxAutoGeneratedMetaDataObjects.obj
 0001:000081c0       ?getPxPhysics_Materials@@YAIPBVPxPhysics@physx@@PAPAVPxMaterial@2@I@Z 100091c0 f   PxAutoGeneratedMetaDataObjects.obj
 0001:000081e0       ?getNbPxPhysics_Materials@@YAIPBVPxPhysics@physx@@@Z 100091e0 f   PxAutoGeneratedMetaDataObjects.obj
 0001:000081f0       ?getPxMaterial_ReferenceCount@@YAIPBVPxMaterial@physx@@@Z 100091f0 f   PxAutoGeneratedMetaDataObjects.obj
 0001:00008200       ?setPxMaterial_DynamicFriction@@YAXPAVPxMaterial@physx@@M@Z 10009200 f   PxAutoGeneratedMetaDataObjects.obj
 0001:00008220       ?getPxMaterial_DynamicFriction@@YAMPBVPxMaterial@physx@@@Z 10009220 f   PxAutoGeneratedMetaDataObjects.obj
 0001:00008230       ?setPxMaterial_StaticFriction@@YAXPAVPxMaterial@physx@@M@Z 10009230 f   PxAutoGeneratedMetaDataObjects.obj
 0001:00008250       ?getPxMaterial_StaticFriction@@YAMPBVPxMaterial@physx@@@Z 10009250 f   PxAutoGeneratedMetaDataObjects.obj
 0001:00008260       ?setPxMaterial_Restitution@@YAXPAVPxMaterial@physx@@M@Z 10009260 f   PxAutoGeneratedMetaDataObjects.obj
 0001:00008280       ?getPxMaterial_Restitution@@YAMPBVPxMaterial@physx@@@Z 10009280 f   PxAutoGeneratedMetaDataObjects.obj
 0001:00008290       ?setPxMaterial_Flags@@YAXPAVPxMaterial@physx@@V?$PxFlags@W4Enum@PxMaterialFlag@physx@@G@2@@Z 10009290 f   PxAutoGeneratedMetaDataObjects.obj
 0001:000082b0       ?getPxMaterial_Flags@@YA?AV?$PxFlags@W4Enum@PxMaterialFlag@physx@@G@physx@@PBVPxMaterial@2@@Z 100092b0 f   PxAutoGeneratedMetaDataObjects.obj
 0001:000082d0       ?setPxMaterial_FrictionCombineMode@@YAXPAVPxMaterial@physx@@W4Enum@PxCombineMode@2@@Z 100092d0 f   PxAutoGeneratedMetaDataObjects.obj
 0001:000082e0       ?getPxMaterial_FrictionCombineMode@@YA?AW4Enum@PxCombineMode@physx@@PBVPxMaterial@3@@Z 100092e0 f   PxAutoGeneratedMetaDataObjects.obj
 0001:000082f0       ?setPxMaterial_RestitutionCombineMode@@YAXPAVPxMaterial@physx@@W4Enum@PxCombineMode@2@@Z 100092f0 f   PxAutoGeneratedMetaDataObjects.obj
 0001:00008300       ?getPxMaterial_RestitutionCombineMode@@YA?AW4Enum@PxCombineMode@physx@@PBVPxMaterial@3@@Z 10009300 f   PxAutoGeneratedMetaDataObjects.obj
 0001:00008310       ?getPxMaterial_ConcreteTypeName@@YAPBDPBVPxMaterial@physx@@@Z 10009310 f   PxAutoGeneratedMetaDataObjects.obj
 0001:00008320       ?getPxActor_Scene@@YAPAVPxScene@physx@@PBVPxActor@2@@Z 10009320 f   PxAutoGeneratedMetaDataObjects.obj
 0001:00008330       ?setPxActor_Name@@YAXPAVPxActor@physx@@PBD@Z 10009330 f   PxAutoGeneratedMetaDataObjects.obj
 0001:00008340       ?getPxActor_Name@@YAPBDPBVPxActor@physx@@@Z 10009340 f   PxAutoGeneratedMetaDataObjects.obj
 0001:00008350       ?setPxActor_ActorFlags@@YAXPAVPxActor@physx@@V?$PxFlags@W4Enum@PxActorFlag@physx@@E@2@@Z 10009350 f   PxAutoGeneratedMetaDataObjects.obj
 0001:00008370       ?getPxActor_ActorFlags@@YA?AV?$PxFlags@W4Enum@PxActorFlag@physx@@E@physx@@PBVPxActor@2@@Z 10009370 f   PxAutoGeneratedMetaDataObjects.obj
 0001:00008390       ?setPxActor_DominanceGroup@@YAXPAVPxActor@physx@@E@Z 10009390 f   PxAutoGeneratedMetaDataObjects.obj
 0001:000083a0       ?getPxActor_DominanceGroup@@YAEPBVPxActor@physx@@@Z 100093a0 f   PxAutoGeneratedMetaDataObjects.obj
 0001:000083b0       ?setPxActor_OwnerClient@@YAXPAVPxActor@physx@@E@Z 100093b0 f   PxAutoGeneratedMetaDataObjects.obj
 0001:000083c0       ?getPxActor_OwnerClient@@YAEPBVPxActor@physx@@@Z 100093c0 f   PxAutoGeneratedMetaDataObjects.obj
 0001:000083d0       ?getPxActor_Aggregate@@YAPAVPxAggregate@physx@@PBVPxActor@2@@Z 100093d0 f   PxAutoGeneratedMetaDataObjects.obj
 0001:000083e0       ?setPxRigidActor_GlobalPose@@YAXPAVPxRigidActor@physx@@ABVPxTransform@2@@Z 100093e0 f   PxAutoGeneratedMetaDataObjects.obj
 0001:000083f0       ?getPxRigidActor_GlobalPose@@YA?AVPxTransform@physx@@PBVPxRigidActor@2@@Z 100093f0 f   PxAutoGeneratedMetaDataObjects.obj
 0001:00008410       ?getPxRigidActor_Shapes@@YAIPBVPxRigidActor@physx@@PAPAVPxShape@2@I@Z 10009410 f   PxAutoGeneratedMetaDataObjects.obj
 0001:00008430       ?getNbPxRigidActor_Shapes@@YAIPBVPxRigidActor@physx@@@Z 10009430 f   PxAutoGeneratedMetaDataObjects.obj
 0001:00008440       ?getPxRigidActor_Constraints@@YAIPBVPxRigidActor@physx@@PAPAVPxConstraint@2@I@Z 10009440 f   PxAutoGeneratedMetaDataObjects.obj
 0001:00008460       ?getNbPxRigidActor_Constraints@@YAIPBVPxRigidActor@physx@@@Z 10009460 f   PxAutoGeneratedMetaDataObjects.obj
 0001:00008470       ?setPxRigidBody_CMassLocalPose@@YAXPAVPxRigidBody@physx@@ABVPxTransform@2@@Z 10009470 f   PxAutoGeneratedMetaDataObjects.obj
 0001:00008480       ?getPxRigidBody_CMassLocalPose@@YA?AVPxTransform@physx@@PBVPxRigidBody@2@@Z 10009480 f   PxAutoGeneratedMetaDataObjects.obj
 0001:000084a0       ?setPxRigidBody_Mass@@YAXPAVPxRigidBody@physx@@M@Z 100094a0 f   PxAutoGeneratedMetaDataObjects.obj
 0001:000084c0       ?getPxRigidBody_Mass@@YAMPBVPxRigidBody@physx@@@Z 100094c0 f   PxAutoGeneratedMetaDataObjects.obj
 0001:000084d0       ?getPxRigidBody_InvMass@@YAMPBVPxRigidBody@physx@@@Z 100094d0 f   PxAutoGeneratedMetaDataObjects.obj
 0001:000084e0       ?setPxRigidBody_MassSpaceInertiaTensor@@YAXPAVPxRigidBody@physx@@ABVPxVec3@2@@Z 100094e0 f   PxAutoGeneratedMetaDataObjects.obj
 0001:000084f0       ?getPxRigidBody_MassSpaceInertiaTensor@@YA?AVPxVec3@physx@@PBVPxRigidBody@2@@Z 100094f0 f   PxAutoGeneratedMetaDataObjects.obj
 0001:00008510       ?getPxRigidBody_MassSpaceInvInertiaTensor@@YA?AVPxVec3@physx@@PBVPxRigidBody@2@@Z 10009510 f   PxAutoGeneratedMetaDataObjects.obj
 0001:00008530       ?setPxRigidBody_LinearDamping@@YAXPAVPxRigidBody@physx@@M@Z 10009530 f   PxAutoGeneratedMetaDataObjects.obj
 0001:00008550       ?getPxRigidBody_LinearDamping@@YAMPBVPxRigidBody@physx@@@Z 10009550 f   PxAutoGeneratedMetaDataObjects.obj
 0001:00008560       ?setPxRigidBody_AngularDamping@@YAXPAVPxRigidBody@physx@@M@Z 10009560 f   PxAutoGeneratedMetaDataObjects.obj
 0001:00008580       ?getPxRigidBody_AngularDamping@@YAMPBVPxRigidBody@physx@@@Z 10009580 f   PxAutoGeneratedMetaDataObjects.obj
 0001:00008590       ?setPxRigidBody_LinearVelocity@@YAXPAVPxRigidBody@physx@@ABVPxVec3@2@@Z 10009590 f   PxAutoGeneratedMetaDataObjects.obj
 0001:000085b0       ?getPxRigidBody_LinearVelocity@@YA?AVPxVec3@physx@@PBVPxRigidBody@2@@Z 100095b0 f   PxAutoGeneratedMetaDataObjects.obj
 0001:000085d0       ?setPxRigidBody_AngularVelocity@@YAXPAVPxRigidBody@physx@@ABVPxVec3@2@@Z 100095d0 f   PxAutoGeneratedMetaDataObjects.obj
 0001:000085f0       ?getPxRigidBody_AngularVelocity@@YA?AVPxVec3@physx@@PBVPxRigidBody@2@@Z 100095f0 f   PxAutoGeneratedMetaDataObjects.obj
 0001:00008610       ?setPxRigidBody_MaxAngularVelocity@@YAXPAVPxRigidBody@physx@@M@Z 10009610 f   PxAutoGeneratedMetaDataObjects.obj
 0001:00008630       ?getPxRigidBody_MaxAngularVelocity@@YAMPBVPxRigidBody@physx@@@Z 10009630 f   PxAutoGeneratedMetaDataObjects.obj
 0001:00008640       ?setPxRigidBody_MaxLinearVelocity@@YAXPAVPxRigidBody@physx@@M@Z 10009640 f   PxAutoGeneratedMetaDataObjects.obj
 0001:00008660       ?getPxRigidBody_MaxLinearVelocity@@YAMPBVPxRigidBody@physx@@@Z 10009660 f   PxAutoGeneratedMetaDataObjects.obj
 0001:00008670       ?setPxRigidBody_RigidBodyFlags@@YAXPAVPxRigidBody@physx@@V?$PxFlags@W4Enum@PxRigidBodyFlag@physx@@E@2@@Z 10009670 f   PxAutoGeneratedMetaDataObjects.obj
 0001:00008690       ?getPxRigidBody_RigidBodyFlags@@YA?AV?$PxFlags@W4Enum@PxRigidBodyFlag@physx@@E@physx@@PBVPxRigidBody@2@@Z 10009690 f   PxAutoGeneratedMetaDataObjects.obj
 0001:000086b0       ?setPxRigidBody_MinCCDAdvanceCoefficient@@YAXPAVPxRigidBody@physx@@M@Z 100096b0 f   PxAutoGeneratedMetaDataObjects.obj
 0001:000086d0       ?getPxRigidBody_MinCCDAdvanceCoefficient@@YAMPBVPxRigidBody@physx@@@Z 100096d0 f   PxAutoGeneratedMetaDataObjects.obj
 0001:000086e0       ?setPxRigidBody_MaxDepenetrationVelocity@@YAXPAVPxRigidBody@physx@@M@Z 100096e0 f   PxAutoGeneratedMetaDataObjects.obj
 0001:00008700       ?getPxRigidBody_MaxDepenetrationVelocity@@YAMPBVPxRigidBody@physx@@@Z 10009700 f   PxAutoGeneratedMetaDataObjects.obj
 0001:00008710       ?setPxRigidBody_MaxContactImpulse@@YAXPAVPxRigidBody@physx@@M@Z 10009710 f   PxAutoGeneratedMetaDataObjects.obj
 0001:00008730       ?getPxRigidBody_MaxContactImpulse@@YAMPBVPxRigidBody@physx@@@Z 10009730 f   PxAutoGeneratedMetaDataObjects.obj
 0001:00008740       ?getPxRigidDynamic_IsSleeping@@YA_NPBVPxRigidDynamic@physx@@@Z 10009740 f   PxAutoGeneratedMetaDataObjects.obj
 0001:00008750       ?setPxRigidDynamic_SleepThreshold@@YAXPAVPxRigidDynamic@physx@@M@Z 10009750 f   PxAutoGeneratedMetaDataObjects.obj
 0001:00008770       ?getPxRigidDynamic_SleepThreshold@@YAMPBVPxRigidDynamic@physx@@@Z 10009770 f   PxAutoGeneratedMetaDataObjects.obj
 0001:00008780       ?setPxRigidDynamic_StabilizationThreshold@@YAXPAVPxRigidDynamic@physx@@M@Z 10009780 f   PxAutoGeneratedMetaDataObjects.obj
 0001:000087a0       ?getPxRigidDynamic_StabilizationThreshold@@YAMPBVPxRigidDynamic@physx@@@Z 100097a0 f   PxAutoGeneratedMetaDataObjects.obj
 0001:000087b0       ?setPxRigidDynamic_RigidDynamicLockFlags@@YAXPAVPxRigidDynamic@physx@@V?$PxFlags@W4Enum@PxRigidDynamicLockFlag@physx@@G@2@@Z 100097b0 f   PxAutoGeneratedMetaDataObjects.obj
 0001:000087d0       ?getPxRigidDynamic_RigidDynamicLockFlags@@YA?AV?$PxFlags@W4Enum@PxRigidDynamicLockFlag@physx@@G@physx@@PBVPxRigidDynamic@2@@Z 100097d0 f   PxAutoGeneratedMetaDataObjects.obj
 0001:000087f0       ?setPxRigidDynamic_WakeCounter@@YAXPAVPxRigidDynamic@physx@@M@Z 100097f0 f   PxAutoGeneratedMetaDataObjects.obj
 0001:00008810       ?getPxRigidDynamic_WakeCounter@@YAMPBVPxRigidDynamic@physx@@@Z 10009810 f   PxAutoGeneratedMetaDataObjects.obj
 0001:00008820       ?setPxRigidDynamic_SolverIterationCounts@@YAXPAVPxRigidDynamic@physx@@II@Z 10009820 f   PxAutoGeneratedMetaDataObjects.obj
 0001:00008840       ?getPxRigidDynamic_SolverIterationCounts@@YAXPBVPxRigidDynamic@physx@@AAI1@Z 10009840 f   PxAutoGeneratedMetaDataObjects.obj
 0001:00008860       ?setPxRigidDynamic_ContactReportThreshold@@YAXPAVPxRigidDynamic@physx@@M@Z 10009860 f   PxAutoGeneratedMetaDataObjects.obj
 0001:00008880       ?getPxRigidDynamic_ContactReportThreshold@@YAMPBVPxRigidDynamic@physx@@@Z 10009880 f   PxAutoGeneratedMetaDataObjects.obj
 0001:00008890       ?getPxRigidDynamic_ConcreteTypeName@@YAPBDPBVPxRigidDynamic@physx@@@Z 10009890 f   PxAutoGeneratedMetaDataObjects.obj
 0001:000088a0       ?getPxRigidStatic_ConcreteTypeName@@YAPBDPBVPxRigidStatic@physx@@@Z 100098a0 f   PxAutoGeneratedMetaDataObjects.obj
 0001:000088b0       ?getPxArticulationLink_InboundJoint@@YAPAVPxArticulationJointBase@physx@@PBVPxArticulationLink@2@@Z 100098b0 f   PxAutoGeneratedMetaDataObjects.obj
 0001:000088c0       ?getPxArticulationLink_InboundJointDof@@YAIPBVPxArticulationLink@physx@@@Z 100098c0 f   PxAutoGeneratedMetaDataObjects.obj
 0001:000088d0       ?getPxArticulationLink_LinkIndex@@YAIPBVPxArticulationLink@physx@@@Z 100098d0 f   PxAutoGeneratedMetaDataObjects.obj
 0001:000088e0       ?getPxArticulationLink_Children@@YAIPBVPxArticulationLink@physx@@PAPAV12@I@Z 100098e0 f   PxAutoGeneratedMetaDataObjects.obj
 0001:00008900       ?getNbPxArticulationLink_Children@@YAIPBVPxArticulationLink@physx@@@Z 10009900 f   PxAutoGeneratedMetaDataObjects.obj
 0001:00008910       ?getPxArticulationLink_ConcreteTypeName@@YAPBDPBVPxArticulationLink@physx@@@Z 10009910 f   PxAutoGeneratedMetaDataObjects.obj
 0001:00008920       ?setPxArticulationJointBase_ParentPose@@YAXPAVPxArticulationJointBase@physx@@ABVPxTransform@2@@Z 10009920 f   PxAutoGeneratedMetaDataObjects.obj
 0001:00008930       ?getPxArticulationJointBase_ParentPose@@YA?AVPxTransform@physx@@PBVPxArticulationJointBase@2@@Z 10009930 f   PxAutoGeneratedMetaDataObjects.obj
 0001:00008950       ?setPxArticulationJointBase_ChildPose@@YAXPAVPxArticulationJointBase@physx@@ABVPxTransform@2@@Z 10009950 f   PxAutoGeneratedMetaDataObjects.obj
 0001:00008960       ?getPxArticulationJointBase_ChildPose@@YA?AVPxTransform@physx@@PBVPxArticulationJointBase@2@@Z 10009960 f   PxAutoGeneratedMetaDataObjects.obj
 0001:00008980       ?setPxArticulationJoint_TargetOrientation@@YAXPAVPxArticulationJoint@physx@@ABVPxQuat@2@@Z 10009980 f   PxAutoGeneratedMetaDataObjects.obj
 0001:00008990       ?getPxArticulationJoint_TargetOrientation@@YA?AVPxQuat@physx@@PBVPxArticulationJoint@2@@Z 10009990 f   PxAutoGeneratedMetaDataObjects.obj
 0001:000089b0       ?setPxArticulationJoint_TargetVelocity@@YAXPAVPxArticulationJoint@physx@@ABVPxVec3@2@@Z 100099b0 f   PxAutoGeneratedMetaDataObjects.obj
 0001:000089c0       ?getPxArticulationJoint_TargetVelocity@@YA?AVPxVec3@physx@@PBVPxArticulationJoint@2@@Z 100099c0 f   PxAutoGeneratedMetaDataObjects.obj
 0001:000089e0       ?setPxArticulationJoint_DriveType@@YAXPAVPxArticulationJoint@physx@@W4Enum@PxArticulationJointDriveType@2@@Z 100099e0 f   PxAutoGeneratedMetaDataObjects.obj
 0001:000089f0       ?getPxArticulationJoint_DriveType@@YA?AW4Enum@PxArticulationJointDriveType@physx@@PBVPxArticulationJoint@3@@Z 100099f0 f   PxAutoGeneratedMetaDataObjects.obj
 0001:00008a00       ?setPxArticulationJoint_Stiffness@@YAXPAVPxArticulationJoint@physx@@M@Z 10009a00 f   PxAutoGeneratedMetaDataObjects.obj
 0001:00008a20       ?getPxArticulationJoint_Stiffness@@YAMPBVPxArticulationJoint@physx@@@Z 10009a20 f   PxAutoGeneratedMetaDataObjects.obj
 0001:00008a30       ?setPxArticulationJoint_Damping@@YAXPAVPxArticulationJoint@physx@@M@Z 10009a30 f   PxAutoGeneratedMetaDataObjects.obj
 0001:00008a50       ?getPxArticulationJoint_Damping@@YAMPBVPxArticulationJoint@physx@@@Z 10009a50 f   PxAutoGeneratedMetaDataObjects.obj
 0001:00008a60       ?setPxArticulationJoint_InternalCompliance@@YAXPAVPxArticulationJoint@physx@@M@Z 10009a60 f   PxAutoGeneratedMetaDataObjects.obj
 0001:00008a80       ?getPxArticulationJoint_InternalCompliance@@YAMPBVPxArticulationJoint@physx@@@Z 10009a80 f   PxAutoGeneratedMetaDataObjects.obj
 0001:00008a90       ?setPxArticulationJoint_ExternalCompliance@@YAXPAVPxArticulationJoint@physx@@M@Z 10009a90 f   PxAutoGeneratedMetaDataObjects.obj
 0001:00008ab0       ?getPxArticulationJoint_ExternalCompliance@@YAMPBVPxArticulationJoint@physx@@@Z 10009ab0 f   PxAutoGeneratedMetaDataObjects.obj
 0001:00008ac0       ?setPxArticulationJoint_SwingLimit@@YAXPAVPxArticulationJoint@physx@@MM@Z 10009ac0 f   PxAutoGeneratedMetaDataObjects.obj
 0001:00008af0       ?getPxArticulationJoint_SwingLimit@@YAXPBVPxArticulationJoint@physx@@AAM1@Z 10009af0 f   PxAutoGeneratedMetaDataObjects.obj
 0001:00008b10       ?setPxArticulationJoint_TangentialStiffness@@YAXPAVPxArticulationJoint@physx@@M@Z 10009b10 f   PxAutoGeneratedMetaDataObjects.obj
 0001:00008b30       ?getPxArticulationJoint_TangentialStiffness@@YAMPBVPxArticulationJoint@physx@@@Z 10009b30 f   PxAutoGeneratedMetaDataObjects.obj
 0001:00008b40       ?setPxArticulationJoint_TangentialDamping@@YAXPAVPxArticulationJoint@physx@@M@Z 10009b40 f   PxAutoGeneratedMetaDataObjects.obj
 0001:00008b60       ?getPxArticulationJoint_TangentialDamping@@YAMPBVPxArticulationJoint@physx@@@Z 10009b60 f   PxAutoGeneratedMetaDataObjects.obj
 0001:00008b70       ?setPxArticulationJoint_SwingLimitContactDistance@@YAXPAVPxArticulationJoint@physx@@M@Z 10009b70 f   PxAutoGeneratedMetaDataObjects.obj
 0001:00008b90       ?getPxArticulationJoint_SwingLimitContactDistance@@YAMPBVPxArticulationJoint@physx@@@Z 10009b90 f   PxAutoGeneratedMetaDataObjects.obj
 0001:00008ba0       ?setPxArticulationJoint_SwingLimitEnabled@@YAXPAVPxArticulationJoint@physx@@_N@Z 10009ba0 f   PxAutoGeneratedMetaDataObjects.obj
 0001:00008bc0       ?getPxArticulationJoint_SwingLimitEnabled@@YA_NPBVPxArticulationJoint@physx@@@Z 10009bc0 f   PxAutoGeneratedMetaDataObjects.obj
 0001:00008bd0       ?setPxArticulationJoint_TwistLimit@@YAXPAVPxArticulationJoint@physx@@MM@Z 10009bd0 f   PxAutoGeneratedMetaDataObjects.obj
 0001:00008c00       ?getPxArticulationJoint_TwistLimit@@YAXPBVPxArticulationJoint@physx@@AAM1@Z 10009c00 f   PxAutoGeneratedMetaDataObjects.obj
 0001:00008c20       ?setPxArticulationJoint_TwistLimitEnabled@@YAXPAVPxArticulationJoint@physx@@_N@Z 10009c20 f   PxAutoGeneratedMetaDataObjects.obj
 0001:00008c40       ?getPxArticulationJoint_TwistLimitEnabled@@YA_NPBVPxArticulationJoint@physx@@@Z 10009c40 f   PxAutoGeneratedMetaDataObjects.obj
 0001:00008c50       ?setPxArticulationJoint_TwistLimitContactDistance@@YAXPAVPxArticulationJoint@physx@@M@Z 10009c50 f   PxAutoGeneratedMetaDataObjects.obj
 0001:00008c70       ?getPxArticulationJoint_TwistLimitContactDistance@@YAMPBVPxArticulationJoint@physx@@@Z 10009c70 f   PxAutoGeneratedMetaDataObjects.obj
 0001:00008c80       ?getPxArticulationJoint_ConcreteTypeName@@YAPBDPBVPxArticulationJoint@physx@@@Z 10009c80 f   PxAutoGeneratedMetaDataObjects.obj
 0001:00008c90       ?getPxArticulationBase_Scene@@YAPAVPxScene@physx@@PBVPxArticulationBase@2@@Z 10009c90 f   PxAutoGeneratedMetaDataObjects.obj
 0001:00008ca0       ?setPxArticulationBase_SolverIterationCounts@@YAXPAVPxArticulationBase@physx@@II@Z 10009ca0 f   PxAutoGeneratedMetaDataObjects.obj
 0001:00008cc0       ?getPxArticulationBase_SolverIterationCounts@@YAXPBVPxArticulationBase@physx@@AAI1@Z 10009cc0 f   PxAutoGeneratedMetaDataObjects.obj
 0001:00008ce0       ?getPxArticulationBase_IsSleeping@@YA_NPBVPxArticulationBase@physx@@@Z 10009ce0 f   PxAutoGeneratedMetaDataObjects.obj
 0001:00008cf0       ?setPxArticulationBase_SleepThreshold@@YAXPAVPxArticulationBase@physx@@M@Z 10009cf0 f   PxAutoGeneratedMetaDataObjects.obj
 0001:00008d10       ?getPxArticulationBase_SleepThreshold@@YAMPBVPxArticulationBase@physx@@@Z 10009d10 f   PxAutoGeneratedMetaDataObjects.obj
 0001:00008d20       ?setPxArticulationBase_StabilizationThreshold@@YAXPAVPxArticulationBase@physx@@M@Z 10009d20 f   PxAutoGeneratedMetaDataObjects.obj
 0001:00008d40       ?getPxArticulationBase_StabilizationThreshold@@YAMPBVPxArticulationBase@physx@@@Z 10009d40 f   PxAutoGeneratedMetaDataObjects.obj
 0001:00008d50       ?setPxArticulationBase_WakeCounter@@YAXPAVPxArticulationBase@physx@@M@Z 10009d50 f   PxAutoGeneratedMetaDataObjects.obj
 0001:00008d70       ?getPxArticulationBase_WakeCounter@@YAMPBVPxArticulationBase@physx@@@Z 10009d70 f   PxAutoGeneratedMetaDataObjects.obj
 0001:00008d80       ?getPxArticulationBase_Links@@YAIPBVPxArticulationBase@physx@@PAPAVPxArticulationLink@2@I@Z 10009d80 f   PxAutoGeneratedMetaDataObjects.obj
 0001:00008da0       ?getNbPxArticulationBase_Links@@YAIPBVPxArticulationBase@physx@@@Z 10009da0 f   PxAutoGeneratedMetaDataObjects.obj
 0001:00008db0       ?setPxArticulationBase_Name@@YAXPAVPxArticulationBase@physx@@PBD@Z 10009db0 f   PxAutoGeneratedMetaDataObjects.obj
 0001:00008dc0       ?getPxArticulationBase_Name@@YAPBDPBVPxArticulationBase@physx@@@Z 10009dc0 f   PxAutoGeneratedMetaDataObjects.obj
 0001:00008dd0       ?getPxArticulationBase_Aggregate@@YAPAVPxAggregate@physx@@PBVPxArticulationBase@2@@Z 10009dd0 f   PxAutoGeneratedMetaDataObjects.obj
 0001:00008de0       ?getPxArticulationBase_Type@@YA?AW4Enum@PxArticulationBase@physx@@PBV23@@Z 10009de0 f   PxAutoGeneratedMetaDataObjects.obj
 0001:00008df0       ?setPxArticulation_MaxProjectionIterations@@YAXPAVPxArticulation@physx@@I@Z 10009df0 f   PxAutoGeneratedMetaDataObjects.obj
 0001:00008e00       ?getPxArticulation_MaxProjectionIterations@@YAIPBVPxArticulation@physx@@@Z 10009e00 f   PxAutoGeneratedMetaDataObjects.obj
 0001:00008e10       ?setPxArticulation_SeparationTolerance@@YAXPAVPxArticulation@physx@@M@Z 10009e10 f   PxAutoGeneratedMetaDataObjects.obj
 0001:00008e30       ?getPxArticulation_SeparationTolerance@@YAMPBVPxArticulation@physx@@@Z 10009e30 f   PxAutoGeneratedMetaDataObjects.obj
 0001:00008e40       ?setPxArticulation_InternalDriveIterations@@YAXPAVPxArticulation@physx@@I@Z 10009e40 f   PxAutoGeneratedMetaDataObjects.obj
 0001:00008e60       ?getPxArticulation_InternalDriveIterations@@YAIPBVPxArticulation@physx@@@Z 10009e60 f   PxAutoGeneratedMetaDataObjects.obj
 0001:00008e70       ?setPxArticulation_ExternalDriveIterations@@YAXPAVPxArticulation@physx@@I@Z 10009e70 f   PxAutoGeneratedMetaDataObjects.obj
 0001:00008e90       ?getPxArticulation_ExternalDriveIterations@@YAIPBVPxArticulation@physx@@@Z 10009e90 f   PxAutoGeneratedMetaDataObjects.obj
 0001:00008ea0       ?getPxAggregate_MaxNbActors@@YAIPBVPxAggregate@physx@@@Z 10009ea0 f   PxAutoGeneratedMetaDataObjects.obj
 0001:00008eb0       ?getPxAggregate_Actors@@YAIPBVPxAggregate@physx@@PAPAVPxActor@2@I@Z 10009eb0 f   PxAutoGeneratedMetaDataObjects.obj
 0001:00008ed0       ?getNbPxAggregate_Actors@@YAIPBVPxAggregate@physx@@@Z 10009ed0 f   PxAutoGeneratedMetaDataObjects.obj
 0001:00008ee0       ?getPxAggregate_SelfCollision@@YA_NPBVPxAggregate@physx@@@Z 10009ee0 f   PxAutoGeneratedMetaDataObjects.obj
 0001:00008ef0       ?getPxAggregate_ConcreteTypeName@@YAPBDPBVPxAggregate@physx@@@Z 10009ef0 f   PxAutoGeneratedMetaDataObjects.obj
 0001:00008f00       ?getPxConstraint_Scene@@YAPAVPxScene@physx@@PBVPxConstraint@2@@Z 10009f00 f   PxAutoGeneratedMetaDataObjects.obj
 0001:00008f10       ?setPxConstraint_Actors@@YAXPAVPxConstraint@physx@@PAVPxRigidActor@2@1@Z 10009f10 f   PxAutoGeneratedMetaDataObjects.obj
 0001:00008f30       ?getPxConstraint_Actors@@YAXPBVPxConstraint@physx@@AAPAVPxRigidActor@2@1@Z 10009f30 f   PxAutoGeneratedMetaDataObjects.obj
 0001:00008f50       ?setPxConstraint_Flags@@YAXPAVPxConstraint@physx@@V?$PxFlags@W4Enum@PxConstraintFlag@physx@@G@2@@Z 10009f50 f   PxAutoGeneratedMetaDataObjects.obj
 0001:00008f70       ?getPxConstraint_Flags@@YA?AV?$PxFlags@W4Enum@PxConstraintFlag@physx@@G@physx@@PBVPxConstraint@2@@Z 10009f70 f   PxAutoGeneratedMetaDataObjects.obj
 0001:00008f90       ?getPxConstraint_IsValid@@YA_NPBVPxConstraint@physx@@@Z 10009f90 f   PxAutoGeneratedMetaDataObjects.obj
 0001:00008fa0       ?setPxConstraint_BreakForce@@YAXPAVPxConstraint@physx@@MM@Z 10009fa0 f   PxAutoGeneratedMetaDataObjects.obj
 0001:00008fd0       ?getPxConstraint_BreakForce@@YAXPBVPxConstraint@physx@@AAM1@Z 10009fd0 f   PxAutoGeneratedMetaDataObjects.obj
 0001:00008ff0       ?setPxConstraint_MinResponseThreshold@@YAXPAVPxConstraint@physx@@M@Z 10009ff0 f   PxAutoGeneratedMetaDataObjects.obj
 0001:00009010       ?getPxConstraint_MinResponseThreshold@@YAMPBVPxConstraint@physx@@@Z 1000a010 f   PxAutoGeneratedMetaDataObjects.obj
 0001:00009020       ?getPxConstraint_ConcreteTypeName@@YAPBDPBVPxConstraint@physx@@@Z 1000a020 f   PxAutoGeneratedMetaDataObjects.obj
 0001:00009030       ?getPxShape_ReferenceCount@@YAIPBVPxShape@physx@@@Z 1000a030 f   PxAutoGeneratedMetaDataObjects.obj
 0001:00009040       ?getPxShape_GeometryType@@YA?AW4Enum@PxGeometryType@physx@@PBVPxShape@3@@Z 1000a040 f   PxAutoGeneratedMetaDataObjects.obj
 0001:00009050       ?setPxShape_Geometry@@YAXPAVPxShape@physx@@ABVPxGeometry@2@@Z 1000a050 f   PxAutoGeneratedMetaDataObjects.obj
 0001:00009060       ?getPxShape_Geometry@@YA?AVPxGeometryHolder@physx@@PBVPxShape@2@@Z 1000a060 f   PxAutoGeneratedMetaDataObjects.obj
 0001:00009080       ?setPxShape_LocalPose@@YAXPAVPxShape@physx@@ABVPxTransform@2@@Z 1000a080 f   PxAutoGeneratedMetaDataObjects.obj
 0001:00009090       ?getPxShape_LocalPose@@YA?AVPxTransform@physx@@PBVPxShape@2@@Z 1000a090 f   PxAutoGeneratedMetaDataObjects.obj
 0001:000090b0       ?setPxShape_SimulationFilterData@@YAXPAVPxShape@physx@@ABUPxFilterData@2@@Z 1000a0b0 f   PxAutoGeneratedMetaDataObjects.obj
 0001:000090c0       ?getPxShape_SimulationFilterData@@YA?AUPxFilterData@physx@@PBVPxShape@2@@Z 1000a0c0 f   PxAutoGeneratedMetaDataObjects.obj
 0001:000090e0       ?setPxShape_QueryFilterData@@YAXPAVPxShape@physx@@ABUPxFilterData@2@@Z 1000a0e0 f   PxAutoGeneratedMetaDataObjects.obj
 0001:000090f0       ?getPxShape_QueryFilterData@@YA?AUPxFilterData@physx@@PBVPxShape@2@@Z 1000a0f0 f   PxAutoGeneratedMetaDataObjects.obj
 0001:00009110       ?getPxShape_Materials@@YAIPBVPxShape@physx@@PAPAVPxMaterial@2@I@Z 1000a110 f   PxAutoGeneratedMetaDataObjects.obj
 0001:00009130       ?getNbPxShape_Materials@@YAIPBVPxShape@physx@@@Z 1000a130 f   PxAutoGeneratedMetaDataObjects.obj
 0001:00009140       ?setPxShape_ContactOffset@@YAXPAVPxShape@physx@@M@Z 1000a140 f   PxAutoGeneratedMetaDataObjects.obj
 0001:00009160       ?getPxShape_ContactOffset@@YAMPBVPxShape@physx@@@Z 1000a160 f   PxAutoGeneratedMetaDataObjects.obj
 0001:00009170       ?setPxShape_RestOffset@@YAXPAVPxShape@physx@@M@Z 1000a170 f   PxAutoGeneratedMetaDataObjects.obj
 0001:00009190       ?getPxShape_RestOffset@@YAMPBVPxShape@physx@@@Z 1000a190 f   PxAutoGeneratedMetaDataObjects.obj
 0001:000091a0       ?setPxShape_TorsionalPatchRadius@@YAXPAVPxShape@physx@@M@Z 1000a1a0 f   PxAutoGeneratedMetaDataObjects.obj
 0001:000091c0       ?getPxShape_TorsionalPatchRadius@@YAMPBVPxShape@physx@@@Z 1000a1c0 f   PxAutoGeneratedMetaDataObjects.obj
 0001:000091d0       ?setPxShape_MinTorsionalPatchRadius@@YAXPAVPxShape@physx@@M@Z 1000a1d0 f   PxAutoGeneratedMetaDataObjects.obj
 0001:000091f0       ?getPxShape_MinTorsionalPatchRadius@@YAMPBVPxShape@physx@@@Z 1000a1f0 f   PxAutoGeneratedMetaDataObjects.obj
 0001:00009200       ?setPxShape_Flags@@YAXPAVPxShape@physx@@V?$PxFlags@W4Enum@PxShapeFlag@physx@@E@2@@Z 1000a200 f   PxAutoGeneratedMetaDataObjects.obj
 0001:00009220       ?getPxShape_Flags@@YA?AV?$PxFlags@W4Enum@PxShapeFlag@physx@@E@physx@@PBVPxShape@2@@Z 1000a220 f   PxAutoGeneratedMetaDataObjects.obj
 0001:00009240       ?getPxShape_IsExclusive@@YA_NPBVPxShape@physx@@@Z 1000a240 f   PxAutoGeneratedMetaDataObjects.obj
 0001:00009250       ?setPxShape_Name@@YAXPAVPxShape@physx@@PBD@Z 1000a250 f   PxAutoGeneratedMetaDataObjects.obj
 0001:00009270       ?getPxShape_Name@@YAPBDPBVPxShape@physx@@@Z 1000a270 f   PxAutoGeneratedMetaDataObjects.obj
 0001:00009280       ?getPxShape_ConcreteTypeName@@YAPBDPBVPxShape@physx@@@Z 1000a280 f   PxAutoGeneratedMetaDataObjects.obj
 0001:00009290       ?getPxPruningStructure_RigidActors@@YAIPBVPxPruningStructure@physx@@PAPAVPxRigidActor@2@I@Z 1000a290 f   PxAutoGeneratedMetaDataObjects.obj
 0001:000092b0       ?getNbPxPruningStructure_RigidActors@@YAIPBVPxPruningStructure@physx@@@Z 1000a2b0 f   PxAutoGeneratedMetaDataObjects.obj
 0001:000092c0       ?getPxPruningStructure_ConcreteTypeName@@YAPBDPBVPxPruningStructure@physx@@@Z 1000a2c0 f   PxAutoGeneratedMetaDataObjects.obj
 0001:000092d0       ?getPxTolerancesScale_IsValid@@YA_NPBVPxTolerancesScale@physx@@@Z 1000a2d0 f   PxAutoGeneratedMetaDataObjects.obj
 0001:000092f0       ?setPxArticulationJointReducedCoordinate_JointType@@YAXPAVPxArticulationJointReducedCoordinate@physx@@W4Enum@PxArticulationJointType@2@@Z 1000a2f0 f   PxAutoGeneratedMetaDataObjects.obj
 0001:00009300       ?getPxArticulationJointReducedCoordinate_JointType@@YA?AW4Enum@PxArticulationJointType@physx@@PBVPxArticulationJointReducedCoordinate@3@@Z 1000a300 f   PxAutoGeneratedMetaDataObjects.obj
 0001:00009310       ?setPxArticulationJointReducedCoordinate_Motion@@YAXPAVPxArticulationJointReducedCoordinate@physx@@W4Enum@PxArticulationAxis@2@W43PxArticulationMotion@2@@Z 1000a310 f   PxAutoGeneratedMetaDataObjects.obj
 0001:00009330       ?getPxArticulationJointReducedCoordinate_Motion@@YA?AW4Enum@PxArticulationMotion@physx@@PBVPxArticulationJointReducedCoordinate@3@W41PxArticulationAxis@3@@Z 1000a330 f   PxAutoGeneratedMetaDataObjects.obj
 0001:00009340       ?setPxArticulationJointReducedCoordinate_FrictionCoefficient@@YAXPAVPxArticulationJointReducedCoordinate@physx@@M@Z 1000a340 f   PxAutoGeneratedMetaDataObjects.obj
 0001:00009360       ?getPxArticulationJointReducedCoordinate_FrictionCoefficient@@YAMPBVPxArticulationJointReducedCoordinate@physx@@@Z 1000a360 f   PxAutoGeneratedMetaDataObjects.obj
 0001:00009370       ?getPxArticulationJointReducedCoordinate_ConcreteTypeName@@YAPBDPBVPxArticulationJointReducedCoordinate@physx@@@Z 1000a370 f   PxAutoGeneratedMetaDataObjects.obj
 0001:00009380       ?setPxArticulationJointReducedCoordinate_MaxJointVelocity@@YAXPAVPxArticulationJointReducedCoordinate@physx@@M@Z 1000a380 f   PxAutoGeneratedMetaDataObjects.obj
 0001:000093a0       ?getPxArticulationJointReducedCoordinate_MaxJointVelocity@@YAMPBVPxArticulationJointReducedCoordinate@physx@@@Z 1000a3a0 f   PxAutoGeneratedMetaDataObjects.obj
 0001:000093b0       ?getPxScene_Flags@@YA?AV?$PxFlags@W4Enum@PxSceneFlag@physx@@I@physx@@PBVPxScene@2@@Z 1000a3b0 f   PxAutoGeneratedMetaDataObjects.obj
 0001:000093d0       ?setPxScene_Limits@@YAXPAVPxScene@physx@@ABVPxSceneLimits@2@@Z 1000a3d0 f   PxAutoGeneratedMetaDataObjects.obj
 0001:000093e0       ?getPxScene_Limits@@YA?AVPxSceneLimits@physx@@PBVPxScene@2@@Z 1000a3e0 f   PxAutoGeneratedMetaDataObjects.obj
 0001:00009400       ?getPxScene_Timestamp@@YAIPBVPxScene@physx@@@Z 1000a400 f   PxAutoGeneratedMetaDataObjects.obj
 0001:00009410       ?getPxScene_Actors@@YAIPBVPxScene@physx@@V?$PxFlags@W4Enum@PxActorTypeFlag@physx@@G@2@PAPAVPxActor@2@I@Z 1000a410 f   PxAutoGeneratedMetaDataObjects.obj
 0001:00009430       ?getNbPxScene_Actors@@YAIPBVPxScene@physx@@V?$PxFlags@W4Enum@PxActorTypeFlag@physx@@G@2@@Z 1000a430 f   PxAutoGeneratedMetaDataObjects.obj
 0001:00009450       ?getPxScene_Articulations@@YAIPBVPxScene@physx@@PAPAVPxArticulationBase@2@I@Z 1000a450 f   PxAutoGeneratedMetaDataObjects.obj
 0001:00009470       ?getNbPxScene_Articulations@@YAIPBVPxScene@physx@@@Z 1000a470 f   PxAutoGeneratedMetaDataObjects.obj
 0001:00009480       ?getPxScene_Constraints@@YAIPBVPxScene@physx@@PAPAVPxConstraint@2@I@Z 1000a480 f   PxAutoGeneratedMetaDataObjects.obj
 0001:000094a0       ?getNbPxScene_Constraints@@YAIPBVPxScene@physx@@@Z 1000a4a0 f   PxAutoGeneratedMetaDataObjects.obj
 0001:000094b0       ?getPxScene_Aggregates@@YAIPBVPxScene@physx@@PAPAVPxAggregate@2@I@Z 1000a4b0 f   PxAutoGeneratedMetaDataObjects.obj
 0001:000094d0       ?getNbPxScene_Aggregates@@YAIPBVPxScene@physx@@@Z 1000a4d0 f   PxAutoGeneratedMetaDataObjects.obj
 0001:000094e0       ?getPxScene_CpuDispatcher@@YAPAVPxCpuDispatcher@physx@@PBVPxScene@2@@Z 1000a4e0 f   PxAutoGeneratedMetaDataObjects.obj
 0001:000094f0       ?getPxScene_GpuDispatcher@@YAPAVPxGpuDispatcher@physx@@PBVPxScene@2@@Z 1000a4f0 f   PxAutoGeneratedMetaDataObjects.obj
 0001:00009500       ?setPxScene_SimulationEventCallback@@YAXPAVPxScene@physx@@PAVPxSimulationEventCallback@2@@Z 1000a500 f   PxAutoGeneratedMetaDataObjects.obj
 0001:00009520       ?getPxScene_SimulationEventCallback@@YAPAVPxSimulationEventCallback@physx@@PBVPxScene@2@@Z 1000a520 f   PxAutoGeneratedMetaDataObjects.obj
 0001:00009530       ?setPxScene_ContactModifyCallback@@YAXPAVPxScene@physx@@PAVPxContactModifyCallback@2@@Z 1000a530 f   PxAutoGeneratedMetaDataObjects.obj
 0001:00009550       ?getPxScene_ContactModifyCallback@@YAPAVPxContactModifyCallback@physx@@PBVPxScene@2@@Z 1000a550 f   PxAutoGeneratedMetaDataObjects.obj
 0001:00009560       ?setPxScene_CCDContactModifyCallback@@YAXPAVPxScene@physx@@PAVPxCCDContactModifyCallback@2@@Z 1000a560 f   PxAutoGeneratedMetaDataObjects.obj
 0001:00009580       ?getPxScene_CCDContactModifyCallback@@YAPAVPxCCDContactModifyCallback@physx@@PBVPxScene@2@@Z 1000a580 f   PxAutoGeneratedMetaDataObjects.obj
 0001:00009590       ?setPxScene_BroadPhaseCallback@@YAXPAVPxScene@physx@@PAVPxBroadPhaseCallback@2@@Z 1000a590 f   PxAutoGeneratedMetaDataObjects.obj
 0001:000095b0       ?getPxScene_BroadPhaseCallback@@YAPAVPxBroadPhaseCallback@physx@@PBVPxScene@2@@Z 1000a5b0 f   PxAutoGeneratedMetaDataObjects.obj
 0001:000095c0       ?getPxScene_FilterShaderDataSize@@YAIPBVPxScene@physx@@@Z 1000a5c0 f   PxAutoGeneratedMetaDataObjects.obj
 0001:000095d0       ?getPxScene_FilterShader@@YAP6A?AV?$PxFlags@W4Enum@PxFilterFlag@physx@@G@physx@@IUPxFilterData@2@I0AAV?$PxFlags@W4Enum@PxPairFlag@physx@@G@2@PBXI@ZPBVPxScene@2@@Z 1000a5d0 f   PxAutoGeneratedMetaDataObjects.obj
 0001:000095e0       ?getPxScene_FilterCallback@@YAPAVPxSimulationFilterCallback@physx@@PBVPxScene@2@@Z 1000a5e0 f   PxAutoGeneratedMetaDataObjects.obj
 0001:000095f0       ?setPxScene_Gravity@@YAXPAVPxScene@physx@@ABVPxVec3@2@@Z 1000a5f0 f   PxAutoGeneratedMetaDataObjects.obj
 0001:00009610       ?getPxScene_Gravity@@YA?AVPxVec3@physx@@PBVPxScene@2@@Z 1000a610 f   PxAutoGeneratedMetaDataObjects.obj
 0001:00009630       ?setPxScene_BounceThresholdVelocity@@YAXPAVPxScene@physx@@M@Z 1000a630 f   PxAutoGeneratedMetaDataObjects.obj
 0001:00009650       ?getPxScene_BounceThresholdVelocity@@YAMPBVPxScene@physx@@@Z 1000a650 f   PxAutoGeneratedMetaDataObjects.obj
 0001:00009660       ?setPxScene_CCDMaxPasses@@YAXPAVPxScene@physx@@I@Z 1000a660 f   PxAutoGeneratedMetaDataObjects.obj
 0001:00009680       ?getPxScene_CCDMaxPasses@@YAIPBVPxScene@physx@@@Z 1000a680 f   PxAutoGeneratedMetaDataObjects.obj
 0001:00009690       ?getPxScene_FrictionOffsetThreshold@@YAMPBVPxScene@physx@@@Z 1000a690 f   PxAutoGeneratedMetaDataObjects.obj
 0001:000096a0       ?setPxScene_FrictionType@@YAXPAVPxScene@physx@@W4Enum@PxFrictionType@2@@Z 1000a6a0 f   PxAutoGeneratedMetaDataObjects.obj
 0001:000096c0       ?getPxScene_FrictionType@@YA?AW4Enum@PxFrictionType@physx@@PBVPxScene@3@@Z 1000a6c0 f   PxAutoGeneratedMetaDataObjects.obj
 0001:000096d0       ?setPxScene_VisualizationCullingBox@@YAXPAVPxScene@physx@@ABVPxBounds3@2@@Z 1000a6d0 f   PxAutoGeneratedMetaDataObjects.obj
 0001:000096f0       ?getPxScene_VisualizationCullingBox@@YA?AVPxBounds3@physx@@PBVPxScene@2@@Z 1000a6f0 f   PxAutoGeneratedMetaDataObjects.obj
 0001:00009710       ?getPxScene_StaticStructure@@YA?AW4Enum@PxPruningStructureType@physx@@PBVPxScene@3@@Z 1000a710 f   PxAutoGeneratedMetaDataObjects.obj
 0001:00009720       ?getPxScene_DynamicStructure@@YA?AW4Enum@PxPruningStructureType@physx@@PBVPxScene@3@@Z 1000a720 f   PxAutoGeneratedMetaDataObjects.obj
 0001:00009730       ?setPxScene_DynamicTreeRebuildRateHint@@YAXPAVPxScene@physx@@I@Z 1000a730 f   PxAutoGeneratedMetaDataObjects.obj
 0001:00009750       ?getPxScene_DynamicTreeRebuildRateHint@@YAIPBVPxScene@physx@@@Z 1000a750 f   PxAutoGeneratedMetaDataObjects.obj
 0001:00009760       ?setPxScene_SceneQueryUpdateMode@@YAXPAVPxScene@physx@@W4Enum@PxSceneQueryUpdateMode@2@@Z 1000a760 f   PxAutoGeneratedMetaDataObjects.obj
 0001:00009780       ?getPxScene_SceneQueryUpdateMode@@YA?AW4Enum@PxSceneQueryUpdateMode@physx@@PBVPxScene@3@@Z 1000a780 f   PxAutoGeneratedMetaDataObjects.obj
 0001:00009790       ?getPxScene_SceneQueryStaticTimestamp@@YAIPBVPxScene@physx@@@Z 1000a790 f   PxAutoGeneratedMetaDataObjects.obj
 0001:000097a0       ?getPxScene_BroadPhaseType@@YA?AW4Enum@PxBroadPhaseType@physx@@PBVPxScene@3@@Z 1000a7a0 f   PxAutoGeneratedMetaDataObjects.obj
 0001:000097b0       ?getPxScene_BroadPhaseRegions@@YAIPBVPxScene@physx@@PAUPxBroadPhaseRegionInfo@2@I@Z 1000a7b0 f   PxAutoGeneratedMetaDataObjects.obj
 0001:000097d0       ?getNbPxScene_BroadPhaseRegions@@YAIPBVPxScene@physx@@@Z 1000a7d0 f   PxAutoGeneratedMetaDataObjects.obj
 0001:000097e0       ?getPxScene_TaskManager@@YAPAVPxTaskManager@physx@@PBVPxScene@2@@Z 1000a7e0 f   PxAutoGeneratedMetaDataObjects.obj
 0001:000097f0       ?setPxScene_NbContactDataBlocks@@YAXPAVPxScene@physx@@I@Z 1000a7f0 f   PxAutoGeneratedMetaDataObjects.obj
 0001:00009810       ?getPxScene_MaxNbContactDataBlocksUsed@@YAIPBVPxScene@physx@@@Z 1000a810 f   PxAutoGeneratedMetaDataObjects.obj
 0001:00009820       ?getPxScene_ContactReportStreamBufferSize@@YAIPBVPxScene@physx@@@Z 1000a820 f   PxAutoGeneratedMetaDataObjects.obj
 0001:00009830       ?setPxScene_SolverBatchSize@@YAXPAVPxScene@physx@@I@Z 1000a830 f   PxAutoGeneratedMetaDataObjects.obj
 0001:00009850       ?getPxScene_SolverBatchSize@@YAIPBVPxScene@physx@@@Z 1000a850 f   PxAutoGeneratedMetaDataObjects.obj
 0001:00009860       ?getPxScene_WakeCounterResetValue@@YAMPBVPxScene@physx@@@Z 1000a860 f   PxAutoGeneratedMetaDataObjects.obj
 0001:00009870       ?setPxSceneDesc_ToDefault@@YAXPAVPxSceneDesc@physx@@ABVPxTolerancesScale@2@@Z 1000a870 f   PxAutoGeneratedMetaDataObjects.obj
 0001:00009ae0       ??_H@YGXPAXIIP6EPAX0@Z@Z   1000aae0 f i PxAutoGeneratedMetaDataObjects.obj
 0001:00009b10       ?getPxActorUserData@@YAPAXPBVPxActor@physx@@@Z 1000ab10 f i PxAutoGeneratedMetaDataObjects.obj
 0001:00009b20       ?getPxArticulationBaseUserData@@YAPAXPBVPxArticulationBase@physx@@@Z 1000ab20 f i PxAutoGeneratedMetaDataObjects.obj
 0001:00009b30       ?getPxBoxGeometryHalfExtents@@YA?AVPxVec3@physx@@PBVPxBoxGeometry@2@@Z 1000ab30 f i PxAutoGeneratedMetaDataObjects.obj
 0001:00009b50       ?getPxCapsuleGeometryHalfHeight@@YAMPBVPxCapsuleGeometry@physx@@@Z 1000ab50 f i PxAutoGeneratedMetaDataObjects.obj
 0001:00009b60       ?getPxCapsuleGeometryRadius@@YAMPBVPxCapsuleGeometry@physx@@@Z 1000ab60 f i PxAutoGeneratedMetaDataObjects.obj
 0001:00009b70       ?getPxConvexMeshGeometryConvexMesh@@YAPAVPxConvexMesh@physx@@PBVPxConvexMeshGeometry@2@@Z 1000ab70 f i PxAutoGeneratedMetaDataObjects.obj
 0001:00009b80       ?getPxConvexMeshGeometryMeshFlags@@YA?AV?$PxFlags@W4Enum@PxConvexMeshGeometryFlag@physx@@E@physx@@PBVPxConvexMeshGeometry@2@@Z 1000ab80 f i PxAutoGeneratedMetaDataObjects.obj
 0001:00009b90       ?getPxConvexMeshGeometryScale@@YA?AVPxMeshScale@physx@@PBVPxConvexMeshGeometry@2@@Z 1000ab90 f i PxAutoGeneratedMetaDataObjects.obj
 0001:00009bd0       ?getPxHeightFieldDescConvexEdgeThreshold@@YAMPBVPxHeightFieldDesc@physx@@@Z 1000abd0 f i PxAutoGeneratedMetaDataObjects.obj
 0001:00009be0       ?getPxHeightFieldDescFlags@@YA?AV?$PxFlags@W4Enum@PxHeightFieldFlag@physx@@G@physx@@PBVPxHeightFieldDesc@2@@Z 1000abe0 f i PxAutoGeneratedMetaDataObjects.obj
 0001:00009bf0       ?getPxHeightFieldDescFormat@@YA?AW4Enum@PxHeightFieldFormat@physx@@PBVPxHeightFieldDesc@3@@Z 1000abf0 f i PxAutoGeneratedMetaDataObjects.obj
 0001:00009c00       ?getPxHeightFieldDescNbColumns@@YAIPBVPxHeightFieldDesc@physx@@@Z 1000ac00 f i PxAutoGeneratedMetaDataObjects.obj
 0001:00009c10       ?getPxHeightFieldDescNbRows@@YAIPBVPxHeightFieldDesc@physx@@@Z 1000ac10 f i PxAutoGeneratedMetaDataObjects.obj
 0001:00009c20       ?getPxHeightFieldDescSamples@@YA?AUPxStridedData@physx@@PBVPxHeightFieldDesc@2@@Z 1000ac20 f i PxAutoGeneratedMetaDataObjects.obj
 0001:00009c40       ?getPxHeightFieldGeometryColumnScale@@YAMPBVPxHeightFieldGeometry@physx@@@Z 1000ac40 f i PxAutoGeneratedMetaDataObjects.obj
 0001:00009c50       ?getPxHeightFieldGeometryHeightField@@YAPAVPxHeightField@physx@@PBVPxHeightFieldGeometry@2@@Z 1000ac50 f i PxAutoGeneratedMetaDataObjects.obj
 0001:00009c60       ?getPxHeightFieldGeometryHeightFieldFlags@@YA?AV?$PxFlags@W4Enum@PxMeshGeometryFlag@physx@@E@physx@@PBVPxHeightFieldGeometry@2@@Z 1000ac60 f i PxAutoGeneratedMetaDataObjects.obj
 0001:00009c70       ?getPxHeightFieldGeometryHeightScale@@YAMPBVPxHeightFieldGeometry@physx@@@Z 1000ac70 f i PxAutoGeneratedMetaDataObjects.obj
 0001:00009c80       ?getPxHeightFieldGeometryRowScale@@YAMPBVPxHeightFieldGeometry@physx@@@Z 1000ac80 f i PxAutoGeneratedMetaDataObjects.obj
 0001:00009c90       ?getPxMaterialUserData@@YAPAXPBVPxMaterial@physx@@@Z 1000ac90 f i PxAutoGeneratedMetaDataObjects.obj
 0001:00009ca0       ?getPxMeshScaleRotation@@YA?AVPxQuat@physx@@PBVPxMeshScale@2@@Z 1000aca0 f i PxAutoGeneratedMetaDataObjects.obj
 0001:00009cc0       ?getPxMeshScaleScale@@YA?AVPxVec3@physx@@PBVPxMeshScale@2@@Z 1000acc0 f i PxAutoGeneratedMetaDataObjects.obj
 0001:00009ce0       ?getPxSceneDescBounceThresholdVelocity@@YAMPBVPxSceneDesc@physx@@@Z 1000ace0 f i PxAutoGeneratedMetaDataObjects.obj
 0001:00009cf0       ?getPxSceneDescBroadPhaseCallback@@YAPAVPxBroadPhaseCallback@physx@@PBVPxSceneDesc@2@@Z 1000acf0 f i PxAutoGeneratedMetaDataObjects.obj
 0001:00009d00       ?getPxSceneDescBroadPhaseType@@YA?AW4Enum@PxBroadPhaseType@physx@@PBVPxSceneDesc@3@@Z 1000ad00 f i PxAutoGeneratedMetaDataObjects.obj
 0001:00009d10       ?getPxSceneDescCcdContactModifyCallback@@YAPAVPxCCDContactModifyCallback@physx@@PBVPxSceneDesc@2@@Z 1000ad10 f i PxAutoGeneratedMetaDataObjects.obj
 0001:00009d20       ?getPxSceneDescCcdMaxPasses@@YAIPBVPxSceneDesc@physx@@@Z 1000ad20 f i PxAutoGeneratedMetaDataObjects.obj
 0001:00009d30       ?getPxSceneDescCcdMaxSeparation@@YAMPBVPxSceneDesc@physx@@@Z 1000ad30 f i PxAutoGeneratedMetaDataObjects.obj
 0001:00009d40       ?getPxSceneDescCcdThreshold@@YAMPBVPxSceneDesc@physx@@@Z 1000ad40 f i PxAutoGeneratedMetaDataObjects.obj
 0001:00009d50       ?getPxSceneDescContactModifyCallback@@YAPAVPxContactModifyCallback@physx@@PBVPxSceneDesc@2@@Z 1000ad50 f i PxAutoGeneratedMetaDataObjects.obj
 0001:00009d60       ?getPxSceneDescContactReportStreamBufferSize@@YAIPBVPxSceneDesc@physx@@@Z 1000ad60 f i PxAutoGeneratedMetaDataObjects.obj
 0001:00009d70       ?getPxSceneDescCpuDispatcher@@YAPAVPxCpuDispatcher@physx@@PBVPxSceneDesc@2@@Z 1000ad70 f i PxAutoGeneratedMetaDataObjects.obj
 0001:00009d80       ?getPxSceneDescDynamicStructure@@YA?AW4Enum@PxPruningStructureType@physx@@PBVPxSceneDesc@3@@Z 1000ad80 f i PxAutoGeneratedMetaDataObjects.obj
 0001:00009d90       ?getPxSceneDescDynamicTreeRebuildRateHint@@YAIPBVPxSceneDesc@physx@@@Z 1000ad90 f i PxAutoGeneratedMetaDataObjects.obj
 0001:00009da0       ?getPxSceneDescFilterCallback@@YAPAVPxSimulationFilterCallback@physx@@PBVPxSceneDesc@2@@Z 1000ada0 f i PxAutoGeneratedMetaDataObjects.obj
 0001:00009db0       ?getPxSceneDescFilterShader@@YAP6A?AV?$PxFlags@W4Enum@PxFilterFlag@physx@@G@physx@@IUPxFilterData@2@I0AAV?$PxFlags@W4Enum@PxPairFlag@physx@@G@2@PBXI@ZPBVPxSceneDesc@2@@Z 1000adb0 f i PxAutoGeneratedMetaDataObjects.obj
 0001:00009dc0       ?getPxSceneDescFilterShaderData@@YAPBXPBVPxSceneDesc@physx@@@Z 1000adc0 f i PxAutoGeneratedMetaDataObjects.obj
 0001:00009dd0       ?getPxSceneDescFilterShaderDataSize@@YAIPBVPxSceneDesc@physx@@@Z 1000add0 f i PxAutoGeneratedMetaDataObjects.obj
 0001:00009de0       ?getPxSceneDescFlags@@YA?AV?$PxFlags@W4Enum@PxSceneFlag@physx@@I@physx@@PBVPxSceneDesc@2@@Z 1000ade0 f i PxAutoGeneratedMetaDataObjects.obj
 0001:00009df0       ?getPxSceneDescFrictionOffsetThreshold@@YAMPBVPxSceneDesc@physx@@@Z 1000adf0 f i PxAutoGeneratedMetaDataObjects.obj
 0001:00009e00       ?getPxSceneDescFrictionType@@YA?AW4Enum@PxFrictionType@physx@@PBVPxSceneDesc@3@@Z 1000ae00 f i PxAutoGeneratedMetaDataObjects.obj
 0001:00009e10       ?getPxSceneDescGpuComputeVersion@@YAIPBVPxSceneDesc@physx@@@Z 1000ae10 f i PxAutoGeneratedMetaDataObjects.obj
 0001:00009e20       ?getPxSceneDescGpuDispatcher@@YAPAVPxGpuDispatcher@physx@@PBVPxSceneDesc@2@@Z 1000ae20 f i PxAutoGeneratedMetaDataObjects.obj
 0001:00009e30       ?getPxSceneDescGpuDynamicsConfig@@YA?AUPxgDynamicsMemoryConfig@physx@@PBVPxSceneDesc@2@@Z 1000ae30 f i PxAutoGeneratedMetaDataObjects.obj
 0001:00009e50       ?getPxSceneDescGpuMaxNumPartitions@@YAIPBVPxSceneDesc@physx@@@Z 1000ae50 f i PxAutoGeneratedMetaDataObjects.obj
 0001:00009e60       ?getPxSceneDescGravity@@YA?AVPxVec3@physx@@PBVPxSceneDesc@2@@Z 1000ae60 f i PxAutoGeneratedMetaDataObjects.obj
 0001:00009e80       ?getPxSceneDescKineKineFilteringMode@@YA?AW4Enum@PxPairFilteringMode@physx@@PBVPxSceneDesc@3@@Z 1000ae80 f i PxAutoGeneratedMetaDataObjects.obj
 0001:00009e90       ?getPxSceneDescLimits@@YA?AVPxSceneLimits@physx@@PBVPxSceneDesc@2@@Z 1000ae90 f i PxAutoGeneratedMetaDataObjects.obj
 0001:00009eb0       ?getPxSceneDescMaxBiasCoefficient@@YAMPBVPxSceneDesc@physx@@@Z 1000aeb0 f i PxAutoGeneratedMetaDataObjects.obj
 0001:00009ec0       ?getPxSceneDescMaxNbContactDataBlocks@@YAIPBVPxSceneDesc@physx@@@Z 1000aec0 f i PxAutoGeneratedMetaDataObjects.obj
 0001:00009ed0       ?getPxSceneDescNbContactDataBlocks@@YAIPBVPxSceneDesc@physx@@@Z 1000aed0 f i PxAutoGeneratedMetaDataObjects.obj
 0001:00009ee0       ?getPxSceneDescSanityBounds@@YA?AVPxBounds3@physx@@PBVPxSceneDesc@2@@Z 1000aee0 f i PxAutoGeneratedMetaDataObjects.obj
 0001:00009f30       ?getPxSceneDescSceneQueryUpdateMode@@YA?AW4Enum@PxSceneQueryUpdateMode@physx@@PBVPxSceneDesc@3@@Z 1000af30 f i PxAutoGeneratedMetaDataObjects.obj
 0001:00009f40       ?getPxSceneDescSimulationEventCallback@@YAPAVPxSimulationEventCallback@physx@@PBVPxSceneDesc@2@@Z 1000af40 f i PxAutoGeneratedMetaDataObjects.obj
 0001:00009f50       ?getPxSceneDescSolverBatchSize@@YAIPBVPxSceneDesc@physx@@@Z 1000af50 f i PxAutoGeneratedMetaDataObjects.obj
 0001:00009f60       ?getPxSceneDescSolverOffsetSlop@@YAMPBVPxSceneDesc@physx@@@Z 1000af60 f i PxAutoGeneratedMetaDataObjects.obj
 0001:00009f70       ?getPxSceneDescSolverType@@YA?AW4Enum@PxSolverType@physx@@PBVPxSceneDesc@3@@Z 1000af70 f i PxAutoGeneratedMetaDataObjects.obj
 0001:00009f80       ?getPxSceneDescStaticKineFilteringMode@@YA?AW4Enum@PxPairFilteringMode@physx@@PBVPxSceneDesc@3@@Z 1000af80 f i PxAutoGeneratedMetaDataObjects.obj
 0001:00009f90       ?getPxSceneDescStaticStructure@@YA?AW4Enum@PxPruningStructureType@physx@@PBVPxSceneDesc@3@@Z 1000af90 f i PxAutoGeneratedMetaDataObjects.obj
 0001:00009fa0       ?getPxSceneDescUserData@@YAPAXPBVPxSceneDesc@physx@@@Z 1000afa0 f i PxAutoGeneratedMetaDataObjects.obj
 0001:00009fb0       ?getPxSceneDescWakeCounterResetValue@@YAMPBVPxSceneDesc@physx@@@Z 1000afb0 f i PxAutoGeneratedMetaDataObjects.obj
 0001:00009fc0       ?getPxSceneLimitsMaxNbActors@@YAIPBVPxSceneLimits@physx@@@Z 1000afc0 f i PxAutoGeneratedMetaDataObjects.obj
 0001:00009fd0       ?getPxSceneLimitsMaxNbAggregates@@YAIPBVPxSceneLimits@physx@@@Z 1000afd0 f i PxAutoGeneratedMetaDataObjects.obj
 0001:00009fe0       ?getPxSceneLimitsMaxNbBodies@@YAIPBVPxSceneLimits@physx@@@Z 1000afe0 f i PxAutoGeneratedMetaDataObjects.obj
 0001:00009ff0       ?getPxSceneLimitsMaxNbBroadPhaseOverlaps@@YAIPBVPxSceneLimits@physx@@@Z 1000aff0 f i PxAutoGeneratedMetaDataObjects.obj
 0001:0000a000       ?getPxSceneLimitsMaxNbConstraints@@YAIPBVPxSceneLimits@physx@@@Z 1000b000 f i PxAutoGeneratedMetaDataObjects.obj
 0001:0000a010       ?getPxSceneLimitsMaxNbDynamicShapes@@YAIPBVPxSceneLimits@physx@@@Z 1000b010 f i PxAutoGeneratedMetaDataObjects.obj
 0001:0000a020       ?getPxSceneLimitsMaxNbRegions@@YAIPBVPxSceneLimits@physx@@@Z 1000b020 f i PxAutoGeneratedMetaDataObjects.obj
 0001:0000a030       ?getPxSceneLimitsMaxNbStaticShapes@@YAIPBVPxSceneLimits@physx@@@Z 1000b030 f i PxAutoGeneratedMetaDataObjects.obj
 0001:0000a040       ?getPxSceneUserData@@YAPAXPBVPxScene@physx@@@Z 1000b040 f i PxAutoGeneratedMetaDataObjects.obj
 0001:0000a050       ?getPxShapeUserData@@YAPAXPBVPxShape@physx@@@Z 1000b050 f i PxAutoGeneratedMetaDataObjects.obj
 0001:0000a060       ?getPxSimulationStatisticsCompressedContactSize@@YAIPBVPxSimulationStatistics@physx@@@Z 1000b060 f i PxAutoGeneratedMetaDataObjects.obj
 0001:0000a070       ?getPxSimulationStatisticsNbActiveConstraints@@YAIPBVPxSimulationStatistics@physx@@@Z 1000b070 f i PxAutoGeneratedMetaDataObjects.obj
 0001:0000a080       ?getPxSimulationStatisticsNbActiveDynamicBodies@@YAIPBVPxSimulationStatistics@physx@@@Z 1000b080 f i PxAutoGeneratedMetaDataObjects.obj
 0001:0000a090       ?getPxSimulationStatisticsNbActiveKinematicBodies@@YAIPBVPxSimulationStatistics@physx@@@Z 1000b090 f i PxAutoGeneratedMetaDataObjects.obj
 0001:0000a0a0       ?getPxSimulationStatisticsNbAggregates@@YAIPBVPxSimulationStatistics@physx@@@Z 1000b0a0 f i PxAutoGeneratedMetaDataObjects.obj
 0001:0000a0b0       ?getPxSimulationStatisticsNbArticulations@@YAIPBVPxSimulationStatistics@physx@@@Z 1000b0b0 f i PxAutoGeneratedMetaDataObjects.obj
 0001:0000a0c0       ?getPxSimulationStatisticsNbAxisSolverConstraints@@YAIPBVPxSimulationStatistics@physx@@@Z 1000b0c0 f i PxAutoGeneratedMetaDataObjects.obj
 0001:0000a0d0       ?getPxSimulationStatisticsNbBroadPhaseAdds@@YAIPBVPxSimulationStatistics@physx@@@Z 1000b0d0 f i PxAutoGeneratedMetaDataObjects.obj
 0001:0000a0e0       ?getPxSimulationStatisticsNbBroadPhaseRemoves@@YAIPBVPxSimulationStatistics@physx@@@Z 1000b0e0 f i PxAutoGeneratedMetaDataObjects.obj
 0001:0000a0f0       ?getPxSimulationStatisticsNbDiscreteContactPairsTotal@@YAIPBVPxSimulationStatistics@physx@@@Z 1000b0f0 f i PxAutoGeneratedMetaDataObjects.obj
 0001:0000a100       ?getPxSimulationStatisticsNbDiscreteContactPairsWithCacheHits@@YAIPBVPxSimulationStatistics@physx@@@Z 1000b100 f i PxAutoGeneratedMetaDataObjects.obj
 0001:0000a110       ?getPxSimulationStatisticsNbDiscreteContactPairsWithContacts@@YAIPBVPxSimulationStatistics@physx@@@Z 1000b110 f i PxAutoGeneratedMetaDataObjects.obj
 0001:0000a120       ?getPxSimulationStatisticsNbDynamicBodies@@YAIPBVPxSimulationStatistics@physx@@@Z 1000b120 f i PxAutoGeneratedMetaDataObjects.obj
 0001:0000a130       ?getPxSimulationStatisticsNbLostPairs@@YAIPBVPxSimulationStatistics@physx@@@Z 1000b130 f i PxAutoGeneratedMetaDataObjects.obj
 0001:0000a140       ?getPxSimulationStatisticsNbLostTouches@@YAIPBVPxSimulationStatistics@physx@@@Z 1000b140 f i PxAutoGeneratedMetaDataObjects.obj
 0001:0000a150       ?getPxSimulationStatisticsNbNewPairs@@YAIPBVPxSimulationStatistics@physx@@@Z 1000b150 f i PxAutoGeneratedMetaDataObjects.obj
 0001:0000a160       ?getPxSimulationStatisticsNbNewTouches@@YAIPBVPxSimulationStatistics@physx@@@Z 1000b160 f i PxAutoGeneratedMetaDataObjects.obj
 0001:0000a170       ?getPxSimulationStatisticsNbPartitions@@YAIPBVPxSimulationStatistics@physx@@@Z 1000b170 f i PxAutoGeneratedMetaDataObjects.obj
 0001:0000a180       ?getPxSimulationStatisticsNbStaticBodies@@YAIPBVPxSimulationStatistics@physx@@@Z 1000b180 f i PxAutoGeneratedMetaDataObjects.obj
 0001:0000a190       ?getPxSimulationStatisticsPeakConstraintMemory@@YAIPBVPxSimulationStatistics@physx@@@Z 1000b190 f i PxAutoGeneratedMetaDataObjects.obj
 0001:0000a1a0       ?getPxSimulationStatisticsRequiredContactConstraintMemory@@YAIPBVPxSimulationStatistics@physx@@@Z 1000b1a0 f i PxAutoGeneratedMetaDataObjects.obj
 0001:0000a1b0       ?getPxSphereGeometryRadius@@YAMPBVPxSphereGeometry@physx@@@Z 1000b1b0 f i PxAutoGeneratedMetaDataObjects.obj
 0001:0000a1c0       ?getPxTolerancesScaleLength@@YAMPBVPxTolerancesScale@physx@@@Z 1000b1c0 f i PxAutoGeneratedMetaDataObjects.obj
 0001:0000a1d0       ?getPxTolerancesScaleSpeed@@YAMPBVPxTolerancesScale@physx@@@Z 1000b1d0 f i PxAutoGeneratedMetaDataObjects.obj
 0001:0000a1e0       ?getPxTriangleMeshGeometryMeshFlags@@YA?AV?$PxFlags@W4Enum@PxMeshGeometryFlag@physx@@E@physx@@PBVPxTriangleMeshGeometry@2@@Z 1000b1e0 f i PxAutoGeneratedMetaDataObjects.obj
 0001:0000a1f0       ?getPxTriangleMeshGeometryScale@@YA?AVPxMeshScale@physx@@PBVPxTriangleMeshGeometry@2@@Z 1000b1f0 f i PxAutoGeneratedMetaDataObjects.obj
 0001:0000a230       ?getPxTriangleMeshGeometryTriangleMesh@@YAPAVPxTriangleMesh@physx@@PBVPxTriangleMeshGeometry@2@@Z 1000b230 f i PxAutoGeneratedMetaDataObjects.obj
 0001:0000a240       ?getPxgDynamicsMemoryConfigConstraintBufferCapacity@@YAIPBUPxgDynamicsMemoryConfig@physx@@@Z 1000b240 f i PxAutoGeneratedMetaDataObjects.obj
 0001:0000a250       ?getPxgDynamicsMemoryConfigContactBufferCapacity@@YAIPBUPxgDynamicsMemoryConfig@physx@@@Z 1000b250 f i PxAutoGeneratedMetaDataObjects.obj
 0001:0000a260       ?getPxgDynamicsMemoryConfigContactStreamSize@@YAIPBUPxgDynamicsMemoryConfig@physx@@@Z 1000b260 f i PxAutoGeneratedMetaDataObjects.obj
 0001:0000a270       ?getPxgDynamicsMemoryConfigForceStreamCapacity@@YAIPBUPxgDynamicsMemoryConfig@physx@@@Z 1000b270 f i PxAutoGeneratedMetaDataObjects.obj
 0001:0000a280       ?getPxgDynamicsMemoryConfigFoundLostPairsCapacity@@YAIPBUPxgDynamicsMemoryConfig@physx@@@Z 1000b280 f i PxAutoGeneratedMetaDataObjects.obj
 0001:0000a290       ?getPxgDynamicsMemoryConfigHeapCapacity@@YAIPBUPxgDynamicsMemoryConfig@physx@@@Z 1000b290 f i PxAutoGeneratedMetaDataObjects.obj
 0001:0000a2a0       ?getPxgDynamicsMemoryConfigPatchStreamSize@@YAIPBUPxgDynamicsMemoryConfig@physx@@@Z 1000b2a0 f i PxAutoGeneratedMetaDataObjects.obj
 0001:0000a2b0       ?getPxgDynamicsMemoryConfigTempBufferCapacity@@YAIPBUPxgDynamicsMemoryConfig@physx@@@Z 1000b2b0 f i PxAutoGeneratedMetaDataObjects.obj
 0001:0000a2c0       ?setPxActorUserData@@YAXPAVPxActor@physx@@PAX@Z 1000b2c0 f i PxAutoGeneratedMetaDataObjects.obj
 0001:0000a2d0       ?setPxArticulationBaseUserData@@YAXPAVPxArticulationBase@physx@@PAX@Z 1000b2d0 f i PxAutoGeneratedMetaDataObjects.obj
 0001:0000a2e0       ?setPxBoxGeometryHalfExtents@@YAXPAVPxBoxGeometry@physx@@VPxVec3@2@@Z 1000b2e0 f i PxAutoGeneratedMetaDataObjects.obj
 0001:0000a310       ?setPxCapsuleGeometryHalfHeight@@YAXPAVPxCapsuleGeometry@physx@@M@Z 1000b310 f i PxAutoGeneratedMetaDataObjects.obj
 0001:0000a320       ?setPxCapsuleGeometryRadius@@YAXPAVPxCapsuleGeometry@physx@@M@Z 1000b320 f i PxAutoGeneratedMetaDataObjects.obj
 0001:0000a330       ?setPxConvexMeshGeometryConvexMesh@@YAXPAVPxConvexMeshGeometry@physx@@PAVPxConvexMesh@2@@Z 1000b330 f i PxAutoGeneratedMetaDataObjects.obj
 0001:0000a340       ?setPxConvexMeshGeometryMeshFlags@@YAXPAVPxConvexMeshGeometry@physx@@V?$PxFlags@W4Enum@PxConvexMeshGeometryFlag@physx@@E@2@@Z 1000b340 f i PxAutoGeneratedMetaDataObjects.obj
 0001:0000a350       ?setPxConvexMeshGeometryScale@@YAXPAVPxConvexMeshGeometry@physx@@VPxMeshScale@2@@Z 1000b350 f i PxAutoGeneratedMetaDataObjects.obj
 0001:0000a380       ?setPxHeightFieldDescConvexEdgeThreshold@@YAXPAVPxHeightFieldDesc@physx@@M@Z 1000b380 f i PxAutoGeneratedMetaDataObjects.obj
 0001:0000a390       ?setPxHeightFieldDescFlags@@YAXPAVPxHeightFieldDesc@physx@@V?$PxFlags@W4Enum@PxHeightFieldFlag@physx@@G@2@@Z 1000b390 f i PxAutoGeneratedMetaDataObjects.obj
 0001:0000a3a0       ?setPxHeightFieldDescFormat@@YAXPAVPxHeightFieldDesc@physx@@W4Enum@PxHeightFieldFormat@2@@Z 1000b3a0 f i PxAutoGeneratedMetaDataObjects.obj
 0001:0000a3b0       ?setPxHeightFieldDescNbColumns@@YAXPAVPxHeightFieldDesc@physx@@I@Z 1000b3b0 f i PxAutoGeneratedMetaDataObjects.obj
 0001:0000a3c0       ?setPxHeightFieldDescNbRows@@YAXPAVPxHeightFieldDesc@physx@@I@Z 1000b3c0 f i PxAutoGeneratedMetaDataObjects.obj
 0001:0000a3d0       ?setPxHeightFieldDescSamples@@YAXPAVPxHeightFieldDesc@physx@@UPxStridedData@2@@Z 1000b3d0 f i PxAutoGeneratedMetaDataObjects.obj
 0001:0000a3f0       ?setPxHeightFieldGeometryColumnScale@@YAXPAVPxHeightFieldGeometry@physx@@M@Z 1000b3f0 f i PxAutoGeneratedMetaDataObjects.obj
 0001:0000a400       ?setPxHeightFieldGeometryHeightField@@YAXPAVPxHeightFieldGeometry@physx@@PAVPxHeightField@2@@Z 1000b400 f i PxAutoGeneratedMetaDataObjects.obj
 0001:0000a410       ?setPxHeightFieldGeometryHeightFieldFlags@@YAXPAVPxHeightFieldGeometry@physx@@V?$PxFlags@W4Enum@PxMeshGeometryFlag@physx@@E@2@@Z 1000b410 f i PxAutoGeneratedMetaDataObjects.obj
 0001:0000a420       ?setPxHeightFieldGeometryHeightScale@@YAXPAVPxHeightFieldGeometry@physx@@M@Z 1000b420 f i PxAutoGeneratedMetaDataObjects.obj
 0001:0000a430       ?setPxHeightFieldGeometryRowScale@@YAXPAVPxHeightFieldGeometry@physx@@M@Z 1000b430 f i PxAutoGeneratedMetaDataObjects.obj
 0001:0000a440       ?setPxMaterialUserData@@YAXPAVPxMaterial@physx@@PAX@Z 1000b440 f i PxAutoGeneratedMetaDataObjects.obj
 0001:0000a450       ?setPxMeshScaleRotation@@YAXPAVPxMeshScale@physx@@VPxQuat@2@@Z 1000b450 f i PxAutoGeneratedMetaDataObjects.obj
 0001:0000a460       ?setPxMeshScaleScale@@YAXPAVPxMeshScale@physx@@VPxVec3@2@@Z 1000b460 f i PxAutoGeneratedMetaDataObjects.obj
 0001:0000a490       ?setPxSceneDescBounceThresholdVelocity@@YAXPAVPxSceneDesc@physx@@M@Z 1000b490 f i PxAutoGeneratedMetaDataObjects.obj
 0001:0000a4a0       ?setPxSceneDescBroadPhaseCallback@@YAXPAVPxSceneDesc@physx@@PAVPxBroadPhaseCallback@2@@Z 1000b4a0 f i PxAutoGeneratedMetaDataObjects.obj
 0001:0000a4b0       ?setPxSceneDescBroadPhaseType@@YAXPAVPxSceneDesc@physx@@W4Enum@PxBroadPhaseType@2@@Z 1000b4b0 f i PxAutoGeneratedMetaDataObjects.obj
 0001:0000a4c0       ?setPxSceneDescCcdContactModifyCallback@@YAXPAVPxSceneDesc@physx@@PAVPxCCDContactModifyCallback@2@@Z 1000b4c0 f i PxAutoGeneratedMetaDataObjects.obj
 0001:0000a4d0       ?setPxSceneDescCcdMaxPasses@@YAXPAVPxSceneDesc@physx@@I@Z 1000b4d0 f i PxAutoGeneratedMetaDataObjects.obj
 0001:0000a4e0       ?setPxSceneDescCcdMaxSeparation@@YAXPAVPxSceneDesc@physx@@M@Z 1000b4e0 f i PxAutoGeneratedMetaDataObjects.obj
 0001:0000a4f0       ?setPxSceneDescCcdThreshold@@YAXPAVPxSceneDesc@physx@@M@Z 1000b4f0 f i PxAutoGeneratedMetaDataObjects.obj
 0001:0000a510       ?setPxSceneDescContactModifyCallback@@YAXPAVPxSceneDesc@physx@@PAVPxContactModifyCallback@2@@Z 1000b510 f i PxAutoGeneratedMetaDataObjects.obj
 0001:0000a520       ?setPxSceneDescContactReportStreamBufferSize@@YAXPAVPxSceneDesc@physx@@I@Z 1000b520 f i PxAutoGeneratedMetaDataObjects.obj
 0001:0000a530       ?setPxSceneDescCpuDispatcher@@YAXPAVPxSceneDesc@physx@@PAVPxCpuDispatcher@2@@Z 1000b530 f i PxAutoGeneratedMetaDataObjects.obj
 0001:0000a540       ?setPxSceneDescDynamicStructure@@YAXPAVPxSceneDesc@physx@@W4Enum@PxPruningStructureType@2@@Z 1000b540 f i PxAutoGeneratedMetaDataObjects.obj
 0001:0000a550       ?setPxSceneDescDynamicTreeRebuildRateHint@@YAXPAVPxSceneDesc@physx@@I@Z 1000b550 f i PxAutoGeneratedMetaDataObjects.obj
 0001:0000a560       ?setPxSceneDescFilterCallback@@YAXPAVPxSceneDesc@physx@@PAVPxSimulationFilterCallback@2@@Z 1000b560 f i PxAutoGeneratedMetaDataObjects.obj
 0001:0000a570       ?setPxSceneDescFilterShader@@YAXPAVPxSceneDesc@physx@@P6A?AV?$PxFlags@W4Enum@PxFilterFlag@physx@@G@2@IUPxFilterData@2@I1AAV?$PxFlags@W4Enum@PxPairFlag@physx@@G@2@PBXI@Z@Z 1000b570 f i PxAutoGeneratedMetaDataObjects.obj
 0001:0000a580       ?setPxSceneDescFilterShaderData@@YAXPAVPxSceneDesc@physx@@PBX@Z 1000b580 f i PxAutoGeneratedMetaDataObjects.obj
 0001:0000a590       ?setPxSceneDescFilterShaderDataSize@@YAXPAVPxSceneDesc@physx@@I@Z 1000b590 f i PxAutoGeneratedMetaDataObjects.obj
 0001:0000a5a0       ?setPxSceneDescFlags@@YAXPAVPxSceneDesc@physx@@V?$PxFlags@W4Enum@PxSceneFlag@physx@@I@2@@Z 1000b5a0 f i PxAutoGeneratedMetaDataObjects.obj
 0001:0000a5b0       ?setPxSceneDescFrictionOffsetThreshold@@YAXPAVPxSceneDesc@physx@@M@Z 1000b5b0 f i PxAutoGeneratedMetaDataObjects.obj
 0001:0000a5c0       ?setPxSceneDescFrictionType@@YAXPAVPxSceneDesc@physx@@W4Enum@PxFrictionType@2@@Z 1000b5c0 f i PxAutoGeneratedMetaDataObjects.obj
 0001:0000a5d0       ?setPxSceneDescGpuComputeVersion@@YAXPAVPxSceneDesc@physx@@I@Z 1000b5d0 f i PxAutoGeneratedMetaDataObjects.obj
 0001:0000a5e0       ?setPxSceneDescGpuDispatcher@@YAXPAVPxSceneDesc@physx@@PAVPxGpuDispatcher@2@@Z 1000b5e0 f i PxAutoGeneratedMetaDataObjects.obj
 0001:0000a5f0       ?setPxSceneDescGpuDynamicsConfig@@YAXPAVPxSceneDesc@physx@@UPxgDynamicsMemoryConfig@2@@Z 1000b5f0 f i PxAutoGeneratedMetaDataObjects.obj
 0001:0000a610       ?setPxSceneDescGpuMaxNumPartitions@@YAXPAVPxSceneDesc@physx@@I@Z 1000b610 f i PxAutoGeneratedMetaDataObjects.obj
 0001:0000a620       ?setPxSceneDescGravity@@YAXPAVPxSceneDesc@physx@@VPxVec3@2@@Z 1000b620 f i PxAutoGeneratedMetaDataObjects.obj
 0001:0000a650       ?setPxSceneDescKineKineFilteringMode@@YAXPAVPxSceneDesc@physx@@W4Enum@PxPairFilteringMode@2@@Z 1000b650 f i PxAutoGeneratedMetaDataObjects.obj
 0001:0000a660       ?setPxSceneDescLimits@@YAXPAVPxSceneDesc@physx@@VPxSceneLimits@2@@Z 1000b660 f i PxAutoGeneratedMetaDataObjects.obj
 0001:0000a680       ?setPxSceneDescMaxBiasCoefficient@@YAXPAVPxSceneDesc@physx@@M@Z 1000b680 f i PxAutoGeneratedMetaDataObjects.obj
 0001:0000a6a0       ?setPxSceneDescMaxNbContactDataBlocks@@YAXPAVPxSceneDesc@physx@@I@Z 1000b6a0 f i PxAutoGeneratedMetaDataObjects.obj
 0001:0000a6b0       ?setPxSceneDescNbContactDataBlocks@@YAXPAVPxSceneDesc@physx@@I@Z 1000b6b0 f i PxAutoGeneratedMetaDataObjects.obj
 0001:0000a6c0       ?setPxSceneDescSanityBounds@@YAXPAVPxSceneDesc@physx@@VPxBounds3@2@@Z 1000b6c0 f i PxAutoGeneratedMetaDataObjects.obj
 0001:0000a6f0       ?setPxSceneDescSceneQueryUpdateMode@@YAXPAVPxSceneDesc@physx@@W4Enum@PxSceneQueryUpdateMode@2@@Z 1000b6f0 f i PxAutoGeneratedMetaDataObjects.obj
 0001:0000a700       ?setPxSceneDescSimulationEventCallback@@YAXPAVPxSceneDesc@physx@@PAVPxSimulationEventCallback@2@@Z 1000b700 f i PxAutoGeneratedMetaDataObjects.obj
 0001:0000a710       ?setPxSceneDescSolverBatchSize@@YAXPAVPxSceneDesc@physx@@I@Z 1000b710 f i PxAutoGeneratedMetaDataObjects.obj
 0001:0000a720       ?setPxSceneDescSolverOffsetSlop@@YAXPAVPxSceneDesc@physx@@M@Z 1000b720 f i PxAutoGeneratedMetaDataObjects.obj
 0001:0000a730       ?setPxSceneDescSolverType@@YAXPAVPxSceneDesc@physx@@W4Enum@PxSolverType@2@@Z 1000b730 f i PxAutoGeneratedMetaDataObjects.obj
 0001:0000a740       ?setPxSceneDescStaticKineFilteringMode@@YAXPAVPxSceneDesc@physx@@W4Enum@PxPairFilteringMode@2@@Z 1000b740 f i PxAutoGeneratedMetaDataObjects.obj
 0001:0000a750       ?setPxSceneDescStaticStructure@@YAXPAVPxSceneDesc@physx@@W4Enum@PxPruningStructureType@2@@Z 1000b750 f i PxAutoGeneratedMetaDataObjects.obj
 0001:0000a760       ?setPxSceneDescUserData@@YAXPAVPxSceneDesc@physx@@PAX@Z 1000b760 f i PxAutoGeneratedMetaDataObjects.obj
 0001:0000a770       ?setPxSceneDescWakeCounterResetValue@@YAXPAVPxSceneDesc@physx@@M@Z 1000b770 f i PxAutoGeneratedMetaDataObjects.obj
 0001:0000a790       ?setPxSceneLimitsMaxNbActors@@YAXPAVPxSceneLimits@physx@@I@Z 1000b790 f i PxAutoGeneratedMetaDataObjects.obj
 0001:0000a7a0       ?setPxSceneLimitsMaxNbAggregates@@YAXPAVPxSceneLimits@physx@@I@Z 1000b7a0 f i PxAutoGeneratedMetaDataObjects.obj
 0001:0000a7b0       ?setPxSceneLimitsMaxNbBodies@@YAXPAVPxSceneLimits@physx@@I@Z 1000b7b0 f i PxAutoGeneratedMetaDataObjects.obj
 0001:0000a7c0       ?setPxSceneLimitsMaxNbBroadPhaseOverlaps@@YAXPAVPxSceneLimits@physx@@I@Z 1000b7c0 f i PxAutoGeneratedMetaDataObjects.obj
 0001:0000a7d0       ?setPxSceneLimitsMaxNbConstraints@@YAXPAVPxSceneLimits@physx@@I@Z 1000b7d0 f i PxAutoGeneratedMetaDataObjects.obj
 0001:0000a7e0       ?setPxSceneLimitsMaxNbDynamicShapes@@YAXPAVPxSceneLimits@physx@@I@Z 1000b7e0 f i PxAutoGeneratedMetaDataObjects.obj
 0001:0000a7f0       ?setPxSceneLimitsMaxNbRegions@@YAXPAVPxSceneLimits@physx@@I@Z 1000b7f0 f i PxAutoGeneratedMetaDataObjects.obj
 0001:0000a800       ?setPxSceneLimitsMaxNbStaticShapes@@YAXPAVPxSceneLimits@physx@@I@Z 1000b800 f i PxAutoGeneratedMetaDataObjects.obj
 0001:0000a810       ?setPxSceneUserData@@YAXPAVPxScene@physx@@PAX@Z 1000b810 f i PxAutoGeneratedMetaDataObjects.obj
 0001:0000a820       ?setPxShapeUserData@@YAXPAVPxShape@physx@@PAX@Z 1000b820 f i PxAutoGeneratedMetaDataObjects.obj
 0001:0000a830       ?setPxSimulationStatisticsCompressedContactSize@@YAXPAVPxSimulationStatistics@physx@@I@Z 1000b830 f i PxAutoGeneratedMetaDataObjects.obj
 0001:0000a840       ?setPxSimulationStatisticsNbActiveConstraints@@YAXPAVPxSimulationStatistics@physx@@I@Z 1000b840 f i PxAutoGeneratedMetaDataObjects.obj
 0001:0000a850       ?setPxSimulationStatisticsNbActiveDynamicBodies@@YAXPAVPxSimulationStatistics@physx@@I@Z 1000b850 f i PxAutoGeneratedMetaDataObjects.obj
 0001:0000a860       ?setPxSimulationStatisticsNbActiveKinematicBodies@@YAXPAVPxSimulationStatistics@physx@@I@Z 1000b860 f i PxAutoGeneratedMetaDataObjects.obj
 0001:0000a870       ?setPxSimulationStatisticsNbAggregates@@YAXPAVPxSimulationStatistics@physx@@I@Z 1000b870 f i PxAutoGeneratedMetaDataObjects.obj
 0001:0000a880       ?setPxSimulationStatisticsNbArticulations@@YAXPAVPxSimulationStatistics@physx@@I@Z 1000b880 f i PxAutoGeneratedMetaDataObjects.obj
 0001:0000a890       ?setPxSimulationStatisticsNbAxisSolverConstraints@@YAXPAVPxSimulationStatistics@physx@@I@Z 1000b890 f i PxAutoGeneratedMetaDataObjects.obj
 0001:0000a8a0       ?setPxSimulationStatisticsNbBroadPhaseAdds@@YAXPAVPxSimulationStatistics@physx@@I@Z 1000b8a0 f i PxAutoGeneratedMetaDataObjects.obj
 0001:0000a8b0       ?setPxSimulationStatisticsNbBroadPhaseRemoves@@YAXPAVPxSimulationStatistics@physx@@I@Z 1000b8b0 f i PxAutoGeneratedMetaDataObjects.obj
 0001:0000a8c0       ?setPxSimulationStatisticsNbDiscreteContactPairsTotal@@YAXPAVPxSimulationStatistics@physx@@I@Z 1000b8c0 f i PxAutoGeneratedMetaDataObjects.obj
 0001:0000a8d0       ?setPxSimulationStatisticsNbDiscreteContactPairsWithCacheHits@@YAXPAVPxSimulationStatistics@physx@@I@Z 1000b8d0 f i PxAutoGeneratedMetaDataObjects.obj
 0001:0000a8e0       ?setPxSimulationStatisticsNbDiscreteContactPairsWithContacts@@YAXPAVPxSimulationStatistics@physx@@I@Z 1000b8e0 f i PxAutoGeneratedMetaDataObjects.obj
 0001:0000a8f0       ?setPxSimulationStatisticsNbDynamicBodies@@YAXPAVPxSimulationStatistics@physx@@I@Z 1000b8f0 f i PxAutoGeneratedMetaDataObjects.obj
 0001:0000a900       ?setPxSimulationStatisticsNbLostPairs@@YAXPAVPxSimulationStatistics@physx@@I@Z 1000b900 f i PxAutoGeneratedMetaDataObjects.obj
 0001:0000a910       ?setPxSimulationStatisticsNbLostTouches@@YAXPAVPxSimulationStatistics@physx@@I@Z 1000b910 f i PxAutoGeneratedMetaDataObjects.obj
 0001:0000a920       ?setPxSimulationStatisticsNbNewPairs@@YAXPAVPxSimulationStatistics@physx@@I@Z 1000b920 f i PxAutoGeneratedMetaDataObjects.obj
 0001:0000a930       ?setPxSimulationStatisticsNbNewTouches@@YAXPAVPxSimulationStatistics@physx@@I@Z 1000b930 f i PxAutoGeneratedMetaDataObjects.obj
 0001:0000a940       ?setPxSimulationStatisticsNbPartitions@@YAXPAVPxSimulationStatistics@physx@@I@Z 1000b940 f i PxAutoGeneratedMetaDataObjects.obj
 0001:0000a950       ?setPxSimulationStatisticsNbStaticBodies@@YAXPAVPxSimulationStatistics@physx@@I@Z 1000b950 f i PxAutoGeneratedMetaDataObjects.obj
 0001:0000a960       ?setPxSimulationStatisticsPeakConstraintMemory@@YAXPAVPxSimulationStatistics@physx@@I@Z 1000b960 f i PxAutoGeneratedMetaDataObjects.obj
 0001:0000a970       ?setPxSimulationStatisticsRequiredContactConstraintMemory@@YAXPAVPxSimulationStatistics@physx@@I@Z 1000b970 f i PxAutoGeneratedMetaDataObjects.obj
 0001:0000a980       ?setPxSphereGeometryRadius@@YAXPAVPxSphereGeometry@physx@@M@Z 1000b980 f i PxAutoGeneratedMetaDataObjects.obj
 0001:0000a990       ?setPxTolerancesScaleLength@@YAXPAVPxTolerancesScale@physx@@M@Z 1000b990 f i PxAutoGeneratedMetaDataObjects.obj
 0001:0000a9a0       ?setPxTolerancesScaleSpeed@@YAXPAVPxTolerancesScale@physx@@M@Z 1000b9a0 f i PxAutoGeneratedMetaDataObjects.obj
 0001:0000a9b0       ?setPxTriangleMeshGeometryMeshFlags@@YAXPAVPxTriangleMeshGeometry@physx@@V?$PxFlags@W4Enum@PxMeshGeometryFlag@physx@@E@2@@Z 1000b9b0 f i PxAutoGeneratedMetaDataObjects.obj
 0001:0000a9c0       ?setPxTriangleMeshGeometryScale@@YAXPAVPxTriangleMeshGeometry@physx@@VPxMeshScale@2@@Z 1000b9c0 f i PxAutoGeneratedMetaDataObjects.obj
 0001:0000a9f0       ?setPxTriangleMeshGeometryTriangleMesh@@YAXPAVPxTriangleMeshGeometry@physx@@PAVPxTriangleMesh@2@@Z 1000b9f0 f i PxAutoGeneratedMetaDataObjects.obj
 0001:0000aa00       ?setPxgDynamicsMemoryConfigConstraintBufferCapacity@@YAXPAUPxgDynamicsMemoryConfig@physx@@I@Z 1000ba00 f i PxAutoGeneratedMetaDataObjects.obj
 0001:0000aa10       ?setPxgDynamicsMemoryConfigContactBufferCapacity@@YAXPAUPxgDynamicsMemoryConfig@physx@@I@Z 1000ba10 f i PxAutoGeneratedMetaDataObjects.obj
 0001:0000aa20       ?setPxgDynamicsMemoryConfigContactStreamSize@@YAXPAUPxgDynamicsMemoryConfig@physx@@I@Z 1000ba20 f i PxAutoGeneratedMetaDataObjects.obj
 0001:0000aa30       ?setPxgDynamicsMemoryConfigForceStreamCapacity@@YAXPAUPxgDynamicsMemoryConfig@physx@@I@Z 1000ba30 f i PxAutoGeneratedMetaDataObjects.obj
 0001:0000aa40       ?setPxgDynamicsMemoryConfigFoundLostPairsCapacity@@YAXPAUPxgDynamicsMemoryConfig@physx@@I@Z 1000ba40 f i PxAutoGeneratedMetaDataObjects.obj
 0001:0000aa50       ?setPxgDynamicsMemoryConfigHeapCapacity@@YAXPAUPxgDynamicsMemoryConfig@physx@@I@Z 1000ba50 f i PxAutoGeneratedMetaDataObjects.obj
 0001:0000aa60       ?setPxgDynamicsMemoryConfigPatchStreamSize@@YAXPAUPxgDynamicsMemoryConfig@physx@@I@Z 1000ba60 f i PxAutoGeneratedMetaDataObjects.obj
 0001:0000aa70       ?setPxgDynamicsMemoryConfigTempBufferCapacity@@YAXPAUPxgDynamicsMemoryConfig@physx@@I@Z 1000ba70 f i PxAutoGeneratedMetaDataObjects.obj
 0001:0000aa80       ?getGeometryType@PxShapeGeometryPropertyHelper@physx@@QBE?AW4Enum@PxGeometryType@2@PBVPxShape@2@@Z 1000ba80 f   PxMetaDataObjects.obj
 0001:0000aa90       ?getGeometry@PxShapeGeometryPropertyHelper@physx@@QBE_NPBVPxShape@2@AAVPxBoxGeometry@2@@Z 1000ba90 f   PxMetaDataObjects.obj
 0001:0000aab0       ?getGeometry@PxShapeGeometryPropertyHelper@physx@@QBE_NPBVPxShape@2@AAVPxSphereGeometry@2@@Z 1000bab0 f   PxMetaDataObjects.obj
 0001:0000aad0       ?getGeometry@PxShapeGeometryPropertyHelper@physx@@QBE_NPBVPxShape@2@AAVPxCapsuleGeometry@2@@Z 1000bad0 f   PxMetaDataObjects.obj
 0001:0000aaf0       ?getGeometry@PxShapeGeometryPropertyHelper@physx@@QBE_NPBVPxShape@2@AAVPxPlaneGeometry@2@@Z 1000baf0 f   PxMetaDataObjects.obj
 0001:0000ab10       ?getGeometry@PxShapeGeometryPropertyHelper@physx@@QBE_NPBVPxShape@2@AAVPxConvexMeshGeometry@2@@Z 1000bb10 f   PxMetaDataObjects.obj
 0001:0000ab30       ?getGeometry@PxShapeGeometryPropertyHelper@physx@@QBE_NPBVPxShape@2@AAVPxTriangleMeshGeometry@2@@Z 1000bb30 f   PxMetaDataObjects.obj
 0001:0000ab50       ?getGeometry@PxShapeGeometryPropertyHelper@physx@@QBE_NPBVPxShape@2@AAVPxHeightFieldGeometry@2@@Z 1000bb50 f   PxMetaDataObjects.obj
 0001:0000ab70       ?setMaterials@PxShapeMaterialsPropertyHelper@physx@@QBEXPAVPxShape@2@PBQAVPxMaterial@2@G@Z 1000bb70 f   PxMetaDataObjects.obj
 0001:0000ab90       ?createShape@PxRigidActorShapeCollectionHelper@physx@@QBEPAVPxShape@2@PAVPxRigidActor@2@ABVPxGeometry@2@AAVPxMaterial@2@V?$PxFlags@W4Enum@PxShapeFlag@physx@@E@2@@Z 1000bb90 f   PxMetaDataObjects.obj
 0001:0000abe0       ?createShape@PxRigidActorShapeCollectionHelper@physx@@QBEPAVPxShape@2@PAVPxRigidActor@2@ABVPxGeometry@2@PBQAVPxMaterial@2@GV?$PxFlags@W4Enum@PxShapeFlag@physx@@E@2@@Z 1000bbe0 f   PxMetaDataObjects.obj
 0001:0000ac20       ?createLink@PxArticulationLinkCollectionPropHelper@physx@@QBEPAVPxArticulationLink@2@PAVPxArticulation@2@PAV32@ABVPxTransform@2@@Z 1000bc20 f   PxMetaDataObjects.obj
 0001:0000ac40       ??0NbShapesProperty@physx@@QAE@XZ 1000bc40 f   PxMetaDataObjects.obj
 0001:0000ac60       ??0NbDiscreteContactPairsProperty@physx@@QAE@XZ 1000bc60 f   PxMetaDataObjects.obj
 0001:0000ac80       ??0NbModifiedContactPairsProperty@physx@@QAE@XZ 1000bc80 f   PxMetaDataObjects.obj
 0001:0000aca0       ??0NbCCDPairsProperty@physx@@QAE@XZ 1000bca0 f   PxMetaDataObjects.obj
 0001:0000acc0       ??0NbTriggerPairsProperty@physx@@QAE@XZ 1000bcc0 f   PxMetaDataObjects.obj
 0001:0000ace0       ??0SimulationStatisticsProperty@physx@@QAE@XZ 1000bce0 f   PxMetaDataObjects.obj
 0001:0000ad00       ??0Allocator@shdfnd@physx@@QAE@PBD@Z 1000bd00 f i PxMetaDataObjects.obj
 0001:0000ad10       ??0PxFoundation@physx@@QAE@ABV01@@Z 1000bd10 f i PxMetaDataObjects.obj
 0001:0000ad20       ??0PxFoundation@physx@@QAE@XZ 1000bd20 f i PxMetaDataObjects.obj
 0001:0000ad30       ??1PxFoundation@physx@@MAE@XZ 1000bd30 f i PxMetaDataObjects.obj
 0001:0000ad40       ??4Allocator@shdfnd@physx@@QAEAAV012@$$QAV012@@Z 1000bd40 f i PxMetaDataObjects.obj
 0001:0000ad50       ??4Allocator@shdfnd@physx@@QAEAAV012@ABV012@@Z 1000bd50 f i PxMetaDataObjects.obj
 0001:0000ad60       ??4MutexImpl@shdfnd@physx@@QAEAAV012@ABV012@@Z 1000bd60 f i PxMetaDataObjects.obj
 0001:0000ad70       ??4PxFoundation@physx@@QAEAAV01@ABV01@@Z 1000bd70 f i PxMetaDataObjects.obj
 0001:0000ad80       ??_EPxFoundation@physx@@MAEPAXI@Z 1000bd80 f i PxMetaDataObjects.obj
 0001:0000adf0       ??_FAllocator@shdfnd@physx@@QAEXXZ 1000bdf0 f i PxMetaDataObjects.obj
 0001:0000ae00       ??_GPxFoundation@physx@@MAEPAXI@Z 1000be00 f i PxMetaDataObjects.obj
 0001:0000ae30       ??_I@YGXPAXIIP6EX0@Z@Z     1000be30 f i PxMetaDataObjects.obj
 0001:0000ae70       ?GetNbCCDPairs@@YAIPBVPxSimulationStatistics@physx@@W4Enum@PxGeometryType@2@1@Z 1000be70 f i PxMetaDataObjects.obj
 0001:0000ae90       ?GetNbDiscreteContactPairs@@YAIPBVPxSimulationStatistics@physx@@W4Enum@PxGeometryType@2@1@Z 1000be90 f i PxMetaDataObjects.obj
 0001:0000aeb0       ?GetNbModifiedContactPairs@@YAIPBVPxSimulationStatistics@physx@@W4Enum@PxGeometryType@2@1@Z 1000beb0 f i PxMetaDataObjects.obj
 0001:0000aed0       ?GetNbShape@@YAIPBVPxSimulationStatistics@physx@@W4Enum@PxGeometryType@2@@Z 1000bed0 f i PxMetaDataObjects.obj
 0001:0000aee0       ?GetNbTriggerPairs@@YAIPBVPxSimulationStatistics@physx@@W4Enum@PxGeometryType@2@1@Z 1000bee0 f i PxMetaDataObjects.obj
 0001:0000af00       ?GetStats@@YA?AVPxSimulationStatistics@physx@@PBVPxScene@2@@Z 1000bf00 f i PxMetaDataObjects.obj
 0001:0000b020       ?SetNbCCDPairs@@YAXPAVPxSimulationStatistics@physx@@W4Enum@PxGeometryType@2@1I@Z 1000c020 f i PxMetaDataObjects.obj
 0001:0000b040       ?SetNbDiscreteContactPairs@@YAXPAVPxSimulationStatistics@physx@@W4Enum@PxGeometryType@2@1I@Z 1000c040 f i PxMetaDataObjects.obj
 0001:0000b060       ?SetNbModifiedContactPairs@@YAXPAVPxSimulationStatistics@physx@@W4Enum@PxGeometryType@2@1I@Z 1000c060 f i PxMetaDataObjects.obj
 0001:0000b080       ?SetNbShape@@YAXPAVPxSimulationStatistics@physx@@W4Enum@PxGeometryType@2@I@Z 1000c080 f i PxMetaDataObjects.obj
 0001:0000b0a0       ?SetNbTriggerPairs@@YAXPAVPxSimulationStatistics@physx@@W4Enum@PxGeometryType@2@1I@Z 1000c0a0 f i PxMetaDataObjects.obj
 0001:0000b0c0       ?__empty_global_delete@@YAXPAX@Z 1000c0c0 f i PxMetaDataObjects.obj
 0001:0000b0d0       ?__global_array_delete@@YAXPAXI@Z 1000c0d0 f i PxMetaDataObjects.obj
 0001:0000b0d0       ?__global_delete@@YAXPAXI@Z 1000c0d0 f i PxMetaDataObjects.obj
 0001:0000b0d0       ?__empty_global_delete@@YAXPAXI@Z 1000c0d0 f i PxMetaDataObjects.obj
 0001:0000b0e0       ?getAllocator@Foundation@shdfnd@physx@@QAEAAVPxAllocatorCallback@3@XZ 1000c0e0 f i PxMetaDataObjects.obj
 0001:0000b0f0       ?getAllocatorCallback@Foundation@shdfnd@physx@@UAEAAVPxAllocatorCallback@3@XZ 1000c0f0 f i PxMetaDataObjects.obj
 0001:0000b100       ?getErrorCallback@Foundation@shdfnd@physx@@UAEAAVPxErrorCallback@3@XZ 1000c100 f i PxMetaDataObjects.obj
 0001:0000b110       ?getErrorLevel@Foundation@shdfnd@physx@@UBE?AW4Enum@PxErrorCode@3@XZ 1000c110 f i PxMetaDataObjects.obj
 0001:0000b120       ?getInternalErrorCallback@Foundation@shdfnd@physx@@QAEAAVPxErrorCallback@3@XZ 1000c120 f i PxMetaDataObjects.obj
 0001:0000b130       ?getNamedAllocMap@Foundation@shdfnd@physx@@QAEAAV?$HashMap@PBVNamedAllocator@shdfnd@physx@@PBDU?$Hash@PBVNamedAllocator@shdfnd@physx@@@23@VNonTrackingAllocator@23@@23@XZ 1000c130 f i PxMetaDataObjects.obj
 0001:0000b140       ?getNamedAllocMutex@Foundation@shdfnd@physx@@QAEAAV?$MutexT@VAllocator@shdfnd@physx@@@23@XZ 1000c140 f i PxMetaDataObjects.obj
 0001:0000b150       ?getReportAllocationNames@Foundation@shdfnd@physx@@UBE_NXZ 1000c150 f i PxMetaDataObjects.obj
 0001:0000b160       ?getTempAllocFreeTable@Foundation@shdfnd@physx@@QAEAAV?$Array@PATTempAllocatorChunk@shdfnd@physx@@VAllocator@23@@23@XZ 1000c160 f i PxMetaDataObjects.obj
 0001:0000b170       ?getTempAllocMutex@Foundation@shdfnd@physx@@QAEAAV?$MutexT@VAllocator@shdfnd@physx@@@23@XZ 1000c170 f i PxMetaDataObjects.obj
 0001:0000b180       ?setErrorLevel@Foundation@shdfnd@physx@@UAEXW4Enum@PxErrorCode@3@@Z 1000c180 f i PxMetaDataObjects.obj
 0001:0000b190       ?setReportAllocationNames@Foundation@shdfnd@physx@@UAEX_N@Z 1000c190 f i PxMetaDataObjects.obj
 0001:0000b1a0       ?exportExtraData@NpActor@physx@@QAEXAAVPxSerializationContext@2@@Z 1000c1a0 f   NpActor.obj
 0001:0000b320       ?importExtraData@NpActor@physx@@QAEXAAVPxDeserializationContext@2@@Z 1000c320 f   NpActor.obj
 0001:0000b3a0       ?resolveReferences@NpActor@physx@@QAEXAAVPxDeserializationContext@2@@Z 1000c3a0 f   NpActor.obj
 0001:0000b400       ??0NpActor@physx@@QAE@PBD@Z 1000c400 f   NpActor.obj
 0001:0000b420       ?releaseConstraints@NpActor@physx@@QAEXAAVPxRigidActor@2@@Z 1000c420 f   NpActor.obj
 0001:0000b4f0       ?release@NpActor@physx@@QAEXAAVPxActor@2@@Z 1000c4f0 f   NpActor.obj
 0001:0000b510       ?getNpAggregate@NpActor@physx@@QBEPAVNpAggregate@2@AAI@Z 1000c510 f   NpActor.obj
 0001:0000b550       ?setAggregate@NpActor@physx@@QAEXPAVNpAggregate@2@AAVPxActor@2@@Z 1000c550 f   NpActor.obj
 0001:0000b6b0       ?getAggregate@NpActor@physx@@QBEPAVPxAggregate@2@XZ 1000c6b0 f   NpActor.obj
 0001:0000b6e0       ?removeConstraintsFromScene@NpActor@physx@@QAEXXZ 1000c6e0 f   NpActor.obj
 0001:0000b760       ?findConnector@NpActor@physx@@QBEIW4Enum@NpConnectorType@2@PAVPxBase@2@@Z 1000c760 f   NpActor.obj
 0001:0000b7b0       ?addConnector@NpActor@physx@@QAEXW4Enum@NpConnectorType@2@PAVPxBase@2@PBD@Z 1000c7b0 f   NpActor.obj
 0001:0000b8b0       ?removeConnector@NpActor@physx@@QAEXAAVPxActor@2@W4Enum@NpConnectorType@2@PAVPxBase@2@PBD@Z 1000c8b0 f   NpActor.obj
 0001:0000b940       ?getNbConnectors@NpActor@physx@@QBEIW4Enum@NpConnectorType@2@@Z 1000c940 f   NpActor.obj
 0001:0000b990       ?getShapeManager@NpActor@physx@@SAPAVNpShapeManager@2@AAVPxRigidActor@2@@Z 1000c990 f   NpActor.obj
 0001:0000b9b0       ?getShapeManager@NpActor@physx@@SAPBVNpShapeManager@2@ABVPxRigidActor@2@@Z 1000c9b0 f   NpActor.obj
 0001:0000b9d0       ?getGlobalPose@NpActor@physx@@SAXAAVPxTransform@2@ABVNpShape@2@ABVPxRigidActor@2@@Z 1000c9d0 f   NpActor.obj
 0001:0000b9f0       ?getGlobalPose@NpActor@physx@@SAXAAVPxTransform@2@ABVShape@Scb@2@ABVActor@52@@Z 1000c9f0 f   NpActor.obj
 0001:0000be10       ?getAPIScene@NpActor@physx@@SAPAVNpScene@2@ABVPxActor@2@@Z 1000ce10 f   NpActor.obj
 0001:0000be40       ?getOwnerScene@NpActor@physx@@SAPAVNpScene@2@ABVPxActor@2@@Z 1000ce40 f   NpActor.obj
 0001:0000be60       ?onActorRelease@NpActor@physx@@SAXPAVPxActor@2@@Z 1000ce60 f   NpActor.obj
 0001:0000be70       ??1NpActor@physx@@IAE@XZ   1000ce70 f   NpActor.obj
 0001:0000be80       ?addConstraintsToSceneInternal@NpActor@physx@@AAEXXZ 1000ce80 f   NpActor.obj
 0001:0000bf20       ?removeConnector@NpActor@physx@@AAEXAAVPxActor@2@I@Z 1000cf20 f   NpActor.obj
 0001:0000bf70       ??0Offsets@NpActor@physx@@QAE@XZ 1000cf70 f   NpActor.obj
 0001:0000bfd0       ??$exportArray@VNpConnector@physx@@V?$InlineAllocator@$0CA@V?$ReflectionAllocator@VNpConnector@physx@@@shdfnd@physx@@@shdfnd@2@@Cm@physx@@YAXABV?$Array@VNpConnector@physx@@V?$InlineAllocator@$0CA@V?$ReflectionAllocator@VNpConnector@physx@@@shdfnd@physx@@@shdfnd@2@@shdfnd@1@AAVPxSerializationContext@1@@Z 1000cfd0 f i NpActor.obj
 0001:0000c000       ??$exportInlineArray@VNpConnector@physx@@$03V?$ReflectionAllocator@VNpConnector@physx@@@shdfnd@2@@Cm@physx@@YAXABV?$InlineArray@VNpConnector@physx@@$03V?$ReflectionAllocator@VNpConnector@physx@@@shdfnd@2@@shdfnd@1@AAVPxSerializationContext@1@@Z 1000d000 f i NpActor.obj
 0001:0000c040       ??$importArray@VNpConnector@physx@@V?$InlineAllocator@$0CA@V?$ReflectionAllocator@VNpConnector@physx@@@shdfnd@physx@@@shdfnd@2@@Cm@physx@@YAXAAV?$Array@VNpConnector@physx@@V?$InlineAllocator@$0CA@V?$ReflectionAllocator@VNpConnector@physx@@@shdfnd@physx@@@shdfnd@2@@shdfnd@1@AAVPxDeserializationContext@1@@Z 1000d040 f i NpActor.obj
 0001:0000c070       ??$importInlineArray@VNpConnector@physx@@$03V?$ReflectionAllocator@VNpConnector@physx@@@shdfnd@2@@Cm@physx@@YAXAAV?$InlineArray@VNpConnector@physx@@$03V?$ReflectionAllocator@VNpConnector@physx@@@shdfnd@2@@shdfnd@1@AAVPxDeserializationContext@1@@Z 1000d070 f i NpActor.obj
 0001:0000c0b0       ??$pointerOffset@PBVActor@Scb@physx@@@shdfnd@physx@@YAPBVActor@Scb@1@PBXH@Z 1000d0b0 f i NpActor.obj
 0001:0000c0c0       ??0PxTransform@physx@@QAE@XZ 1000d0c0 f i NpActor.obj
 0001:0000c0d0       ??0PxVec3@physx@@QAE@XZ    1000d0d0 f i NpActor.obj
 0001:0000c0e0       ??4FPUGuard@shdfnd@physx@@QAEAAV012@ABV012@@Z 1000d0e0 f i NpActor.obj
 0001:0000c100       ??4SyncImpl@shdfnd@physx@@QAEAAV012@ABV012@@Z 1000d100 f i NpActor.obj
 0001:0000c110       ??4ThreadImpl@shdfnd@physx@@QAEAAV012@ABV012@@Z 1000d110 f i NpActor.obj
 0001:0000c120       ?allocate@?$Array@VNpConnector@physx@@V?$InlineAllocator@$0CA@V?$ReflectionAllocator@VNpConnector@physx@@@shdfnd@physx@@@shdfnd@2@@shdfnd@physx@@IAEPAVNpConnector@3@I@Z 1000d120 f i NpActor.obj
 0001:0000c1b0       ?create@?$HashBase@PAVPxConstraint@physx@@PAV12@U?$Hash@PAVPxConstraint@physx@@@shdfnd@2@UGetKey@?$HashSetBase@PAVPxConstraint@physx@@U?$Hash@PAVPxConstraint@physx@@@shdfnd@2@VNonTrackingAllocator@42@$00@internal@42@VNonTrackingAllocator@42@$00@internal@shdfnd@physx@@QAEPAPAVPxConstraint@4@ABQAV54@AA_N@Z 1000d1b0 f i NpActor.obj
 0001:0000c2e0       ?erase@?$HashBase@PAVPxConstraint@physx@@PAV12@U?$Hash@PAVPxConstraint@physx@@@shdfnd@2@UGetKey@?$HashSetBase@PAVPxConstraint@physx@@U?$Hash@PAVPxConstraint@physx@@@shdfnd@2@VNonTrackingAllocator@42@$00@internal@42@VNonTrackingAllocator@42@$00@internal@shdfnd@physx@@QAE_NABQAVPxConstraint@4@@Z 1000d2e0 f i NpActor.obj
 0001:0000c400       ?getKinematicTarget@Body@Scb@physx@@QBE_NAAVPxTransform@3@@Z 1000d400 f i NpActor.obj
 0001:0000c470       ?growAndPushBack@?$Array@VNpConnector@physx@@V?$InlineAllocator@$0CA@V?$ReflectionAllocator@VNpConnector@physx@@@shdfnd@physx@@@shdfnd@2@@shdfnd@physx@@IAEAAVNpConnector@3@ABV43@@Z 1000d470 f i NpActor.obj
 0001:0000c510       ?recreate@?$Array@VNpConnector@physx@@V?$InlineAllocator@$0CA@V?$ReflectionAllocator@VNpConnector@physx@@@shdfnd@physx@@@shdfnd@2@@shdfnd@physx@@IAEXI@Z 1000d510 f i NpActor.obj
 0001:0000c590       ?reserveInternal@?$HashBase@PAVPxConstraint@physx@@PAV12@U?$Hash@PAVPxConstraint@physx@@@shdfnd@2@UGetKey@?$HashSetBase@PAVPxConstraint@physx@@U?$Hash@PAVPxConstraint@physx@@@shdfnd@2@VNonTrackingAllocator@42@$00@internal@42@VNonTrackingAllocator@42@$00@internal@shdfnd@physx@@AAEXI@Z 1000d590 f i NpActor.obj
 0001:0000c720       ?resizeUninitialized@?$Array@VNpConnector@physx@@V?$InlineAllocator@$0CA@V?$ReflectionAllocator@VNpConnector@physx@@@shdfnd@physx@@@shdfnd@2@@shdfnd@physx@@QAEXI@Z 1000d720 f i NpActor.obj
 0001:0000c750       ?exportExtraData@NpAggregate@physx@@UAEXAAVPxSerializationContext@2@@Z 1000d750 f   NpAggregate.obj
 0001:0000c780       ?importExtraData@NpAggregate@physx@@QAEXAAVPxDeserializationContext@2@@Z 1000d780 f   NpAggregate.obj
 0001:0000c7b0       ?resolveReferences@NpAggregate@physx@@QAEXAAVPxDeserializationContext@2@@Z 1000d7b0 f   NpAggregate.obj
 0001:0000c850       ?requiresObjects@NpAggregate@physx@@UAEXAAVPxProcessPxBaseCallback@2@@Z 1000d850 f   NpAggregate.obj
 0001:0000c8a0       ?createObject@NpAggregate@physx@@SAPAV12@AAPAEAAVPxDeserializationContext@2@@Z 1000d8a0 f   NpAggregate.obj
 0001:0000c990       ??0NpAggregate@physx@@QAE@I_N@Z 1000d990 f   NpAggregate.obj
 0001:0000ca10       ??1NpAggregate@physx@@UAE@XZ 1000da10 f   NpAggregate.obj
 0001:0000ca60       ?release@NpAggregate@physx@@UAEXXZ 1000da60 f   NpAggregate.obj
 0001:0000cb80       ?addActor@NpAggregate@physx@@UAE_NAAVPxActor@2@PBVPxBVHStructure@2@@Z 1000db80 f   NpAggregate.obj
 0001:0000cd30       ?removeActor@NpAggregate@physx@@UAE_NAAVPxActor@2@@Z 1000dd30 f   NpAggregate.obj
 0001:0000cf00       ?addArticulation@NpAggregate@physx@@UAE_NAAVPxArticulationBase@2@@Z 1000df00 f   NpAggregate.obj
 0001:0000d060       ?removeArticulation@NpAggregate@physx@@UAE_NAAVPxArticulationBase@2@@Z 1000e060 f   NpAggregate.obj
 0001:0000d150       ?getNbActors@NpAggregate@physx@@UBEIXZ 1000e150 f   NpAggregate.obj
 0001:0000d160       ?getMaxNbActors@NpAggregate@physx@@UBEIXZ 1000e160 f   NpAggregate.obj
 0001:0000d170       ?getActors@NpAggregate@physx@@UBEIPAPAVPxActor@2@II@Z 1000e170 f   NpAggregate.obj
 0001:0000d1c0       ?getScene@NpAggregate@physx@@UAEPAVPxScene@2@XZ 1000e1c0 f   NpAggregate.obj
 0001:0000d1f0       ?getSelfCollision@NpAggregate@physx@@UBE_NXZ 1000e1f0 f   NpAggregate.obj
 0001:0000d200       ?getAPIScene@NpAggregate@physx@@QBEPAVNpScene@2@XZ 1000e200 f   NpAggregate.obj
 0001:0000d230       ?getOwnerScene@NpAggregate@physx@@QBEPAVNpScene@2@XZ 1000e230 f   NpAggregate.obj
 0001:0000d240       ?addActorInternal@NpAggregate@physx@@QAEXAAVPxActor@2@AAVNpScene@2@PBVPxBVHStructure@2@@Z 1000e240 f   NpAggregate.obj
 0001:0000d2e0       ?removeAndReinsert@NpAggregate@physx@@QAEXAAVPxActor@2@_N@Z 1000e2e0 f   NpAggregate.obj
 0001:0000d320       ?removeActorAndReinsert@NpAggregate@physx@@QAE_NAAVPxActor@2@_N@Z 1000e320 f   NpAggregate.obj
 0001:0000d3a0       ?removeArticulationAndReinsert@NpAggregate@physx@@QAE_NAAVPxArticulationBase@2@_N@Z 1000e3a0 f   NpAggregate.obj
 0001:0000d460       ??$pointerOffset@PAVActor@Scb@physx@@@shdfnd@physx@@YAPAVActor@Scb@1@PAXH@Z 1000e460 f i NpAggregate.obj
 0001:0000d470       ??$pointerOffset@PAVNpActor@physx@@@shdfnd@physx@@YAPAVNpActor@1@PAXH@Z 1000e470 f i NpAggregate.obj
 0001:0000d480       ??1PxAggregate@physx@@MAE@XZ 1000e480 f i NpAggregate.obj
 0001:0000d490       ??1PxBase@physx@@MAE@XZ    1000e490 f i NpAggregate.obj
 0001:0000d4a0       ??_ENpAggregate@physx@@UAEPAXI@Z 1000e4a0 f i NpAggregate.obj
 0001:0000d4a0       ??_GNpAggregate@physx@@UAEPAXI@Z 1000e4a0 f i NpAggregate.obj
 0001:0000d510       ??_EPxAggregate@physx@@MAEPAXI@Z 1000e510 f i NpAggregate.obj
 0001:0000d510       ??_GPxAggregate@physx@@MAEPAXI@Z 1000e510 f i NpAggregate.obj
 0001:0000d540       ??_GPxBase@physx@@MAEPAXI@Z 1000e540 f i NpAggregate.obj
 0001:0000d540       ??_EPxBase@physx@@MAEPAXI@Z 1000e540 f i NpAggregate.obj
 0001:0000d570       ?erase@?$HashBase@PAVPxAggregate@physx@@PAV12@U?$Hash@PAVPxAggregate@physx@@@shdfnd@2@UGetKey@?$HashSetBase@PAVPxAggregate@physx@@U?$Hash@PAVPxAggregate@physx@@@shdfnd@2@VNonTrackingAllocator@42@$00@internal@42@VNonTrackingAllocator@42@$00@internal@shdfnd@physx@@QAE_NABQAVPxAggregate@4@@Z 1000e570 f i NpAggregate.obj
 0001:0000d690       ?getConcreteTypeName@PxAggregate@physx@@UBEPBDXZ 1000e690 f i NpAggregate.obj
 0001:0000d6a0       ?isKindOf@PxAggregate@physx@@MBE_NPBD@Z 1000e6a0 f i NpAggregate.obj
 0001:0000d720       ?isKindOf@PxBase@physx@@MBE_NPBD@Z 1000e720 f i NpAggregate.obj
 0001:0000d770       ?isReleasable@PxBase@physx@@UBE_NXZ 1000e770 f i NpAggregate.obj
 0001:0000d780       ??1NpArticulationReducedCoordinate@physx@@UAE@XZ 1000e780 f   NpArticulationReducedCoordinate.obj
 0001:0000d7d0       ?setArticulationFlags@NpArticulationReducedCoordinate@physx@@UAEXV?$PxFlags@W4Enum@PxArticulationFlag@physx@@E@2@@Z 1000e7d0 f   NpArticulationReducedCoordinate.obj
 0001:0000d810       ?setArticulationFlag@NpArticulationReducedCoordinate@physx@@UAEXW4Enum@PxArticulationFlag@2@_N@Z 1000e810 f   NpArticulationReducedCoordinate.obj
 0001:0000d870       ?getArticulationFlags@NpArticulationReducedCoordinate@physx@@UBE?AV?$PxFlags@W4Enum@PxArticulationFlag@physx@@E@2@XZ 1000e870 f   NpArticulationReducedCoordinate.obj
 0001:0000d880       ?getDofs@NpArticulationReducedCoordinate@physx@@UBEIXZ 1000e880 f   NpArticulationReducedCoordinate.obj
 0001:0000d890       ?createCache@NpArticulationReducedCoordinate@physx@@UBEPAVPxArticulationCache@2@XZ 1000e890 f   NpArticulationReducedCoordinate.obj
 0001:0000d8b0       ?getCacheDataSize@NpArticulationReducedCoordinate@physx@@UBEIXZ 1000e8b0 f   NpArticulationReducedCoordinate.obj
 0001:0000d8c0       ?zeroCache@NpArticulationReducedCoordinate@physx@@UAEXAAVPxArticulationCache@2@@Z 1000e8c0 f   NpArticulationReducedCoordinate.obj
 0001:0000d8d0       ?applyCache@NpArticulationReducedCoordinate@physx@@UAEXAAVPxArticulationCache@2@V?$PxFlags@W4Enum@PxArticulationCache@physx@@E@2@_N@Z 1000e8d0 f   NpArticulationReducedCoordinate.obj
 0001:0000da60       ?copyInternalStateToCache@NpArticulationReducedCoordinate@physx@@UBEXAAVPxArticulationCache@2@V?$PxFlags@W4Enum@PxArticulationCache@physx@@E@2@@Z 1000ea60 f   NpArticulationReducedCoordinate.obj
 0001:0000da80       ?releaseCache@NpArticulationReducedCoordinate@physx@@UBEXAAVPxArticulationCache@2@@Z 1000ea80 f   NpArticulationReducedCoordinate.obj
 0001:0000da90       ?packJointData@NpArticulationReducedCoordinate@physx@@UBEXPBMPAM@Z 1000ea90 f   NpArticulationReducedCoordinate.obj
 0001:0000daa0       ?unpackJointData@NpArticulationReducedCoordinate@physx@@UBEXPBMPAM@Z 1000eaa0 f   NpArticulationReducedCoordinate.obj
 0001:0000dab0       ?commonInit@NpArticulationReducedCoordinate@physx@@UBEXXZ 1000eab0 f   NpArticulationReducedCoordinate.obj
 0001:0000dac0       ?computeGeneralizedGravityForce@NpArticulationReducedCoordinate@physx@@UBEXAAVPxArticulationCache@2@@Z 1000eac0 f   NpArticulationReducedCoordinate.obj
 0001:0000dad0       ?computeCoriolisAndCentrifugalForce@NpArticulationReducedCoordinate@physx@@UBEXAAVPxArticulationCache@2@@Z 1000ead0 f   NpArticulationReducedCoordinate.obj
 0001:0000dae0       ?computeGeneralizedExternalForce@NpArticulationReducedCoordinate@physx@@UBEXAAVPxArticulationCache@2@@Z 1000eae0 f   NpArticulationReducedCoordinate.obj
 0001:0000daf0       ?computeJointAcceleration@NpArticulationReducedCoordinate@physx@@UBEXAAVPxArticulationCache@2@@Z 1000eaf0 f   NpArticulationReducedCoordinate.obj
 0001:0000db00       ?computeJointForce@NpArticulationReducedCoordinate@physx@@UBEXAAVPxArticulationCache@2@@Z 1000eb00 f   NpArticulationReducedCoordinate.obj
 0001:0000db10       ?computeKinematicJacobian@NpArticulationReducedCoordinate@physx@@UBEXIAAVPxArticulationCache@2@@Z 1000eb10 f   NpArticulationReducedCoordinate.obj
 0001:0000db20       ?computeCoefficentMatrix@NpArticulationReducedCoordinate@physx@@UBEXAAVPxArticulationCache@2@@Z 1000eb20 f   NpArticulationReducedCoordinate.obj
 0001:0000db60       ?computeLambda@NpArticulationReducedCoordinate@physx@@UBE_NAAVPxArticulationCache@2@0QBMI@Z 1000eb60 f   NpArticulationReducedCoordinate.obj
 0001:0000dc20       ?computeGeneralizedMassMatrix@NpArticulationReducedCoordinate@physx@@UBEXAAVPxArticulationCache@2@@Z 1000ec20 f   NpArticulationReducedCoordinate.obj
 0001:0000dc30       ?addLoopJoint@NpArticulationReducedCoordinate@physx@@UAEXPAVPxJoint@2@@Z 1000ec30 f   NpArticulationReducedCoordinate.obj
 0001:0000dcc0       ?removeLoopJoint@NpArticulationReducedCoordinate@physx@@UAEXPAVPxJoint@2@@Z 1000ecc0 f   NpArticulationReducedCoordinate.obj
 0001:0000dd10       ?getNbLoopJoints@NpArticulationReducedCoordinate@physx@@UBEIXZ 1000ed10 f   NpArticulationReducedCoordinate.obj
 0001:0000dd20       ?getLoopJoints@NpArticulationReducedCoordinate@physx@@UBEIPAPAVPxJoint@2@II@Z 1000ed20 f   NpArticulationReducedCoordinate.obj
 0001:0000dd70       ?getCoefficentMatrixSize@NpArticulationReducedCoordinate@physx@@UBEIXZ 1000ed70 f   NpArticulationReducedCoordinate.obj
 0001:0000dd80       ?teleportRootLink@NpArticulationReducedCoordinate@physx@@UAEXABVPxTransform@2@_N@Z 1000ed80 f   NpArticulationReducedCoordinate.obj
 0001:0000dd90       ??0NpArticulationReducedCoordinate@physx@@QAE@XZ 1000ed90 f   NpArticulationReducedCoordinate.obj
 0001:0000de60       ?createArticulationJoint@NpArticulationReducedCoordinate@physx@@UAEPAVPxArticulationJointBase@2@AAVPxArticulationLink@2@ABVPxTransform@2@01@Z 1000ee60 f   NpArticulationReducedCoordinate.obj
 0001:0000de70       ?releaseArticulationJoint@NpArticulationReducedCoordinate@physx@@UAEXPAVPxArticulationJointBase@2@@Z 1000ee70 f   NpArticulationReducedCoordinate.obj
 0001:0000de80       ??1?$NpArticulationTemplate@VPxArticulationReducedCoordinate@physx@@@physx@@UAE@XZ 1000ee80 f i NpArticulationReducedCoordinate.obj
 0001:0000def0       ??1PxArticulationBase@physx@@UAE@XZ 1000eef0 f i NpArticulationReducedCoordinate.obj
 0001:0000df00       ??1PxArticulationReducedCoordinate@physx@@MAE@XZ 1000ef00 f i NpArticulationReducedCoordinate.obj
 0001:0000df10       ??_G?$NpArticulationTemplate@VPxArticulationReducedCoordinate@physx@@@physx@@UAEPAXI@Z 1000ef10 f i NpArticulationReducedCoordinate.obj
 0001:0000df10       ??_E?$NpArticulationTemplate@VPxArticulationReducedCoordinate@physx@@@physx@@UAEPAXI@Z 1000ef10 f i NpArticulationReducedCoordinate.obj
 0001:0000df50       ??_GNpArticulationReducedCoordinate@physx@@UAEPAXI@Z 1000ef50 f i NpArticulationReducedCoordinate.obj
 0001:0000df50       ??_ENpArticulationReducedCoordinate@physx@@UAEPAXI@Z 1000ef50 f i NpArticulationReducedCoordinate.obj
 0001:0000dfd0       ??_GPxArticulationBase@physx@@UAEPAXI@Z 1000efd0 f i NpArticulationReducedCoordinate.obj
 0001:0000dfd0       ??_EPxArticulationBase@physx@@UAEPAXI@Z 1000efd0 f i NpArticulationReducedCoordinate.obj
 0001:0000e000       ??_GPxArticulationReducedCoordinate@physx@@MAEPAXI@Z 1000f000 f i NpArticulationReducedCoordinate.obj
 0001:0000e000       ??_EPxArticulationReducedCoordinate@physx@@MAEPAXI@Z 1000f000 f i NpArticulationReducedCoordinate.obj
 0001:0000e030       ?allocate@?$Array@PAVNpArticulationLink@physx@@V?$InlineAllocator@$0BA@V?$ReflectionAllocator@PAVNpArticulationLink@physx@@@shdfnd@physx@@@shdfnd@2@@shdfnd@physx@@IAEPAPAVNpArticulationLink@3@I@Z 1000f030 f i NpArticulationReducedCoordinate.obj
 0001:0000e0c0       ?allocate@?$Array@PAVPxJoint@physx@@V?$ReflectionAllocator@PAVPxJoint@physx@@@shdfnd@2@@shdfnd@physx@@IAEPAPAVPxJoint@3@I@Z 1000f0c0 f i NpArticulationReducedCoordinate.obj
 0001:0000e130       ?createLink@?$NpArticulationTemplate@VPxArticulationReducedCoordinate@physx@@@physx@@UAEPAVPxArticulationLink@2@PAV32@ABVPxTransform@2@@Z 1000f130 f i NpArticulationReducedCoordinate.obj
 0001:0000e2b0       ?erase@?$HashBase@PAVPxArticulationBase@physx@@PAV12@U?$Hash@PAVPxArticulationBase@physx@@@shdfnd@2@UGetKey@?$HashSetBase@PAVPxArticulationBase@physx@@U?$Hash@PAVPxArticulationBase@physx@@@shdfnd@2@VNonTrackingAllocator@42@$00@internal@42@VNonTrackingAllocator@42@$00@internal@shdfnd@physx@@QAE_NABQAVPxArticulationBase@4@@Z 1000f2b0 f i NpArticulationReducedCoordinate.obj
 0001:0000e3d0       ?getAggregate@?$NpArticulationTemplate@VPxArticulationReducedCoordinate@physx@@@physx@@UBEPAVPxAggregate@2@XZ 1000f3d0 f i NpArticulationReducedCoordinate.obj
 0001:0000e3e0       ?getConcreteTypeName@NpArticulationReducedCoordinate@physx@@UBEPBDXZ 1000f3e0 f i NpArticulationReducedCoordinate.obj
 0001:0000e3f0       ?getImpl@?$NpArticulationTemplate@VPxArticulationReducedCoordinate@physx@@@physx@@UAEPAVPxArticulationImpl@2@XZ 1000f3f0 f i NpArticulationReducedCoordinate.obj
 0001:0000e400       ?getImpl@?$NpArticulationTemplate@VPxArticulationReducedCoordinate@physx@@@physx@@UBEPBVPxArticulationImpl@2@XZ 1000f400 f i NpArticulationReducedCoordinate.obj
 0001:0000e410       ?getLinks@?$NpArticulationTemplate@VPxArticulationReducedCoordinate@physx@@@physx@@UBEIPAPAVPxArticulationLink@2@II@Z 1000f410 f i NpArticulationReducedCoordinate.obj
 0001:0000e460       ?getName@?$NpArticulationTemplate@VPxArticulationReducedCoordinate@physx@@@physx@@UBEPBDXZ 1000f460 f i NpArticulationReducedCoordinate.obj
 0001:0000e470       ?getNbLinks@?$NpArticulationTemplate@VPxArticulationReducedCoordinate@physx@@@physx@@UBEIXZ 1000f470 f i NpArticulationReducedCoordinate.obj
 0001:0000e480       ?getScene@?$NpArticulationTemplate@VPxArticulationReducedCoordinate@physx@@@physx@@UBEPAVPxScene@2@XZ 1000f480 f i NpArticulationReducedCoordinate.obj
 0001:0000e4b0       ?getSleepThreshold@?$NpArticulationTemplate@VPxArticulationReducedCoordinate@physx@@@physx@@UBEMXZ 1000f4b0 f i NpArticulationReducedCoordinate.obj
 0001:0000e4e0       ?getSolverIterationCounts@?$NpArticulationTemplate@VPxArticulationReducedCoordinate@physx@@@physx@@UBEXAAI0@Z 1000f4e0 f i NpArticulationReducedCoordinate.obj
 0001:0000e510       ?getStabilizationThreshold@?$NpArticulationTemplate@VPxArticulationReducedCoordinate@physx@@@physx@@UBEMXZ 1000f510 f i NpArticulationReducedCoordinate.obj
 0001:0000e540       ?getType@?$NpArticulationTemplate@VPxArticulationReducedCoordinate@physx@@@physx@@UBE?AW4Enum@PxArticulationBase@2@XZ 1000f540 f i NpArticulationReducedCoordinate.obj
 0001:0000e550       ?getWakeCounter@?$NpArticulationTemplate@VPxArticulationReducedCoordinate@physx@@@physx@@UBEMXZ 1000f550 f i NpArticulationReducedCoordinate.obj
 0001:0000e560       ?getWorldBounds@?$NpArticulationTemplate@VPxArticulationReducedCoordinate@physx@@@physx@@UBE?AVPxBounds3@2@M@Z 1000f560 f i NpArticulationReducedCoordinate.obj
 0001:0000e740       ?growAndPushBack@?$Array@PAVNpArticulationLink@physx@@V?$InlineAllocator@$0BA@V?$ReflectionAllocator@PAVNpArticulationLink@physx@@@shdfnd@physx@@@shdfnd@2@@shdfnd@physx@@IAEAAPAVNpArticulationLink@3@ABQAV43@@Z 1000f740 f i NpArticulationReducedCoordinate.obj
 0001:0000e800       ?growAndPushBack@?$Array@PAVPxJoint@physx@@V?$ReflectionAllocator@PAVPxJoint@physx@@@shdfnd@2@@shdfnd@physx@@IAEAAPAVPxJoint@3@ABQAV43@@Z 1000f800 f i NpArticulationReducedCoordinate.obj
 0001:0000e8b0       ?isKindOf@NpArticulationReducedCoordinate@physx@@UBE_NPBD@Z 1000f8b0 f i NpArticulationReducedCoordinate.obj
 0001:0000e930       ?isSleeping@?$NpArticulationTemplate@VPxArticulationReducedCoordinate@physx@@@physx@@UBE_NXZ 1000f930 f i NpArticulationReducedCoordinate.obj
 0001:0000e940       ?putToSleep@?$NpArticulationTemplate@VPxArticulationReducedCoordinate@physx@@@physx@@UAEXXZ 1000f940 f i NpArticulationReducedCoordinate.obj
 0001:0000e950       ?putToSleep@PxArticulationImpl@physx@@QAEXXZ 1000f950 f i NpArticulationReducedCoordinate.obj
 0001:0000eb60       ?recreate@?$Array@PAVPxJoint@physx@@V?$ReflectionAllocator@PAVPxJoint@physx@@@shdfnd@2@@shdfnd@physx@@IAEXI@Z 1000fb60 f i NpArticulationReducedCoordinate.obj
 0001:0000ebf0       ?release@?$NpArticulationTemplate@VPxArticulationReducedCoordinate@physx@@@physx@@UAEXXZ 1000fbf0 f i NpArticulationReducedCoordinate.obj
 0001:0000ecb0       ?setName@?$NpArticulationTemplate@VPxArticulationReducedCoordinate@physx@@@physx@@UAEXPBD@Z 1000fcb0 f i NpArticulationReducedCoordinate.obj
 0001:0000ecc0       ?setSleepThreshold@?$NpArticulationTemplate@VPxArticulationReducedCoordinate@physx@@@physx@@UAEXM@Z 1000fcc0 f i NpArticulationReducedCoordinate.obj
 0001:0000ed30       ?setSolverIterationCounts@?$NpArticulationTemplate@VPxArticulationReducedCoordinate@physx@@@physx@@UAEXII@Z 1000fd30 f i NpArticulationReducedCoordinate.obj
 0001:0000eda0       ?setStabilizationThreshold@?$NpArticulationTemplate@VPxArticulationReducedCoordinate@physx@@@physx@@UAEXM@Z 1000fda0 f i NpArticulationReducedCoordinate.obj
 0001:0000ee10       ?setWakeCounter@?$NpArticulationTemplate@VPxArticulationReducedCoordinate@physx@@@physx@@UAEXM@Z 1000fe10 f i NpArticulationReducedCoordinate.obj
 0001:0000ef40       ?wakeUp@?$NpArticulationTemplate@VPxArticulationReducedCoordinate@physx@@@physx@@UAEXXZ 1000ff40 f i NpArticulationReducedCoordinate.obj
 0001:0000f060       ?wakeUpInternal@Body@Scb@physx@@QAEXM@Z 10010060 f i NpArticulationReducedCoordinate.obj
 0001:0000f0e0       ?wakeUpInternal@PxArticulationImpl@physx@@QAEX_N0@Z 100100e0 f i NpArticulationReducedCoordinate.obj
 0001:0000f240       ?NpArticulationGetRootFromScb@physx@@YAPAVBody@Scb@1@AAVArticulation@31@@Z 10010240 f   NpArticulation.obj
 0001:0000f270       ??1NpArticulation@physx@@UAE@XZ 10010270 f   NpArticulation.obj
 0001:0000f290       ?exportExtraData@NpArticulation@physx@@UAEXAAVPxSerializationContext@2@@Z 10010290 f   NpArticulation.obj
 0001:0000f2e0       ?importExtraData@NpArticulation@physx@@QAEXAAVPxDeserializationContext@2@@Z 100102e0 f   NpArticulation.obj
 0001:0000f330       ?resolveReferences@NpArticulation@physx@@QAEXAAVPxDeserializationContext@2@@Z 10010330 f   NpArticulation.obj
 0001:0000f380       ?requiresObjects@NpArticulation@physx@@UAEXAAVPxProcessPxBaseCallback@2@@Z 10010380 f   NpArticulation.obj
 0001:0000f3b0       ?createObject@NpArticulation@physx@@SAPAV12@AAPAEAAVPxDeserializationContext@2@@Z 100103b0 f   NpArticulation.obj
 0001:0000f4b0       ?getInternalDriveIterations@NpArticulation@physx@@UBEIXZ 100104b0 f   NpArticulation.obj
 0001:0000f4c0       ?setInternalDriveIterations@NpArticulation@physx@@UAEXI@Z 100104c0 f   NpArticulation.obj
 0001:0000f520       ?getExternalDriveIterations@NpArticulation@physx@@UBEIXZ 10010520 f   NpArticulation.obj
 0001:0000f540       ?setExternalDriveIterations@NpArticulation@physx@@UAEXI@Z 10010540 f   NpArticulation.obj
 0001:0000f5a0       ?getMaxProjectionIterations@NpArticulation@physx@@UBEIXZ 100105a0 f   NpArticulation.obj
 0001:0000f5c0       ?setMaxProjectionIterations@NpArticulation@physx@@UAEXI@Z 100105c0 f   NpArticulation.obj
 0001:0000f620       ?getSeparationTolerance@NpArticulation@physx@@UBEMXZ 10010620 f   NpArticulation.obj
 0001:0000f650       ?setSeparationTolerance@NpArticulation@physx@@UAEXM@Z 10010650 f   NpArticulation.obj
 0001:0000f6c0       ?createDriveCache@NpArticulation@physx@@UBEPAVPxArticulationDriveCache@2@MI@Z 100106c0 f   NpArticulation.obj
 0001:0000f6e0       ?updateDriveCache@NpArticulation@physx@@UBEXAAVPxArticulationDriveCache@2@MI@Z 100106e0 f   NpArticulation.obj
 0001:0000f700       ?releaseDriveCache@NpArticulation@physx@@UBEXAAVPxArticulationDriveCache@2@@Z 10010700 f   NpArticulation.obj
 0001:0000f710       ?applyImpulse@NpArticulation@physx@@UAEXPAVPxArticulationLink@2@ABVPxArticulationDriveCache@2@ABVPxVec3@2@2@Z 10010710 f   NpArticulation.obj
 0001:0000f7f0       ?computeImpulseResponse@NpArticulation@physx@@UBEXPAVPxArticulationLink@2@AAVPxVec3@2@1ABVPxArticulationDriveCache@2@ABV42@3@Z 100107f0 f   NpArticulation.obj
 0001:0000f800       ??0NpArticulation@physx@@QAE@XZ 10010800 f   NpArticulation.obj
 0001:0000f8b0       ?createArticulationJoint@NpArticulation@physx@@EAEPAVPxArticulationJointBase@2@AAVPxArticulationLink@2@ABVPxTransform@2@01@Z 100108b0 f   NpArticulation.obj
 0001:0000f8c0       ?releaseArticulationJoint@NpArticulation@physx@@EAEXPAVPxArticulationJointBase@2@@Z 100108c0 f   NpArticulation.obj
 0001:0000f8d0       ??$exportArray@PAVNpArticulationLink@physx@@V?$InlineAllocator@$0BA@V?$ReflectionAllocator@PAVNpArticulationLink@physx@@@shdfnd@physx@@@shdfnd@2@@Cm@physx@@YAXABV?$Array@PAVNpArticulationLink@physx@@V?$InlineAllocator@$0BA@V?$ReflectionAllocator@PAVNpArticulationLink@physx@@@shdfnd@physx@@@shdfnd@2@@shdfnd@1@AAVPxSerializationContext@1@@Z 100108d0 f i NpArticulation.obj
 0001:0000f900       ??$exportInlineArray@PAVNpArticulationLink@physx@@$03V?$ReflectionAllocator@PAVNpArticulationLink@physx@@@shdfnd@2@@Cm@physx@@YAXABV?$InlineArray@PAVNpArticulationLink@physx@@$03V?$ReflectionAllocator@PAVNpArticulationLink@physx@@@shdfnd@2@@shdfnd@1@AAVPxSerializationContext@1@@Z 10010900 f i NpArticulation.obj
 0001:0000f940       ??$importArray@PAVNpArticulationLink@physx@@V?$InlineAllocator@$0BA@V?$ReflectionAllocator@PAVNpArticulationLink@physx@@@shdfnd@physx@@@shdfnd@2@@Cm@physx@@YAXAAV?$Array@PAVNpArticulationLink@physx@@V?$InlineAllocator@$0BA@V?$ReflectionAllocator@PAVNpArticulationLink@physx@@@shdfnd@physx@@@shdfnd@2@@shdfnd@1@AAVPxDeserializationContext@1@@Z 10010940 f i NpArticulation.obj
 0001:0000f970       ??$importInlineArray@PAVNpArticulationLink@physx@@$03V?$ReflectionAllocator@PAVNpArticulationLink@physx@@@shdfnd@2@@Cm@physx@@YAXAAV?$InlineArray@PAVNpArticulationLink@physx@@$03V?$ReflectionAllocator@PAVNpArticulationLink@physx@@@shdfnd@2@@shdfnd@1@AAVPxDeserializationContext@1@@Z 10010970 f i NpArticulation.obj
 0001:0000f9b0       ??1?$NpArticulationTemplate@VPxArticulation@physx@@@physx@@UAE@XZ 100109b0 f i NpArticulation.obj
 0001:0000fa20       ??1PxArticulation@physx@@MAE@XZ 10010a20 f i NpArticulation.obj
 0001:0000fa30       ??_E?$NpArticulationTemplate@VPxArticulation@physx@@@physx@@UAEPAXI@Z 10010a30 f i NpArticulation.obj
 0001:0000fa30       ??_G?$NpArticulationTemplate@VPxArticulation@physx@@@physx@@UAEPAXI@Z 10010a30 f i NpArticulation.obj
 0001:0000fa70       ??_GNpArticulation@physx@@UAEPAXI@Z 10010a70 f i NpArticulation.obj
 0001:0000fa70       ??_ENpArticulation@physx@@UAEPAXI@Z 10010a70 f i NpArticulation.obj
 0001:0000fac0       ??_GPxArticulation@physx@@MAEPAXI@Z 10010ac0 f i NpArticulation.obj
 0001:0000fac0       ??_EPxArticulation@physx@@MAEPAXI@Z 10010ac0 f i NpArticulation.obj
 0001:0000faf0       ?createLink@?$NpArticulationTemplate@VPxArticulation@physx@@@physx@@UAEPAVPxArticulationLink@2@PAV32@ABVPxTransform@2@@Z 10010af0 f i NpArticulation.obj
 0001:0000fc70       ?getAggregate@?$NpArticulationTemplate@VPxArticulation@physx@@@physx@@UBEPAVPxAggregate@2@XZ 10010c70 f i NpArticulation.obj
 0001:0000fc80       ?getConcreteTypeName@NpArticulation@physx@@UBEPBDXZ 10010c80 f i NpArticulation.obj
 0001:0000fc90       ?getImpl@?$NpArticulationTemplate@VPxArticulation@physx@@@physx@@UAEPAVPxArticulationImpl@2@XZ 10010c90 f i NpArticulation.obj
 0001:0000fca0       ?getImpl@?$NpArticulationTemplate@VPxArticulation@physx@@@physx@@UBEPBVPxArticulationImpl@2@XZ 10010ca0 f i NpArticulation.obj
 0001:0000fcb0       ?getLinks@?$NpArticulationTemplate@VPxArticulation@physx@@@physx@@UBEIPAPAVPxArticulationLink@2@II@Z 10010cb0 f i NpArticulation.obj
 0001:0000fd00       ?getName@?$NpArticulationTemplate@VPxArticulation@physx@@@physx@@UBEPBDXZ 10010d00 f i NpArticulation.obj
 0001:0000fd10       ?getNbLinks@?$NpArticulationTemplate@VPxArticulation@physx@@@physx@@UBEIXZ 10010d10 f i NpArticulation.obj
 0001:0000fd20       ?getScene@?$NpArticulationTemplate@VPxArticulation@physx@@@physx@@UBEPAVPxScene@2@XZ 10010d20 f i NpArticulation.obj
 0001:0000fd50       ?getSleepThreshold@?$NpArticulationTemplate@VPxArticulation@physx@@@physx@@UBEMXZ 10010d50 f i NpArticulation.obj
 0001:0000fd80       ?getSolverIterationCounts@?$NpArticulationTemplate@VPxArticulation@physx@@@physx@@UBEXAAI0@Z 10010d80 f i NpArticulation.obj
 0001:0000fdb0       ?getStabilizationThreshold@?$NpArticulationTemplate@VPxArticulation@physx@@@physx@@UBEMXZ 10010db0 f i NpArticulation.obj
 0001:0000fde0       ?getType@?$NpArticulationTemplate@VPxArticulation@physx@@@physx@@UBE?AW4Enum@PxArticulationBase@2@XZ 10010de0 f i NpArticulation.obj
 0001:0000fdf0       ?getWakeCounter@?$NpArticulationTemplate@VPxArticulation@physx@@@physx@@UBEMXZ 10010df0 f i NpArticulation.obj
 0001:0000fe00       ?getWorldBounds@?$NpArticulationTemplate@VPxArticulation@physx@@@physx@@UBE?AVPxBounds3@2@M@Z 10010e00 f i NpArticulation.obj
 0001:0000ffe0       ?isKindOf@NpArticulation@physx@@UBE_NPBD@Z 10010fe0 f i NpArticulation.obj
 0001:00010060       ?isSleeping@?$NpArticulationTemplate@VPxArticulation@physx@@@physx@@UBE_NXZ 10011060 f i NpArticulation.obj
 0001:00010070       ?putToSleep@?$NpArticulationTemplate@VPxArticulation@physx@@@physx@@UAEXXZ 10011070 f i NpArticulation.obj
 0001:00010080       ?release@?$NpArticulationTemplate@VPxArticulation@physx@@@physx@@UAEXXZ 10011080 f i NpArticulation.obj
 0001:00010140       ?setName@?$NpArticulationTemplate@VPxArticulation@physx@@@physx@@UAEXPBD@Z 10011140 f i NpArticulation.obj
 0001:00010150       ?setSleepThreshold@?$NpArticulationTemplate@VPxArticulation@physx@@@physx@@UAEXM@Z 10011150 f i NpArticulation.obj
 0001:000101c0       ?setSolverIterationCounts@?$NpArticulationTemplate@VPxArticulation@physx@@@physx@@UAEXII@Z 100111c0 f i NpArticulation.obj
 0001:00010230       ?setStabilizationThreshold@?$NpArticulationTemplate@VPxArticulation@physx@@@physx@@UAEXM@Z 10011230 f i NpArticulation.obj
 0001:000102a0       ?setWakeCounter@?$NpArticulationTemplate@VPxArticulation@physx@@@physx@@UAEXM@Z 100112a0 f i NpArticulation.obj
 0001:000103d0       ?wakeUp@?$NpArticulationTemplate@VPxArticulation@physx@@@physx@@UAEXXZ 100113d0 f i NpArticulation.obj
 0001:000103e0       ?wakeUp@PxArticulationImpl@physx@@QAEXXZ 100113e0 f i NpArticulation.obj
 0001:00010500       ?NpArticulationJointGetBodiesFromScb@physx@@YAXAAVArticulationJoint@Scb@1@AAPAVBody@31@1@Z 10011500 f   NpArticulationJoint.obj
 0001:00010530       ?resolveReferences@NpArticulationJoint@physx@@UAEXAAVPxDeserializationContext@2@@Z 10011530 f   NpArticulationJoint.obj
 0001:00010580       ?createObject@NpArticulationJoint@physx@@SAPAV12@AAPAEAAVPxDeserializationContext@2@@Z 10011580 f   NpArticulationJoint.obj
 0001:00010600       ??0NpArticulationJoint@physx@@QAE@AAVNpArticulationLink@1@ABVPxTransform@1@01@Z 10011600 f   NpArticulationJoint.obj
 0001:00010690       ??1NpArticulationJoint@physx@@UAE@XZ 10011690 f   NpArticulationJoint.obj
 0001:000106b0       ?setTargetOrientation@NpArticulationJoint@physx@@UAEXABVPxQuat@2@@Z 100116b0 f   NpArticulationJoint.obj
 0001:00010730       ?getTargetOrientation@NpArticulationJoint@physx@@UBE?AVPxQuat@2@XZ 10011730 f   NpArticulationJoint.obj
 0001:00010770       ?setTargetVelocity@NpArticulationJoint@physx@@UAEXABVPxVec3@2@@Z 10011770 f   NpArticulationJoint.obj
 0001:000107f0       ?getTargetVelocity@NpArticulationJoint@physx@@UBE?AVPxVec3@2@XZ 100117f0 f   NpArticulationJoint.obj
 0001:00010820       ?setDriveType@NpArticulationJoint@physx@@UAEXW4Enum@PxArticulationJointDriveType@2@@Z 10011820 f   NpArticulationJoint.obj
 0001:00010890       ?getDriveType@NpArticulationJoint@physx@@UBE?AW4Enum@PxArticulationJointDriveType@2@XZ 10011890 f   NpArticulationJoint.obj
 0001:000108b0       ?setStiffness@NpArticulationJoint@physx@@UAEXM@Z 100118b0 f   NpArticulationJoint.obj
 0001:00010930       ?getStiffness@NpArticulationJoint@physx@@UBEMXZ 10011930 f   NpArticulationJoint.obj
 0001:00010960       ?setDamping@NpArticulationJoint@physx@@UAEXM@Z 10011960 f   NpArticulationJoint.obj
 0001:000109e0       ?getDamping@NpArticulationJoint@physx@@UBEMXZ 100119e0 f   NpArticulationJoint.obj
 0001:00010a10       ?setInternalCompliance@NpArticulationJoint@physx@@UAEXM@Z 10011a10 f   NpArticulationJoint.obj
 0001:00010a90       ?getInternalCompliance@NpArticulationJoint@physx@@UBEMXZ 10011a90 f   NpArticulationJoint.obj
 0001:00010ac0       ?setExternalCompliance@NpArticulationJoint@physx@@UAEXM@Z 10011ac0 f   NpArticulationJoint.obj
 0001:00010b40       ?getExternalCompliance@NpArticulationJoint@physx@@UBEMXZ 10011b40 f   NpArticulationJoint.obj
 0001:00010b70       ?setSwingLimit@NpArticulationJoint@physx@@UAEXMM@Z 10011b70 f   NpArticulationJoint.obj
 0001:00010c20       ?getSwingLimit@NpArticulationJoint@physx@@UBEXAAM0@Z 10011c20 f   NpArticulationJoint.obj
 0001:00010c70       ?setTangentialStiffness@NpArticulationJoint@physx@@UAEXM@Z 10011c70 f   NpArticulationJoint.obj
 0001:00010cf0       ?getTangentialStiffness@NpArticulationJoint@physx@@UBEMXZ 10011cf0 f   NpArticulationJoint.obj
 0001:00010d20       ?setTangentialDamping@NpArticulationJoint@physx@@UAEXM@Z 10011d20 f   NpArticulationJoint.obj
 0001:00010da0       ?getTangentialDamping@NpArticulationJoint@physx@@UBEMXZ 10011da0 f   NpArticulationJoint.obj
 0001:00010dd0       ?setSwingLimitEnabled@NpArticulationJoint@physx@@UAEX_N@Z 10011dd0 f   NpArticulationJoint.obj
 0001:00010e40       ?getSwingLimitEnabled@NpArticulationJoint@physx@@UBE_NXZ 10011e40 f   NpArticulationJoint.obj
 0001:00010e60       ?setSwingLimitContactDistance@NpArticulationJoint@physx@@UAEXM@Z 10011e60 f   NpArticulationJoint.obj
 0001:00010ee0       ?getSwingLimitContactDistance@NpArticulationJoint@physx@@UBEMXZ 10011ee0 f   NpArticulationJoint.obj
 0001:00010f10       ?setTwistLimit@NpArticulationJoint@physx@@UAEXMM@Z 10011f10 f   NpArticulationJoint.obj
 0001:00010fc0       ?getTwistLimit@NpArticulationJoint@physx@@UBEXAAM0@Z 10011fc0 f   NpArticulationJoint.obj
 0001:00011010       ?setTwistLimitEnabled@NpArticulationJoint@physx@@UAEX_N@Z 10012010 f   NpArticulationJoint.obj
 0001:00011080       ?getTwistLimitEnabled@NpArticulationJoint@physx@@UBE_NXZ 10012080 f   NpArticulationJoint.obj
 0001:000110a0       ?setTwistLimitContactDistance@NpArticulationJoint@physx@@UAEXM@Z 100120a0 f   NpArticulationJoint.obj
 0001:00011120       ?getTwistLimitContactDistance@NpArticulationJoint@physx@@UBEMXZ 10012120 f   NpArticulationJoint.obj
 0001:00011150       ?setJointType@NpArticulationJoint@physx@@UAEXW4Enum@PxArticulationJointType@2@@Z 10012150 f   NpArticulationJoint.obj
 0001:000111c0       ?getJointType@NpArticulationJoint@physx@@UBE?AW4Enum@PxArticulationJointType@2@XZ 100121c0 f   NpArticulationJoint.obj
 0001:000111e0       ?setMotion@NpArticulationJoint@physx@@UAEXW4Enum@PxArticulationAxis@2@W43PxArticulationMotion@2@@Z 100121e0 f   NpArticulationJoint.obj
 0001:000112c0       ?getMotion@NpArticulationJoint@physx@@UBE?AW4Enum@PxArticulationMotion@2@W43PxArticulationAxis@2@@Z 100122c0 f   NpArticulationJoint.obj
 0001:000112f0       ?setFrictionCoefficient@NpArticulationJoint@physx@@UAEXM@Z 100122f0 f   NpArticulationJoint.obj
 0001:00011370       ?getFrictionCoefficient@NpArticulationJoint@physx@@UBEMXZ 10012370 f   NpArticulationJoint.obj
 0001:000113a0       ??0?$NpArticulationJointTemplate@VPxArticulationJoint@physx@@@physx@@QAE@AAVNpArticulationLink@1@ABVPxTransform@1@01W4Enum@PxArticulationBase@1@@Z 100123a0 f i NpArticulationJoint.obj
 0001:00011430       ??0?$PxFlags@W4Enum@PxArticulationMotion@physx@@E@physx@@QAE@XZ 10012430 f i NpArticulationJoint.obj
 0001:00011440       ??1?$NpArticulationJointTemplate@VPxArticulationJoint@physx@@@physx@@UAE@XZ 10012440 f i NpArticulationJoint.obj
 0001:00011460       ??1PxArticulationJoint@physx@@MAE@XZ 10012460 f i NpArticulationJoint.obj
 0001:00011470       ??1PxArticulationJointBase@physx@@UAE@XZ 10012470 f i NpArticulationJoint.obj
 0001:00011480       ??_G?$NpArticulationJointTemplate@VPxArticulationJoint@physx@@@physx@@UAEPAXI@Z 10012480 f i NpArticulationJoint.obj
 0001:00011480       ??_E?$NpArticulationJointTemplate@VPxArticulationJoint@physx@@@physx@@UAEPAXI@Z 10012480 f i NpArticulationJoint.obj
 0001:000114d0       ??_GNpArticulationJoint@physx@@UAEPAXI@Z 100124d0 f i NpArticulationJoint.obj
 0001:000114d0       ??_ENpArticulationJoint@physx@@UAEPAXI@Z 100124d0 f i NpArticulationJoint.obj
 0001:00011520       ??_EPxArticulationJoint@physx@@MAEPAXI@Z 10012520 f i NpArticulationJoint.obj
 0001:00011520       ??_GPxArticulationJoint@physx@@MAEPAXI@Z 10012520 f i NpArticulationJoint.obj
 0001:00011550       ??_GPxArticulationJointBase@physx@@UAEPAXI@Z 10012550 f i NpArticulationJoint.obj
 0001:00011550       ??_EPxArticulationJointBase@physx@@UAEPAXI@Z 10012550 f i NpArticulationJoint.obj
 0001:00011580       ?getChildArticulationLink@?$NpArticulationJointTemplate@VPxArticulationJoint@physx@@@physx@@UBEAAVPxArticulationLink@2@XZ 10012580 f i NpArticulationJoint.obj
 0001:00011590       ?getChildPose@?$NpArticulationJointTemplate@VPxArticulationJoint@physx@@@physx@@UBE?AVPxTransform@2@XZ 10012590 f i NpArticulationJoint.obj
 0001:000115b0       ?getChildPose@PxArticulationJointImpl@physx@@QBE?AVPxTransform@2@XZ 100125b0 f i NpArticulationJoint.obj
 0001:00011880       ?getConcreteTypeName@PxArticulationJoint@physx@@UBEPBDXZ 10012880 f i NpArticulationJoint.obj
 0001:00011890       ?getImpl@?$NpArticulationJointTemplate@VPxArticulationJoint@physx@@@physx@@UAEPAVPxArticulationJointImpl@2@XZ 10012890 f i NpArticulationJoint.obj
 0001:000118a0       ?getImpl@?$NpArticulationJointTemplate@VPxArticulationJoint@physx@@@physx@@UBEPBVPxArticulationJointImpl@2@XZ 100128a0 f i NpArticulationJoint.obj
 0001:000118b0       ?getParentArticulationLink@?$NpArticulationJointTemplate@VPxArticulationJoint@physx@@@physx@@UBEAAVPxArticulationLink@2@XZ 100128b0 f i NpArticulationJoint.obj
 0001:000118c0       ?getParentPose@?$NpArticulationJointTemplate@VPxArticulationJoint@physx@@@physx@@UBE?AVPxTransform@2@XZ 100128c0 f i NpArticulationJoint.obj
 0001:00011910       ?isKindOf@PxArticulationJoint@physx@@MBE_NPBD@Z 10012910 f i NpArticulationJoint.obj
 0001:000119c0       ?isKindOf@PxArticulationJointBase@physx@@MBE_NPBD@Z 100129c0 f i NpArticulationJoint.obj
 0001:00011a40       ?isSubordinate@NpArticulationJoint@physx@@UBE_NXZ 10012a40 f i NpArticulationJoint.obj
 0001:00011a50       ?release@?$NpArticulationJointTemplate@VPxArticulationJoint@physx@@@physx@@UAEXXZ 10012a50 f i NpArticulationJoint.obj
 0001:00011aa0       ?requiresObjects@NpArticulationJoint@physx@@UAEXAAVPxProcessPxBaseCallback@2@@Z 10012aa0 f i NpArticulationJoint.obj
 0001:00011ab0       ?setChildPose@?$NpArticulationJointTemplate@VPxArticulationJoint@physx@@@physx@@UAEXABVPxTransform@2@@Z 10012ab0 f i NpArticulationJoint.obj
 0001:00011ac0       ?setChildPose@PxArticulationJointImpl@physx@@QAEXABVPxTransform@2@@Z 10012ac0 f i NpArticulationJoint.obj
 0001:00011e80       ?setParentPose@?$NpArticulationJointTemplate@VPxArticulationJoint@physx@@@physx@@UAEXABVPxTransform@2@@Z 10012e80 f i NpArticulationJoint.obj
 0001:00011e90       ?setParentPose@PxArticulationJointImpl@physx@@QAEXABVPxTransform@2@@Z 10012e90 f i NpArticulationJoint.obj
 0001:00012250       ?createObject@NpArticulationJointReducedCoordinate@physx@@SAPAV12@AAPAEAAVPxDeserializationContext@2@@Z 10013250 f   NpArticulationJointReducedCoordinate.obj
 0001:000122c0       ?getBinaryMetaData@NpArticulationJointReducedCoordinate@physx@@SAXAAVPxOutputStream@2@@Z 100132c0 f   NpArticulationJointReducedCoordinate.obj
 0001:000123c0       ??0NpArticulationJointReducedCoordinate@physx@@QAE@AAVNpArticulationLink@1@ABVPxTransform@1@01@Z 100133c0 f   NpArticulationJointReducedCoordinate.obj
 0001:00012450       ??1NpArticulationJointReducedCoordinate@physx@@UAE@XZ 10013450 f   NpArticulationJointReducedCoordinate.obj
 0001:00012470       ?setJointType@NpArticulationJointReducedCoordinate@physx@@UAEXW4Enum@PxArticulationJointType@2@@Z 10013470 f   NpArticulationJointReducedCoordinate.obj
 0001:000124e0       ?getJointType@NpArticulationJointReducedCoordinate@physx@@UBE?AW4Enum@PxArticulationJointType@2@XZ 100134e0 f   NpArticulationJointReducedCoordinate.obj
 0001:00012500       ?setMotion@NpArticulationJointReducedCoordinate@physx@@UAEXW4Enum@PxArticulationAxis@2@W43PxArticulationMotion@2@@Z 10013500 f   NpArticulationJointReducedCoordinate.obj
 0001:000125e0       ?getMotion@NpArticulationJointReducedCoordinate@physx@@UBE?AW4Enum@PxArticulationMotion@2@W43PxArticulationAxis@2@@Z 100135e0 f   NpArticulationJointReducedCoordinate.obj
 0001:00012610       ?setFrictionCoefficient@NpArticulationJointReducedCoordinate@physx@@UAEXM@Z 10013610 f   NpArticulationJointReducedCoordinate.obj
 0001:00012690       ?getFrictionCoefficient@NpArticulationJointReducedCoordinate@physx@@UBEMXZ 10013690 f   NpArticulationJointReducedCoordinate.obj
 0001:000126c0       ?setMaxJointVelocity@NpArticulationJointReducedCoordinate@physx@@UAEXM@Z 100136c0 f   NpArticulationJointReducedCoordinate.obj
 0001:00012740       ?getMaxJointVelocity@NpArticulationJointReducedCoordinate@physx@@UBEMXZ 10013740 f   NpArticulationJointReducedCoordinate.obj
 0001:00012770       ?setLimit@NpArticulationJointReducedCoordinate@physx@@UAEXW4Enum@PxArticulationAxis@2@MM@Z 10013770 f   NpArticulationJointReducedCoordinate.obj
 0001:000128c0       ?getLimit@NpArticulationJointReducedCoordinate@physx@@UAEXW4Enum@PxArticulationAxis@2@AAM1@Z 100138c0 f   NpArticulationJointReducedCoordinate.obj
 0001:00012920       ?setDrive@NpArticulationJointReducedCoordinate@physx@@UAEXW4Enum@PxArticulationAxis@2@MMM_N@Z 10013920 f   NpArticulationJointReducedCoordinate.obj
 0001:00012960       ?getDrive@NpArticulationJointReducedCoordinate@physx@@UAEXW4Enum@PxArticulationAxis@2@AAM11AA_N@Z 10013960 f   NpArticulationJointReducedCoordinate.obj
 0001:00012a00       ?setDriveTarget@NpArticulationJointReducedCoordinate@physx@@UAEXW4Enum@PxArticulationAxis@2@M@Z 10013a00 f   NpArticulationJointReducedCoordinate.obj
 0001:00012b50       ?setDriveVelocity@NpArticulationJointReducedCoordinate@physx@@UAEXW4Enum@PxArticulationAxis@2@M@Z 10013b50 f   NpArticulationJointReducedCoordinate.obj
 0001:00012ca0       ?getDriveTarget@NpArticulationJointReducedCoordinate@physx@@UAEMW4Enum@PxArticulationAxis@2@@Z 10013ca0 f   NpArticulationJointReducedCoordinate.obj
 0001:00012ce0       ?getDriveVelocity@NpArticulationJointReducedCoordinate@physx@@UAEMW4Enum@PxArticulationAxis@2@@Z 10013ce0 f   NpArticulationJointReducedCoordinate.obj
 0001:00012d20       ??0?$NpArticulationJointTemplate@VPxArticulationJointReducedCoordinate@physx@@@physx@@QAE@AAVNpArticulationLink@1@ABVPxTransform@1@01W4Enum@PxArticulationBase@1@@Z 10013d20 f i NpArticulationJointReducedCoordinate.obj
 0001:00012db0       ??1?$NpArticulationJointTemplate@VPxArticulationJointReducedCoordinate@physx@@@physx@@UAE@XZ 10013db0 f i NpArticulationJointReducedCoordinate.obj
 0001:00012dd0       ??1PxArticulationJointReducedCoordinate@physx@@MAE@XZ 10013dd0 f i NpArticulationJointReducedCoordinate.obj
 0001:00012de0       ??_E?$NpArticulationJointTemplate@VPxArticulationJointReducedCoordinate@physx@@@physx@@UAEPAXI@Z 10013de0 f i NpArticulationJointReducedCoordinate.obj
 0001:00012de0       ??_G?$NpArticulationJointTemplate@VPxArticulationJointReducedCoordinate@physx@@@physx@@UAEPAXI@Z 10013de0 f i NpArticulationJointReducedCoordinate.obj
 0001:00012e30       ??_ENpArticulationJointReducedCoordinate@physx@@UAEPAXI@Z 10013e30 f i NpArticulationJointReducedCoordinate.obj
 0001:00012e30       ??_GNpArticulationJointReducedCoordinate@physx@@UAEPAXI@Z 10013e30 f i NpArticulationJointReducedCoordinate.obj
 0001:00012e80       ??_EPxArticulationJointReducedCoordinate@physx@@MAEPAXI@Z 10013e80 f i NpArticulationJointReducedCoordinate.obj
 0001:00012e80       ??_GPxArticulationJointReducedCoordinate@physx@@MAEPAXI@Z 10013e80 f i NpArticulationJointReducedCoordinate.obj
 0001:00012eb0       ?getChildArticulationLink@?$NpArticulationJointTemplate@VPxArticulationJointReducedCoordinate@physx@@@physx@@UBEAAVPxArticulationLink@2@XZ 10013eb0 f i NpArticulationJointReducedCoordinate.obj
 0001:00012ec0       ?getChildPose@?$NpArticulationJointTemplate@VPxArticulationJointReducedCoordinate@physx@@@physx@@UBE?AVPxTransform@2@XZ 10013ec0 f i NpArticulationJointReducedCoordinate.obj
 0001:00012ee0       ?getConcreteTypeName@PxArticulationJointReducedCoordinate@physx@@UBEPBDXZ 10013ee0 f i NpArticulationJointReducedCoordinate.obj
 0001:00012ef0       ?getImpl@?$NpArticulationJointTemplate@VPxArticulationJointReducedCoordinate@physx@@@physx@@UAEPAVPxArticulationJointImpl@2@XZ 10013ef0 f i NpArticulationJointReducedCoordinate.obj
 0001:00012f00       ?getImpl@?$NpArticulationJointTemplate@VPxArticulationJointReducedCoordinate@physx@@@physx@@UBEPBVPxArticulationJointImpl@2@XZ 10013f00 f i NpArticulationJointReducedCoordinate.obj
 0001:00012f10       ?getParentArticulationLink@?$NpArticulationJointTemplate@VPxArticulationJointReducedCoordinate@physx@@@physx@@UBEAAVPxArticulationLink@2@XZ 10013f10 f i NpArticulationJointReducedCoordinate.obj
 0001:00012f20       ?getParentPose@?$NpArticulationJointTemplate@VPxArticulationJointReducedCoordinate@physx@@@physx@@UBE?AVPxTransform@2@XZ 10013f20 f i NpArticulationJointReducedCoordinate.obj
 0001:00012f70       ?isKindOf@PxArticulationJointReducedCoordinate@physx@@MBE_NPBD@Z 10013f70 f i NpArticulationJointReducedCoordinate.obj
 0001:00012ff0       ?isSubordinate@NpArticulationJointReducedCoordinate@physx@@UBE_NXZ 10013ff0 f i NpArticulationJointReducedCoordinate.obj
 0001:00013000       ?release@?$NpArticulationJointTemplate@VPxArticulationJointReducedCoordinate@physx@@@physx@@UAEXXZ 10014000 f i NpArticulationJointReducedCoordinate.obj
 0001:00013050       ?requiresObjects@NpArticulationJointReducedCoordinate@physx@@UAEXAAVPxProcessPxBaseCallback@2@@Z 10014050 f i NpArticulationJointReducedCoordinate.obj
 0001:00013060       ?resolveReferences@NpArticulationJointReducedCoordinate@physx@@UAEXAAVPxDeserializationContext@2@@Z 10014060 f i NpArticulationJointReducedCoordinate.obj
 0001:000130b0       ?setChildPose@?$NpArticulationJointTemplate@VPxArticulationJointReducedCoordinate@physx@@@physx@@UAEXABVPxTransform@2@@Z 100140b0 f i NpArticulationJointReducedCoordinate.obj
 0001:000130c0       ?setDrive@ArticulationJoint@Scb@physx@@QAEXW4Enum@PxArticulationAxis@3@MMM_N@Z 100140c0 f i NpArticulationJointReducedCoordinate.obj
 0001:00013330       ?setParentPose@?$NpArticulationJointTemplate@VPxArticulationJointReducedCoordinate@physx@@@physx@@UAEXABVPxTransform@2@@Z 10014330 f i NpArticulationJointReducedCoordinate.obj
 0001:00013340       ?exportData@NpArticulationLink@physx@@UBEXAAVPxSerializationContext@2@@Z 10014340 f   NpArticulationLink.obj
 0001:000133a0       ?exportExtraData@NpArticulationLink@physx@@UAEXAAVPxSerializationContext@2@@Z 100143a0 f   NpArticulationLink.obj
 0001:00013400       ?importExtraData@NpArticulationLink@physx@@UAEXAAVPxDeserializationContext@2@@Z 10014400 f   NpArticulationLink.obj
 0001:00013460       ?resolveReferences@NpArticulationLink@physx@@UAEXAAVPxDeserializationContext@2@@Z 10014460 f   NpArticulationLink.obj
 0001:00013550       ?requiresObjects@NpArticulationLink@physx@@UAEXAAVPxProcessPxBaseCallback@2@@Z 10014550 f   NpArticulationLink.obj
 0001:000135b0       ?createObject@NpArticulationLink@physx@@SAPAV12@AAPAEAAVPxDeserializationContext@2@@Z 100145b0 f   NpArticulationLink.obj
 0001:00013670       ??1NpArticulationLink@physx@@UAE@XZ 10014670 f   NpArticulationLink.obj
 0001:000136f0       ?release@NpArticulationLink@physx@@UAEXXZ 100146f0 f   NpArticulationLink.obj
 0001:00013760       ?setGlobalPose@NpArticulationLink@physx@@UAEXABVPxTransform@2@@Z 10014760 f   NpArticulationLink.obj
 0001:00013770       ?setGlobalPose@NpArticulationLink@physx@@UAEXABVPxTransform@2@_N@Z 10014770 f   NpArticulationLink.obj
 0001:00013780       ?getGlobalPose@NpArticulationLink@physx@@UBE?AVPxTransform@2@XZ 10014780 f   NpArticulationLink.obj
 0001:00013b50       ?setLinearDamping@NpArticulationLink@physx@@UAEXM@Z 10014b50 f   NpArticulationLink.obj
 0001:00013bc0       ?getLinearDamping@NpArticulationLink@physx@@UBEMXZ 10014bc0 f   NpArticulationLink.obj
 0001:00013bf0       ?setAngularDamping@NpArticulationLink@physx@@UAEXM@Z 10014bf0 f   NpArticulationLink.obj
 0001:00013c60       ?getAngularDamping@NpArticulationLink@physx@@UBEMXZ 10014c60 f   NpArticulationLink.obj
 0001:00013c90       ?setLinearVelocity@NpArticulationLink@physx@@UAEXABVPxVec3@2@_N@Z 10014c90 f   NpArticulationLink.obj
 0001:00013d10       ?setAngularVelocity@NpArticulationLink@physx@@UAEXABVPxVec3@2@_N@Z 10014d10 f   NpArticulationLink.obj
 0001:00013d90       ?setMaxAngularVelocity@NpArticulationLink@physx@@UAEXM@Z 10014d90 f   NpArticulationLink.obj
 0001:00013e10       ?getMaxAngularVelocity@NpArticulationLink@physx@@UBEMXZ 10014e10 f   NpArticulationLink.obj
 0001:00013e50       ?setMaxLinearVelocity@NpArticulationLink@physx@@UAEXM@Z 10014e50 f   NpArticulationLink.obj
 0001:00013ed0       ?getMaxLinearVelocity@NpArticulationLink@physx@@UBEMXZ 10014ed0 f   NpArticulationLink.obj
 0001:00013f10       ?getArticulation@NpArticulationLink@physx@@UBEAAVPxArticulationBase@2@XZ 10014f10 f   NpArticulationLink.obj
 0001:00013f20       ?getArticulationReducedCoordinate@NpArticulationLink@physx@@UBEAAVPxArticulationReducedCoordinate@2@XZ 10014f20 f   NpArticulationLink.obj
 0001:00013f30       ?getInboundJoint@NpArticulationLink@physx@@UBEPAVPxArticulationJointBase@2@XZ 10014f30 f   NpArticulationLink.obj
 0001:00013f40       ?getInboundJointDof@NpArticulationLink@physx@@UBEIXZ 10014f40 f   NpArticulationLink.obj
 0001:00013f50       ?getNbChildren@NpArticulationLink@physx@@UBEIXZ 10014f50 f   NpArticulationLink.obj
 0001:00013f60       ?getChildren@NpArticulationLink@physx@@UBEIPAPAVPxArticulationLink@2@II@Z 10014f60 f   NpArticulationLink.obj
 0001:00013fb0       ?getLinkIndex@NpArticulationLink@physx@@UBEIXZ 10014fb0 f   NpArticulationLink.obj
 0001:00013fc0       ?setCMassLocalPose@NpArticulationLink@physx@@UAEXABVPxTransform@2@@Z 10014fc0 f   NpArticulationLink.obj
 0001:00014850       ?addForce@NpArticulationLink@physx@@UAEXABVPxVec3@2@W4Enum@PxForceMode@2@_N@Z 10015850 f   NpArticulationLink.obj
 0001:000148d0       ?addTorque@NpArticulationLink@physx@@UAEXABVPxVec3@2@W4Enum@PxForceMode@2@_N@Z 100158d0 f   NpArticulationLink.obj
 0001:00014950       ?setForceAndTorque@NpArticulationLink@physx@@UAEXABVPxVec3@2@0W4Enum@PxForceMode@2@@Z 10015950 f   NpArticulationLink.obj
 0001:000149d0       ?clearForce@NpArticulationLink@physx@@UAEXW4Enum@PxForceMode@2@@Z 100159d0 f   NpArticulationLink.obj
 0001:000149f0       ?clearTorque@NpArticulationLink@physx@@UAEXW4Enum@PxForceMode@2@@Z 100159f0 f   NpArticulationLink.obj
 0001:00014a10       ??0NpArticulationLink@physx@@QAE@ABVPxTransform@1@AAVPxArticulationBase@1@PAV01@@Z 10015a10 f   NpArticulationLink.obj
 0001:00014bf0       ?releaseInternal@NpArticulationLink@physx@@QAEXXZ 10015bf0 f   NpArticulationLink.obj
 0001:00014d10       ?setGlobalPoseInternal@NpArticulationLink@physx@@QAEXABVPxTransform@2@_N@Z 10015d10 f   NpArticulationLink.obj
 0001:00015100       ?visualize@NpArticulationLink@physx@@QAEXAAVRenderOutput@Cm@2@PAVNpScene@2@@Z 10016100 f   NpArticulationLink.obj
 0001:000153d0       ?visualizeJoint@NpArticulationLink@physx@@QAEXAAVPxConstraintVisualizer@2@@Z 100163d0 f   NpArticulationLink.obj
 0001:00016d10       ??0?$NpActorTemplate@VPxArticulationLink@physx@@@physx@@QAE@GV?$PxFlags@W4Enum@PxBaseFlag@physx@@G@1@PBDPAX@Z 10017d10 f i NpArticulationLink.obj
 0001:00016d60       ??0?$NpRigidActorTemplate@VPxArticulationLink@physx@@@physx@@QAE@GV?$PxFlags@W4Enum@PxBaseFlag@physx@@G@1@@Z 10017d60 f i NpArticulationLink.obj
 0001:00016db0       ??0?$NpRigidBodyTemplate@VPxArticulationLink@physx@@@physx@@QAE@GV?$PxFlags@W4Enum@PxBaseFlag@physx@@G@1@W4Enum@PxActorType@1@ABVPxTransform@1@@Z 10017db0 f i NpArticulationLink.obj
 0001:00016ee0       ??0PxMat44@physx@@QAE@W4PxIDENTITY@1@@Z 10017ee0 f i NpArticulationLink.obj
 0001:00016f60       ??1?$NpActorTemplate@VPxArticulationLink@physx@@@physx@@UAE@XZ 10017f60 f i NpArticulationLink.obj
 0001:00016f90       ??1?$NpRigidActorTemplate@VPxArticulationLink@physx@@@physx@@UAE@XZ 10017f90 f i NpArticulationLink.obj
 0001:00016fc0       ??1?$NpRigidBodyTemplate@VPxArticulationLink@physx@@@physx@@UAE@XZ 10017fc0 f i NpArticulationLink.obj
 0001:00017000       ??1PxActor@physx@@MAE@XZ   10018000 f i NpArticulationLink.obj
 0001:00017010       ??1PxArticulationLink@physx@@MAE@XZ 10018010 f i NpArticulationLink.obj
 0001:00017020       ??1PxConstraintVisualizer@physx@@MAE@XZ 10018020 f i NpArticulationLink.obj
 0001:00017030       ??1PxRigidActor@physx@@MAE@XZ 10018030 f i NpArticulationLink.obj
 0001:00017040       ??1PxRigidBody@physx@@MAE@XZ 10018040 f i NpArticulationLink.obj
 0001:00017050       ??_E?$NpActorTemplate@VPxArticulationLink@physx@@@physx@@UAEPAXI@Z 10018050 f i NpArticulationLink.obj
 0001:00017050       ??_G?$NpActorTemplate@VPxArticulationLink@physx@@@physx@@UAEPAXI@Z 10018050 f i NpArticulationLink.obj
 0001:000170a0       ??_G?$NpRigidActorTemplate@VPxArticulationLink@physx@@@physx@@UAEPAXI@Z 100180a0 f i NpArticulationLink.obj
 0001:000170a0       ??_E?$NpRigidActorTemplate@VPxArticulationLink@physx@@@physx@@UAEPAXI@Z 100180a0 f i NpArticulationLink.obj
 0001:00017100       ??_G?$NpRigidBodyTemplate@VPxArticulationLink@physx@@@physx@@UAEPAXI@Z 10018100 f i NpArticulationLink.obj
 0001:00017100       ??_E?$NpRigidBodyTemplate@VPxArticulationLink@physx@@@physx@@UAEPAXI@Z 10018100 f i NpArticulationLink.obj
 0001:00017170       ??_EConstraintImmediateVisualizer@Cm@physx@@UAEPAXI@Z 10018170 f i NpArticulationLink.obj
 0001:00017170       ??_GConstraintImmediateVisualizer@Cm@physx@@UAEPAXI@Z 10018170 f i NpArticulationLink.obj
 0001:000171a0       ??_ENpArticulationLink@physx@@UAEPAXI@Z 100181a0 f i NpArticulationLink.obj
 0001:000171a0       ??_GNpArticulationLink@physx@@UAEPAXI@Z 100181a0 f i NpArticulationLink.obj
 0001:00017250       ??_EPxActor@physx@@MAEPAXI@Z 10018250 f i NpArticulationLink.obj
 0001:00017250       ??_GPxActor@physx@@MAEPAXI@Z 10018250 f i NpArticulationLink.obj
 0001:00017280       ??_EPxArticulationLink@physx@@MAEPAXI@Z 10018280 f i NpArticulationLink.obj
 0001:00017280       ??_GPxArticulationLink@physx@@MAEPAXI@Z 10018280 f i NpArticulationLink.obj
 0001:000172b0       ??_EPxConstraintVisualizer@physx@@MAEPAXI@Z 100182b0 f i NpArticulationLink.obj
 0001:000172b0       ??_GPxConstraintVisualizer@physx@@MAEPAXI@Z 100182b0 f i NpArticulationLink.obj
 0001:000172e0       ??_EPxRigidActor@physx@@MAEPAXI@Z 100182e0 f i NpArticulationLink.obj
 0001:000172e0       ??_GPxRigidActor@physx@@MAEPAXI@Z 100182e0 f i NpArticulationLink.obj
 0001:00017310       ??_EPxRigidBody@physx@@MAEPAXI@Z 10018310 f i NpArticulationLink.obj
 0001:00017310       ??_GPxRigidBody@physx@@MAEPAXI@Z 10018310 f i NpArticulationLink.obj
 0001:00017340       ?addSpatialAcceleration@Body@Scb@physx@@QAEXPBVPxVec3@3@0@Z 10018340 f i NpArticulationLink.obj
 0001:00017450       ?addSpatialForce@?$NpRigidBodyTemplate@VPxArticulationLink@physx@@@physx@@IAEXPBVPxVec3@2@0W4Enum@PxForceMode@2@@Z 10018450 f i NpArticulationLink.obj
 0001:000176e0       ?addSpatialVelocity@Body@Scb@physx@@QAEXPBVPxVec3@3@0@Z 100186e0 f i NpArticulationLink.obj
 0001:000177f0       ?allocate@?$Array@UPxDebugLine@physx@@V?$ReflectionAllocator@UPxDebugLine@physx@@@shdfnd@2@@shdfnd@physx@@IAEPAUPxDebugLine@3@I@Z 100187f0 f i NpArticulationLink.obj
 0001:00017860       ?attachShape@?$NpRigidActorTemplate@VPxArticulationLink@physx@@@physx@@UAE_NAAVPxShape@2@@Z 10018860 f i NpArticulationLink.obj
 0001:000178d0       ?attachShape@?$NpRigidBodyTemplate@VPxArticulationLink@physx@@@physx@@UAE_NAAVPxShape@2@@Z 100188d0 f i NpArticulationLink.obj
 0001:00017940       ?clearSpatialForce@?$NpRigidBodyTemplate@VPxArticulationLink@physx@@@physx@@IAEXW4Enum@PxForceMode@2@_N1@Z 10018940 f i NpArticulationLink.obj
 0001:00017af0       ?copy@?$Array@UPxDebugLine@physx@@V?$ReflectionAllocator@UPxDebugLine@physx@@@shdfnd@2@@shdfnd@physx@@KAXPAUPxDebugLine@3@0PBU43@@Z 10018af0 f i NpArticulationLink.obj
 0001:00017b60       ?detachShape@?$NpRigidActorTemplate@VPxArticulationLink@physx@@@physx@@UAEXAAVPxShape@2@_N@Z 10018b60 f i NpArticulationLink.obj
 0001:00017bd0       ?exportExtraData@?$NpActorTemplate@VPxArticulationLink@physx@@@physx@@UAEXAAVPxSerializationContext@2@@Z 10018bd0 f i NpArticulationLink.obj
 0001:00017be0       ?exportExtraData@?$NpRigidActorTemplate@VPxArticulationLink@physx@@@physx@@UAEXAAVPxSerializationContext@2@@Z 10018be0 f i NpArticulationLink.obj
 0001:00017c00       ?getActorFlags@?$NpActorTemplate@VPxArticulationLink@physx@@@physx@@UBE?AV?$PxFlags@W4Enum@PxActorFlag@physx@@E@2@XZ 10018c00 f i NpArticulationLink.obj
 0001:00017c40       ?getAggregate@?$NpActorTemplate@VPxArticulationLink@physx@@@physx@@UBEPAVPxAggregate@2@XZ 10018c40 f i NpArticulationLink.obj
 0001:00017c50       ?getAngularVelocity@?$NpRigidBodyTemplate@VPxArticulationLink@physx@@@physx@@UBE?AVPxVec3@2@XZ 10018c50 f i NpArticulationLink.obj
 0001:00017c80       ?getCMassLocalPose@?$NpRigidBodyTemplate@VPxArticulationLink@physx@@@physx@@UBE?AVPxTransform@2@XZ 10018c80 f i NpArticulationLink.obj
 0001:00017cd0       ?getConcreteTypeName@PxArticulationLink@physx@@UBEPBDXZ 10018cd0 f i NpArticulationLink.obj
 0001:00017ce0       ?getConstraints@?$NpRigidActorTemplate@VPxArticulationLink@physx@@@physx@@UBEIPAPAVPxConstraint@2@II@Z 10018ce0 f i NpArticulationLink.obj
 0001:00017d50       ?getDominanceGroup@?$NpActorTemplate@VPxArticulationLink@physx@@@physx@@UBEEXZ 10018d50 f i NpArticulationLink.obj
 0001:00017d80       ?getGlobalInertiaTensorInverse@Body@Scb@physx@@QBE?AVPxMat33@3@XZ 10018d80 f i NpArticulationLink.obj
 0001:00017fe0       ?getInternalIslandNodeIndex@?$NpRigidBodyTemplate@VPxArticulationLink@physx@@@physx@@UBEIXZ 10018fe0 f i NpArticulationLink.obj
 0001:00017ff0       ?getInvMass@?$NpRigidBodyTemplate@VPxArticulationLink@physx@@@physx@@UBEMXZ 10018ff0 f i NpArticulationLink.obj
 0001:00018020       ?getLinearVelocity@?$NpRigidBodyTemplate@VPxArticulationLink@physx@@@physx@@UBE?AVPxVec3@2@XZ 10019020 f i NpArticulationLink.obj
 0001:00018050       ?getMass@?$NpRigidBodyTemplate@VPxArticulationLink@physx@@@physx@@UBEMXZ 10019050 f i NpArticulationLink.obj
 0001:000180a0       ?getMassSpaceInertiaTensor@?$NpRigidBodyTemplate@VPxArticulationLink@physx@@@physx@@UBE?AVPxVec3@2@XZ 100190a0 f i NpArticulationLink.obj
 0001:00018130       ?getMassSpaceInvInertiaTensor@?$NpRigidBodyTemplate@VPxArticulationLink@physx@@@physx@@UBE?AVPxVec3@2@XZ 10019130 f i NpArticulationLink.obj
 0001:00018170       ?getMaxContactImpulse@?$NpRigidBodyTemplate@VPxArticulationLink@physx@@@physx@@UBEMXZ 10019170 f i NpArticulationLink.obj
 0001:000181b0       ?getMaxDepenetrationVelocity@?$NpRigidBodyTemplate@VPxArticulationLink@physx@@@physx@@UBEMXZ 100191b0 f i NpArticulationLink.obj
 0001:00018200       ?getMinCCDAdvanceCoefficient@?$NpRigidBodyTemplate@VPxArticulationLink@physx@@@physx@@UBEMXZ 10019200 f i NpArticulationLink.obj
 0001:00018240       ?getName@?$NpActorTemplate@VPxArticulationLink@physx@@@physx@@UBEPBDXZ 10019240 f i NpArticulationLink.obj
 0001:00018250       ?getNbConstraints@?$NpRigidActorTemplate@VPxArticulationLink@physx@@@physx@@UBEIXZ 10019250 f i NpArticulationLink.obj
 0001:00018260       ?getNbShapes@?$NpRigidActorTemplate@VPxArticulationLink@physx@@@physx@@UBEIXZ 10019260 f i NpArticulationLink.obj
 0001:00018270       ?getOwnerClient@?$NpActorTemplate@VPxArticulationLink@physx@@@physx@@UBEEXZ 10019270 f i NpArticulationLink.obj
 0001:000182a0       ?getRigidBodyFlags@?$NpRigidBodyTemplate@VPxArticulationLink@physx@@@physx@@UBE?AV?$PxFlags@W4Enum@PxRigidBodyFlag@physx@@E@2@XZ 100192a0 f i NpArticulationLink.obj
 0001:000182d0       ?getScene@?$NpActorTemplate@VPxArticulationLink@physx@@@physx@@UBEPAVPxScene@2@XZ 100192d0 f i NpArticulationLink.obj
 0001:000182e0       ?getShapes@?$NpRigidActorTemplate@VPxArticulationLink@physx@@@physx@@UBEIPAPAVPxShape@2@II@Z 100192e0 f i NpArticulationLink.obj
 0001:000182f0       ?getType@NpArticulationLink@physx@@UBE?AW4Enum@PxActorType@2@XZ 100192f0 f i NpArticulationLink.obj
 0001:00018300       ?getWorldBounds@?$NpRigidActorTemplate@VPxArticulationLink@physx@@@physx@@UBE?AVPxBounds3@2@M@Z 10019300 f i NpArticulationLink.obj
 0001:00018430       ?importExtraData@?$NpActorTemplate@VPxArticulationLink@physx@@@physx@@UAEXAAVPxDeserializationContext@2@@Z 10019430 f i NpArticulationLink.obj
 0001:00018440       ?importExtraData@?$NpRigidActorTemplate@VPxArticulationLink@physx@@@physx@@UAEXAAVPxDeserializationContext@2@@Z 10019440 f i NpArticulationLink.obj
 0001:00018460       ?isKindOf@PxActor@physx@@MBE_NPBD@Z 10019460 f i NpArticulationLink.obj
 0001:000184e0       ?isKindOf@PxArticulationLink@physx@@MBE_NPBD@Z 100194e0 f i NpArticulationLink.obj
 0001:00018540       ?isKindOf@PxRigidActor@physx@@MBE_NPBD@Z 10019540 f i NpArticulationLink.obj
 0001:000185f0       ?isKindOf@PxRigidBody@physx@@MBE_NPBD@Z 100195f0 f i NpArticulationLink.obj
 0001:000186d0       ?isSubordinate@NpArticulationLink@physx@@UBE_NXZ 100196d0 f i NpArticulationLink.obj
 0001:000186e0       ?putToSleepInternal@Body@Scb@physx@@QAEXXZ 100196e0 f i NpArticulationLink.obj
 0001:000187e0       ?recreate@?$Array@UPxDebugLine@physx@@V?$ReflectionAllocator@UPxDebugLine@physx@@@shdfnd@2@@shdfnd@physx@@IAEXI@Z 100197e0 f i NpArticulationLink.obj
 0001:00018830       ?release@?$NpActorTemplate@VPxArticulationLink@physx@@@physx@@UAEXXZ 10019830 f i NpArticulationLink.obj
 0001:00018840       ?release@?$NpRigidActorTemplate@VPxArticulationLink@physx@@@physx@@UAEXXZ 10019840 f i NpArticulationLink.obj
 0001:000188a0       ?requiresObjects@?$NpRigidActorTemplate@VPxArticulationLink@physx@@@physx@@UAEXAAVPxProcessPxBaseCallback@2@@Z 100198a0 f i NpArticulationLink.obj
 0001:000188e0       ?resolveReferences@?$NpActorTemplate@VPxArticulationLink@physx@@@physx@@UAEXAAVPxDeserializationContext@2@@Z 100198e0 f i NpArticulationLink.obj
 0001:000188f0       ?resolveReferences@?$NpRigidActorTemplate@VPxArticulationLink@physx@@@physx@@UAEXAAVPxDeserializationContext@2@@Z 100198f0 f i NpArticulationLink.obj
 0001:00018950       ?setActorFlag@?$NpActorTemplate@VPxArticulationLink@physx@@@physx@@UAEXW4Enum@PxActorFlag@2@_N@Z 10019950 f i NpArticulationLink.obj
 0001:000189f0       ?setActorFlag@?$NpRigidActorTemplate@VPxArticulationLink@physx@@@physx@@UAEXW4Enum@PxActorFlag@2@_N@Z 100199f0 f i NpArticulationLink.obj
 0001:00018b60       ?setActorFlags@?$NpActorTemplate@VPxArticulationLink@physx@@@physx@@UAEXV?$PxFlags@W4Enum@PxActorFlag@physx@@E@2@@Z 10019b60 f i NpArticulationLink.obj
 0001:00018b90       ?setActorFlags@?$NpRigidActorTemplate@VPxArticulationLink@physx@@@physx@@UAEXV?$PxFlags@W4Enum@PxActorFlag@physx@@E@2@@Z 10019b90 f i NpArticulationLink.obj
 0001:00018c90       ?setActorFlags@Actor@Scb@physx@@QAEXV?$PxFlags@W4Enum@PxActorFlag@physx@@E@3@@Z 10019c90 f i NpArticulationLink.obj
 0001:00018d10       ?setAngularVelocity@Body@Scb@physx@@QAEXABVPxVec3@3@@Z 10019d10 f i NpArticulationLink.obj
 0001:00018d70       ?setBody2World@Body@Scb@physx@@QAEXABVPxTransform@3@_N@Z 10019d70 f i NpArticulationLink.obj
 0001:00018e20       ?setCMassLocalPoseInternal@?$NpRigidBodyTemplate@VPxArticulationLink@physx@@@physx@@IAEXABVPxTransform@2@@Z 10019e20 f i NpArticulationLink.obj
 0001:000191a0       ?setChildPose@ArticulationJoint@Scb@physx@@QAEXABVPxTransform@3@@Z 1001a1a0 f i NpArticulationLink.obj
 0001:00019230       ?setDominanceGroup@?$NpActorTemplate@VPxArticulationLink@physx@@@physx@@UAEXE@Z 1001a230 f i NpArticulationLink.obj
 0001:000192a0       ?setFlags@Body@Scb@physx@@QAEXV?$PxFlags@W4Enum@PxRigidBodyFlag@physx@@E@3@@Z 1001a2a0 f i NpArticulationLink.obj
 0001:00019410       ?setLinearVelocity@Body@Scb@physx@@QAEXABVPxVec3@3@@Z 1001a410 f i NpArticulationLink.obj
 0001:00019470       ?setMass@?$NpRigidBodyTemplate@VPxArticulationLink@physx@@@physx@@UAEXM@Z 1001a470 f i NpArticulationLink.obj
 0001:00019500       ?setMassSpaceInertiaTensor@?$NpRigidBodyTemplate@VPxArticulationLink@physx@@@physx@@UAEXABVPxVec3@2@@Z 1001a500 f i NpArticulationLink.obj
 0001:000195f0       ?setMaxContactImpulse@?$NpRigidBodyTemplate@VPxArticulationLink@physx@@@physx@@UAEXM@Z 1001a5f0 f i NpArticulationLink.obj
 0001:00019670       ?setMaxDepenetrationVelocity@?$NpRigidBodyTemplate@VPxArticulationLink@physx@@@physx@@UAEXM@Z 1001a670 f i NpArticulationLink.obj
 0001:000196f0       ?setMinCCDAdvanceCoefficient@?$NpRigidBodyTemplate@VPxArticulationLink@physx@@@physx@@UAEXM@Z 1001a6f0 f i NpArticulationLink.obj
 0001:00019760       ?setName@?$NpActorTemplate@VPxArticulationLink@physx@@@physx@@UAEXPBD@Z 1001a760 f i NpArticulationLink.obj
 0001:00019770       ?setOwnerClient@?$NpActorTemplate@VPxArticulationLink@physx@@@physx@@UAEXE@Z 1001a770 f i NpArticulationLink.obj
 0001:00019820       ?setRigidBodyFlag@?$NpRigidBodyTemplate@VPxArticulationLink@physx@@@physx@@UAEXW4Enum@PxRigidBodyFlag@2@_N@Z 1001a820 f i NpArticulationLink.obj
 0001:00019b20       ?setRigidBodyFlags@?$NpRigidBodyTemplate@VPxArticulationLink@physx@@@physx@@UAEXV?$PxFlags@W4Enum@PxRigidBodyFlag@physx@@E@2@@Z 1001ab20 f i NpArticulationLink.obj
 0001:00019e10       ?setSpatialAcceleration@Body@Scb@physx@@QAEXPBVPxVec3@3@0@Z 1001ae10 f i NpArticulationLink.obj
 0001:00019ef0       ?setSpatialForce@?$NpRigidBodyTemplate@VPxArticulationLink@physx@@@physx@@IAEXPBVPxVec3@2@0W4Enum@PxForceMode@2@@Z 1001aef0 f i NpArticulationLink.obj
 0001:0001a180       ?switchFromNoSim@?$NpRigidActorTemplate@VPxArticulationLink@physx@@@physx@@UAEXXZ 1001b180 f i NpArticulationLink.obj
 0001:0001a190       ?switchToNoSim@?$NpRigidActorTemplate@VPxArticulationLink@physx@@@physx@@UAEXXZ 1001b190 f i NpArticulationLink.obj
 0001:0001a1a0       ?updateShaderComs@?$NpRigidActorTemplate@VPxArticulationLink@physx@@@physx@@QAEXXZ 1001b1a0 f i NpArticulationLink.obj
 0001:0001a200       ?visualize@?$NpRigidActorTemplate@VPxArticulationLink@physx@@@physx@@QAEXAAVRenderOutput@Cm@2@PAVNpScene@2@@Z 1001b200 f i NpArticulationLink.obj
 0001:0001a220       ?visualize@?$NpRigidBodyTemplate@VPxArticulationLink@physx@@@physx@@QAEXAAVRenderOutput@Cm@2@PAVNpScene@2@@Z 1001b220 f i NpArticulationLink.obj
 0001:0001a5b0       ?visualizeAngularLimit@ConstraintImmediateVisualizer@Cm@physx@@UAEXABVPxTransform@3@MM_N@Z 1001b5b0 f i NpArticulationLink.obj
 0001:0001a5f0       ?visualizeDoubleCone@ConstraintImmediateVisualizer@Cm@physx@@UAEXABVPxTransform@3@M_N@Z 1001b5f0 f i NpArticulationLink.obj
 0001:0001a620       ?visualizeJointFrames@ConstraintImmediateVisualizer@Cm@physx@@UAEXABVPxTransform@3@0@Z 1001b620 f i NpArticulationLink.obj
 0001:0001a650       ?visualizeLimitCone@ConstraintImmediateVisualizer@Cm@physx@@UAEXABVPxTransform@3@MM_N@Z 1001b650 f i NpArticulationLink.obj
 0001:0001a690       ?visualizeLine@ConstraintImmediateVisualizer@Cm@physx@@UAEXABVPxVec3@3@0I@Z 1001b690 f i NpArticulationLink.obj
 0001:0001a6f0       ?visualizeLinearLimit@ConstraintImmediateVisualizer@Cm@physx@@UAEXABVPxTransform@3@0M_N@Z 1001b6f0 f i NpArticulationLink.obj
 0001:0001a730       ??0NpBatchQuery@physx@@QAE@AAVNpScene@1@ABVPxBatchQueryDesc@1@@Z 1001b730 f   NpBatchQuery.obj
 0001:0001a810       ??1NpBatchQuery@physx@@UAE@XZ 1001b810 f   NpBatchQuery.obj
 0001:0001a870       ?execute@NpBatchQuery@physx@@UAEXXZ 1001b870 f   NpBatchQuery.obj
 0001:0001b040       ?release@NpBatchQuery@physx@@UAEXXZ 1001c040 f   NpBatchQuery.obj
 0001:0001b090       ?getPreFilterShader@NpBatchQuery@physx@@UBEP6A?AW4Enum@PxQueryHitType@2@UPxFilterData@2@0PBXIAAV?$PxFlags@W4Enum@PxHitFlag@physx@@G@2@@ZXZ 1001c090 f   NpBatchQuery.obj
 0001:0001b0a0       ?getPostFilterShader@NpBatchQuery@physx@@UBEP6A?AW4Enum@PxQueryHitType@2@UPxFilterData@2@0PBXIABUPxQueryHit@2@@ZXZ 1001c0a0 f   NpBatchQuery.obj
 0001:0001b0b0       ?getFilterShaderData@NpBatchQuery@physx@@UBEPBXXZ 1001c0b0 f   NpBatchQuery.obj
 0001:0001b0c0       ?getFilterShaderDataSize@NpBatchQuery@physx@@UBEIXZ 1001c0c0 f   NpBatchQuery.obj
 0001:0001b0d0       ?setUserMemory@NpBatchQuery@physx@@UAEXABUPxBatchQueryMemory@2@@Z 1001c0d0 f   NpBatchQuery.obj
 0001:0001b130       ?getUserMemory@NpBatchQuery@physx@@UAEABUPxBatchQueryMemory@2@XZ 1001c130 f   NpBatchQuery.obj
 0001:0001b140       ?raycast@NpBatchQuery@physx@@UAEXABVPxVec3@2@0MGV?$PxFlags@W4Enum@PxHitFlag@physx@@G@2@ABUPxQueryFilterData@2@PAXPBUPxQueryCache@2@@Z 1001c140 f   NpBatchQuery.obj
 0001:0001b260       ?overlap@NpBatchQuery@physx@@UAEXABVPxGeometry@2@ABVPxTransform@2@GABUPxQueryFilterData@2@PAXPBUPxQueryCache@2@@Z 1001c260 f   NpBatchQuery.obj
 0001:0001b370       ?sweep@NpBatchQuery@physx@@UAEXABVPxGeometry@2@ABVPxTransform@2@ABVPxVec3@2@MGV?$PxFlags@W4Enum@PxHitFlag@physx@@G@2@ABUPxQueryFilterData@2@PAXPBUPxQueryCache@2@M@Z 1001c370 f   NpBatchQuery.obj
 0001:0001b550       ?resetResultBuffers@NpBatchQuery@physx@@AAEXXZ 1001c550 f   NpBatchQuery.obj
 0001:0001b630       ?finalizeExecute@NpBatchQuery@physx@@AAEXXZ 1001c630 f   NpBatchQuery.obj
 0001:0001b670       ?writeBatchHeader@NpBatchQuery@physx@@AAEXABUBatchStreamHeader@2@@Z 1001c670 f   NpBatchQuery.obj
 0001:0001b710       ??$writeStatus@U?$PxBatchQueryResult@UPxOverlapHit@physx@@@physx@@UPxOverlapHit@2@@@YAXPAU?$PxBatchQueryResult@UPxOverlapHit@physx@@@physx@@ABU?$PxHitBuffer@UPxOverlapHit@physx@@@1@PAX_N@Z 1001c710 f i NpBatchQuery.obj
 0001:0001b760       ??$writeStatus@U?$PxBatchQueryResult@UPxRaycastHit@physx@@@physx@@UPxRaycastHit@2@@@YAXPAU?$PxBatchQueryResult@UPxRaycastHit@physx@@@physx@@ABU?$PxHitBuffer@UPxRaycastHit@physx@@@1@PAX_N@Z 1001c760 f i NpBatchQuery.obj
 0001:0001b800       ??$writeStatus@U?$PxBatchQueryResult@UPxSweepHit@physx@@@physx@@UPxSweepHit@2@@@YAXPAU?$PxBatchQueryResult@UPxSweepHit@physx@@@physx@@ABU?$PxHitBuffer@UPxSweepHit@physx@@@1@PAX_N@Z 1001c800 f i NpBatchQuery.obj
 0001:0001b890       ??1?$PxHitBuffer@UPxOverlapHit@physx@@@physx@@UAE@XZ 1001c890 f i NpBatchQuery.obj
 0001:0001b8a0       ??1?$PxHitBuffer@UPxRaycastHit@physx@@@physx@@UAE@XZ 1001c8a0 f i NpBatchQuery.obj
 0001:0001b8b0       ??1?$PxHitBuffer@UPxSweepHit@physx@@@physx@@UAE@XZ 1001c8b0 f i NpBatchQuery.obj
 0001:0001b8c0       ??1?$PxHitCallback@UPxOverlapHit@physx@@@physx@@UAE@XZ 1001c8c0 f i NpBatchQuery.obj
 0001:0001b8d0       ??1?$PxHitCallback@UPxRaycastHit@physx@@@physx@@UAE@XZ 1001c8d0 f i NpBatchQuery.obj
 0001:0001b8e0       ??1?$PxHitCallback@UPxSweepHit@physx@@@physx@@UAE@XZ 1001c8e0 f i NpBatchQuery.obj
 0001:0001b8f0       ??1PxBatchQuery@physx@@MAE@XZ 1001c8f0 f i NpBatchQuery.obj
 0001:0001b900       ??_E?$PxHitBuffer@UPxOverlapHit@physx@@@physx@@UAEPAXI@Z 1001c900 f i NpBatchQuery.obj
 0001:0001b900       ??_G?$PxHitBuffer@UPxOverlapHit@physx@@@physx@@UAEPAXI@Z 1001c900 f i NpBatchQuery.obj
 0001:0001b930       ??_E?$PxHitBuffer@UPxRaycastHit@physx@@@physx@@UAEPAXI@Z 1001c930 f i NpBatchQuery.obj
 0001:0001b930       ??_G?$PxHitBuffer@UPxRaycastHit@physx@@@physx@@UAEPAXI@Z 1001c930 f i NpBatchQuery.obj
 0001:0001b960       ??_G?$PxHitBuffer@UPxSweepHit@physx@@@physx@@UAEPAXI@Z 1001c960 f i NpBatchQuery.obj
 0001:0001b960       ??_E?$PxHitBuffer@UPxSweepHit@physx@@@physx@@UAEPAXI@Z 1001c960 f i NpBatchQuery.obj
 0001:0001b990       ??_G?$PxHitCallback@UPxOverlapHit@physx@@@physx@@UAEPAXI@Z 1001c990 f i NpBatchQuery.obj
 0001:0001b990       ??_E?$PxHitCallback@UPxOverlapHit@physx@@@physx@@UAEPAXI@Z 1001c990 f i NpBatchQuery.obj
 0001:0001b9c0       ??_G?$PxHitCallback@UPxRaycastHit@physx@@@physx@@UAEPAXI@Z 1001c9c0 f i NpBatchQuery.obj
 0001:0001b9c0       ??_E?$PxHitCallback@UPxRaycastHit@physx@@@physx@@UAEPAXI@Z 1001c9c0 f i NpBatchQuery.obj
 0001:0001b9f0       ??_G?$PxHitCallback@UPxSweepHit@physx@@@physx@@UAEPAXI@Z 1001c9f0 f i NpBatchQuery.obj
 0001:0001b9f0       ??_E?$PxHitCallback@UPxSweepHit@physx@@@physx@@UAEPAXI@Z 1001c9f0 f i NpBatchQuery.obj
 0001:0001ba20       ??_E?$PxOverflowBuffer@UPxOverlapHit@physx@@@@UAEPAXI@Z 1001ca20 f i NpBatchQuery.obj
 0001:0001ba20       ??_G?$PxOverflowBuffer@UPxOverlapHit@physx@@@@UAEPAXI@Z 1001ca20 f i NpBatchQuery.obj
 0001:0001ba50       ??_E?$PxOverflowBuffer@UPxRaycastHit@physx@@@@UAEPAXI@Z 1001ca50 f i NpBatchQuery.obj
 0001:0001ba50       ??_G?$PxOverflowBuffer@UPxRaycastHit@physx@@@@UAEPAXI@Z 1001ca50 f i NpBatchQuery.obj
 0001:0001ba80       ??_G?$PxOverflowBuffer@UPxSweepHit@physx@@@@UAEPAXI@Z 1001ca80 f i NpBatchQuery.obj
 0001:0001ba80       ??_E?$PxOverflowBuffer@UPxSweepHit@physx@@@@UAEPAXI@Z 1001ca80 f i NpBatchQuery.obj
 0001:0001bab0       ??_GNpBatchQuery@physx@@UAEPAXI@Z 1001cab0 f i NpBatchQuery.obj
 0001:0001bab0       ??_ENpBatchQuery@physx@@UAEPAXI@Z 1001cab0 f i NpBatchQuery.obj
 0001:0001bb30       ??_EPxBatchQuery@physx@@MAEPAXI@Z 1001cb30 f i NpBatchQuery.obj
 0001:0001bb30       ??_GPxBatchQuery@physx@@MAEPAXI@Z 1001cb30 f i NpBatchQuery.obj
 0001:0001bb60       ?finalizeQuery@?$PxHitCallback@UPxOverlapHit@physx@@@physx@@UAEXXZ 1001cb60 f i NpBatchQuery.obj
 0001:0001bb70       ?finalizeQuery@?$PxHitCallback@UPxRaycastHit@physx@@@physx@@UAEXXZ 1001cb70 f i NpBatchQuery.obj
 0001:0001bb80       ?finalizeQuery@?$PxHitCallback@UPxSweepHit@physx@@@physx@@UAEXXZ 1001cb80 f i NpBatchQuery.obj
 0001:0001bb90       ?finalizeQuery@?$PxOverflowBuffer@UPxOverlapHit@physx@@@@UAEXXZ 1001cb90 f i NpBatchQuery.obj
 0001:0001bbb0       ?finalizeQuery@?$PxOverflowBuffer@UPxRaycastHit@physx@@@@UAEXXZ 1001cbb0 f i NpBatchQuery.obj
 0001:0001bbe0       ?finalizeQuery@?$PxOverflowBuffer@UPxSweepHit@physx@@@@UAEXXZ 1001cbe0 f i NpBatchQuery.obj
 0001:0001bc00       ?getDesc@NpBatchQuery@physx@@UBEABVPxBatchQueryDesc@2@XZ 1001cc00 f i NpBatchQuery.obj
 0001:0001bc10       ?processTouches@?$PxHitBuffer@UPxOverlapHit@physx@@@physx@@MAE_NPBUPxOverlapHit@2@I@Z 1001cc10 f i NpBatchQuery.obj
 0001:0001bc20       ?processTouches@?$PxHitBuffer@UPxRaycastHit@physx@@@physx@@MAE_NPBUPxRaycastHit@2@I@Z 1001cc20 f i NpBatchQuery.obj
 0001:0001bc30       ?processTouches@?$PxHitBuffer@UPxSweepHit@physx@@@physx@@MAE_NPBUPxSweepHit@2@I@Z 1001cc30 f i NpBatchQuery.obj
 0001:0001bc40       ?processTouches@?$PxOverflowBuffer@UPxOverlapHit@physx@@@@UAE_NPBUPxOverlapHit@physx@@I@Z 1001cc40 f i NpBatchQuery.obj
 0001:0001bc70       ?processTouches@?$PxOverflowBuffer@UPxRaycastHit@physx@@@@UAE_NPBUPxRaycastHit@physx@@I@Z 1001cc70 f i NpBatchQuery.obj
 0001:0001bcb0       ?processTouches@?$PxOverflowBuffer@UPxSweepHit@physx@@@@UAE_NPBUPxSweepHit@physx@@I@Z 1001ccb0 f i NpBatchQuery.obj
 0001:0001bcf0       ?recreate@?$Array@DV?$ReflectionAllocator@D@shdfnd@physx@@@shdfnd@physx@@IAEXI@Z 1001ccf0 f i NpBatchQuery.obj
 0001:0001bdd0       ?resizeUninitialized@?$Array@DV?$ReflectionAllocator@D@shdfnd@physx@@@shdfnd@physx@@QAEXI@Z 1001cdd0 f i NpBatchQuery.obj
 0001:0001c100       ?NpConstraintGetRigidObjectsFromScb@physx@@YAXABVConstraint@Scb@1@AAPAVRigidObject@31@1@Z 1001d100 f   NpConstraint.obj
 0001:0001c150       ?setConstraintFunctions@NpConstraint@physx@@UAEXAAVPxConstraintConnector@2@ABUPxConstraintShaderTable@2@@Z 1001d150 f   NpConstraint.obj
 0001:0001c2e0       ?createObject@NpConstraint@physx@@SAPAV12@AAPAEAAVPxDeserializationContext@2@@Z 1001d2e0 f   NpConstraint.obj
 0001:0001c360       ?resolveReferences@NpConstraint@physx@@QAEXAAVPxDeserializationContext@2@@Z 1001d360 f   NpConstraint.obj
 0001:0001c3a0       ??0NpConstraint@physx@@QAE@PAVPxRigidActor@1@0AAVPxConstraintConnector@1@ABUPxConstraintShaderTable@1@I@Z 1001d3a0 f   NpConstraint.obj
 0001:0001c520       ??1NpConstraint@physx@@UAE@XZ 1001d520 f   NpConstraint.obj
 0001:0001c560       ?release@NpConstraint@physx@@UAEXXZ 1001d560 f   NpConstraint.obj
 0001:0001c620       ?getScene@NpConstraint@physx@@UBEPAVPxScene@2@XZ 1001d620 f   NpConstraint.obj
 0001:0001c650       ?getActors@NpConstraint@physx@@UBEXAAPAVPxRigidActor@2@0@Z 1001d650 f   NpConstraint.obj
 0001:0001c670       ?setActors@NpConstraint@physx@@UAEXPAVPxRigidActor@2@0@Z 1001d670 f   NpConstraint.obj
 0001:0001c8b0       ?getFlags@NpConstraint@physx@@UBE?AV?$PxFlags@W4Enum@PxConstraintFlag@physx@@G@2@XZ 1001d8b0 f   NpConstraint.obj
 0001:0001c8f0       ?setFlags@NpConstraint@physx@@UAEXV?$PxFlags@W4Enum@PxConstraintFlag@physx@@G@2@@Z 1001d8f0 f   NpConstraint.obj
 0001:0001c930       ?setFlag@NpConstraint@physx@@UAEXW4Enum@PxConstraintFlag@2@_N@Z 1001d930 f   NpConstraint.obj
 0001:0001c9f0       ?getForce@NpConstraint@physx@@UBEXAAVPxVec3@2@0@Z 1001d9f0 f   NpConstraint.obj
 0001:0001ca30       ?markDirty@NpConstraint@physx@@UAEXXZ 1001da30 f   NpConstraint.obj
 0001:0001ca40       ?setBreakForce@NpConstraint@physx@@UAEXMM@Z 1001da40 f   NpConstraint.obj
 0001:0001cb10       ?getBreakForce@NpConstraint@physx@@UBEXAAM0@Z 1001db10 f   NpConstraint.obj
 0001:0001cb80       ?setMinResponseThreshold@NpConstraint@physx@@UAEXM@Z 1001db80 f   NpConstraint.obj
 0001:0001cc30       ?getMinResponseThreshold@NpConstraint@physx@@UBEMXZ 1001dc30 f   NpConstraint.obj
 0001:0001cc80       ?isValid@NpConstraint@physx@@UBE_NXZ 1001dc80 f   NpConstraint.obj
 0001:0001ccd0       ?getExternalReference@NpConstraint@physx@@UAEPAXAAI@Z 1001dcd0 f   NpConstraint.obj
 0001:0001cce0       ?updateConstants@NpConstraint@physx@@QAEXXZ 1001dce0 f   NpConstraint.obj
 0001:0001cd10       ?comShift@NpConstraint@physx@@QAEXPAVPxRigidActor@2@@Z 1001dd10 f   NpConstraint.obj
 0001:0001cd40       ?actorDeleted@NpConstraint@physx@@QAEXPAVPxRigidActor@2@@Z 1001dd40 f   NpConstraint.obj
 0001:0001cd60       ?getNpScene@NpConstraint@physx@@QBEPAVNpScene@2@XZ 1001dd60 f   NpConstraint.obj
 0001:0001cd90       ?getSceneFromActors@NpConstraint@physx@@QBEPAVNpScene@2@XZ 1001dd90 f   NpConstraint.obj
 0001:0001ce00       ?getScbRigidObject@NpConstraint@physx@@SAPAVRigidObject@Scb@2@PAVPxRigidActor@2@@Z 1001de00 f   NpConstraint.obj
 0001:0001ce10       ??1PxConstraint@physx@@MAE@XZ 1001de10 f i NpConstraint.obj
 0001:0001ce20       ??_GNpConstraint@physx@@UAEPAXI@Z 1001de20 f i NpConstraint.obj
 0001:0001ce20       ??_ENpConstraint@physx@@UAEPAXI@Z 1001de20 f i NpConstraint.obj
 0001:0001ce90       ??_EPxConstraint@physx@@MAEPAXI@Z 1001de90 f i NpConstraint.obj
 0001:0001ce90       ??_GPxConstraint@physx@@MAEPAXI@Z 1001de90 f i NpConstraint.obj
 0001:0001cec0       ?getConcreteTypeName@PxConstraint@physx@@UBEPBDXZ 1001dec0 f i NpConstraint.obj
 0001:0001ced0       ?isKindOf@PxConstraint@physx@@MBE_NPBD@Z 1001ded0 f i NpConstraint.obj
 0001:0001cf50       ?isSubordinate@NpConstraint@physx@@UBE_NXZ 1001df50 f i NpConstraint.obj
 0001:0001cf60       ?requiresObjects@NpConstraint@physx@@UAEXAAVPxProcessPxBaseCallback@2@@Z 1001df60 f i NpConstraint.obj
 0001:0001cf70       ?setBodies@Constraint@Scb@physx@@QAEXPAVRigidObject@23@0@Z 1001df70 f i NpConstraint.obj
 0001:0001d040       ?setFlags@Constraint@Scb@physx@@QAEXV?$PxFlags@W4Enum@PxConstraintFlag@physx@@G@3@@Z 1001e040 f i NpConstraint.obj
 0001:0001d0b0       ??0NpFactory@physx@@QAE@XZ 1001e0b0 f   NpFactory.obj
 0001:0001d9e0       ??1NpFactory@physx@@EAE@XZ 1001e9e0 f   NpFactory.obj
 0001:0001dca0       ?createInstance@NpFactory@physx@@SAXXZ 1001eca0 f   NpFactory.obj
 0001:0001dd10       ?destroyInstance@NpFactory@physx@@SAXXZ 1001ed10 f   NpFactory.obj
 0001:0001dd30       ?registerArticulations@NpFactory@physx@@SAXXZ 1001ed30 f   NpFactory.obj
 0001:0001dd50       ?registerArticulationRCs@NpFactory@physx@@SAXXZ 1001ed50 f   NpFactory.obj
 0001:0001dd70       ?release@NpFactory@physx@@QAEXXZ 1001ed70 f   NpFactory.obj
 0001:0001e1f0       ?addCollection@NpFactory@physx@@QAEXABVCollection@Cm@2@@Z 1001f1f0 f   NpFactory.obj
 0001:0001e440       ?createRigidDynamic@NpFactory@physx@@QAEPAVPxRigidDynamic@2@ABVPxTransform@2@@Z 1001f440 f   NpFactory.obj
 0001:0001e5a0       ?addRigidDynamic@NpFactory@physx@@QAEXPAVPxRigidDynamic@2@_N@Z 1001f5a0 f   NpFactory.obj
 0001:0001e600       ?releaseRigidDynamicToPool@NpFactory@physx@@QAEXAAVNpRigidDynamic@2@@Z 1001f600 f   NpFactory.obj
 0001:0001e650       ?createRigidStatic@NpFactory@physx@@QAEPAVPxRigidStatic@2@ABVPxTransform@2@@Z 1001f650 f   NpFactory.obj
 0001:0001e7a0       ?addRigidStatic@NpFactory@physx@@QAEXPAVPxRigidStatic@2@_N@Z 1001f7a0 f   NpFactory.obj
 0001:0001e800       ?releaseRigidStaticToPool@NpFactory@physx@@QAEXAAVNpRigidStatic@2@@Z 1001f800 f   NpFactory.obj
 0001:0001e850       ?createShape@NpFactory@physx@@QAEPAVNpShape@2@ABVPxGeometry@2@V?$PxFlags@W4Enum@PxShapeFlag@physx@@E@2@PBQAVPxMaterial@2@G_N@Z 1001f850 f   NpFactory.obj
 0001:0001eae0       ?addShape@NpFactory@physx@@QAEXPAVPxShape@2@_N@Z 1001fae0 f   NpFactory.obj
 0001:0001eb40       ?releaseShapeToPool@NpFactory@physx@@QAEXAAVNpShape@2@@Z 1001fb40 f   NpFactory.obj
 0001:0001eb90       ?getNbShapes@NpFactory@physx@@QBEIXZ 1001fb90 f   NpFactory.obj
 0001:0001eba0       ?getShapes@NpFactory@physx@@QBEIPAPAVPxShape@2@II@Z 1001fba0 f   NpFactory.obj
 0001:0001ebf0       ?createConstraint@NpFactory@physx@@QAEPAVPxConstraint@2@PAVPxRigidActor@2@0AAVPxConstraintConnector@2@ABUPxConstraintShaderTable@2@I@Z 1001fbf0 f   NpFactory.obj
 0001:0001ed50       ?addConstraint@NpFactory@physx@@QAEXPAVPxConstraint@2@_N@Z 1001fd50 f   NpFactory.obj
 0001:0001edb0       ?releaseConstraintToPool@NpFactory@physx@@QAEXAAVNpConstraint@2@@Z 1001fdb0 f   NpFactory.obj
 0001:0001ee00       ?createArticulation@NpFactory@physx@@QAEPAVPxArticulation@2@XZ 1001fe00 f   NpFactory.obj
 0001:0001ee80       ?addArticulation@NpFactory@physx@@QAEXPAVPxArticulationBase@2@_N@Z 1001fe80 f   NpFactory.obj
 0001:0001eee0       ?releaseArticulationToPool@NpFactory@physx@@QAEXAAVPxArticulationBase@2@@Z 1001fee0 f   NpFactory.obj
 0001:0001ef70       ?createArticulationRC@NpFactory@physx@@QAEPAVPxArticulationReducedCoordinate@2@XZ 1001ff70 f   NpFactory.obj
 0001:0001eff0       ?createNpArticulation@NpFactory@physx@@QAEPAVNpArticulation@2@XZ 1001fff0 f   NpFactory.obj
 0001:0001f110       ?createNpArticulationRC@NpFactory@physx@@QAEPAVNpArticulationReducedCoordinate@2@XZ 10020110 f   NpFactory.obj
 0001:0001f240       ?createNpArticulationLink@NpFactory@physx@@QAEPAVNpArticulationLink@2@AAVPxArticulationBase@2@PAV32@ABVPxTransform@2@@Z 10020240 f   NpFactory.obj
 0001:0001f380       ?releaseArticulationLinkToPool@NpFactory@physx@@QAEXAAVNpArticulationLink@2@@Z 10020380 f   NpFactory.obj
 0001:0001f3d0       ?createArticulationLink@NpFactory@physx@@QAEPAVPxArticulationLink@2@AAVPxArticulationBase@2@PAVNpArticulationLink@2@ABVPxTransform@2@@Z 100203d0 f   NpFactory.obj
 0001:0001f420       ?createNpArticulationJoint@NpFactory@physx@@QAEPAVNpArticulationJoint@2@AAVNpArticulationLink@2@ABVPxTransform@2@01@Z 10020420 f   NpFactory.obj
 0001:0001f560       ?releaseArticulationJointToPool@NpFactory@physx@@QAEXAAVNpArticulationJoint@2@@Z 10020560 f   NpFactory.obj
 0001:0001f5b0       ?createNpArticulationJointRC@NpFactory@physx@@QAEPAVNpArticulationJointReducedCoordinate@2@AAVNpArticulationLink@2@ABVPxTransform@2@01@Z 100205b0 f   NpFactory.obj
 0001:0001f6f0       ?releaseArticulationJointRCToPool@NpFactory@physx@@QAEXAAVNpArticulationJointReducedCoordinate@2@@Z 100206f0 f   NpFactory.obj
 0001:0001f740       ?createAggregate@NpFactory@physx@@QAEPAVPxAggregate@2@I_N@Z 10020740 f   NpFactory.obj
 0001:0001f890       ?addAggregate@NpFactory@physx@@QAEXPAVPxAggregate@2@_N@Z 10020890 f   NpFactory.obj
 0001:0001f8f0       ?releaseAggregateToPool@NpFactory@physx@@QAEXAAVNpAggregate@2@@Z 100208f0 f   NpFactory.obj
 0001:0001f940       ?createMaterial@NpFactory@physx@@QAEPAVPxMaterial@2@MMM@Z 10020940 f   NpFactory.obj
 0001:0001faa0       ?releaseMaterialToPool@NpFactory@physx@@QAEXAAVNpMaterial@2@@Z 10020aa0 f   NpFactory.obj
 0001:0001faf0       ?onActorRelease@NpFactory@physx@@QAEXPAVPxActor@2@@Z 10020af0 f   NpFactory.obj
 0001:0001fbc0       ?onConstraintRelease@NpFactory@physx@@QAEXPAVPxConstraint@2@@Z 10020bc0 f   NpFactory.obj
 0001:0001fc90       ?onAggregateRelease@NpFactory@physx@@QAEXPAVPxAggregate@2@@Z 10020c90 f   NpFactory.obj
 0001:0001fd60       ?onArticulationRelease@NpFactory@physx@@QAEXPAVPxArticulationBase@2@@Z 10020d60 f   NpFactory.obj
 0001:0001fe30       ?onShapeRelease@NpFactory@physx@@QAEXPAVPxShape@2@@Z 10020e30 f   NpFactory.obj
 0001:0001fe60       ?acquireConnectorArray@NpFactory@physx@@QAEPAVNpConnectorArray@2@XZ 10020e60 f   NpFactory.obj
 0001:0001ffa0       ?releaseConnectorArray@NpFactory@physx@@QAEXPAVNpConnectorArray@2@@Z 10020fa0 f   NpFactory.obj
 0001:00020010       ?NpDestroy@physx@@YAXAAVBase@Scb@1@@Z 10021010 f   NpFactory.obj
 0001:00020ad0       ??$sort@PAXU?$Less@PAX@shdfnd@physx@@V?$ReflectionAllocator@V?$PtrBlock@$03@NpPtrTableStorageManager@physx@@@23@@shdfnd@physx@@YAXPAPAXIABU?$Less@PAX@01@ABV?$ReflectionAllocator@V?$PtrBlock@$03@NpPtrTableStorageManager@physx@@@01@I@Z 10021ad0 f i NpFactory.obj
 0001:00020e40       ??$sort@PAXU?$Less@PAX@shdfnd@physx@@V?$ReflectionAllocator@V?$PtrBlock@$0BA@@NpPtrTableStorageManager@physx@@@23@@shdfnd@physx@@YAXPAPAXIABU?$Less@PAX@01@ABV?$ReflectionAllocator@V?$PtrBlock@$0BA@@NpPtrTableStorageManager@physx@@@01@I@Z 10021e40 f i NpFactory.obj
 0001:000211b0       ??$sort@PAXU?$Less@PAX@shdfnd@physx@@V?$ReflectionAllocator@V?$PtrBlock@$0EA@@NpPtrTableStorageManager@physx@@@23@@shdfnd@physx@@YAXPAPAXIABU?$Less@PAX@01@ABV?$ReflectionAllocator@V?$PtrBlock@$0EA@@NpPtrTableStorageManager@physx@@@01@I@Z 100221b0 f i NpFactory.obj
 0001:00021520       ??$sort@PAXU?$Less@PAX@shdfnd@physx@@V?$ReflectionAllocator@VNpAggregate@physx@@@23@@shdfnd@physx@@YAXPAPAXIABU?$Less@PAX@01@ABV?$ReflectionAllocator@VNpAggregate@physx@@@01@I@Z 10022520 f i NpFactory.obj
 0001:00021890       ??$sort@PAXU?$Less@PAX@shdfnd@physx@@V?$ReflectionAllocator@VNpArticulation@physx@@@23@@shdfnd@physx@@YAXPAPAXIABU?$Less@PAX@01@ABV?$ReflectionAllocator@VNpArticulation@physx@@@01@I@Z 10022890 f i NpFactory.obj
 0001:00021c00       ??$sort@PAXU?$Less@PAX@shdfnd@physx@@V?$ReflectionAllocator@VNpArticulationJoint@physx@@@23@@shdfnd@physx@@YAXPAPAXIABU?$Less@PAX@01@ABV?$ReflectionAllocator@VNpArticulationJoint@physx@@@01@I@Z 10022c00 f i NpFactory.obj
 0001:00021f70       ??$sort@PAXU?$Less@PAX@shdfnd@physx@@V?$ReflectionAllocator@VNpArticulationJointReducedCoordinate@physx@@@23@@shdfnd@physx@@YAXPAPAXIABU?$Less@PAX@01@ABV?$ReflectionAllocator@VNpArticulationJointReducedCoordinate@physx@@@01@I@Z 10022f70 f i NpFactory.obj
 0001:000222e0       ??$sort@PAXU?$Less@PAX@shdfnd@physx@@V?$ReflectionAllocator@VNpArticulationLink@physx@@@23@@shdfnd@physx@@YAXPAPAXIABU?$Less@PAX@01@ABV?$ReflectionAllocator@VNpArticulationLink@physx@@@01@I@Z 100232e0 f i NpFactory.obj
 0001:00022650       ??$sort@PAXU?$Less@PAX@shdfnd@physx@@V?$ReflectionAllocator@VNpArticulationReducedCoordinate@physx@@@23@@shdfnd@physx@@YAXPAPAXIABU?$Less@PAX@01@ABV?$ReflectionAllocator@VNpArticulationReducedCoordinate@physx@@@01@I@Z 10023650 f i NpFactory.obj
 0001:000229c0       ??$sort@PAXU?$Less@PAX@shdfnd@physx@@V?$ReflectionAllocator@VNpConnectorArray@physx@@@23@@shdfnd@physx@@YAXPAPAXIABU?$Less@PAX@01@ABV?$ReflectionAllocator@VNpConnectorArray@physx@@@01@I@Z 100239c0 f i NpFactory.obj
 0001:00022d30       ??$sort@PAXU?$Less@PAX@shdfnd@physx@@V?$ReflectionAllocator@VNpConstraint@physx@@@23@@shdfnd@physx@@YAXPAPAXIABU?$Less@PAX@01@ABV?$ReflectionAllocator@VNpConstraint@physx@@@01@I@Z 10023d30 f i NpFactory.obj
 0001:000230a0       ??$sort@PAXU?$Less@PAX@shdfnd@physx@@V?$ReflectionAllocator@VNpMaterial@physx@@@23@@shdfnd@physx@@YAXPAPAXIABU?$Less@PAX@01@ABV?$ReflectionAllocator@VNpMaterial@physx@@@01@I@Z 100240a0 f i NpFactory.obj
 0001:00023410       ??$sort@PAXU?$Less@PAX@shdfnd@physx@@V?$ReflectionAllocator@VNpRigidDynamic@physx@@@23@@shdfnd@physx@@YAXPAPAXIABU?$Less@PAX@01@ABV?$ReflectionAllocator@VNpRigidDynamic@physx@@@01@I@Z 10024410 f i NpFactory.obj
 0001:00023780       ??$sort@PAXU?$Less@PAX@shdfnd@physx@@V?$ReflectionAllocator@VNpRigidStatic@physx@@@23@@shdfnd@physx@@YAXPAPAXIABU?$Less@PAX@01@ABV?$ReflectionAllocator@VNpRigidStatic@physx@@@01@I@Z 10024780 f i NpFactory.obj
 0001:00023af0       ??$sort@PAXU?$Less@PAX@shdfnd@physx@@V?$ReflectionAllocator@VNpShape@physx@@@23@@shdfnd@physx@@YAXPAPAXIABU?$Less@PAX@01@ABV?$ReflectionAllocator@VNpShape@physx@@@01@I@Z 10024af0 f i NpFactory.obj
 0001:00023e60       ??0?$MutexT@V?$ReflectionAllocator@VMutexImpl@shdfnd@physx@@@shdfnd@physx@@@shdfnd@physx@@QAE@ABV?$ReflectionAllocator@VMutexImpl@shdfnd@physx@@@12@@Z 10024e60 f i NpFactory.obj
 0001:00023ee0       ??1?$PoolBase@V?$PtrBlock@$03@NpPtrTableStorageManager@physx@@V?$ReflectionAllocator@V?$PtrBlock@$03@NpPtrTableStorageManager@physx@@@shdfnd@3@@shdfnd@physx@@QAE@XZ 10024ee0 f i NpFactory.obj
 0001:000240a0       ??1?$PoolBase@V?$PtrBlock@$0BA@@NpPtrTableStorageManager@physx@@V?$ReflectionAllocator@V?$PtrBlock@$0BA@@NpPtrTableStorageManager@physx@@@shdfnd@3@@shdfnd@physx@@QAE@XZ 100250a0 f i NpFactory.obj
 0001:00024260       ??1?$PoolBase@V?$PtrBlock@$0EA@@NpPtrTableStorageManager@physx@@V?$ReflectionAllocator@V?$PtrBlock@$0EA@@NpPtrTableStorageManager@physx@@@shdfnd@3@@shdfnd@physx@@QAE@XZ 10025260 f i NpFactory.obj
 0001:00024420       ??1?$PoolBase@VNpAggregate@physx@@V?$ReflectionAllocator@VNpAggregate@physx@@@shdfnd@2@@shdfnd@physx@@QAE@XZ 10025420 f i NpFactory.obj
 0001:00024600       ??1?$PoolBase@VNpArticulation@physx@@V?$ReflectionAllocator@VNpArticulation@physx@@@shdfnd@2@@shdfnd@physx@@QAE@XZ 10025600 f i NpFactory.obj
 0001:000247e0       ??1?$PoolBase@VNpArticulationJoint@physx@@V?$ReflectionAllocator@VNpArticulationJoint@physx@@@shdfnd@2@@shdfnd@physx@@QAE@XZ 100257e0 f i NpFactory.obj
 0001:000249c0       ??1?$PoolBase@VNpArticulationJointReducedCoordinate@physx@@V?$ReflectionAllocator@VNpArticulationJointReducedCoordinate@physx@@@shdfnd@2@@shdfnd@physx@@QAE@XZ 100259c0 f i NpFactory.obj
 0001:00024ba0       ??1?$PoolBase@VNpArticulationLink@physx@@V?$ReflectionAllocator@VNpArticulationLink@physx@@@shdfnd@2@@shdfnd@physx@@QAE@XZ 10025ba0 f i NpFactory.obj
 0001:00024d80       ??1?$PoolBase@VNpArticulationReducedCoordinate@physx@@V?$ReflectionAllocator@VNpArticulationReducedCoordinate@physx@@@shdfnd@2@@shdfnd@physx@@QAE@XZ 10025d80 f i NpFactory.obj
 0001:00024f60       ??1?$PoolBase@VNpConnectorArray@physx@@V?$ReflectionAllocator@VNpConnectorArray@physx@@@shdfnd@2@@shdfnd@physx@@QAE@XZ 10025f60 f i NpFactory.obj
 0001:00025010       ??1?$PoolBase@VNpConstraint@physx@@V?$ReflectionAllocator@VNpConstraint@physx@@@shdfnd@2@@shdfnd@physx@@QAE@XZ 10026010 f i NpFactory.obj
 0001:000251f0       ??1?$PoolBase@VNpMaterial@physx@@V?$ReflectionAllocator@VNpMaterial@physx@@@shdfnd@2@@shdfnd@physx@@QAE@XZ 100261f0 f i NpFactory.obj
 0001:000253d0       ??1?$PoolBase@VNpRigidDynamic@physx@@V?$ReflectionAllocator@VNpRigidDynamic@physx@@@shdfnd@2@@shdfnd@physx@@QAE@XZ 100263d0 f i NpFactory.obj
 0001:000255b0       ??1?$PoolBase@VNpRigidStatic@physx@@V?$ReflectionAllocator@VNpRigidStatic@physx@@@shdfnd@2@@shdfnd@physx@@QAE@XZ 100265b0 f i NpFactory.obj
 0001:00025790       ??1?$PoolBase@VNpShape@physx@@V?$ReflectionAllocator@VNpShape@physx@@@shdfnd@2@@shdfnd@physx@@QAE@XZ 10026790 f i NpFactory.obj
 0001:00025970       ??1PtrTableStorageManager@Cm@physx@@MAE@XZ 10026970 f i NpFactory.obj
 0001:00025980       ??_ENpFactory@physx@@EAEPAXI@Z 10026980 f i NpFactory.obj
 0001:00025980       ??_GNpFactory@physx@@EAEPAXI@Z 10026980 f i NpFactory.obj
 0001:000259c0       ??_ENpPtrTableStorageManager@physx@@UAEPAXI@Z 100269c0 f i NpFactory.obj
 0001:000259c0       ??_GNpPtrTableStorageManager@physx@@UAEPAXI@Z 100269c0 f i NpFactory.obj
 0001:00025a40       ??_GPtrTableStorageManager@Cm@physx@@MAEPAXI@Z 10026a40 f i NpFactory.obj
 0001:00025a40       ??_EPtrTableStorageManager@Cm@physx@@MAEPAXI@Z 10026a40 f i NpFactory.obj
 0001:00025a70       ?allocate@?$Array@GV?$InlineAllocator@$07V?$ReflectionAllocator@G@shdfnd@physx@@@shdfnd@physx@@@shdfnd@physx@@IAEPAGI@Z 10026a70 f i NpFactory.obj
 0001:00025b00       ?allocate@?$Array@PAVPxActor@physx@@V?$ReflectionAllocator@PAVPxActor@physx@@@shdfnd@2@@shdfnd@physx@@IAEPAPAVPxActor@3@I@Z 10026b00 f i NpFactory.obj
 0001:00025b70       ?allocate@?$Array@PAVPxAggregate@physx@@V?$ReflectionAllocator@PAVPxAggregate@physx@@@shdfnd@2@@shdfnd@physx@@IAEPAPAVPxAggregate@3@I@Z 10026b70 f i NpFactory.obj
 0001:00025be0       ?allocate@?$Array@PAVPxArticulationBase@physx@@V?$ReflectionAllocator@PAVPxArticulationBase@physx@@@shdfnd@2@@shdfnd@physx@@IAEPAPAVPxArticulationBase@3@I@Z 10026be0 f i NpFactory.obj
 0001:00025c50       ?allocate@?$Array@PAVPxConstraint@physx@@V?$ReflectionAllocator@PAVPxConstraint@physx@@@shdfnd@2@@shdfnd@physx@@IAEPAPAVPxConstraint@3@I@Z 10026c50 f i NpFactory.obj
 0001:00025cc0       ?allocate@?$Array@PAXV?$InlineAllocator@$0BAA@V?$ReflectionAllocator@V?$PtrBlock@$03@NpPtrTableStorageManager@physx@@@shdfnd@physx@@@shdfnd@physx@@@shdfnd@physx@@IAEPAPAXI@Z 10026cc0 f i NpFactory.obj
 0001:00025d50       ?allocate@?$Array@PAXV?$InlineAllocator@$0BAA@V?$ReflectionAllocator@V?$PtrBlock@$0BA@@NpPtrTableStorageManager@physx@@@shdfnd@physx@@@shdfnd@physx@@@shdfnd@physx@@IAEPAPAXI@Z 10026d50 f i NpFactory.obj
 0001:00025de0       ?allocate@?$Array@PAXV?$InlineAllocator@$0BAA@V?$ReflectionAllocator@V?$PtrBlock@$0EA@@NpPtrTableStorageManager@physx@@@shdfnd@physx@@@shdfnd@physx@@@shdfnd@physx@@IAEPAPAXI@Z 10026de0 f i NpFactory.obj
 0001:00025e70       ?allocate@?$Array@PAXV?$InlineAllocator@$0BAA@V?$ReflectionAllocator@VNpAggregate@physx@@@shdfnd@physx@@@shdfnd@physx@@@shdfnd@physx@@IAEPAPAXI@Z 10026e70 f i NpFactory.obj
 0001:00025f00       ?allocate@?$Array@PAXV?$InlineAllocator@$0BAA@V?$ReflectionAllocator@VNpArticulation@physx@@@shdfnd@physx@@@shdfnd@physx@@@shdfnd@physx@@IAEPAPAXI@Z 10026f00 f i NpFactory.obj
 0001:00025f90       ?allocate@?$Array@PAXV?$InlineAllocator@$0BAA@V?$ReflectionAllocator@VNpArticulationJoint@physx@@@shdfnd@physx@@@shdfnd@physx@@@shdfnd@physx@@IAEPAPAXI@Z 10026f90 f i NpFactory.obj
 0001:00026020       ?allocate@?$Array@PAXV?$InlineAllocator@$0BAA@V?$ReflectionAllocator@VNpArticulationJointReducedCoordinate@physx@@@shdfnd@physx@@@shdfnd@physx@@@shdfnd@physx@@IAEPAPAXI@Z 10027020 f i NpFactory.obj
 0001:000260b0       ?allocate@?$Array@PAXV?$InlineAllocator@$0BAA@V?$ReflectionAllocator@VNpArticulationLink@physx@@@shdfnd@physx@@@shdfnd@physx@@@shdfnd@physx@@IAEPAPAXI@Z 100270b0 f i NpFactory.obj
 0001:00026140       ?allocate@?$Array@PAXV?$InlineAllocator@$0BAA@V?$ReflectionAllocator@VNpArticulationReducedCoordinate@physx@@@shdfnd@physx@@@shdfnd@physx@@@shdfnd@physx@@IAEPAPAXI@Z 10027140 f i NpFactory.obj
 0001:000261d0       ?allocate@?$Array@PAXV?$InlineAllocator@$0BAA@V?$ReflectionAllocator@VNpConnectorArray@physx@@@shdfnd@physx@@@shdfnd@physx@@@shdfnd@physx@@IAEPAPAXI@Z 100271d0 f i NpFactory.obj
 0001:00026260       ?allocate@?$Array@PAXV?$InlineAllocator@$0BAA@V?$ReflectionAllocator@VNpConstraint@physx@@@shdfnd@physx@@@shdfnd@physx@@@shdfnd@physx@@IAEPAPAXI@Z 10027260 f i NpFactory.obj
 0001:000262f0       ?allocate@?$Array@PAXV?$InlineAllocator@$0BAA@V?$ReflectionAllocator@VNpMaterial@physx@@@shdfnd@physx@@@shdfnd@physx@@@shdfnd@physx@@IAEPAPAXI@Z 100272f0 f i NpFactory.obj
 0001:00026380       ?allocate@?$Array@PAXV?$InlineAllocator@$0BAA@V?$ReflectionAllocator@VNpRigidDynamic@physx@@@shdfnd@physx@@@shdfnd@physx@@@shdfnd@physx@@IAEPAPAXI@Z 10027380 f i NpFactory.obj
 0001:00026410       ?allocate@?$Array@PAXV?$InlineAllocator@$0BAA@V?$ReflectionAllocator@VNpRigidStatic@physx@@@shdfnd@physx@@@shdfnd@physx@@@shdfnd@physx@@IAEPAPAXI@Z 10027410 f i NpFactory.obj
 0001:000264a0       ?allocate@?$Array@PAXV?$InlineAllocator@$0BAA@V?$ReflectionAllocator@VNpShape@physx@@@shdfnd@physx@@@shdfnd@physx@@@shdfnd@physx@@IAEPAPAXI@Z 100274a0 f i NpFactory.obj
 0001:00026530       ?allocate@?$ReflectionAllocator@V?$PtrBlock@$03@NpPtrTableStorageManager@physx@@@shdfnd@physx@@QAEPAXIPBDH@Z 10027530 f i NpFactory.obj
 0001:00026590       ?allocate@?$ReflectionAllocator@V?$PtrBlock@$0BA@@NpPtrTableStorageManager@physx@@@shdfnd@physx@@QAEPAXIPBDH@Z 10027590 f i NpFactory.obj
 0001:000265f0       ?allocate@?$ReflectionAllocator@V?$PtrBlock@$0EA@@NpPtrTableStorageManager@physx@@@shdfnd@physx@@QAEPAXIPBDH@Z 100275f0 f i NpFactory.obj
 0001:00026650       ?allocate@?$ReflectionAllocator@VNpAggregate@physx@@@shdfnd@physx@@QAEPAXIPBDH@Z 10027650 f i NpFactory.obj
 0001:000266b0       ?allocate@?$ReflectionAllocator@VNpArticulation@physx@@@shdfnd@physx@@QAEPAXIPBDH@Z 100276b0 f i NpFactory.obj
 0001:00026710       ?allocate@?$ReflectionAllocator@VNpArticulationJoint@physx@@@shdfnd@physx@@QAEPAXIPBDH@Z 10027710 f i NpFactory.obj
 0001:00026770       ?allocate@?$ReflectionAllocator@VNpArticulationJointReducedCoordinate@physx@@@shdfnd@physx@@QAEPAXIPBDH@Z 10027770 f i NpFactory.obj
 0001:000267d0       ?allocate@?$ReflectionAllocator@VNpArticulationLink@physx@@@shdfnd@physx@@QAEPAXIPBDH@Z 100277d0 f i NpFactory.obj
 0001:00026830       ?allocate@?$ReflectionAllocator@VNpArticulationReducedCoordinate@physx@@@shdfnd@physx@@QAEPAXIPBDH@Z 10027830 f i NpFactory.obj
 0001:00026890       ?allocate@?$ReflectionAllocator@VNpConnectorArray@physx@@@shdfnd@physx@@QAEPAXIPBDH@Z 10027890 f i NpFactory.obj
 0001:000268f0       ?allocate@?$ReflectionAllocator@VNpConstraint@physx@@@shdfnd@physx@@QAEPAXIPBDH@Z 100278f0 f i NpFactory.obj
 0001:00026950       ?allocate@?$ReflectionAllocator@VNpMaterial@physx@@@shdfnd@physx@@QAEPAXIPBDH@Z 10027950 f i NpFactory.obj
 0001:000269b0       ?allocate@?$ReflectionAllocator@VNpRigidDynamic@physx@@@shdfnd@physx@@QAEPAXIPBDH@Z 100279b0 f i NpFactory.obj
 0001:00026a10       ?allocate@?$ReflectionAllocator@VNpRigidStatic@physx@@@shdfnd@physx@@QAEPAXIPBDH@Z 10027a10 f i NpFactory.obj
 0001:00026a70       ?allocate@?$ReflectionAllocator@VNpShape@physx@@@shdfnd@physx@@QAEPAXIPBDH@Z 10027a70 f i NpFactory.obj
 0001:00026ad0       ?allocate@NpPtrTableStorageManager@physx@@UAEPAPAXI@Z 10027ad0 f i NpFactory.obj
 0001:00026e50       ?canReuse@NpPtrTableStorageManager@physx@@UAE_NII@Z 10027e50 f i NpFactory.obj
 0001:00026eb0       ?create@?$HashBase@PAVPxActor@physx@@PAV12@U?$Hash@PAVPxActor@physx@@@shdfnd@2@UGetKey@?$HashSetBase@PAVPxActor@physx@@U?$Hash@PAVPxActor@physx@@@shdfnd@2@VNonTrackingAllocator@42@$0A@@internal@42@VNonTrackingAllocator@42@$0A@@internal@shdfnd@physx@@QAEPAPAVPxActor@4@ABQAV54@AA_N@Z 10027eb0 f i NpFactory.obj
 0001:00026fe0       ?create@?$HashBase@PAVPxAggregate@physx@@PAV12@U?$Hash@PAVPxAggregate@physx@@@shdfnd@2@UGetKey@?$HashSetBase@PAVPxAggregate@physx@@U?$Hash@PAVPxAggregate@physx@@@shdfnd@2@VNonTrackingAllocator@42@$0A@@internal@42@VNonTrackingAllocator@42@$0A@@internal@shdfnd@physx@@QAEPAPAVPxAggregate@4@ABQAV54@AA_N@Z 10027fe0 f i NpFactory.obj
 0001:00027110       ?create@?$HashBase@PAVPxArticulationBase@physx@@PAV12@U?$Hash@PAVPxArticulationBase@physx@@@shdfnd@2@UGetKey@?$HashSetBase@PAVPxArticulationBase@physx@@U?$Hash@PAVPxArticulationBase@physx@@@shdfnd@2@VNonTrackingAllocator@42@$0A@@internal@42@VNonTrackingAllocator@42@$0A@@internal@shdfnd@physx@@QAEPAPAVPxArticulationBase@4@ABQAV54@AA_N@Z 10028110 f i NpFactory.obj
 0001:00027240       ?create@?$HashBase@PAVPxConstraint@physx@@PAV12@U?$Hash@PAVPxConstraint@physx@@@shdfnd@2@UGetKey@?$HashSetBase@PAVPxConstraint@physx@@U?$Hash@PAVPxConstraint@physx@@@shdfnd@2@VNonTrackingAllocator@42@$0A@@internal@42@VNonTrackingAllocator@42@$0A@@internal@shdfnd@physx@@QAEPAPAVPxConstraint@4@ABQAV54@AA_N@Z 10028240 f i NpFactory.obj
 0001:00027370       ?create@?$HashBase@PAVPxShape@physx@@PAV12@U?$Hash@PAVPxShape@physx@@@shdfnd@2@UGetKey@?$HashSetBase@PAVPxShape@physx@@U?$Hash@PAVPxShape@physx@@@shdfnd@2@VNonTrackingAllocator@42@$00@internal@42@VNonTrackingAllocator@42@$00@internal@shdfnd@physx@@QAEPAPAVPxShape@4@ABQAV54@AA_N@Z 10028370 f i NpFactory.obj
 0001:000274a0       ?deallocate@NpPtrTableStorageManager@physx@@UAEXPAPAXI@Z 100284a0 f i NpFactory.obj
 0001:00027550       ?disposeElements@?$PoolBase@VNpConnectorArray@physx@@V?$ReflectionAllocator@VNpConnectorArray@physx@@@shdfnd@2@@shdfnd@physx@@IAEXXZ 10028550 f i NpFactory.obj
 0001:000276c0       ?erase@?$HashBase@PAVPxShape@physx@@PAV12@U?$Hash@PAVPxShape@physx@@@shdfnd@2@UGetKey@?$HashSetBase@PAVPxShape@physx@@U?$Hash@PAVPxShape@physx@@@shdfnd@2@VNonTrackingAllocator@42@$00@internal@42@VNonTrackingAllocator@42@$00@internal@shdfnd@physx@@QAE_NABQAVPxShape@4@@Z 100286c0 f i NpFactory.obj
 0001:000277e0       ?growAndPushBack@?$Array@PAVPxActor@physx@@V?$ReflectionAllocator@PAVPxActor@physx@@@shdfnd@2@@shdfnd@physx@@IAEAAPAVPxActor@3@ABQAV43@@Z 100287e0 f i NpFactory.obj
 0001:00027890       ?growAndPushBack@?$Array@PAVPxAggregate@physx@@V?$ReflectionAllocator@PAVPxAggregate@physx@@@shdfnd@2@@shdfnd@physx@@IAEAAPAVPxAggregate@3@ABQAV43@@Z 10028890 f i NpFactory.obj
 0001:00027940       ?growAndPushBack@?$Array@PAVPxArticulationBase@physx@@V?$ReflectionAllocator@PAVPxArticulationBase@physx@@@shdfnd@2@@shdfnd@physx@@IAEAAPAVPxArticulationBase@3@ABQAV43@@Z 10028940 f i NpFactory.obj
 0001:000279f0       ?growAndPushBack@?$Array@PAVPxConstraint@physx@@V?$ReflectionAllocator@PAVPxConstraint@physx@@@shdfnd@2@@shdfnd@physx@@IAEAAPAVPxConstraint@3@ABQAV43@@Z 100289f0 f i NpFactory.obj
 0001:00027aa0       ?growAndPushBack@?$Array@PAXV?$InlineAllocator@$0BAA@V?$ReflectionAllocator@V?$PtrBlock@$03@NpPtrTableStorageManager@physx@@@shdfnd@physx@@@shdfnd@physx@@@shdfnd@physx@@IAEAAPAXABQAX@Z 10028aa0 f i NpFactory.obj
 0001:00027b90       ?growAndPushBack@?$Array@PAXV?$InlineAllocator@$0BAA@V?$ReflectionAllocator@V?$PtrBlock@$0BA@@NpPtrTableStorageManager@physx@@@shdfnd@physx@@@shdfnd@physx@@@shdfnd@physx@@IAEAAPAXABQAX@Z 10028b90 f i NpFactory.obj
 0001:00027c80       ?growAndPushBack@?$Array@PAXV?$InlineAllocator@$0BAA@V?$ReflectionAllocator@V?$PtrBlock@$0EA@@NpPtrTableStorageManager@physx@@@shdfnd@physx@@@shdfnd@physx@@@shdfnd@physx@@IAEAAPAXABQAX@Z 10028c80 f i NpFactory.obj
 0001:00027d70       ?growAndPushBack@?$Array@PAXV?$InlineAllocator@$0BAA@V?$ReflectionAllocator@VNpAggregate@physx@@@shdfnd@physx@@@shdfnd@physx@@@shdfnd@physx@@IAEAAPAXABQAX@Z 10028d70 f i NpFactory.obj
 0001:00027e60       ?growAndPushBack@?$Array@PAXV?$InlineAllocator@$0BAA@V?$ReflectionAllocator@VNpArticulation@physx@@@shdfnd@physx@@@shdfnd@physx@@@shdfnd@physx@@IAEAAPAXABQAX@Z 10028e60 f i NpFactory.obj
 0001:00027f50       ?growAndPushBack@?$Array@PAXV?$InlineAllocator@$0BAA@V?$ReflectionAllocator@VNpArticulationJoint@physx@@@shdfnd@physx@@@shdfnd@physx@@@shdfnd@physx@@IAEAAPAXABQAX@Z 10028f50 f i NpFactory.obj
 0001:00028040       ?growAndPushBack@?$Array@PAXV?$InlineAllocator@$0BAA@V?$ReflectionAllocator@VNpArticulationJointReducedCoordinate@physx@@@shdfnd@physx@@@shdfnd@physx@@@shdfnd@physx@@IAEAAPAXABQAX@Z 10029040 f i NpFactory.obj
 0001:00028130       ?growAndPushBack@?$Array@PAXV?$InlineAllocator@$0BAA@V?$ReflectionAllocator@VNpArticulationLink@physx@@@shdfnd@physx@@@shdfnd@physx@@@shdfnd@physx@@IAEAAPAXABQAX@Z 10029130 f i NpFactory.obj
 0001:00028220       ?growAndPushBack@?$Array@PAXV?$InlineAllocator@$0BAA@V?$ReflectionAllocator@VNpArticulationReducedCoordinate@physx@@@shdfnd@physx@@@shdfnd@physx@@@shdfnd@physx@@IAEAAPAXABQAX@Z 10029220 f i NpFactory.obj
 0001:00028310       ?growAndPushBack@?$Array@PAXV?$InlineAllocator@$0BAA@V?$ReflectionAllocator@VNpConnectorArray@physx@@@shdfnd@physx@@@shdfnd@physx@@@shdfnd@physx@@IAEAAPAXABQAX@Z 10029310 f i NpFactory.obj
 0001:00028400       ?growAndPushBack@?$Array@PAXV?$InlineAllocator@$0BAA@V?$ReflectionAllocator@VNpConstraint@physx@@@shdfnd@physx@@@shdfnd@physx@@@shdfnd@physx@@IAEAAPAXABQAX@Z 10029400 f i NpFactory.obj
 0001:000284f0       ?growAndPushBack@?$Array@PAXV?$InlineAllocator@$0BAA@V?$ReflectionAllocator@VNpMaterial@physx@@@shdfnd@physx@@@shdfnd@physx@@@shdfnd@physx@@IAEAAPAXABQAX@Z 100294f0 f i NpFactory.obj
 0001:000285e0       ?growAndPushBack@?$Array@PAXV?$InlineAllocator@$0BAA@V?$ReflectionAllocator@VNpRigidDynamic@physx@@@shdfnd@physx@@@shdfnd@physx@@@shdfnd@physx@@IAEAAPAXABQAX@Z 100295e0 f i NpFactory.obj
 0001:000286d0       ?growAndPushBack@?$Array@PAXV?$InlineAllocator@$0BAA@V?$ReflectionAllocator@VNpRigidStatic@physx@@@shdfnd@physx@@@shdfnd@physx@@@shdfnd@physx@@IAEAAPAXABQAX@Z 100296d0 f i NpFactory.obj
 0001:000287c0       ?growAndPushBack@?$Array@PAXV?$InlineAllocator@$0BAA@V?$ReflectionAllocator@VNpShape@physx@@@shdfnd@physx@@@shdfnd@physx@@@shdfnd@physx@@IAEAAPAXABQAX@Z 100297c0 f i NpFactory.obj
 0001:000288b0       ?growAndPushBack@?$Array@PAXV?$ReflectionAllocator@V?$PtrBlock@$03@NpPtrTableStorageManager@physx@@@shdfnd@physx@@@shdfnd@physx@@IAEAAPAXABQAX@Z 100298b0 f i NpFactory.obj
 0001:00028970       ?growAndPushBack@?$Array@PAXV?$ReflectionAllocator@V?$PtrBlock@$0BA@@NpPtrTableStorageManager@physx@@@shdfnd@physx@@@shdfnd@physx@@IAEAAPAXABQAX@Z 10029970 f i NpFactory.obj
 0001:00028a30       ?growAndPushBack@?$Array@PAXV?$ReflectionAllocator@V?$PtrBlock@$0EA@@NpPtrTableStorageManager@physx@@@shdfnd@physx@@@shdfnd@physx@@IAEAAPAXABQAX@Z 10029a30 f i NpFactory.obj
 0001:00028af0       ?growAndPushBack@?$Array@PAXV?$ReflectionAllocator@VNpAggregate@physx@@@shdfnd@physx@@@shdfnd@physx@@IAEAAPAXABQAX@Z 10029af0 f i NpFactory.obj
 0001:00028bb0       ?growAndPushBack@?$Array@PAXV?$ReflectionAllocator@VNpArticulation@physx@@@shdfnd@physx@@@shdfnd@physx@@IAEAAPAXABQAX@Z 10029bb0 f i NpFactory.obj
 0001:00028c70       ?growAndPushBack@?$Array@PAXV?$ReflectionAllocator@VNpArticulationJoint@physx@@@shdfnd@physx@@@shdfnd@physx@@IAEAAPAXABQAX@Z 10029c70 f i NpFactory.obj
 0001:00028d30       ?growAndPushBack@?$Array@PAXV?$ReflectionAllocator@VNpArticulationJointReducedCoordinate@physx@@@shdfnd@physx@@@shdfnd@physx@@IAEAAPAXABQAX@Z 10029d30 f i NpFactory.obj
 0001:00028df0       ?growAndPushBack@?$Array@PAXV?$ReflectionAllocator@VNpArticulationLink@physx@@@shdfnd@physx@@@shdfnd@physx@@IAEAAPAXABQAX@Z 10029df0 f i NpFactory.obj
 0001:00028eb0       ?growAndPushBack@?$Array@PAXV?$ReflectionAllocator@VNpArticulationReducedCoordinate@physx@@@shdfnd@physx@@@shdfnd@physx@@IAEAAPAXABQAX@Z 10029eb0 f i NpFactory.obj
 0001:00028f70       ?growAndPushBack@?$Array@PAXV?$ReflectionAllocator@VNpConnectorArray@physx@@@shdfnd@physx@@@shdfnd@physx@@IAEAAPAXABQAX@Z 10029f70 f i NpFactory.obj
 0001:00029030       ?growAndPushBack@?$Array@PAXV?$ReflectionAllocator@VNpConstraint@physx@@@shdfnd@physx@@@shdfnd@physx@@IAEAAPAXABQAX@Z 1002a030 f i NpFactory.obj
 0001:000290f0       ?growAndPushBack@?$Array@PAXV?$ReflectionAllocator@VNpMaterial@physx@@@shdfnd@physx@@@shdfnd@physx@@IAEAAPAXABQAX@Z 1002a0f0 f i NpFactory.obj
 0001:000291b0       ?growAndPushBack@?$Array@PAXV?$ReflectionAllocator@VNpRigidDynamic@physx@@@shdfnd@physx@@@shdfnd@physx@@IAEAAPAXABQAX@Z 1002a1b0 f i NpFactory.obj
 0001:00029270       ?growAndPushBack@?$Array@PAXV?$ReflectionAllocator@VNpRigidStatic@physx@@@shdfnd@physx@@@shdfnd@physx@@IAEAAPAXABQAX@Z 1002a270 f i NpFactory.obj
 0001:00029330       ?growAndPushBack@?$Array@PAXV?$ReflectionAllocator@VNpShape@physx@@@shdfnd@physx@@@shdfnd@physx@@IAEAAPAXABQAX@Z 1002a330 f i NpFactory.obj
 0001:000293f0       ?recreate@?$Array@GV?$InlineAllocator@$07V?$ReflectionAllocator@G@shdfnd@physx@@@shdfnd@physx@@@shdfnd@physx@@IAEXI@Z 1002a3f0 f i NpFactory.obj
 0001:000294a0       ?recreate@?$Array@PAVPxActor@physx@@V?$ReflectionAllocator@PAVPxActor@physx@@@shdfnd@2@@shdfnd@physx@@IAEXI@Z 1002a4a0 f i NpFactory.obj
 0001:00029530       ?recreate@?$Array@PAVPxAggregate@physx@@V?$ReflectionAllocator@PAVPxAggregate@physx@@@shdfnd@2@@shdfnd@physx@@IAEXI@Z 1002a530 f i NpFactory.obj
 0001:000295c0       ?recreate@?$Array@PAVPxArticulationBase@physx@@V?$ReflectionAllocator@PAVPxArticulationBase@physx@@@shdfnd@2@@shdfnd@physx@@IAEXI@Z 1002a5c0 f i NpFactory.obj
 0001:00029650       ?recreate@?$Array@PAVPxConstraint@physx@@V?$ReflectionAllocator@PAVPxConstraint@physx@@@shdfnd@2@@shdfnd@physx@@IAEXI@Z 1002a650 f i NpFactory.obj
 0001:000296e0       ?reserveInternal@?$HashBase@PAVPxActor@physx@@PAV12@U?$Hash@PAVPxActor@physx@@@shdfnd@2@UGetKey@?$HashSetBase@PAVPxActor@physx@@U?$Hash@PAVPxActor@physx@@@shdfnd@2@VNonTrackingAllocator@42@$0A@@internal@42@VNonTrackingAllocator@42@$0A@@internal@shdfnd@physx@@AAEXI@Z 1002a6e0 f i NpFactory.obj
 0001:00029a50       ?reserveInternal@?$HashBase@PAVPxAggregate@physx@@PAV12@U?$Hash@PAVPxAggregate@physx@@@shdfnd@2@UGetKey@?$HashSetBase@PAVPxAggregate@physx@@U?$Hash@PAVPxAggregate@physx@@@shdfnd@2@VNonTrackingAllocator@42@$0A@@internal@42@VNonTrackingAllocator@42@$0A@@internal@shdfnd@physx@@AAEXI@Z 1002aa50 f i NpFactory.obj
 0001:00029dc0       ?reserveInternal@?$HashBase@PAVPxArticulationBase@physx@@PAV12@U?$Hash@PAVPxArticulationBase@physx@@@shdfnd@2@UGetKey@?$HashSetBase@PAVPxArticulationBase@physx@@U?$Hash@PAVPxArticulationBase@physx@@@shdfnd@2@VNonTrackingAllocator@42@$0A@@internal@42@VNonTrackingAllocator@42@$0A@@internal@shdfnd@physx@@AAEXI@Z 1002adc0 f i NpFactory.obj
 0001:0002a130       ?reserveInternal@?$HashBase@PAVPxConstraint@physx@@PAV12@U?$Hash@PAVPxConstraint@physx@@@shdfnd@2@UGetKey@?$HashSetBase@PAVPxConstraint@physx@@U?$Hash@PAVPxConstraint@physx@@@shdfnd@2@VNonTrackingAllocator@42@$0A@@internal@42@VNonTrackingAllocator@42@$0A@@internal@shdfnd@physx@@AAEXI@Z 1002b130 f i NpFactory.obj
 0001:0002a4a0       ?reserveInternal@?$HashBase@PAVPxShape@physx@@PAV12@U?$Hash@PAVPxShape@physx@@@shdfnd@2@UGetKey@?$HashSetBase@PAVPxShape@physx@@U?$Hash@PAVPxShape@physx@@@shdfnd@2@VNonTrackingAllocator@42@$00@internal@42@VNonTrackingAllocator@42@$00@internal@shdfnd@physx@@AAEXI@Z 1002b4a0 f i NpFactory.obj
 0001:0002a630       ?resize@?$Array@GV?$InlineAllocator@$07V?$ReflectionAllocator@G@shdfnd@physx@@@shdfnd@physx@@@shdfnd@physx@@QAEXIABG@Z 1002b630 f i NpFactory.obj
 0001:0002a700       ?onRefCountZero@NpMaterial@physx@@UAEXXZ 1002b700 f   NpMaterial.obj
 0001:0002a750       ?resolveReferences@NpMaterial@physx@@UAEXAAVPxDeserializationContext@2@@Z 1002b750 f   NpMaterial.obj
 0001:0002a770       ?createObject@NpMaterial@physx@@SAPAV12@AAPAEAAVPxDeserializationContext@2@@Z 1002b770 f   NpMaterial.obj
 0001:0002a7f0       ??0NpMaterial@physx@@QAE@ABVMaterialCore@Sc@1@@Z 1002b7f0 f   NpMaterial.obj
 0001:0002a870       ??1NpMaterial@physx@@UAE@XZ 1002b870 f   NpMaterial.obj
 0001:0002a8a0       ?release@NpMaterial@physx@@UAEXXZ 1002b8a0 f   NpMaterial.obj
 0001:0002a8c0       ?acquireReference@NpMaterial@physx@@UAEXXZ 1002b8c0 f   NpMaterial.obj
 0001:0002a8d0       ?getReferenceCount@NpMaterial@physx@@UBEIXZ 1002b8d0 f   NpMaterial.obj
 0001:0002a8e0       ?setDynamicFriction@NpMaterial@physx@@UAEXM@Z 1002b8e0 f   NpMaterial.obj
 0001:0002a900       ?getDynamicFriction@NpMaterial@physx@@UBEMXZ 1002b900 f   NpMaterial.obj
 0001:0002a910       ?setStaticFriction@NpMaterial@physx@@UAEXM@Z 1002b910 f   NpMaterial.obj
 0001:0002a930       ?getStaticFriction@NpMaterial@physx@@UBEMXZ 1002b930 f   NpMaterial.obj
 0001:0002a940       ?setRestitution@NpMaterial@physx@@UAEXM@Z 1002b940 f   NpMaterial.obj
 0001:0002a9a0       ?getRestitution@NpMaterial@physx@@UBEMXZ 1002b9a0 f   NpMaterial.obj
 0001:0002a9b0       ?setFlag@NpMaterial@physx@@UAEXW4Enum@PxMaterialFlag@2@_N@Z 1002b9b0 f   NpMaterial.obj
 0001:0002a9f0       ?setFlags@NpMaterial@physx@@UAEXV?$PxFlags@W4Enum@PxMaterialFlag@physx@@G@2@@Z 1002b9f0 f   NpMaterial.obj
 0001:0002aa10       ?getFlags@NpMaterial@physx@@UBE?AV?$PxFlags@W4Enum@PxMaterialFlag@physx@@G@2@XZ 1002ba10 f   NpMaterial.obj
 0001:0002aa20       ?setFrictionCombineMode@NpMaterial@physx@@UAEXW4Enum@PxCombineMode@2@@Z 1002ba20 f   NpMaterial.obj
 0001:0002aa50       ?getFrictionCombineMode@NpMaterial@physx@@UBE?AW4Enum@PxCombineMode@2@XZ 1002ba50 f   NpMaterial.obj
 0001:0002aa60       ?setRestitutionCombineMode@NpMaterial@physx@@UAEXW4Enum@PxCombineMode@2@@Z 1002ba60 f   NpMaterial.obj
 0001:0002aa80       ?getRestitutionCombineMode@NpMaterial@physx@@UBE?AW4Enum@PxCombineMode@2@XZ 1002ba80 f   NpMaterial.obj
 0001:0002aa90       ??1PxMaterial@physx@@MAE@XZ 1002ba90 f i NpMaterial.obj
 0001:0002aaa0       ??1RefCountable@Cm@physx@@UAE@XZ 1002baa0 f i NpMaterial.obj
 0001:0002aaa7       ??_ENpMaterial@physx@@WM@AEPAXI@Z 1002baa7 f i NpMaterial.obj
 0001:0002aab0       ??_GNpMaterial@physx@@UAEPAXI@Z 1002bab0 f i NpMaterial.obj
 0001:0002aab0       ??_ENpMaterial@physx@@UAEPAXI@Z 1002bab0 f i NpMaterial.obj
 0001:0002ab10       ??_EPxMaterial@physx@@MAEPAXI@Z 1002bb10 f i NpMaterial.obj
 0001:0002ab10       ??_GPxMaterial@physx@@MAEPAXI@Z 1002bb10 f i NpMaterial.obj
 0001:0002ab40       ??_ERefCountable@Cm@physx@@UAEPAXI@Z 1002bb40 f i NpMaterial.obj
 0001:0002ab40       ??_GRefCountable@Cm@physx@@UAEPAXI@Z 1002bb40 f i NpMaterial.obj
 0001:0002ab70       ?getConcreteTypeName@PxMaterial@physx@@UBEPBDXZ 1002bb70 f i NpMaterial.obj
 0001:0002ab80       ?isKindOf@PxMaterial@physx@@MBE_NPBD@Z 1002bb80 f i NpMaterial.obj
 0001:0002ac00       ?onRefCountZero@RefCountable@Cm@physx@@UAEXXZ 1002bc00 f i NpMaterial.obj
 0001:0002ac10       ?requiresObjects@NpMaterial@physx@@UAEXAAVPxProcessPxBaseCallback@2@@Z 1002bc10 f i NpMaterial.obj
 0001:0002ac20       _PxGetPhysicsBinaryMetaData 1002bc20 f   NpMetaData.obj
 0001:0002b8d0       ?getBinaryMetaData_PxBase@physx@@YAXAAVPxOutputStream@1@@Z 1002c8d0 f   NpMetaData.obj
 0001:0002ba60       ?getBinaryMetaData@RefCountable@Cm@physx@@SAXAAVPxOutputStream@3@@Z 1002ca60 f   NpMetaData.obj
 0001:0002bb10       ?getBinaryMetaData@NpMaterial@physx@@SAXAAVPxOutputStream@2@@Z 1002cb10 f   NpMetaData.obj
 0001:0002bca0       ?getBinaryMetaData@NpShape@physx@@SAXAAVPxOutputStream@2@@Z 1002cca0 f   NpMetaData.obj
 0001:0002bfb0       ?getBinaryMetaData@NpShapeManager@physx@@SAXAAVPxOutputStream@2@@Z 1002cfb0 f   NpMetaData.obj
 0001:0002c140       ?getBinaryMetaData@NpConstraint@physx@@SAXAAVPxOutputStream@2@@Z 1002d140 f   NpMetaData.obj
 0001:0002c370       ?getBinaryMetaData@NpConnector@physx@@SAXAAVPxOutputStream@2@@Z 1002d370 f   NpMetaData.obj
 0001:0002c4c0       ?getBinaryMetaData@NpConnectorArray@physx@@SAXAAVPxOutputStream@2@@Z 1002d4c0 f   NpMetaData.obj
 0001:0002c740       ?getBinaryMetaData@NpActor@physx@@SAXAAVPxOutputStream@2@@Z 1002d740 f   NpMetaData.obj
 0001:0002c840       ?getBinaryMetaData@NpRigidStatic@physx@@SAXAAVPxOutputStream@2@@Z 1002d840 f   NpMetaData.obj
 0001:0002cb10       ?getBinaryMetaData@NpRigidDynamic@physx@@SAXAAVPxOutputStream@2@@Z 1002db10 f   NpMetaData.obj
 0001:0002cde0       ?getBinaryMetaData@NpArticulationLinkArray@physx@@SAXAAVPxOutputStream@2@@Z 1002dde0 f   NpMetaData.obj
 0001:0002d060       ?getBinaryMetaData@NpArticulationLink@physx@@SAXAAVPxOutputStream@2@@Z 1002e060 f   NpMetaData.obj
 0001:0002d4f0       ?getBinaryMetaData@NpAggregate@physx@@SAXAAVPxOutputStream@2@@Z 1002e4f0 f   NpMetaData.obj
 0001:0002d6d0       ?getBinaryMetaData@NpArticulationJoint@physx@@SAXAAVPxOutputStream@2@@Z 1002e6d0 f   NpMetaData.obj
 0001:0002d8b0       ?getBinaryMetaData@NpArticulation@physx@@SAXAAVPxOutputStream@2@@Z 1002e8b0 f   NpMetaData.obj
 0001:0002ee10       _PxRegisterArticulations   1002fe10 f   NpPhysics.obj
 0001:0002ee20       _PxRegisterArticulationsReducedCoordinate 1002fe20 f   NpPhysics.obj
 0001:0002ee30       _PxRegisterHeightFields    1002fe30 f   NpPhysics.obj
 0001:0002ee40       _PxCreateBasePhysics       1002fe40 f   NpPhysics.obj
 0001:0002ee50       _PxGetPhysics              1002fe50 f   NpPhysics.obj
 0001:0002ee60       ??0NpPhysics@physx@@AAE@ABVPxTolerancesScale@1@ABUPxvOffsetTable@1@_NPAVPsPvd@pvdsdk@1@@Z 1002fe60 f   NpPhysics.obj
 0001:0002ef80       ??1NpPhysics@physx@@EAE@XZ 1002ff80 f   NpPhysics.obj
 0001:0002f1c0       ?createInstance@NpPhysics@physx@@SAPAV12@IAAVPxFoundation@2@ABVPxTolerancesScale@2@_NPAVPsPvd@pvdsdk@2@@Z 100301c0 f   NpPhysics.obj
 0001:0002f490       ?releaseInstance@NpPhysics@physx@@SAIXZ 10030490 f   NpPhysics.obj
 0001:0002f4d0       ?release@NpPhysics@physx@@UAEXXZ 100304d0 f   NpPhysics.obj
 0001:0002f500       ?createScene@NpPhysics@physx@@UAEPAVPxScene@2@ABVPxSceneDesc@2@@Z 10030500 f   NpPhysics.obj
 0001:0002f680       ?releaseSceneInternal@NpPhysics@physx@@QAEXAAVPxScene@2@@Z 10030680 f   NpPhysics.obj
 0001:0002f6e0       ?getNbScenes@NpPhysics@physx@@UBEIXZ 100306e0 f   NpPhysics.obj
 0001:0002f700       ?getScenes@NpPhysics@physx@@UBEIPAPAVPxScene@2@II@Z 10030700 f   NpPhysics.obj
 0001:0002f760       ?createRigidStatic@NpPhysics@physx@@UAEPAVPxRigidStatic@2@ABVPxTransform@2@@Z 10030760 f   NpPhysics.obj
 0001:0002f820       ?createRigidDynamic@NpPhysics@physx@@UAEPAVPxRigidDynamic@2@ABVPxTransform@2@@Z 10030820 f   NpPhysics.obj
 0001:0002f8e0       ?createArticulation@NpPhysics@physx@@UAEPAVPxArticulation@2@XZ 100308e0 f   NpPhysics.obj
 0001:0002f8f0       ?createArticulationReducedCoordinate@NpPhysics@physx@@UAEPAVPxArticulationReducedCoordinate@2@XZ 100308f0 f   NpPhysics.obj
 0001:0002f900       ?createConstraint@NpPhysics@physx@@UAEPAVPxConstraint@2@PAVPxRigidActor@2@0AAVPxConstraintConnector@2@ABUPxConstraintShaderTable@2@I@Z 10030900 f   NpPhysics.obj
 0001:0002f910       ?createAggregate@NpPhysics@physx@@UAEPAVPxAggregate@2@I_N@Z 10030910 f   NpPhysics.obj
 0001:0002f920       ?createShape@NpPhysics@physx@@UAEPAVPxShape@2@ABVPxGeometry@2@PBQAVPxMaterial@2@G_NV?$PxFlags@W4Enum@PxShapeFlag@physx@@E@2@@Z 10030920 f   NpPhysics.obj
 0001:0002f950       ?getNbShapes@NpPhysics@physx@@UBEIXZ 10030950 f   NpPhysics.obj
 0001:0002f960       ?getShapes@NpPhysics@physx@@UBEIPAPAVPxShape@2@II@Z 10030960 f   NpPhysics.obj
 0001:0002f970       ?createMaterial@NpPhysics@physx@@UAEPAVPxMaterial@2@MMM@Z 10030970 f   NpPhysics.obj
 0001:0002faa0       ?getNbMaterials@NpPhysics@physx@@UBEIXZ 10030aa0 f   NpPhysics.obj
 0001:0002fac0       ?getMaterials@NpPhysics@physx@@UBEIPAPAVPxMaterial@2@II@Z 10030ac0 f   NpPhysics.obj
 0001:0002fb30       ?createTriangleMesh@NpPhysics@physx@@UAEPAVPxTriangleMesh@2@AAVPxInputStream@2@@Z 10030b30 f   NpPhysics.obj
 0001:0002fb40       ?getNbTriangleMeshes@NpPhysics@physx@@UBEIXZ 10030b40 f   NpPhysics.obj
 0001:0002fb50       ?getTriangleMeshes@NpPhysics@physx@@UBEIPAPAVPxTriangleMesh@2@II@Z 10030b50 f   NpPhysics.obj
 0001:0002fb60       ?createHeightField@NpPhysics@physx@@UAEPAVPxHeightField@2@AAVPxInputStream@2@@Z 10030b60 f   NpPhysics.obj
 0001:0002fb70       ?getNbHeightFields@NpPhysics@physx@@UBEIXZ 10030b70 f   NpPhysics.obj
 0001:0002fb80       ?getHeightFields@NpPhysics@physx@@UBEIPAPAVPxHeightField@2@II@Z 10030b80 f   NpPhysics.obj
 0001:0002fb90       ?createConvexMesh@NpPhysics@physx@@UAEPAVPxConvexMesh@2@AAVPxInputStream@2@@Z 10030b90 f   NpPhysics.obj
 0001:0002fba0       ?getNbConvexMeshes@NpPhysics@physx@@UBEIXZ 10030ba0 f   NpPhysics.obj
 0001:0002fbb0       ?getConvexMeshes@NpPhysics@physx@@UBEIPAPAVPxConvexMesh@2@II@Z 10030bb0 f   NpPhysics.obj
 0001:0002fbc0       ?createBVHStructure@NpPhysics@physx@@UAEPAVPxBVHStructure@2@AAVPxInputStream@2@@Z 10030bc0 f   NpPhysics.obj
 0001:0002fbd0       ?getNbBVHStructures@NpPhysics@physx@@UBEIXZ 10030bd0 f   NpPhysics.obj
 0001:0002fbe0       ?getBVHStructures@NpPhysics@physx@@UBEIPAPAVPxBVHStructure@2@II@Z 10030be0 f   NpPhysics.obj
 0001:0002fbf0       ?registerPhysXIndicatorGpuClient@NpPhysics@physx@@QAEXXZ 10030bf0 f   NpPhysics.obj
 0001:0002fc20       ?unregisterPhysXIndicatorGpuClient@NpPhysics@physx@@QAEXXZ 10030c20 f   NpPhysics.obj
 0001:0002fc50       ?createPruningStructure@NpPhysics@physx@@UAEPAVPxPruningStructure@2@PBQAVPxRigidActor@2@I@Z 10030c50 f   NpPhysics.obj
 0001:0002fd00       ?getTolerancesScale@NpPhysics@physx@@UBEABVPxTolerancesScale@2@XZ 10030d00 f   NpPhysics.obj
 0001:0002fd10       ?getFoundation@NpPhysics@physx@@UAEAAVPxFoundation@2@XZ 10030d10 f   NpPhysics.obj
 0001:0002fd20       ?registerDeletionListener@NpPhysics@physx@@UAEXAAVPxDeletionListener@2@ABV?$PxFlags@W4Enum@PxDeletionEventFlag@physx@@E@2@_N@Z 10030d20 f   NpPhysics.obj
 0001:0002fe60       ?unregisterDeletionListener@NpPhysics@physx@@UAEXAAVPxDeletionListener@2@@Z 10030e60 f   NpPhysics.obj
 0001:0002fee0       ?registerDeletionListenerObjects@NpPhysics@physx@@UAEXAAVPxDeletionListener@2@PBQBVPxBase@2@I@Z 10030ee0 f   NpPhysics.obj
 0001:0002ff60       ?unregisterDeletionListenerObjects@NpPhysics@physx@@UAEXAAVPxDeletionListener@2@PBQBVPxBase@2@I@Z 10030f60 f   NpPhysics.obj
 0001:00030060       ?notifyDeletionListeners@NpPhysics@physx@@QAEXPBVPxBase@2@PAXW4Enum@PxDeletionEventFlag@2@@Z 10031060 f   NpPhysics.obj
 0001:00030180       ?removeMaterialFromTable@NpPhysics@physx@@QAEXAAVNpMaterial@2@@Z 10031180 f   NpPhysics.obj
 0001:00030220       ?updateMaterial@NpPhysics@physx@@QAEXAAVNpMaterial@2@@Z 10031220 f   NpPhysics.obj
 0001:00030270       ?sendMaterialTable@NpPhysics@physx@@QAE_NAAVNpScene@2@@Z 10031270 f   NpPhysics.obj
 0001:000302c0       ?addMaterial@NpPhysics@physx@@QAEPAVNpMaterial@2@PAV32@@Z 100312c0 f   NpPhysics.obj
 0001:000303c0       ?initOffsetTables@NpPhysics@physx@@SAXAAUPxvOffsetTable@2@@Z 100313c0 f   NpPhysics.obj
 0001:00030440       _PxAddCollectionToPhysics  10031440 f   NpPhysics.obj
 0001:00030450       ??1GuMeshFactoryListener@physx@@MAE@XZ 10031450 f i NpPhysics.obj
 0001:00030460       ??1PxPhysics@physx@@UAE@XZ 10031460 f i NpPhysics.obj
 0001:00030470       ??1PxPhysicsInsertionCallback@physx@@MAE@XZ 10031470 f i NpPhysics.obj
 0001:00030480       ??_GGuMeshFactoryListener@physx@@MAEPAXI@Z 10031480 f i NpPhysics.obj
 0001:00030480       ??_EGuMeshFactoryListener@physx@@MAEPAXI@Z 10031480 f i NpPhysics.obj
 0001:000304b0       ??_EMeshDeletionListener@NpPhysics@physx@@UAEPAXI@Z 100314b0 f i NpPhysics.obj
 0001:000304b0       ??_GMeshDeletionListener@NpPhysics@physx@@UAEPAXI@Z 100314b0 f i NpPhysics.obj
 0001:000304e0       ??_GNpPhysics@physx@@EAEPAXI@Z 100314e0 f i NpPhysics.obj
 0001:000304e0       ??_ENpPhysics@physx@@EAEPAXI@Z 100314e0 f i NpPhysics.obj
 0001:00030520       ??_ENpPhysicsInsertionCallback@physx@@UAEPAXI@Z 10031520 f i NpPhysics.obj
 0001:00030520       ??_GNpPhysicsInsertionCallback@physx@@UAEPAXI@Z 10031520 f i NpPhysics.obj
 0001:00030550       ??_EPxPhysics@physx@@UAEPAXI@Z 10031550 f i NpPhysics.obj
 0001:00030550       ??_GPxPhysics@physx@@UAEPAXI@Z 10031550 f i NpPhysics.obj
 0001:00030580       ??_GPxPhysicsInsertionCallback@physx@@MAEPAXI@Z 10031580 f i NpPhysics.obj
 0001:00030580       ??_EPxPhysicsInsertionCallback@physx@@MAEPAXI@Z 10031580 f i NpPhysics.obj
 0001:000305b0       ?allocate@?$ReflectionAllocator@I@shdfnd@physx@@QAEPAXIPBDH@Z 100315b0 f i NpPhysics.obj
 0001:00030610       ?buildObjectFromData@NpPhysicsInsertionCallback@physx@@UAEPAVPxBase@2@W4Enum@PxConcreteType@2@PAX@Z 10031610 f i NpPhysics.obj
 0001:000306a0       ?create@?$HashBase@PBVPxBase@physx@@PBV12@U?$Hash@PBVPxBase@physx@@@shdfnd@2@UGetKey@?$HashSetBase@PBVPxBase@physx@@U?$Hash@PBVPxBase@physx@@@shdfnd@2@VNonTrackingAllocator@42@$0A@@internal@42@VNonTrackingAllocator@42@$0A@@internal@shdfnd@physx@@QAEPAPBVPxBase@4@ABQBV54@AA_N@Z 100316a0 f i NpPhysics.obj
 0001:000307d0       ?create@?$HashBase@V?$Pair@QAVPxDeletionListener@physx@@PAUNpDelListenerEntry@NpPhysics@2@@shdfnd@physx@@PAVPxDeletionListener@3@U?$Hash@PAVPxDeletionListener@physx@@@23@UGetKey@?$HashMapBase@PAVPxDeletionListener@physx@@PAUNpDelListenerEntry@NpPhysics@2@U?$Hash@PAVPxDeletionListener@physx@@@shdfnd@2@VNonTrackingAllocator@62@@internal@23@VNonTrackingAllocator@23@$00@internal@shdfnd@physx@@QAEPAV?$Pair@QAVPxDeletionListener@physx@@PAUNpDelListenerEntry@NpPhysics@2@@34@ABQAVPxDeletionListener@4@AA_N@Z 100317d0 f i NpPhysics.obj
 0001:000308e0       ?erase@?$HashBase@V?$Pair@QAVPxDeletionListener@physx@@PAUNpDelListenerEntry@NpPhysics@2@@shdfnd@physx@@PAVPxDeletionListener@3@U?$Hash@PAVPxDeletionListener@physx@@@23@UGetKey@?$HashMapBase@PAVPxDeletionListener@physx@@PAUNpDelListenerEntry@NpPhysics@2@U?$Hash@PAVPxDeletionListener@physx@@@shdfnd@2@VNonTrackingAllocator@62@@internal@23@VNonTrackingAllocator@23@$00@internal@shdfnd@physx@@QAE_NABQAVPxDeletionListener@4@@Z 100318e0 f i NpPhysics.obj
 0001:00030a00       ?find@?$HashMapBase@PAVPxDeletionListener@physx@@PAUNpDelListenerEntry@NpPhysics@2@U?$Hash@PAVPxDeletionListener@physx@@@shdfnd@2@VNonTrackingAllocator@62@@internal@shdfnd@physx@@QBEPBV?$Pair@QAVPxDeletionListener@physx@@PAUNpDelListenerEntry@NpPhysics@2@@34@ABQAVPxDeletionListener@4@@Z 10031a00 f i NpPhysics.obj
 0001:00030a80       ?getPhysicsInsertionCallback@NpPhysics@physx@@UAEAAVPxPhysicsInsertionCallback@2@XZ 10031a80 f i NpPhysics.obj
 0001:00030a90       ?growAndPushBack@?$Array@IV?$ReflectionAllocator@I@shdfnd@physx@@@shdfnd@physx@@IAEAAIABI@Z 10031a90 f i NpPhysics.obj
 0001:00030b50       ?growAndPushBack@?$Array@PAVNpScene@physx@@V?$ReflectionAllocator@PAVNpScene@physx@@@shdfnd@2@@shdfnd@physx@@IAEAAPAVNpScene@3@ABQAV43@@Z 10031b50 f i NpPhysics.obj
 0001:00030c50       ?onGuMeshFactoryBufferRelease@MeshDeletionListener@NpPhysics@physx@@UAEXPBVPxBase@3@G@Z 10031c50 f i NpPhysics.obj
 0001:00030c70       ?reserveInternal@?$HashBase@PBVPxBase@physx@@PBV12@U?$Hash@PBVPxBase@physx@@@shdfnd@2@UGetKey@?$HashSetBase@PBVPxBase@physx@@U?$Hash@PBVPxBase@physx@@@shdfnd@2@VNonTrackingAllocator@42@$0A@@internal@42@VNonTrackingAllocator@42@$0A@@internal@shdfnd@physx@@AAEXI@Z 10031c70 f i NpPhysics.obj
 0001:00030fe0       ?reserveInternal@?$HashBase@V?$Pair@QAVPxDeletionListener@physx@@PAUNpDelListenerEntry@NpPhysics@2@@shdfnd@physx@@PAVPxDeletionListener@3@U?$Hash@PAVPxDeletionListener@physx@@@23@UGetKey@?$HashMapBase@PAVPxDeletionListener@physx@@PAUNpDelListenerEntry@NpPhysics@2@U?$Hash@PAVPxDeletionListener@physx@@@shdfnd@2@VNonTrackingAllocator@62@@internal@23@VNonTrackingAllocator@23@$00@internal@shdfnd@physx@@AAEXI@Z 10031fe0 f i NpPhysics.obj
 0001:00031170       ??0NpReadCheck@physx@@QAE@PBVNpScene@1@PBD@Z 10032170 f   NpReadCheck.obj
 0001:00031200       ??1NpReadCheck@physx@@QAE@XZ 10032200 f   NpReadCheck.obj
 0001:00031270       ?NpRigidDynamicGetShapes@physx@@YAIAAVBody@Scb@1@AAPBQAXPA_N@Z 10032270 f   NpRigidDynamic.obj
 0001:000312b0       ?exportData@NpRigidDynamic@physx@@UBEXAAVPxSerializationContext@2@@Z 100322b0 f   NpRigidDynamic.obj
 0001:00031370       ?requiresObjects@NpRigidDynamic@physx@@UAEXAAVPxProcessPxBaseCallback@2@@Z 10032370 f   NpRigidDynamic.obj
 0001:000313b0       ?createObject@NpRigidDynamic@physx@@SAPAV12@AAPAEAAVPxDeserializationContext@2@@Z 100323b0 f   NpRigidDynamic.obj
 0001:00031450       ??1NpRigidDynamic@physx@@UAE@XZ 10032450 f   NpRigidDynamic.obj
 0001:00031490       ?release@NpRigidDynamic@physx@@UAEXXZ 10032490 f   NpRigidDynamic.obj
 0001:00031530       ?setGlobalPose@NpRigidDynamic@physx@@UAEXABVPxTransform@2@_N@Z 10032530 f   NpRigidDynamic.obj
 0001:000318d0       ?setKinematicTarget@NpRigidDynamic@physx@@UAEXABVPxTransform@2@@Z 100328d0 f   NpRigidDynamic.obj
 0001:00031bc0       ?getKinematicTarget@NpRigidDynamic@physx@@UBE_NAAVPxTransform@2@@Z 10032bc0 f   NpRigidDynamic.obj
 0001:00031fd0       ?setCMassLocalPose@NpRigidDynamic@physx@@UAEXABVPxTransform@2@@Z 10032fd0 f   NpRigidDynamic.obj
 0001:000327c0       ?setLinearDamping@NpRigidDynamic@physx@@UAEXM@Z 100337c0 f   NpRigidDynamic.obj
 0001:00032830       ?getLinearDamping@NpRigidDynamic@physx@@UBEMXZ 10033830 f   NpRigidDynamic.obj
 0001:00032860       ?setAngularDamping@NpRigidDynamic@physx@@UAEXM@Z 10033860 f   NpRigidDynamic.obj
 0001:000328d0       ?getAngularDamping@NpRigidDynamic@physx@@UBEMXZ 100338d0 f   NpRigidDynamic.obj
 0001:00032900       ?setLinearVelocity@NpRigidDynamic@physx@@UAEXABVPxVec3@2@_N@Z 10033900 f   NpRigidDynamic.obj
 0001:00032970       ?setAngularVelocity@NpRigidDynamic@physx@@UAEXABVPxVec3@2@_N@Z 10033970 f   NpRigidDynamic.obj
 0001:000329e0       ?setMaxAngularVelocity@NpRigidDynamic@physx@@UAEXM@Z 100339e0 f   NpRigidDynamic.obj
 0001:00032a60       ?getMaxAngularVelocity@NpRigidDynamic@physx@@UBEMXZ 10033a60 f   NpRigidDynamic.obj
 0001:00032aa0       ?setMaxLinearVelocity@NpRigidDynamic@physx@@UAEXM@Z 10033aa0 f   NpRigidDynamic.obj
 0001:00032b20       ?getMaxLinearVelocity@NpRigidDynamic@physx@@UBEMXZ 10033b20 f   NpRigidDynamic.obj
 0001:00032b60       ?addForce@NpRigidDynamic@physx@@UAEXABVPxVec3@2@W4Enum@PxForceMode@2@_N@Z 10033b60 f   NpRigidDynamic.obj
 0001:00032c10       ?clearForce@NpRigidDynamic@physx@@UAEXW4Enum@PxForceMode@2@@Z 10033c10 f   NpRigidDynamic.obj
 0001:00032c20       ?addTorque@NpRigidDynamic@physx@@UAEXABVPxVec3@2@W4Enum@PxForceMode@2@_N@Z 10033c20 f   NpRigidDynamic.obj
 0001:00032cd0       ?clearTorque@NpRigidDynamic@physx@@UAEXW4Enum@PxForceMode@2@@Z 10033cd0 f   NpRigidDynamic.obj
 0001:00032ce0       ?setForceAndTorque@NpRigidDynamic@physx@@UAEXABVPxVec3@2@0W4Enum@PxForceMode@2@@Z 10033ce0 f   NpRigidDynamic.obj
 0001:00032d40       ?isSleeping@NpRigidDynamic@physx@@UBE_NXZ 10033d40 f   NpRigidDynamic.obj
 0001:00032d50       ?getSleepThreshold@NpRigidDynamic@physx@@UBEMXZ 10033d50 f   NpRigidDynamic.obj
 0001:00032d80       ?setSleepThreshold@NpRigidDynamic@physx@@UAEXM@Z 10033d80 f   NpRigidDynamic.obj
 0001:00032df0       ?getStabilizationThreshold@NpRigidDynamic@physx@@UBEMXZ 10033df0 f   NpRigidDynamic.obj
 0001:00032e30       ?setStabilizationThreshold@NpRigidDynamic@physx@@UAEXM@Z 10033e30 f   NpRigidDynamic.obj
 0001:00032eb0       ?setWakeCounter@NpRigidDynamic@physx@@UAEXM@Z 10033eb0 f   NpRigidDynamic.obj
 0001:00032f40       ?getWakeCounter@NpRigidDynamic@physx@@UBEMXZ 10033f40 f   NpRigidDynamic.obj
 0001:00032f50       ?wakeUp@NpRigidDynamic@physx@@UAEXXZ 10033f50 f   NpRigidDynamic.obj
 0001:00032f70       ?putToSleep@NpRigidDynamic@physx@@UAEXXZ 10033f70 f   NpRigidDynamic.obj
 0001:00032f80       ?setSolverIterationCounts@NpRigidDynamic@physx@@UAEXII@Z 10033f80 f   NpRigidDynamic.obj
 0001:00033000       ?getSolverIterationCounts@NpRigidDynamic@physx@@UBEXAAI0@Z 10034000 f   NpRigidDynamic.obj
 0001:00033040       ?setContactReportThreshold@NpRigidDynamic@physx@@UAEXM@Z 10034040 f   NpRigidDynamic.obj
 0001:000330c0       ?getContactReportThreshold@NpRigidDynamic@physx@@UBEMXZ 100340c0 f   NpRigidDynamic.obj
 0001:00033100       ?getRigidDynamicLockFlags@NpRigidDynamic@physx@@UBE?AV?$PxFlags@W4Enum@PxRigidDynamicLockFlag@physx@@G@2@XZ 10034100 f   NpRigidDynamic.obj
 0001:00033140       ?setRigidDynamicLockFlags@NpRigidDynamic@physx@@UAEXV?$PxFlags@W4Enum@PxRigidDynamicLockFlag@physx@@G@2@@Z 10034140 f   NpRigidDynamic.obj
 0001:00033160       ?setRigidDynamicLockFlag@NpRigidDynamic@physx@@UAEXW4Enum@PxRigidDynamicLockFlag@2@_N@Z 10034160 f   NpRigidDynamic.obj
 0001:000331c0       ??0NpRigidDynamic@physx@@QAE@ABVPxTransform@1@@Z 100341c0 f   NpRigidDynamic.obj
 0001:000332f0       ?switchToNoSim@NpRigidDynamic@physx@@UAEXXZ 100342f0 f   NpRigidDynamic.obj
 0001:00033400       ?switchFromNoSim@NpRigidDynamic@physx@@UAEXXZ 10034400 f   NpRigidDynamic.obj
 0001:00033420       ?wakeUpInternalNoKinematicTest@NpRigidDynamic@physx@@QAEXAAVBody@Scb@2@_N1@Z 10034420 f   NpRigidDynamic.obj
 0001:00033490       ?visualize@NpRigidDynamic@physx@@QAEXAAVRenderOutput@Cm@2@PAVNpScene@2@@Z 10034490 f   NpRigidDynamic.obj
 0001:00033700       ??0?$NpActorTemplate@VPxRigidDynamic@physx@@@physx@@QAE@GV?$PxFlags@W4Enum@PxBaseFlag@physx@@G@1@PBDPAX@Z 10034700 f i NpRigidDynamic.obj
 0001:00033750       ??0?$NpRigidActorTemplate@VPxRigidDynamic@physx@@@physx@@QAE@GV?$PxFlags@W4Enum@PxBaseFlag@physx@@G@1@@Z 10034750 f i NpRigidDynamic.obj
 0001:000337a0       ??0?$NpRigidBodyTemplate@VPxRigidDynamic@physx@@@physx@@QAE@GV?$PxFlags@W4Enum@PxBaseFlag@physx@@G@1@W4Enum@PxActorType@1@ABVPxTransform@1@@Z 100347a0 f i NpRigidDynamic.obj
 0001:000338d0       ??1?$NpActorTemplate@VPxRigidDynamic@physx@@@physx@@UAE@XZ 100348d0 f i NpRigidDynamic.obj
 0001:00033900       ??1?$NpRigidActorTemplate@VPxRigidDynamic@physx@@@physx@@UAE@XZ 10034900 f i NpRigidDynamic.obj
 0001:00033930       ??1?$NpRigidBodyTemplate@VPxRigidDynamic@physx@@@physx@@UAE@XZ 10034930 f i NpRigidDynamic.obj
 0001:00033970       ??1PxRigidDynamic@physx@@MAE@XZ 10034970 f i NpRigidDynamic.obj
 0001:00033980       ??_E?$NpActorTemplate@VPxRigidDynamic@physx@@@physx@@UAEPAXI@Z 10034980 f i NpRigidDynamic.obj
 0001:00033980       ??_G?$NpActorTemplate@VPxRigidDynamic@physx@@@physx@@UAEPAXI@Z 10034980 f i NpRigidDynamic.obj
 0001:000339d0       ??_E?$NpRigidActorTemplate@VPxRigidDynamic@physx@@@physx@@UAEPAXI@Z 100349d0 f i NpRigidDynamic.obj
 0001:000339d0       ??_G?$NpRigidActorTemplate@VPxRigidDynamic@physx@@@physx@@UAEPAXI@Z 100349d0 f i NpRigidDynamic.obj
 0001:00033a30       ??_E?$NpRigidBodyTemplate@VPxRigidDynamic@physx@@@physx@@UAEPAXI@Z 10034a30 f i NpRigidDynamic.obj
 0001:00033a30       ??_G?$NpRigidBodyTemplate@VPxRigidDynamic@physx@@@physx@@UAEPAXI@Z 10034a30 f i NpRigidDynamic.obj
 0001:00033aa0       ??_ENpRigidDynamic@physx@@UAEPAXI@Z 10034aa0 f i NpRigidDynamic.obj
 0001:00033aa0       ??_GNpRigidDynamic@physx@@UAEPAXI@Z 10034aa0 f i NpRigidDynamic.obj
 0001:00033b10       ??_GPxRigidDynamic@physx@@MAEPAXI@Z 10034b10 f i NpRigidDynamic.obj
 0001:00033b10       ??_EPxRigidDynamic@physx@@MAEPAXI@Z 10034b10 f i NpRigidDynamic.obj
 0001:00033b40       ?addSpatialForce@?$NpRigidBodyTemplate@VPxRigidDynamic@physx@@@physx@@IAEXPBVPxVec3@2@0W4Enum@PxForceMode@2@@Z 10034b40 f i NpRigidDynamic.obj
 0001:00033dd0       ?attachShape@?$NpRigidActorTemplate@VPxRigidDynamic@physx@@@physx@@UAE_NAAVPxShape@2@@Z 10034dd0 f i NpRigidDynamic.obj
 0001:00033e40       ?attachShape@?$NpRigidBodyTemplate@VPxRigidDynamic@physx@@@physx@@UAE_NAAVPxShape@2@@Z 10034e40 f i NpRigidDynamic.obj
 0001:00033eb0       ?clearSpatialForce@?$NpRigidBodyTemplate@VPxRigidDynamic@physx@@@physx@@IAEXW4Enum@PxForceMode@2@_N1@Z 10034eb0 f i NpRigidDynamic.obj
 0001:00034060       ?detachShape@?$NpRigidActorTemplate@VPxRigidDynamic@physx@@@physx@@UAEXAAVPxShape@2@_N@Z 10035060 f i NpRigidDynamic.obj
 0001:000340d0       ?exportExtraData@?$NpActorTemplate@VPxRigidDynamic@physx@@@physx@@UAEXAAVPxSerializationContext@2@@Z 100350d0 f i NpRigidDynamic.obj
 0001:000340e0       ?exportExtraData@?$NpRigidActorTemplate@VPxRigidDynamic@physx@@@physx@@UAEXAAVPxSerializationContext@2@@Z 100350e0 f i NpRigidDynamic.obj
 0001:00034100       ?getActorFlags@?$NpActorTemplate@VPxRigidDynamic@physx@@@physx@@UBE?AV?$PxFlags@W4Enum@PxActorFlag@physx@@E@2@XZ 10035100 f i NpRigidDynamic.obj
 0001:00034140       ?getAggregate@?$NpActorTemplate@VPxRigidDynamic@physx@@@physx@@UBEPAVPxAggregate@2@XZ 10035140 f i NpRigidDynamic.obj
 0001:00034150       ?getAngularVelocity@?$NpRigidBodyTemplate@VPxRigidDynamic@physx@@@physx@@UBE?AVPxVec3@2@XZ 10035150 f i NpRigidDynamic.obj
 0001:00034180       ?getCMassLocalPose@?$NpRigidBodyTemplate@VPxRigidDynamic@physx@@@physx@@UBE?AVPxTransform@2@XZ 10035180 f i NpRigidDynamic.obj
 0001:000341d0       ?getConcreteTypeName@PxRigidDynamic@physx@@UBEPBDXZ 100351d0 f i NpRigidDynamic.obj
 0001:000341e0       ?getConstraints@?$NpRigidActorTemplate@VPxRigidDynamic@physx@@@physx@@UBEIPAPAVPxConstraint@2@II@Z 100351e0 f i NpRigidDynamic.obj
 0001:00034250       ?getDominanceGroup@?$NpActorTemplate@VPxRigidDynamic@physx@@@physx@@UBEEXZ 10035250 f i NpRigidDynamic.obj
 0001:00034280       ?getGlobalPose@NpRigidDynamic@physx@@UBE?AVPxTransform@2@XZ 10035280 f i NpRigidDynamic.obj
 0001:00034640       ?getInternalIslandNodeIndex@?$NpRigidBodyTemplate@VPxRigidDynamic@physx@@@physx@@UBEIXZ 10035640 f i NpRigidDynamic.obj
 0001:00034650       ?getInvMass@?$NpRigidBodyTemplate@VPxRigidDynamic@physx@@@physx@@UBEMXZ 10035650 f i NpRigidDynamic.obj
 0001:00034680       ?getLinearVelocity@?$NpRigidBodyTemplate@VPxRigidDynamic@physx@@@physx@@UBE?AVPxVec3@2@XZ 10035680 f i NpRigidDynamic.obj
 0001:000346b0       ?getMass@?$NpRigidBodyTemplate@VPxRigidDynamic@physx@@@physx@@UBEMXZ 100356b0 f i NpRigidDynamic.obj
 0001:00034700       ?getMassSpaceInertiaTensor@?$NpRigidBodyTemplate@VPxRigidDynamic@physx@@@physx@@UBE?AVPxVec3@2@XZ 10035700 f i NpRigidDynamic.obj
 0001:00034790       ?getMassSpaceInvInertiaTensor@?$NpRigidBodyTemplate@VPxRigidDynamic@physx@@@physx@@UBE?AVPxVec3@2@XZ 10035790 f i NpRigidDynamic.obj
 0001:000347d0       ?getMaxContactImpulse@?$NpRigidBodyTemplate@VPxRigidDynamic@physx@@@physx@@UBEMXZ 100357d0 f i NpRigidDynamic.obj
 0001:00034810       ?getMaxDepenetrationVelocity@?$NpRigidBodyTemplate@VPxRigidDynamic@physx@@@physx@@UBEMXZ 10035810 f i NpRigidDynamic.obj
 0001:00034860       ?getMinCCDAdvanceCoefficient@?$NpRigidBodyTemplate@VPxRigidDynamic@physx@@@physx@@UBEMXZ 10035860 f i NpRigidDynamic.obj
 0001:000348a0       ?getName@?$NpActorTemplate@VPxRigidDynamic@physx@@@physx@@UBEPBDXZ 100358a0 f i NpRigidDynamic.obj
 0001:000348b0       ?getNbConstraints@?$NpRigidActorTemplate@VPxRigidDynamic@physx@@@physx@@UBEIXZ 100358b0 f i NpRigidDynamic.obj
 0001:000348c0       ?getNbShapes@?$NpRigidActorTemplate@VPxRigidDynamic@physx@@@physx@@UBEIXZ 100358c0 f i NpRigidDynamic.obj
 0001:000348d0       ?getOwnerClient@?$NpActorTemplate@VPxRigidDynamic@physx@@@physx@@UBEEXZ 100358d0 f i NpRigidDynamic.obj
 0001:00034900       ?getRigidBodyFlags@?$NpRigidBodyTemplate@VPxRigidDynamic@physx@@@physx@@UBE?AV?$PxFlags@W4Enum@PxRigidBodyFlag@physx@@E@2@XZ 10035900 f i NpRigidDynamic.obj
 0001:00034930       ?getScene@?$NpActorTemplate@VPxRigidDynamic@physx@@@physx@@UBEPAVPxScene@2@XZ 10035930 f i NpRigidDynamic.obj
 0001:00034940       ?getShapes@?$NpRigidActorTemplate@VPxRigidDynamic@physx@@@physx@@UBEIPAPAVPxShape@2@II@Z 10035940 f i NpRigidDynamic.obj
 0001:00034950       ?getType@NpRigidDynamic@physx@@UBE?AW4Enum@PxActorType@2@XZ 10035950 f i NpRigidDynamic.obj
 0001:00034960       ?getWorldBounds@?$NpRigidActorTemplate@VPxRigidDynamic@physx@@@physx@@UBE?AVPxBounds3@2@M@Z 10035960 f i NpRigidDynamic.obj
 0001:00034a90       ?importExtraData@?$NpActorTemplate@VPxRigidDynamic@physx@@@physx@@UAEXAAVPxDeserializationContext@2@@Z 10035a90 f i NpRigidDynamic.obj
 0001:00034aa0       ?importExtraData@?$NpRigidActorTemplate@VPxRigidDynamic@physx@@@physx@@UAEXAAVPxDeserializationContext@2@@Z 10035aa0 f i NpRigidDynamic.obj
 0001:00034ac0       ?isKindOf@PxRigidDynamic@physx@@MBE_NPBD@Z 10035ac0 f i NpRigidDynamic.obj
 0001:00034bd0       ?release@?$NpActorTemplate@VPxRigidDynamic@physx@@@physx@@UAEXXZ 10035bd0 f i NpRigidDynamic.obj
 0001:00034be0       ?release@?$NpRigidActorTemplate@VPxRigidDynamic@physx@@@physx@@UAEXXZ 10035be0 f i NpRigidDynamic.obj
 0001:00034c40       ?requiresObjects@?$NpRigidActorTemplate@VPxRigidDynamic@physx@@@physx@@UAEXAAVPxProcessPxBaseCallback@2@@Z 10035c40 f i NpRigidDynamic.obj
 0001:00034c80       ?resolveReferences@?$NpActorTemplate@VPxRigidDynamic@physx@@@physx@@UAEXAAVPxDeserializationContext@2@@Z 10035c80 f i NpRigidDynamic.obj
 0001:00034c90       ?resolveReferences@?$NpRigidActorTemplate@VPxRigidDynamic@physx@@@physx@@UAEXAAVPxDeserializationContext@2@@Z 10035c90 f i NpRigidDynamic.obj
 0001:00034cf0       ?setActorFlag@?$NpActorTemplate@VPxRigidDynamic@physx@@@physx@@UAEXW4Enum@PxActorFlag@2@_N@Z 10035cf0 f i NpRigidDynamic.obj
 0001:00034d90       ?setActorFlag@?$NpRigidActorTemplate@VPxRigidDynamic@physx@@@physx@@UAEXW4Enum@PxActorFlag@2@_N@Z 10035d90 f i NpRigidDynamic.obj
 0001:00034f00       ?setActorFlags@?$NpActorTemplate@VPxRigidDynamic@physx@@@physx@@UAEXV?$PxFlags@W4Enum@PxActorFlag@physx@@E@2@@Z 10035f00 f i NpRigidDynamic.obj
 0001:00034f30       ?setActorFlags@?$NpRigidActorTemplate@VPxRigidDynamic@physx@@@physx@@UAEXV?$PxFlags@W4Enum@PxActorFlag@physx@@E@2@@Z 10035f30 f i NpRigidDynamic.obj
 0001:00035030       ?setCMassLocalPoseInternal@?$NpRigidBodyTemplate@VPxRigidDynamic@physx@@@physx@@IAEXABVPxTransform@2@@Z 10036030 f i NpRigidDynamic.obj
 0001:000353b0       ?setDominanceGroup@?$NpActorTemplate@VPxRigidDynamic@physx@@@physx@@UAEXE@Z 100363b0 f i NpRigidDynamic.obj
 0001:00035420       ?setKinematicTarget@Body@Scb@physx@@QAEXABVPxTransform@3@@Z 10036420 f i NpRigidDynamic.obj
 0001:00035510       ?setLockFlags@Body@Scb@physx@@QAEXV?$PxFlags@W4Enum@PxRigidDynamicLockFlag@physx@@G@3@@Z 10036510 f i NpRigidDynamic.obj
 0001:00035580       ?setMass@?$NpRigidBodyTemplate@VPxRigidDynamic@physx@@@physx@@UAEXM@Z 10036580 f i NpRigidDynamic.obj
 0001:00035610       ?setMassSpaceInertiaTensor@?$NpRigidBodyTemplate@VPxRigidDynamic@physx@@@physx@@UAEXABVPxVec3@2@@Z 10036610 f i NpRigidDynamic.obj
 0001:00035700       ?setMaxContactImpulse@?$NpRigidBodyTemplate@VPxRigidDynamic@physx@@@physx@@UAEXM@Z 10036700 f i NpRigidDynamic.obj
 0001:00035780       ?setMaxDepenetrationVelocity@?$NpRigidBodyTemplate@VPxRigidDynamic@physx@@@physx@@UAEXM@Z 10036780 f i NpRigidDynamic.obj
 0001:00035800       ?setMinCCDAdvanceCoefficient@?$NpRigidBodyTemplate@VPxRigidDynamic@physx@@@physx@@UAEXM@Z 10036800 f i NpRigidDynamic.obj
 0001:00035870       ?setName@?$NpActorTemplate@VPxRigidDynamic@physx@@@physx@@UAEXPBD@Z 10036870 f i NpRigidDynamic.obj
 0001:00035880       ?setOwnerClient@?$NpActorTemplate@VPxRigidDynamic@physx@@@physx@@UAEXE@Z 10036880 f i NpRigidDynamic.obj
 0001:00035930       ?setRigidBodyFlag@?$NpRigidBodyTemplate@VPxRigidDynamic@physx@@@physx@@UAEXW4Enum@PxRigidBodyFlag@2@_N@Z 10036930 f i NpRigidDynamic.obj
 0001:00035c30       ?setRigidBodyFlags@?$NpRigidBodyTemplate@VPxRigidDynamic@physx@@@physx@@UAEXV?$PxFlags@W4Enum@PxRigidBodyFlag@physx@@E@2@@Z 10036c30 f i NpRigidDynamic.obj
 0001:00035f20       ?setSpatialForce@?$NpRigidBodyTemplate@VPxRigidDynamic@physx@@@physx@@IAEXPBVPxVec3@2@0W4Enum@PxForceMode@2@@Z 10036f20 f i NpRigidDynamic.obj
 0001:000361b0       ?switchFromNoSim@?$NpRigidActorTemplate@VPxRigidDynamic@physx@@@physx@@UAEXXZ 100371b0 f i NpRigidDynamic.obj
 0001:000361c0       ?switchToNoSim@?$NpRigidActorTemplate@VPxRigidDynamic@physx@@@physx@@UAEXXZ 100371c0 f i NpRigidDynamic.obj
 0001:000361d0       ?updateShaderComs@?$NpRigidActorTemplate@VPxRigidDynamic@physx@@@physx@@QAEXXZ 100371d0 f i NpRigidDynamic.obj
 0001:00036230       ?visualize@?$NpRigidActorTemplate@VPxRigidDynamic@physx@@@physx@@QAEXAAVRenderOutput@Cm@2@PAVNpScene@2@@Z 10037230 f i NpRigidDynamic.obj
 0001:00036250       ?visualize@?$NpRigidBodyTemplate@VPxRigidDynamic@physx@@@physx@@QAEXAAVRenderOutput@Cm@2@PAVNpScene@2@@Z 10037250 f i NpRigidDynamic.obj
 0001:000365e0       ?NpRigidStaticGetShapes@physx@@YAIAAVRigidStatic@Scb@1@AAPBQAX@Z 100375e0 f   NpRigidStatic.obj
 0001:00036620       ?exportData@NpRigidStatic@physx@@UBEXAAVPxSerializationContext@2@@Z 10037620 f   NpRigidStatic.obj
 0001:00036680       ?requiresObjects@NpRigidStatic@physx@@UAEXAAVPxProcessPxBaseCallback@2@@Z 10037680 f   NpRigidStatic.obj
 0001:000366c0       ?createObject@NpRigidStatic@physx@@SAPAV12@AAPAEAAVPxDeserializationContext@2@@Z 100376c0 f   NpRigidStatic.obj
 0001:00036740       ??1NpRigidStatic@physx@@UAE@XZ 10037740 f   NpRigidStatic.obj
 0001:00036780       ?release@NpRigidStatic@physx@@UAEXXZ 10037780 f   NpRigidStatic.obj
 0001:00036820       ?setGlobalPose@NpRigidStatic@physx@@UAEXABVPxTransform@2@_N@Z 10037820 f   NpRigidStatic.obj
 0001:00036a10       ?getGlobalPose@NpRigidStatic@physx@@UBE?AVPxTransform@2@XZ 10037a10 f   NpRigidStatic.obj
 0001:00036a60       ??0NpRigidStatic@physx@@QAE@ABVPxTransform@1@@Z 10037a60 f   NpRigidStatic.obj
 0001:00036b10       ?switchToNoSim@NpRigidStatic@physx@@UAEXXZ 10037b10 f   NpRigidStatic.obj
 0001:00036b30       ?switchFromNoSim@NpRigidStatic@physx@@UAEXXZ 10037b30 f   NpRigidStatic.obj
 0001:00036b50       ?visualize@NpRigidStatic@physx@@QAEXAAVRenderOutput@Cm@2@PAVNpScene@2@@Z 10037b50 f   NpRigidStatic.obj
 0001:00036c70       ??0?$NpActorTemplate@VPxRigidStatic@physx@@@physx@@QAE@GV?$PxFlags@W4Enum@PxBaseFlag@physx@@G@1@PBDPAX@Z 10037c70 f i NpRigidStatic.obj
 0001:00036cc0       ??0?$NpRigidActorTemplate@VPxRigidStatic@physx@@@physx@@QAE@GV?$PxFlags@W4Enum@PxBaseFlag@physx@@G@1@@Z 10037cc0 f i NpRigidStatic.obj
 0001:00036d10       ??1?$NpActorTemplate@VPxRigidStatic@physx@@@physx@@UAE@XZ 10037d10 f i NpRigidStatic.obj
 0001:00036d40       ??1?$NpRigidActorTemplate@VPxRigidStatic@physx@@@physx@@UAE@XZ 10037d40 f i NpRigidStatic.obj
 0001:00036d70       ??1PxRigidStatic@physx@@MAE@XZ 10037d70 f i NpRigidStatic.obj
 0001:00036d80       ??_E?$NpActorTemplate@VPxRigidStatic@physx@@@physx@@UAEPAXI@Z 10037d80 f i NpRigidStatic.obj
 0001:00036d80       ??_G?$NpActorTemplate@VPxRigidStatic@physx@@@physx@@UAEPAXI@Z 10037d80 f i NpRigidStatic.obj
 0001:00036dd0       ??_G?$NpRigidActorTemplate@VPxRigidStatic@physx@@@physx@@UAEPAXI@Z 10037dd0 f i NpRigidStatic.obj
 0001:00036dd0       ??_E?$NpRigidActorTemplate@VPxRigidStatic@physx@@@physx@@UAEPAXI@Z 10037dd0 f i NpRigidStatic.obj
 0001:00036e30       ??_ENpRigidStatic@physx@@UAEPAXI@Z 10037e30 f i NpRigidStatic.obj
 0001:00036e30       ??_GNpRigidStatic@physx@@UAEPAXI@Z 10037e30 f i NpRigidStatic.obj
 0001:00036ea0       ??_EPxRigidStatic@physx@@MAEPAXI@Z 10037ea0 f i NpRigidStatic.obj
 0001:00036ea0       ??_GPxRigidStatic@physx@@MAEPAXI@Z 10037ea0 f i NpRigidStatic.obj
 0001:00036ed0       ?attachShape@?$NpRigidActorTemplate@VPxRigidStatic@physx@@@physx@@UAE_NAAVPxShape@2@@Z 10037ed0 f i NpRigidStatic.obj
 0001:00036f40       ?detachShape@?$NpRigidActorTemplate@VPxRigidStatic@physx@@@physx@@UAEXAAVPxShape@2@_N@Z 10037f40 f i NpRigidStatic.obj
 0001:00036fb0       ?exportExtraData@?$NpActorTemplate@VPxRigidStatic@physx@@@physx@@UAEXAAVPxSerializationContext@2@@Z 10037fb0 f i NpRigidStatic.obj
 0001:00036fc0       ?exportExtraData@?$NpRigidActorTemplate@VPxRigidStatic@physx@@@physx@@UAEXAAVPxSerializationContext@2@@Z 10037fc0 f i NpRigidStatic.obj
 0001:00036fe0       ?getActorFlags@?$NpActorTemplate@VPxRigidStatic@physx@@@physx@@UBE?AV?$PxFlags@W4Enum@PxActorFlag@physx@@E@2@XZ 10037fe0 f i NpRigidStatic.obj
 0001:00037020       ?getAggregate@?$NpActorTemplate@VPxRigidStatic@physx@@@physx@@UBEPAVPxAggregate@2@XZ 10038020 f i NpRigidStatic.obj
 0001:00037030       ?getConcreteTypeName@PxRigidStatic@physx@@UBEPBDXZ 10038030 f i NpRigidStatic.obj
 0001:00037040       ?getConstraints@?$NpRigidActorTemplate@VPxRigidStatic@physx@@@physx@@UBEIPAPAVPxConstraint@2@II@Z 10038040 f i NpRigidStatic.obj
 0001:000370b0       ?getDominanceGroup@?$NpActorTemplate@VPxRigidStatic@physx@@@physx@@UBEEXZ 100380b0 f i NpRigidStatic.obj
 0001:000370e0       ?getName@?$NpActorTemplate@VPxRigidStatic@physx@@@physx@@UBEPBDXZ 100380e0 f i NpRigidStatic.obj
 0001:000370f0       ?getNbConstraints@?$NpRigidActorTemplate@VPxRigidStatic@physx@@@physx@@UBEIXZ 100380f0 f i NpRigidStatic.obj
 0001:00037100       ?getNbShapes@?$NpRigidActorTemplate@VPxRigidStatic@physx@@@physx@@UBEIXZ 10038100 f i NpRigidStatic.obj
 0001:00037110       ?getOwnerClient@?$NpActorTemplate@VPxRigidStatic@physx@@@physx@@UBEEXZ 10038110 f i NpRigidStatic.obj
 0001:00037140       ?getScene@?$NpActorTemplate@VPxRigidStatic@physx@@@physx@@UBEPAVPxScene@2@XZ 10038140 f i NpRigidStatic.obj
 0001:00037150       ?getShapes@?$NpRigidActorTemplate@VPxRigidStatic@physx@@@physx@@UBEIPAPAVPxShape@2@II@Z 10038150 f i NpRigidStatic.obj
 0001:00037160       ?getType@NpRigidStatic@physx@@UBE?AW4Enum@PxActorType@2@XZ 10038160 f i NpRigidStatic.obj
 0001:00037170       ?getWorldBounds@?$NpRigidActorTemplate@VPxRigidStatic@physx@@@physx@@UBE?AVPxBounds3@2@M@Z 10038170 f i NpRigidStatic.obj
 0001:000372a0       ?importExtraData@?$NpActorTemplate@VPxRigidStatic@physx@@@physx@@UAEXAAVPxDeserializationContext@2@@Z 100382a0 f i NpRigidStatic.obj
 0001:000372b0       ?importExtraData@?$NpRigidActorTemplate@VPxRigidStatic@physx@@@physx@@UAEXAAVPxDeserializationContext@2@@Z 100382b0 f i NpRigidStatic.obj
 0001:000372d0       ?isKindOf@PxRigidStatic@physx@@MBE_NPBD@Z 100382d0 f i NpRigidStatic.obj
 0001:00037330       ?release@?$NpActorTemplate@VPxRigidStatic@physx@@@physx@@UAEXXZ 10038330 f i NpRigidStatic.obj
 0001:00037340       ?release@?$NpRigidActorTemplate@VPxRigidStatic@physx@@@physx@@UAEXXZ 10038340 f i NpRigidStatic.obj
 0001:000373a0       ?requiresObjects@?$NpRigidActorTemplate@VPxRigidStatic@physx@@@physx@@UAEXAAVPxProcessPxBaseCallback@2@@Z 100383a0 f i NpRigidStatic.obj
 0001:000373e0       ?resolveReferences@?$NpActorTemplate@VPxRigidStatic@physx@@@physx@@UAEXAAVPxDeserializationContext@2@@Z 100383e0 f i NpRigidStatic.obj
 0001:000373f0       ?resolveReferences@?$NpRigidActorTemplate@VPxRigidStatic@physx@@@physx@@UAEXAAVPxDeserializationContext@2@@Z 100383f0 f i NpRigidStatic.obj
 0001:00037450       ?setActorFlag@?$NpActorTemplate@VPxRigidStatic@physx@@@physx@@UAEXW4Enum@PxActorFlag@2@_N@Z 10038450 f i NpRigidStatic.obj
 0001:000374f0       ?setActorFlag@?$NpRigidActorTemplate@VPxRigidStatic@physx@@@physx@@UAEXW4Enum@PxActorFlag@2@_N@Z 100384f0 f i NpRigidStatic.obj
 0001:00037660       ?setActorFlags@?$NpActorTemplate@VPxRigidStatic@physx@@@physx@@UAEXV?$PxFlags@W4Enum@PxActorFlag@physx@@E@2@@Z 10038660 f i NpRigidStatic.obj
 0001:00037690       ?setActorFlags@?$NpRigidActorTemplate@VPxRigidStatic@physx@@@physx@@UAEXV?$PxFlags@W4Enum@PxActorFlag@physx@@E@2@@Z 10038690 f i NpRigidStatic.obj
 0001:00037780       ?setDominanceGroup@?$NpActorTemplate@VPxRigidStatic@physx@@@physx@@UAEXE@Z 10038780 f i NpRigidStatic.obj
 0001:000377f0       ?setName@?$NpActorTemplate@VPxRigidStatic@physx@@@physx@@UAEXPBD@Z 100387f0 f i NpRigidStatic.obj
 0001:00037800       ?setOwnerClient@?$NpActorTemplate@VPxRigidStatic@physx@@@physx@@UAEXE@Z 10038800 f i NpRigidStatic.obj
 0001:000378b0       ?switchFromNoSim@?$NpRigidActorTemplate@VPxRigidStatic@physx@@@physx@@UAEXXZ 100388b0 f i NpRigidStatic.obj
 0001:000378c0       ?switchToNoSim@?$NpRigidActorTemplate@VPxRigidStatic@physx@@@physx@@UAEXXZ 100388c0 f i NpRigidStatic.obj
 0001:000378d0       ?updateShaderComs@?$NpRigidActorTemplate@VPxRigidStatic@physx@@@physx@@QAEXXZ 100388d0 f i NpRigidStatic.obj
 0001:00037930       ?visualize@?$NpRigidActorTemplate@VPxRigidStatic@physx@@@physx@@QAEXAAVRenderOutput@Cm@2@PAVNpScene@2@@Z 10038930 f i NpRigidStatic.obj
 0001:00037960       ??0NpSceneQueries@physx@@QAE@ABVPxSceneDesc@1@@Z 10038960 f   NpScene.obj
 0001:00037ac0       ??1NpSceneQueries@physx@@UAE@XZ 10038ac0 f   NpScene.obj
 0001:00037b10       ?setData@NpContactCallbackTask@physx@@QAEXPAVNpScene@2@PBUPxContactPairHeader@2@I@Z 10038b10 f   NpScene.obj
 0001:00037b30       ?run@NpContactCallbackTask@physx@@UAEXXZ 10038b30 f   NpScene.obj
 0001:00037b90       ?release@NpScene@physx@@UAEXXZ 10038b90 f   NpScene.obj
 0001:00037c40       ?setFlag@NpScene@physx@@UAEXW4Enum@PxSceneFlag@2@_N@Z 10038c40 f   NpScene.obj
 0001:00037cc0       ?getFlags@NpScene@physx@@UBE?AV?$PxFlags@W4Enum@PxSceneFlag@physx@@I@2@XZ 10038cc0 f   NpScene.obj
 0001:00037cf0       ?setGravity@NpScene@physx@@UAEXABVPxVec3@2@@Z 10038cf0 f   NpScene.obj
 0001:00037d50       ?getGravity@NpScene@physx@@UBE?AVPxVec3@2@XZ 10038d50 f   NpScene.obj
 0001:00037db0       ?setBounceThresholdVelocity@NpScene@physx@@UAEXM@Z 10038db0 f   NpScene.obj
 0001:00037df0       ?getBounceThresholdVelocity@NpScene@physx@@UBEMXZ 10038df0 f   NpScene.obj
 0001:00037e20       ?getFrictionOffsetThreshold@NpScene@physx@@UBEMXZ 10038e20 f   NpScene.obj
 0001:00037e30       ?setLimits@NpScene@physx@@UAEXABVPxSceneLimits@2@@Z 10038e30 f   NpScene.obj
 0001:00037ea0       ?getLimits@NpScene@physx@@UBE?AVPxSceneLimits@2@XZ 10038ea0 f   NpScene.obj
 0001:00037ec0       ?addActor@NpScene@physx@@UAEXAAVPxActor@2@PBVPxBVHStructure@2@@Z 10038ec0 f   NpScene.obj
 0001:00038090       ?removeActor@NpScene@physx@@UAEXAAVPxActor@2@_N@Z 10039090 f   NpScene.obj
 0001:000380e0       ?getNbConstraints@NpScene@physx@@UBEIXZ 100390e0 f   NpScene.obj
 0001:000380f0       ?getConstraints@NpScene@physx@@UBEIPAPAVPxConstraint@2@II@Z 100390f0 f   NpScene.obj
 0001:00038140       ?addArticulation@NpScene@physx@@UAEXAAVPxArticulationBase@2@@Z 10039140 f   NpScene.obj
 0001:00038240       ?removeArticulation@NpScene@physx@@UAEXAAVPxArticulationBase@2@_N@Z 10039240 f   NpScene.obj
 0001:00038290       ?getNbArticulations@NpScene@physx@@UBEIXZ 10039290 f   NpScene.obj
 0001:000382a0       ?getArticulations@NpScene@physx@@UBEIPAPAVPxArticulationBase@2@II@Z 100392a0 f   NpScene.obj
 0001:000382f0       ?addAggregate@NpScene@physx@@UAEXAAVPxAggregate@2@@Z 100392f0 f   NpScene.obj
 0001:00038490       ?removeAggregate@NpScene@physx@@UAEXAAVPxAggregate@2@_N@Z 10039490 f   NpScene.obj
 0001:000385f0       ?getNbAggregates@NpScene@physx@@UBEIXZ 100395f0 f   NpScene.obj
 0001:00038600       ?getAggregates@NpScene@physx@@UBEIPAPAVPxAggregate@2@II@Z 10039600 f   NpScene.obj
 0001:00038650       ?addCollection@NpScene@physx@@UAEXABVPxCollection@2@@Z 10039650 f   NpScene.obj
 0001:000387f0       ?setDominanceGroupPair@NpScene@physx@@UAEXEEABUPxDominanceGroupPair@2@@Z 100397f0 f   NpScene.obj
 0001:000388b0       ?getDominanceGroupPair@NpScene@physx@@UBE?AUPxDominanceGroupPair@2@EE@Z 100398b0 f   NpScene.obj
 0001:00038960       ?getNbActors@NpScene@physx@@UBEIV?$PxFlags@W4Enum@PxActorTypeFlag@physx@@G@2@@Z 10039960 f   NpScene.obj
 0001:000389f0       ?getActors@NpScene@physx@@UBEIV?$PxFlags@W4Enum@PxActorTypeFlag@physx@@G@2@PAPAVPxActor@2@II@Z 100399f0 f   NpScene.obj
 0001:00038aa0       ?getActiveActors@NpScene@physx@@UAEPAPAVPxActor@2@AAI@Z 10039aa0 f   NpScene.obj
 0001:00038ae0       ?getSimulationStatistics@NpScene@physx@@UBEXAAVPxSimulationStatistics@2@@Z 10039ae0 f   NpScene.obj
 0001:00038b20       ?createClient@NpScene@physx@@UAEEXZ 10039b20 f   NpScene.obj
 0001:00038b50       ?setFrictionType@NpScene@physx@@UAEXW4Enum@PxFrictionType@2@@Z 10039b50 f   NpScene.obj
 0001:00038b60       ?getFrictionType@NpScene@physx@@UBE?AW4Enum@PxFrictionType@2@XZ 10039b60 f   NpScene.obj
 0001:00038b70       ?setSimulationEventCallback@NpScene@physx@@UAEXPAVPxSimulationEventCallback@2@@Z 10039b70 f   NpScene.obj
 0001:00038bb0       ?getSimulationEventCallback@NpScene@physx@@UBEPAVPxSimulationEventCallback@2@XZ 10039bb0 f   NpScene.obj
 0001:00038bc0       ?setContactModifyCallback@NpScene@physx@@UAEXPAVPxContactModifyCallback@2@@Z 10039bc0 f   NpScene.obj
 0001:00038c00       ?getContactModifyCallback@NpScene@physx@@UBEPAVPxContactModifyCallback@2@XZ 10039c00 f   NpScene.obj
 0001:00038c10       ?setCCDContactModifyCallback@NpScene@physx@@UAEXPAVPxCCDContactModifyCallback@2@@Z 10039c10 f   NpScene.obj
 0001:00038c50       ?getCCDContactModifyCallback@NpScene@physx@@UBEPAVPxCCDContactModifyCallback@2@XZ 10039c50 f   NpScene.obj
 0001:00038c60       ?setBroadPhaseCallback@NpScene@physx@@UAEXPAVPxBroadPhaseCallback@2@@Z 10039c60 f   NpScene.obj
 0001:00038ca0       ?getBroadPhaseCallback@NpScene@physx@@UBEPAVPxBroadPhaseCallback@2@XZ 10039ca0 f   NpScene.obj
 0001:00038cb0       ?setCCDMaxPasses@NpScene@physx@@UAEXI@Z 10039cb0 f   NpScene.obj
 0001:00038cf0       ?getCCDMaxPasses@NpScene@physx@@UBEIXZ 10039cf0 f   NpScene.obj
 0001:00038d00       ?setFilterShaderData@NpScene@physx@@UAEXPBXI@Z 10039d00 f   NpScene.obj
 0001:00038d40       ?getFilterShaderData@NpScene@physx@@UBEPBXXZ 10039d40 f   NpScene.obj
 0001:00038d50       ?getFilterShaderDataSize@NpScene@physx@@UBEIXZ 10039d50 f   NpScene.obj
 0001:00038d60       ?getFilterShader@NpScene@physx@@UBEP6A?AV?$PxFlags@W4Enum@PxFilterFlag@physx@@G@2@IUPxFilterData@2@I0AAV?$PxFlags@W4Enum@PxPairFlag@physx@@G@2@PBXI@ZXZ 10039d60 f   NpScene.obj
 0001:00038d70       ?getFilterCallback@NpScene@physx@@UBEPAVPxSimulationFilterCallback@2@XZ 10039d70 f   NpScene.obj
 0001:00038d80       ?resetFiltering@NpScene@physx@@UAEXAAVPxActor@2@@Z 10039d80 f   NpScene.obj
 0001:00038e40       ?resetFiltering@NpScene@physx@@UAEXAAVPxRigidActor@2@PBQAVPxShape@2@I@Z 10039e40 f   NpScene.obj
 0001:00038f50       ?getPhysics@NpScene@physx@@UAEAAVPxPhysics@2@XZ 10039f50 f   NpScene.obj
 0001:00038f60       ?simulate@NpScene@physx@@UAEXMPAVPxBaseTask@2@PAXI_N@Z 10039f60 f   NpScene.obj
 0001:00038f90       ?advance@NpScene@physx@@UAEXPAVPxBaseTask@2@@Z 10039f90 f   NpScene.obj
 0001:00039030       ?collide@NpScene@physx@@UAEXMPAVPxBaseTask@2@PAXI_N@Z 1003a030 f   NpScene.obj
 0001:00039060       ?checkResults@NpScene@physx@@UAE_N_N@Z 1003a060 f   NpScene.obj
 0001:00039080       ?checkCollision@NpScene@physx@@UAE_N_N@Z 1003a080 f   NpScene.obj
 0001:000390a0       ?fetchCollision@NpScene@physx@@UAE_N_N@Z 1003a0a0 f   NpScene.obj
 0001:00039100       ?fetchResults@NpScene@physx@@UAE_N_NPAI@Z 1003a100 f   NpScene.obj
 0001:000391a0       ?fetchResultsStart@NpScene@physx@@UAE_NAAPBUPxContactPairHeader@2@AAI_N@Z 1003a1a0 f   NpScene.obj
 0001:00039240       ?processCallbacks@NpScene@physx@@UAEXPAVPxBaseTask@2@@Z 1003a240 f   NpScene.obj
 0001:00039410       ?fetchResultsFinish@NpScene@physx@@UAEXPAI@Z 1003a410 f   NpScene.obj
 0001:00039460       ?flushSimulation@NpScene@physx@@UAEX_N@Z 1003a460 f   NpScene.obj
 0001:00039570       ?flushQueryUpdates@NpScene@physx@@UAEXXZ 1003a570 f   NpScene.obj
 0001:000395e0       ?getRenderBuffer@NpScene@physx@@UAEABVPxRenderBuffer@2@XZ 1003a5e0 f   NpScene.obj
 0001:00039620       ?createBatchQuery@NpScene@physx@@UAEPAVPxBatchQuery@2@ABVPxBatchQueryDesc@2@@Z 1003a620 f   NpScene.obj
 0001:000396c0       ?releaseBatchQuery@NpScene@physx@@QAEXPAVPxBatchQuery@2@@Z 1003a6c0 f   NpScene.obj
 0001:00039720       ?setDynamicTreeRebuildRateHint@NpScene@physx@@UAEXI@Z 1003a720 f   NpScene.obj
 0001:00039730       ?getDynamicTreeRebuildRateHint@NpScene@physx@@UBEIXZ 1003a730 f   NpScene.obj
 0001:00039740       ?forceDynamicTreeRebuild@NpScene@physx@@UAEX_N0@Z 1003a740 f   NpScene.obj
 0001:00039780       ?sceneQueriesUpdate@NpScene@physx@@UAEXPAVPxBaseTask@2@_N@Z 1003a780 f   NpScene.obj
 0001:00039900       ?checkQueries@NpScene@physx@@UAE_N_N@Z 1003a900 f   NpScene.obj
 0001:00039920       ?fetchQueries@NpScene@physx@@UAE_N_N@Z 1003a920 f   NpScene.obj
 0001:000399c0       ?setSceneQueryUpdateMode@NpScene@physx@@UAEXW4Enum@PxSceneQueryUpdateMode@2@@Z 1003a9c0 f   NpScene.obj
 0001:000399d0       ?getSceneQueryUpdateMode@NpScene@physx@@UBE?AW4Enum@PxSceneQueryUpdateMode@2@XZ 1003a9d0 f   NpScene.obj
 0001:000399e0       ?setSolverBatchSize@NpScene@physx@@UAEXI@Z 1003a9e0 f   NpScene.obj
 0001:00039a10       ?getSolverBatchSize@NpScene@physx@@UBEIXZ 1003aa10 f   NpScene.obj
 0001:00039a30       ?setVisualizationParameter@NpScene@physx@@UAE_NW4Enum@PxVisualizationParameter@2@M@Z 1003aa30 f   NpScene.obj
 0001:00039ac0       ?getVisualizationParameter@NpScene@physx@@UBEMW4Enum@PxVisualizationParameter@2@@Z 1003aac0 f   NpScene.obj
 0001:00039b30       ?setVisualizationCullingBox@NpScene@physx@@UAEXABVPxBounds3@2@@Z 1003ab30 f   NpScene.obj
 0001:00039b90       ?getVisualizationCullingBox@NpScene@physx@@UBE?AVPxBounds3@2@XZ 1003ab90 f   NpScene.obj
 0001:00039be0       ?setNbContactDataBlocks@NpScene@physx@@UAEXI@Z 1003abe0 f   NpScene.obj
 0001:00039bf0       ?getNbContactDataBlocksUsed@NpScene@physx@@UBEIXZ 1003abf0 f   NpScene.obj
 0001:00039c00       ?getMaxNbContactDataBlocksUsed@NpScene@physx@@UBEIXZ 1003ac00 f   NpScene.obj
 0001:00039c10       ?getContactReportStreamBufferSize@NpScene@physx@@UBEIXZ 1003ac10 f   NpScene.obj
 0001:00039c20       ?getTimestamp@NpScene@physx@@UBEIXZ 1003ac20 f   NpScene.obj
 0001:00039c30       ?getSceneQueryStaticTimestamp@NpScene@physx@@UBEIXZ 1003ac30 f   NpScene.obj
 0001:00039c40       ?getCpuDispatcher@NpScene@physx@@UBEPAVPxCpuDispatcher@2@XZ 1003ac40 f   NpScene.obj
 0001:00039c50       ?getGpuDispatcher@NpScene@physx@@UBEPAVPxGpuDispatcher@2@XZ 1003ac50 f   NpScene.obj
 0001:00039c60       ?getStaticStructure@NpScene@physx@@UBE?AW4Enum@PxPruningStructureType@2@XZ 1003ac60 f   NpScene.obj
 0001:00039c70       ?getDynamicStructure@NpScene@physx@@UBE?AW4Enum@PxPruningStructureType@2@XZ 1003ac70 f   NpScene.obj
 0001:00039c80       ?getBroadPhaseType@NpScene@physx@@UBE?AW4Enum@PxBroadPhaseType@2@XZ 1003ac80 f   NpScene.obj
 0001:00039c90       ?getBroadPhaseCaps@NpScene@physx@@UBE_NAAUPxBroadPhaseCaps@2@@Z 1003ac90 f   NpScene.obj
 0001:00039ca0       ?getNbBroadPhaseRegions@NpScene@physx@@UBEIXZ 1003aca0 f   NpScene.obj
 0001:00039cb0       ?getBroadPhaseRegions@NpScene@physx@@UBEIPAUPxBroadPhaseRegionInfo@2@II@Z 1003acb0 f   NpScene.obj
 0001:00039cc0       ?addBroadPhaseRegion@NpScene@physx@@UAEIABUPxBroadPhaseRegion@2@_N@Z 1003acc0 f   NpScene.obj
 0001:00039d00       ?removeBroadPhaseRegion@NpScene@physx@@UAE_NI@Z 1003ad00 f   NpScene.obj
 0001:00039d10       ?addActors@NpScene@physx@@UAEXPBQAVPxActor@2@I@Z 1003ad10 f   NpScene.obj
 0001:00039d30       ?addActors@NpScene@physx@@UAEXABVPxPruningStructure@2@@Z 1003ad30 f   NpScene.obj
 0001:00039d70       ?removeActors@NpScene@physx@@UAEXPBQAVPxActor@2@I_N@Z 1003ad70 f   NpScene.obj
 0001:0003a240       ?lockRead@NpScene@physx@@UAEXPBDI@Z 1003b240 f   NpScene.obj
 0001:0003a2c0       ?unlockRead@NpScene@physx@@UAEXXZ 1003b2c0 f   NpScene.obj
 0001:0003a350       ?lockWrite@NpScene@physx@@UAEXPBDI@Z 1003b350 f   NpScene.obj
 0001:0003a420       ?unlockWrite@NpScene@physx@@UAEXXZ 1003b420 f   NpScene.obj
 0001:0003a4c0       ?getWakeCounterResetValue@NpScene@physx@@UBEMXZ 1003b4c0 f   NpScene.obj
 0001:0003a4d0       ?shiftOrigin@NpScene@physx@@UAEXABVPxVec3@2@@Z 1003b4d0 f   NpScene.obj
 0001:0003a930       ?getScenePvdClient@NpScene@physx@@UAEPAVPxPvdSceneClient@2@XZ 1003b930 f   NpScene.obj
 0001:0003a940       ?getSimulationController@NpScene@physx@@UAEPAVPxsSimulationController@2@XZ 1003b940 f   NpScene.obj
 0001:0003a950       ?setActiveActors@NpScene@physx@@UAEXPAPAVPxActor@2@I@Z 1003b950 f   NpScene.obj
 0001:0003a960       ?getFrozenActors@NpScene@physx@@UAEPAPAVPxActor@2@AAI@Z 1003b960 f   NpScene.obj
 0001:0003a9a0       ?setFrozenActorFlag@NpScene@physx@@UAEX_N@Z 1003b9a0 f   NpScene.obj
 0001:0003a9b0       ?forceSceneQueryRebuild@NpScene@physx@@UAEXXZ 1003b9b0 f   NpScene.obj
 0001:0003a9f0       ?frameEnd@NpScene@physx@@UAEXXZ 1003b9f0 f   NpScene.obj
 0001:0003aa00       ??0NpScene@physx@@QAE@ABVPxSceneDesc@1@@Z 1003ba00 f   NpScene.obj
 0001:0003af60       ??1NpScene@physx@@UAE@XZ   1003bf60 f   NpScene.obj
 0001:0003b490       ?addActorInternal@NpScene@physx@@QAEXAAVPxActor@2@PBVPxBVHStructure@2@@Z 1003c490 f   NpScene.obj
 0001:0003b560       ?removeActorInternal@NpScene@physx@@QAEXAAVPxActor@2@_N1@Z 1003c560 f   NpScene.obj
 0001:0003b730       ?addActorsInternal@NpScene@physx@@QAEXPIBQAVPxActor@2@IPBVPruningStructure@Sq@2@@Z 1003c730 f   NpScene.obj
 0001:0003bc50       ?addArticulationInternal@NpScene@physx@@QAEXAAVPxArticulationBase@2@@Z 1003cc50 f   NpScene.obj
 0001:0003c1a0       ?removeArticulationInternal@NpScene@physx@@QAEXAAVPxArticulationBase@2@_N1@Z 1003d1a0 f   NpScene.obj
 0001:0003c3a0       ?addMaterial@NpScene@physx@@QAEXABVNpMaterial@2@@Z 1003d3a0 f   NpScene.obj
 0001:0003c3b0       ?updateMaterial@NpScene@physx@@QAEXABVNpMaterial@2@@Z 1003d3b0 f   NpScene.obj
 0001:0003c3c0       ?removeMaterial@NpScene@physx@@QAEXABVNpMaterial@2@@Z 1003d3c0 f   NpScene.obj
 0001:0003c3d0       ?executeScene@NpScene@physx@@QAEXPAVPxBaseTask@2@@Z 1003d3d0 f   NpScene.obj
 0001:0003c3f0       ?executeCollide@NpScene@physx@@QAEXPAVPxBaseTask@2@@Z 1003d3f0 f   NpScene.obj
 0001:0003c410       ?executeAdvance@NpScene@physx@@QAEXPAVPxBaseTask@2@@Z 1003d410 f   NpScene.obj
 0001:0003c430       ?loadFromDesc@NpScene@physx@@QAE_NABVPxSceneDesc@2@@Z 1003d430 f   NpScene.obj
 0001:0003c490       ?removeFromRigidActorList@NpScene@physx@@QAEXABI@Z 1003d490 f   NpScene.obj
 0001:0003c4f0       ?addArticulationLink@NpScene@physx@@QAEXAAVNpArticulationLink@2@@Z 1003d4f0 f   NpScene.obj
 0001:0003c550       ?addArticulationLinkBody@NpScene@physx@@QAEXAAVNpArticulationLink@2@@Z 1003d550 f   NpScene.obj
 0001:0003c580       ?addArticulationLinkConstraint@NpScene@physx@@QAEXAAVNpArticulationLink@2@@Z 1003d580 f   NpScene.obj
 0001:0003c5c0       ?removeArticulationLink@NpScene@physx@@QAEXAAVNpArticulationLink@2@_N@Z 1003d5c0 f   NpScene.obj
 0001:0003c620       ?startWrite@NpScene@physx@@QAE?AW4Enum@StartWriteResult@12@_N@Z 1003d620 f   NpScene.obj
 0001:0003c630       ?stopWrite@NpScene@physx@@QAEX_N@Z 1003d630 f   NpScene.obj
 0001:0003c640       ?startRead@NpScene@physx@@QBE_NXZ 1003d640 f   NpScene.obj
 0001:0003c650       ?stopRead@NpScene@physx@@QBEXXZ 1003d650 f   NpScene.obj
 0001:0003c660       ?updatePhysXIndicator@NpScene@physx@@QAEXXZ 1003d660 f   NpScene.obj
 0001:0003c680       ?checkResultsInternal@NpScene@physx@@AAE_N_N@Z 1003d680 f   NpScene.obj
 0001:0003c6a0       ?checkCollisionInternal@NpScene@physx@@AAE_N_N@Z 1003d6a0 f   NpScene.obj
 0001:0003c6c0       ?checkSceneQueriesInternal@NpScene@physx@@AAE_N_N@Z 1003d6c0 f   NpScene.obj
 0001:0003c6e0       ?simulateOrCollide@NpScene@physx@@AAEXMPAVPxBaseTask@2@PAXI_NPBDW4Enum@SimulationStage@Sc@2@@Z 1003d6e0 f   NpScene.obj
 0001:0003c8f0       ?addRigidStatic@NpScene@physx@@AAEXAAVNpRigidStatic@2@PBVBVHStructure@Gu@2@_N@Z 1003d8f0 f   NpScene.obj
 0001:0003c9e0       ?removeRigidStatic@NpScene@physx@@AAEXAAVNpRigidStatic@2@_N1@Z 1003d9e0 f   NpScene.obj
 0001:0003cad0       ?addRigidDynamic@NpScene@physx@@AAEXAAVNpRigidDynamic@2@PBVBVHStructure@Gu@2@_N@Z 1003dad0 f   NpScene.obj
 0001:0003cbc0       ?removeRigidDynamic@NpScene@physx@@AAEXAAVNpRigidDynamic@2@_N1@Z 1003dbc0 f   NpScene.obj
 0001:0003ccb0       ?visualize@NpScene@physx@@AAEXXZ 1003dcb0 f   NpScene.obj
 0001:0003cff0       ?updateDirtyShaders@NpScene@physx@@AAEXXZ 1003dff0 f   NpScene.obj
 0001:0003d020       ?fireOutOfBoundsCallbacks@NpScene@physx@@AAEXXZ 1003e020 f   NpScene.obj
 0001:0003d0d0       ?fetchResultsPreContactCallbacks@NpScene@physx@@AAEXXZ 1003e0d0 f   NpScene.obj
 0001:0003d1a0       ?fetchResultsPostContactCallbacks@NpScene@physx@@AAEXXZ 1003e1a0 f   NpScene.obj
 0001:0003d290       ?updateScbStateAndSetupSq@NpScene@physx@@AAEXABVPxRigidActor@2@AAVActor@Scb@2@AAVNpShapeManager@2@_NPBVPxBounds3@2@3@Z 1003e290 f   NpScene.obj
 0001:0003d370       ??$allocArrayBuffer@PAVShape@Scb@physx@@@Scene@Scb@physx@@AAEPAPAVShape@12@AAV?$Array@PAVShape@Scb@physx@@V?$ReflectionAllocator@PAVShape@Scb@physx@@@shdfnd@3@@shdfnd@2@IAAI@Z 1003e370 f i NpScene.obj
 0001:0003d3b0       ??$sort@PAXU?$Less@PAX@shdfnd@physx@@V?$ReflectionAllocator@U?$Block@E$0BAA@@Scene@Sc@physx@@@23@@shdfnd@physx@@YAXPAPAXIABU?$Less@PAX@01@ABV?$ReflectionAllocator@U?$Block@E$0BAA@@Scene@Sc@physx@@@01@I@Z 1003e3b0 f i NpScene.obj
 0001:0003d720       ??$sort@PAXU?$Less@PAX@shdfnd@physx@@V?$ReflectionAllocator@U?$Block@E$0BIA@@Scene@Sc@physx@@@23@@shdfnd@physx@@YAXPAPAXIABU?$Less@PAX@01@ABV?$ReflectionAllocator@U?$Block@E$0BIA@@Scene@Sc@physx@@@01@I@Z 1003e720 f i NpScene.obj
 0001:0003da90       ??$sort@PAXU?$Less@PAX@shdfnd@physx@@V?$ReflectionAllocator@U?$Block@E$0IA@@Scene@Sc@physx@@@23@@shdfnd@physx@@YAXPAPAXIABU?$Less@PAX@01@ABV?$ReflectionAllocator@U?$Block@E$0IA@@Scene@Sc@physx@@@01@I@Z 1003ea90 f i NpScene.obj
 0001:0003de00       ??$sort@PAXU?$Less@PAX@shdfnd@physx@@V?$ReflectionAllocator@U?$Block@PAX$07@Scene@Sc@physx@@@23@@shdfnd@physx@@YAXPAPAXIABU?$Less@PAX@01@ABV?$ReflectionAllocator@U?$Block@PAX$07@Scene@Sc@physx@@@01@I@Z 1003ee00 f i NpScene.obj
 0001:0003e170       ??$sort@PAXU?$Less@PAX@shdfnd@physx@@V?$ReflectionAllocator@U?$Block@PAX$0BA@@Scene@Sc@physx@@@23@@shdfnd@physx@@YAXPAPAXIABU?$Less@PAX@01@ABV?$ReflectionAllocator@U?$Block@PAX$0BA@@Scene@Sc@physx@@@01@I@Z 1003f170 f i NpScene.obj
 0001:0003e4e0       ??$sort@PAXU?$Less@PAX@shdfnd@physx@@V?$ReflectionAllocator@U?$Block@PAX$0CA@@Scene@Sc@physx@@@23@@shdfnd@physx@@YAXPAPAXIABU?$Less@PAX@01@ABV?$ReflectionAllocator@U?$Block@PAX$0CA@@Scene@Sc@physx@@@01@I@Z 1003f4e0 f i NpScene.obj
 0001:0003e850       ??0?$SyncT@V?$ReflectionAllocator@VSyncImpl@shdfnd@physx@@@shdfnd@physx@@@shdfnd@physx@@QAE@ABV?$ReflectionAllocator@VSyncImpl@shdfnd@physx@@@12@@Z 1003f850 f i NpScene.obj
 0001:0003e8d0       ??0PxBounds3@physx@@QAE@XZ 1003f8d0 f i NpScene.obj
 0001:0003e8e0       ??1?$Array@IV?$ReflectionAllocator@I@shdfnd@physx@@@shdfnd@physx@@QAE@XZ 1003f8e0 f i NpScene.obj
 0001:0003e910       ??1?$Array@PAVInteraction@Sc@physx@@V?$ReflectionAllocator@PAVInteraction@Sc@physx@@@shdfnd@3@@shdfnd@physx@@QAE@XZ 1003f910 f i NpScene.obj
 0001:0003e940       ??1?$PoolBase@U?$Block@E$0BAA@@Scene@Sc@physx@@V?$ReflectionAllocator@U?$Block@E$0BAA@@Scene@Sc@physx@@@shdfnd@4@@shdfnd@physx@@QAE@XZ 1003f940 f i NpScene.obj
 0001:0003eb00       ??1?$PoolBase@U?$Block@E$0BIA@@Scene@Sc@physx@@V?$ReflectionAllocator@U?$Block@E$0BIA@@Scene@Sc@physx@@@shdfnd@4@@shdfnd@physx@@QAE@XZ 1003fb00 f i NpScene.obj
 0001:0003ecc0       ??1?$PoolBase@U?$Block@E$0IA@@Scene@Sc@physx@@V?$ReflectionAllocator@U?$Block@E$0IA@@Scene@Sc@physx@@@shdfnd@4@@shdfnd@physx@@QAE@XZ 1003fcc0 f i NpScene.obj
 0001:0003ee80       ??1?$PoolBase@U?$Block@PAX$07@Scene@Sc@physx@@V?$ReflectionAllocator@U?$Block@PAX$07@Scene@Sc@physx@@@shdfnd@4@@shdfnd@physx@@QAE@XZ 1003fe80 f i NpScene.obj
 0001:0003f040       ??1?$PoolBase@U?$Block@PAX$0BA@@Scene@Sc@physx@@V?$ReflectionAllocator@U?$Block@PAX$0BA@@Scene@Sc@physx@@@shdfnd@4@@shdfnd@physx@@QAE@XZ 10040040 f i NpScene.obj
 0001:0003f200       ??1?$PoolBase@U?$Block@PAX$0CA@@Scene@Sc@physx@@V?$ReflectionAllocator@U?$Block@PAX$0CA@@Scene@Sc@physx@@@shdfnd@4@@shdfnd@physx@@QAE@XZ 10040200 f i NpScene.obj
 0001:0003f3c0       ??1FanoutTask@Cm@physx@@UAE@XZ 100403c0 f i NpScene.obj
 0001:0003f450       ??1FlushPool@Cm@physx@@QAE@XZ 10040450 f i NpScene.obj
 0001:0003f4c0       ??1NpSceneAccessor@physx@@UAE@XZ 100404c0 f i NpScene.obj
 0001:0003f4d0       ??1PxBaseTask@physx@@UAE@XZ 100404d0 f i NpScene.obj
 0001:0003f4e0       ??1PxLightCpuTask@physx@@UAE@XZ 100404e0 f i NpScene.obj
 0001:0003f4f0       ??1PxRenderBuffer@physx@@UAE@XZ 100404f0 f i NpScene.obj
 0001:0003f500       ??1PxScene@physx@@MAE@XZ   10040500 f i NpScene.obj
 0001:0003f510       ??1RenderBuffer@Cm@physx@@UAE@XZ 10040510 f i NpScene.obj
 0001:0003f5d0       ??1Scene@Sc@physx@@QAE@XZ  100405d0 f i NpScene.obj
 0001:00040020       ??1Scene@Scb@physx@@QAE@XZ 10041020 f i NpScene.obj
 0001:000401a0       ??1SqRefFinder@Sc@physx@@UAE@XZ 100411a0 f i NpScene.obj
 0001:000401b0       ??_E?$DelegateTask@VNpScene@physx@@$H?executeAdvance@12@QAEXPAVPxBaseTask@2@@ZA@@Cm@physx@@UAEPAXI@Z 100411b0 f i NpScene.obj
 0001:000401b0       ??_G?$DelegateTask@VNpScene@physx@@$H?executeAdvance@12@QAEXPAVPxBaseTask@2@@ZA@@Cm@physx@@UAEPAXI@Z 100411b0 f i NpScene.obj
 0001:000401f0       ??_E?$DelegateTask@VNpScene@physx@@$H?executeCollide@12@QAEXPAVPxBaseTask@2@@ZA@@Cm@physx@@UAEPAXI@Z 100411f0 f i NpScene.obj
 0001:000401f0       ??_G?$DelegateTask@VNpScene@physx@@$H?executeCollide@12@QAEXPAVPxBaseTask@2@@ZA@@Cm@physx@@UAEPAXI@Z 100411f0 f i NpScene.obj
 0001:00040230       ??_G?$DelegateTask@VNpScene@physx@@$H?executeScene@12@QAEXPAVPxBaseTask@2@@ZA@@Cm@physx@@UAEPAXI@Z 10041230 f i NpScene.obj
 0001:00040230       ??_E?$DelegateTask@VNpScene@physx@@$H?executeScene@12@QAEXPAVPxBaseTask@2@@ZA@@Cm@physx@@UAEPAXI@Z 10041230 f i NpScene.obj
 0001:00040270       ??_E?$DelegateTask@VNpSceneQueries@physx@@$1?sceneQueriesDynamicPrunerUpdate@12@QAEXPAVPxBaseTask@2@@Z@Cm@physx@@UAEPAXI@Z 10041270 f i NpScene.obj
 0001:00040270       ??_G?$DelegateTask@VNpSceneQueries@physx@@$1?sceneQueriesDynamicPrunerUpdate@12@QAEXPAVPxBaseTask@2@@Z@Cm@physx@@UAEPAXI@Z 10041270 f i NpScene.obj
 0001:000402b0       ??_E?$DelegateTask@VNpSceneQueries@physx@@$1?sceneQueriesStaticPrunerUpdate@12@QAEXPAVPxBaseTask@2@@Z@Cm@physx@@UAEPAXI@Z 100412b0 f i NpScene.obj
 0001:000402b0       ??_G?$DelegateTask@VNpSceneQueries@physx@@$1?sceneQueriesStaticPrunerUpdate@12@QAEXPAVPxBaseTask@2@@Z@Cm@physx@@UAEPAXI@Z 100412b0 f i NpScene.obj
 0001:000402f0       ??_GNpContactCallbackTask@physx@@UAEPAXI@Z 100412f0 f i NpScene.obj
 0001:000402f0       ??_ENpContactCallbackTask@physx@@UAEPAXI@Z 100412f0 f i NpScene.obj
 0001:00040320       ??_ENpScene@physx@@UAEPAXI@Z 10041320 f i NpScene.obj
 0001:00040320       ??_GNpScene@physx@@UAEPAXI@Z 10041320 f i NpScene.obj
 0001:00040360       ??_GNpSceneAccessor@physx@@UAEPAXI@Z 10041360 f i NpScene.obj
 0001:00040360       ??_ENpSceneAccessor@physx@@UAEPAXI@Z 10041360 f i NpScene.obj
 0001:00040390       ??_GNpSceneQueries@physx@@UAEPAXI@Z 10041390 f i NpScene.obj
 0001:00040390       ??_ENpSceneQueries@physx@@UAEPAXI@Z 10041390 f i NpScene.obj
 0001:00040400       ??_GPxBaseTask@physx@@UAEPAXI@Z 10041400 f i NpScene.obj
 0001:00040400       ??_EPxBaseTask@physx@@UAEPAXI@Z 10041400 f i NpScene.obj
 0001:00040430       ??_EPxLightCpuTask@physx@@UAEPAXI@Z 10041430 f i NpScene.obj
 0001:00040430       ??_GPxLightCpuTask@physx@@UAEPAXI@Z 10041430 f i NpScene.obj
 0001:00040460       ??_GPxRenderBuffer@physx@@UAEPAXI@Z 10041460 f i NpScene.obj
 0001:00040460       ??_EPxRenderBuffer@physx@@UAEPAXI@Z 10041460 f i NpScene.obj
 0001:00040490       ??_GPxScene@physx@@MAEPAXI@Z 10041490 f i NpScene.obj
 0001:00040490       ??_EPxScene@physx@@MAEPAXI@Z 10041490 f i NpScene.obj
 0001:000404c0       ??_ERenderBuffer@Cm@physx@@UAEPAXI@Z 100414c0 f i NpScene.obj
 0001:000404c0       ??_GRenderBuffer@Cm@physx@@UAEPAXI@Z 100414c0 f i NpScene.obj
 0001:00040500       ??_ESceneCompletion@NpScene@physx@@UAEPAXI@Z 10041500 f i NpScene.obj
 0001:00040500       ??_GSceneCompletion@NpScene@physx@@UAEPAXI@Z 10041500 f i NpScene.obj
 0001:00040530       ??_GSqRefFinder@@UAEPAXI@Z 10041530 f i NpScene.obj
 0001:00040530       ??_ESqRefFinder@@UAEPAXI@Z 10041530 f i NpScene.obj
 0001:00040560       ??_ESqRefFinder@Sc@physx@@UAEPAXI@Z 10041560 f i NpScene.obj
 0001:00040560       ??_GSqRefFinder@Sc@physx@@UAEPAXI@Z 10041560 f i NpScene.obj
 0001:00040590       ??_GTask@Cm@physx@@UAEPAXI@Z 10041590 f i NpScene.obj
 0001:00040590       ??_ETask@Cm@physx@@UAEPAXI@Z 10041590 f i NpScene.obj
 0001:000405c0       ?addReference@PxLightCpuTask@physx@@UAEXXZ 100415c0 f i NpScene.obj
 0001:000405d0       ?allocate@?$Array@PAVPxRigidActor@physx@@V?$ReflectionAllocator@PAVPxRigidActor@physx@@@shdfnd@2@@shdfnd@physx@@IAEPAPAVPxRigidActor@3@I@Z 100415d0 f i NpScene.obj
 0001:00040640       ?allocate@?$Array@UPxDebugPoint@physx@@V?$ReflectionAllocator@UPxDebugPoint@physx@@@shdfnd@2@@shdfnd@physx@@IAEPAUPxDebugPoint@3@I@Z 10041640 f i NpScene.obj
 0001:000406b0       ?allocate@?$Array@UPxDebugText@physx@@V?$ReflectionAllocator@UPxDebugText@physx@@@shdfnd@2@@shdfnd@physx@@IAEPAUPxDebugText@3@I@Z 100416b0 f i NpScene.obj
 0001:00040720       ?allocate@?$Array@UPxDebugTriangle@physx@@V?$ReflectionAllocator@UPxDebugTriangle@physx@@@shdfnd@2@@shdfnd@physx@@IAEPAUPxDebugTriangle@3@I@Z 10041720 f i NpScene.obj
 0001:00040790       ?allocate@?$Array@VPxBounds3@physx@@V?$InlineAllocator@$0MA@V?$ReflectionAllocator@VPxBounds3@physx@@@shdfnd@physx@@@shdfnd@2@@shdfnd@physx@@IAEPAVPxBounds3@3@I@Z 10041790 f i NpScene.obj
 0001:00040830       ?allocate@?$ReflectionAllocator@G@shdfnd@physx@@QAEPAXIPBDH@Z 10041830 f i NpScene.obj
 0001:00040890       ?allocate@?$ReflectionAllocator@PAVShape@Scb@physx@@@shdfnd@physx@@QAEPAXIPBDH@Z 10041890 f i NpScene.obj
 0001:000408f0       ?allocate@?$ReflectionAllocator@U?$Block@E$0BAA@@Scene@Sc@physx@@@shdfnd@physx@@QAEPAXIPBDH@Z 100418f0 f i NpScene.obj
 0001:00040950       ?allocate@?$ReflectionAllocator@U?$Block@E$0BIA@@Scene@Sc@physx@@@shdfnd@physx@@QAEPAXIPBDH@Z 10041950 f i NpScene.obj
 0001:000409b0       ?allocate@?$ReflectionAllocator@U?$Block@E$0IA@@Scene@Sc@physx@@@shdfnd@physx@@QAEPAXIPBDH@Z 100419b0 f i NpScene.obj
 0001:00040a10       ?allocate@?$ReflectionAllocator@U?$Block@PAX$07@Scene@Sc@physx@@@shdfnd@physx@@QAEPAXIPBDH@Z 10041a10 f i NpScene.obj
 0001:00040a70       ?allocate@?$ReflectionAllocator@U?$Block@PAX$0BA@@Scene@Sc@physx@@@shdfnd@physx@@QAEPAXIPBDH@Z 10041a70 f i NpScene.obj
 0001:00040ad0       ?allocate@?$ReflectionAllocator@U?$Block@PAX$0CA@@Scene@Sc@physx@@@shdfnd@physx@@QAEPAXIPBDH@Z 10041ad0 f i NpScene.obj
 0001:00040b30       ?append@RenderBuffer@Cm@physx@@UAEXABVPxRenderBuffer@3@@Z 10041b30 f i NpScene.obj
 0001:00040eb0       ?clear@RenderBuffer@Cm@physx@@UAEXXZ 10041eb0 f i NpScene.obj
 0001:00040ee0       ?copy@?$Array@UPxDebugPoint@physx@@V?$ReflectionAllocator@UPxDebugPoint@physx@@@shdfnd@2@@shdfnd@physx@@KAXPAUPxDebugPoint@3@0PBU43@@Z 10041ee0 f i NpScene.obj
 0001:00040f30       ?copy@?$Array@UPxDebugText@physx@@V?$ReflectionAllocator@UPxDebugText@physx@@@shdfnd@2@@shdfnd@physx@@KAXPAUPxDebugText@3@0PBU43@@Z 10041f30 f i NpScene.obj
 0001:00040f90       ?copy@?$Array@UPxDebugTriangle@physx@@V?$ReflectionAllocator@UPxDebugTriangle@physx@@@shdfnd@2@@shdfnd@physx@@KAXPAUPxDebugTriangle@3@0PBU43@@Z 10041f90 f i NpScene.obj
 0001:00041010       ?create@?$HashBase@PAVPxAggregate@physx@@PAV12@U?$Hash@PAVPxAggregate@physx@@@shdfnd@2@UGetKey@?$HashSetBase@PAVPxAggregate@physx@@U?$Hash@PAVPxAggregate@physx@@@shdfnd@2@VNonTrackingAllocator@42@$00@internal@42@VNonTrackingAllocator@42@$00@internal@shdfnd@physx@@QAEPAPAVPxAggregate@4@ABQAV54@AA_N@Z 10042010 f i NpScene.obj
 0001:00041140       ?create@?$HashBase@PAVPxArticulationBase@physx@@PAV12@U?$Hash@PAVPxArticulationBase@physx@@@shdfnd@2@UGetKey@?$HashSetBase@PAVPxArticulationBase@physx@@U?$Hash@PAVPxArticulationBase@physx@@@shdfnd@2@VNonTrackingAllocator@42@$00@internal@42@VNonTrackingAllocator@42@$00@internal@shdfnd@physx@@QAEPAPAVPxArticulationBase@4@ABQAV54@AA_N@Z 10042140 f i NpScene.obj
 0001:00041270       ?find@SqRefFinder@@UAEIPBVPxRigidBody@physx@@PBVPxShape@3@@Z 10042270 f i NpScene.obj
 0001:00041290       ?flush@NpScene@physx@@UAEX_N@Z 10042290 f i NpScene.obj
 0001:000412a0       ?getLines@RenderBuffer@Cm@physx@@UBEPBUPxDebugLine@3@XZ 100422a0 f i NpScene.obj
 0001:000412b0       ?getName@?$DelegateTask@VNpScene@physx@@$H?executeAdvance@12@QAEXPAVPxBaseTask@2@@ZA@@Cm@physx@@UBEPBDXZ 100422b0 f i NpScene.obj
 0001:000412c0       ?getName@?$DelegateTask@VNpScene@physx@@$H?executeCollide@12@QAEXPAVPxBaseTask@2@@ZA@@Cm@physx@@UBEPBDXZ 100422c0 f i NpScene.obj
 0001:000412d0       ?getName@?$DelegateTask@VNpScene@physx@@$H?executeScene@12@QAEXPAVPxBaseTask@2@@ZA@@Cm@physx@@UBEPBDXZ 100422d0 f i NpScene.obj
 0001:000412e0       ?getName@?$DelegateTask@VNpSceneQueries@physx@@$1?sceneQueriesDynamicPrunerUpdate@12@QAEXPAVPxBaseTask@2@@Z@Cm@physx@@UBEPBDXZ 100422e0 f i NpScene.obj
 0001:000412f0       ?getName@?$DelegateTask@VNpSceneQueries@physx@@$1?sceneQueriesStaticPrunerUpdate@12@QAEXPAVPxBaseTask@2@@Z@Cm@physx@@UBEPBDXZ 100422f0 f i NpScene.obj
 0001:00041300       ?getName@NpContactCallbackTask@physx@@UBEPBDXZ 10042300 f i NpScene.obj
 0001:00041310       ?getName@SceneCompletion@NpScene@physx@@UBEPBDXZ 10042310 f i NpScene.obj
 0001:00041320       ?getNbLines@RenderBuffer@Cm@physx@@UBEIXZ 10042320 f i NpScene.obj
 0001:00041330       ?getNbPoints@RenderBuffer@Cm@physx@@UBEIXZ 10042330 f i NpScene.obj
 0001:00041340       ?getNbTexts@RenderBuffer@Cm@physx@@UBEIXZ 10042340 f i NpScene.obj
 0001:00041350       ?getNbTriangles@RenderBuffer@Cm@physx@@UBEIXZ 10042350 f i NpScene.obj
 0001:00041360       ?getPoints@RenderBuffer@Cm@physx@@UBEPBUPxDebugPoint@3@XZ 10042360 f i NpScene.obj
 0001:00041370       ?getReference@PxLightCpuTask@physx@@UBEHXZ 10042370 f i NpScene.obj
 0001:00041380       ?getTaskManager@NpScene@physx@@UAEPAVPxTaskManager@2@XZ 10042380 f i NpScene.obj
 0001:00041390       ?getTaskManager@NpScene@physx@@UBEPAVPxTaskManager@2@XZ 10042390 f i NpScene.obj
 0001:000413a0       ?getTexts@RenderBuffer@Cm@physx@@UBEPBUPxDebugText@3@XZ 100423a0 f i NpScene.obj
 0001:000413b0       ?getTriangles@RenderBuffer@Cm@physx@@UBEPBUPxDebugTriangle@3@XZ 100423b0 f i NpScene.obj
 0001:000413c0       ?growAndPushBack@?$Array@PAEV?$ReflectionAllocator@PAE@shdfnd@physx@@@shdfnd@physx@@IAEAAPAEABQAE@Z 100423c0 f i NpScene.obj
 0001:000414c0       ?growAndPushBack@?$Array@PAVNpBatchQuery@physx@@V?$ReflectionAllocator@PAVNpBatchQuery@physx@@@shdfnd@2@@shdfnd@physx@@IAEAAPAVNpBatchQuery@3@ABQAV43@@Z 100424c0 f i NpScene.obj
 0001:000415c0       ?growAndPushBack@?$Array@PAVPxRigidActor@physx@@V?$ReflectionAllocator@PAVPxRigidActor@physx@@@shdfnd@2@@shdfnd@physx@@IAEAAPAVPxRigidActor@3@ABQAV43@@Z 100425c0 f i NpScene.obj
 0001:00041670       ?growAndPushBack@?$Array@PAXV?$ReflectionAllocator@U?$Block@E$0BAA@@Scene@Sc@physx@@@shdfnd@physx@@@shdfnd@physx@@IAEAAPAXABQAX@Z 10042670 f i NpScene.obj
 0001:00041730       ?growAndPushBack@?$Array@PAXV?$ReflectionAllocator@U?$Block@E$0BIA@@Scene@Sc@physx@@@shdfnd@physx@@@shdfnd@physx@@IAEAAPAXABQAX@Z 10042730 f i NpScene.obj
 0001:000417f0       ?growAndPushBack@?$Array@PAXV?$ReflectionAllocator@U?$Block@E$0IA@@Scene@Sc@physx@@@shdfnd@physx@@@shdfnd@physx@@IAEAAPAXABQAX@Z 100427f0 f i NpScene.obj
 0001:000418b0       ?growAndPushBack@?$Array@PAXV?$ReflectionAllocator@U?$Block@PAX$07@Scene@Sc@physx@@@shdfnd@physx@@@shdfnd@physx@@IAEAAPAXABQAX@Z 100428b0 f i NpScene.obj
 0001:00041970       ?growAndPushBack@?$Array@PAXV?$ReflectionAllocator@U?$Block@PAX$0BA@@Scene@Sc@physx@@@shdfnd@physx@@@shdfnd@physx@@IAEAAPAXABQAX@Z 10042970 f i NpScene.obj
 0001:00041a30       ?growAndPushBack@?$Array@PAXV?$ReflectionAllocator@U?$Block@PAX$0CA@@Scene@Sc@physx@@@shdfnd@physx@@@shdfnd@physx@@IAEAAPAXABQAX@Z 10042a30 f i NpScene.obj
 0001:00041af0       ?growAndPushBack@?$Array@UPxDebugLine@physx@@V?$ReflectionAllocator@UPxDebugLine@physx@@@shdfnd@2@@shdfnd@physx@@IAEAAUPxDebugLine@3@ABU43@@Z 10042af0 f i NpScene.obj
 0001:00041ba0       ?growAndPushBack@?$Array@UPxDebugPoint@physx@@V?$ReflectionAllocator@UPxDebugPoint@physx@@@shdfnd@2@@shdfnd@physx@@IAEAAUPxDebugPoint@3@ABU43@@Z 10042ba0 f i NpScene.obj
 0001:00041c30       ?growAndPushBack@?$Array@UPxDebugText@physx@@V?$ReflectionAllocator@UPxDebugText@physx@@@shdfnd@2@@shdfnd@physx@@IAEAAUPxDebugText@3@ABU43@@Z 10042c30 f i NpScene.obj
 0001:00041cd0       ?growAndPushBack@?$Array@UPxDebugTriangle@physx@@V?$ReflectionAllocator@UPxDebugTriangle@physx@@@shdfnd@2@@shdfnd@physx@@IAEAAUPxDebugTriangle@3@ABU43@@Z 10042cd0 f i NpScene.obj
 0001:00041da0       ?isAddedShape@RigidObject@Scb@physx@@QAE_NAAVShape@23@@Z 10042da0 f i NpScene.obj
 0001:00041e10       ?recreate@?$Array@GV?$ReflectionAllocator@G@shdfnd@physx@@@shdfnd@physx@@IAEXI@Z 10042e10 f i NpScene.obj
 0001:00041ee0       ?recreate@?$Array@PAVActor@Scb@physx@@V?$ReflectionAllocator@PAVActor@Scb@physx@@@shdfnd@3@@shdfnd@physx@@IAEXI@Z 10042ee0 f i NpScene.obj
 0001:00041fc0       ?recreate@?$Array@PAVPxRigidActor@physx@@V?$ReflectionAllocator@PAVPxRigidActor@physx@@@shdfnd@2@@shdfnd@physx@@IAEXI@Z 10042fc0 f i NpScene.obj
 0001:00042050       ?recreate@?$Array@PAVShape@Scb@physx@@V?$ReflectionAllocator@PAVShape@Scb@physx@@@shdfnd@3@@shdfnd@physx@@IAEXI@Z 10043050 f i NpScene.obj
 0001:00042110       ?recreate@?$Array@UPxDebugPoint@physx@@V?$ReflectionAllocator@UPxDebugPoint@physx@@@shdfnd@2@@shdfnd@physx@@IAEXI@Z 10043110 f i NpScene.obj
 0001:00042160       ?recreate@?$Array@UPxDebugText@physx@@V?$ReflectionAllocator@UPxDebugText@physx@@@shdfnd@2@@shdfnd@physx@@IAEXI@Z 10043160 f i NpScene.obj
 0001:000421b0       ?recreate@?$Array@UPxDebugTriangle@physx@@V?$ReflectionAllocator@UPxDebugTriangle@physx@@@shdfnd@2@@shdfnd@physx@@IAEXI@Z 100431b0 f i NpScene.obj
 0001:00042200       ?recreate@?$Array@VPxBounds3@physx@@V?$InlineAllocator@$0MA@V?$ReflectionAllocator@VPxBounds3@physx@@@shdfnd@physx@@@shdfnd@2@@shdfnd@physx@@IAEXI@Z 10043200 f i NpScene.obj
 0001:000422e0       ?release@PxLightCpuTask@physx@@UAEXXZ 100432e0 f i NpScene.obj
 0001:000422f0       ?release@SceneCompletion@NpScene@physx@@UAEXXZ 100432f0 f i NpScene.obj
 0001:00042310       ?removeReference@PxLightCpuTask@physx@@UAEXXZ 10043310 f i NpScene.obj
 0001:00042320       ?reserveInternal@?$HashBase@PAVPxAggregate@physx@@PAV12@U?$Hash@PAVPxAggregate@physx@@@shdfnd@2@UGetKey@?$HashSetBase@PAVPxAggregate@physx@@U?$Hash@PAVPxAggregate@physx@@@shdfnd@2@VNonTrackingAllocator@42@$00@internal@42@VNonTrackingAllocator@42@$00@internal@shdfnd@physx@@AAEXI@Z 10043320 f i NpScene.obj
 0001:000424b0       ?reserveInternal@?$HashBase@PAVPxArticulationBase@physx@@PAV12@U?$Hash@PAVPxArticulationBase@physx@@@shdfnd@2@UGetKey@?$HashSetBase@PAVPxArticulationBase@physx@@U?$Hash@PAVPxArticulationBase@physx@@@shdfnd@2@VNonTrackingAllocator@42@$00@internal@42@VNonTrackingAllocator@42@$00@internal@shdfnd@physx@@AAEXI@Z 100434b0 f i NpScene.obj
 0001:00042640       ?resetFiltering@?$NpRigidActorTemplate@VPxArticulationLink@physx@@@physx@@QAE_NAAVRigidObject@Scb@2@PBQAVPxShape@2@I@Z 10043640 f i NpScene.obj
 0001:00042780       ?resetFiltering@?$NpRigidActorTemplate@VPxRigidDynamic@physx@@@physx@@QAE_NAAVRigidObject@Scb@2@PBQAVPxShape@2@I@Z 10043780 f i NpScene.obj
 0001:000428c0       ?resetFiltering@?$NpRigidActorTemplate@VPxRigidStatic@physx@@@physx@@QAE_NAAVRigidObject@Scb@2@PBQAVPxShape@2@I@Z 100438c0 f i NpScene.obj
 0001:00042a00       ?resetFiltering@RigidObject@Scb@physx@@QAEXPBQAVShape@23@I@Z 10043a00 f i NpScene.obj
 0001:00042c10       ?resize@?$Array@GV?$ReflectionAllocator@G@shdfnd@physx@@@shdfnd@physx@@QAEXIABG@Z 10043c10 f i NpScene.obj
 0001:00042ce0       ?resize@?$Array@PAVActor@Scb@physx@@V?$ReflectionAllocator@PAVActor@Scb@physx@@@shdfnd@3@@shdfnd@physx@@QAEXIABQAVActor@Scb@3@@Z 10043ce0 f i NpScene.obj
 0001:00042da0       ?resize@?$Array@PAVShape@Scb@physx@@V?$ReflectionAllocator@PAVShape@Scb@physx@@@shdfnd@3@@shdfnd@physx@@QAEXIABQAVShape@Scb@3@@Z 10043da0 f i NpScene.obj
 0001:00042e60       ?resizeUninitialized@?$Array@VPxBounds3@physx@@V?$InlineAllocator@$0MA@V?$ReflectionAllocator@VPxBounds3@physx@@@shdfnd@physx@@@shdfnd@2@@shdfnd@physx@@QAEXI@Z 10043e60 f i NpScene.obj
 0001:00042e90       ?run@Task@Cm@physx@@UAEXXZ 10043e90 f i NpScene.obj
 0001:00042ec0       ?runInternal@?$DelegateTask@VNpScene@physx@@$H?executeAdvance@12@QAEXPAVPxBaseTask@2@@ZA@@Cm@physx@@UAEXXZ 10043ec0 f i NpScene.obj
 0001:00042ed0       ?runInternal@?$DelegateTask@VNpScene@physx@@$H?executeCollide@12@QAEXPAVPxBaseTask@2@@ZA@@Cm@physx@@UAEXXZ 10043ed0 f i NpScene.obj
 0001:00042ee0       ?runInternal@?$DelegateTask@VNpScene@physx@@$H?executeScene@12@QAEXPAVPxBaseTask@2@@ZA@@Cm@physx@@UAEXXZ 10043ee0 f i NpScene.obj
 0001:00042ef0       ?runInternal@?$DelegateTask@VNpSceneQueries@physx@@$1?sceneQueriesDynamicPrunerUpdate@12@QAEXPAVPxBaseTask@2@@Z@Cm@physx@@UAEXXZ 10043ef0 f i NpScene.obj
 0001:00042f00       ?runInternal@?$DelegateTask@VNpSceneQueries@physx@@$1?sceneQueriesStaticPrunerUpdate@12@QAEXPAVPxBaseTask@2@@Z@Cm@physx@@UAEXXZ 10043f00 f i NpScene.obj
 0001:00042f10       ?runInternal@SceneCompletion@NpScene@physx@@UAEXXZ 10043f10 f i NpScene.obj
 0001:00042f20       ?shift@RenderBuffer@Cm@physx@@QAEXABVPxVec3@3@@Z 10043f20 f i NpScene.obj
 0001:000430e0       ?raycast@NpSceneQueries@physx@@UBE_NABVPxVec3@2@0MAAU?$PxHitCallback@UPxRaycastHit@physx@@@2@V?$PxFlags@W4Enum@PxHitFlag@physx@@G@2@ABUPxQueryFilterData@2@PAVPxQueryFilterCallback@2@PBUPxQueryCache@2@@Z 100440e0 f   NpSceneQueries.obj
 0001:00043180       ?sweep@NpSceneQueries@physx@@UBE_NABVPxGeometry@2@ABVPxTransform@2@ABVPxVec3@2@MAAU?$PxHitCallback@UPxSweepHit@physx@@@2@V?$PxFlags@W4Enum@PxHitFlag@physx@@G@2@ABUPxQueryFilterData@2@PAVPxQueryFilterCallback@2@PBUPxQueryCache@2@M@Z 10044180 f   NpSceneQueries.obj
 0001:000432e0       ?overlap@NpSceneQueries@physx@@UBE_NABVPxGeometry@2@ABVPxTransform@2@AAU?$PxHitCallback@UPxOverlapHit@physx@@@2@ABUPxQueryFilterData@2@PAVPxQueryFilterCallback@2@@Z 100442e0 f   NpSceneQueries.obj
 0001:00043360       ?sceneQueriesStaticPrunerUpdate@NpSceneQueries@physx@@QAEXPAVPxBaseTask@2@@Z 10044360 f   NpSceneQueries.obj
 0001:00043380       ?sceneQueriesDynamicPrunerUpdate@NpSceneQueries@physx@@QAEXPAVPxBaseTask@2@@Z 10044380 f   NpSceneQueries.obj
 0001:00043520       ??$multiQuery@UPxOverlapHit@physx@@@NpSceneQueries@physx@@QBE_NABUMultiQueryInput@1@AAU?$PxHitCallback@UPxOverlapHit@physx@@@1@V?$PxFlags@W4Enum@PxHitFlag@physx@@G@1@PBUPxQueryCache@1@ABUPxQueryFilterData@1@PAVPxQueryFilterCallback@1@PAUBatchQueryFilterData@1@@Z 10044520 f i NpSceneQueries.obj
 0001:000437d0       ??$multiQuery@UPxRaycastHit@physx@@@NpSceneQueries@physx@@QBE_NABUMultiQueryInput@1@AAU?$PxHitCallback@UPxRaycastHit@physx@@@1@V?$PxFlags@W4Enum@PxHitFlag@physx@@G@1@PBUPxQueryCache@1@ABUPxQueryFilterData@1@PAVPxQueryFilterCallback@1@PAUBatchQueryFilterData@1@@Z 100447d0 f i NpSceneQueries.obj
 0001:00043a50       ??$multiQuery@UPxSweepHit@physx@@@NpSceneQueries@physx@@QBE_NABUMultiQueryInput@1@AAU?$PxHitCallback@UPxSweepHit@physx@@@1@V?$PxFlags@W4Enum@PxHitFlag@physx@@G@1@PBUPxQueryCache@1@ABUPxQueryFilterData@1@PAVPxQueryFilterCallback@1@PAUBatchQueryFilterData@1@@Z 10044a50 f i NpSceneQueries.obj
 0001:00043dd0       ??0Capsule@Gu@physx@@QAE@ABVPxVec3@2@0M@Z 10044dd0 f i NpSceneQueries.obj
 0001:00043e10       ??0PxOverlapHit@physx@@QAE@XZ 10044e10 f i NpSceneQueries.obj
 0001:00043e30       ??0PxQueryFilterData@physx@@QAE@ABU01@@Z 10044e30 f i NpSceneQueries.obj
 0001:00043e60       ??0PxRaycastHit@physx@@QAE@XZ 10044e60 f i NpSceneQueries.obj
 0001:00043ea0       ??0PxSweepHit@physx@@QAE@XZ 10044ea0 f i NpSceneQueries.obj
 0001:00043ee0       ??1PrunerCallback@Sq@physx@@UAE@XZ 10044ee0 f i NpSceneQueries.obj
 0001:00043ef0       ??4PxRaycastHit@physx@@QAEAAU01@ABU01@@Z 10044ef0 f i NpSceneQueries.obj
 0001:00043f60       ??4PxSweepHit@physx@@QAEAAU01@ABU01@@Z 10044f60 f i NpSceneQueries.obj
 0001:00043fb0       ??_E?$MultiQueryCallback@UPxOverlapHit@physx@@@@UAEPAXI@Z 10044fb0 f i NpSceneQueries.obj
 0001:00043fb0       ??_G?$MultiQueryCallback@UPxOverlapHit@physx@@@@UAEPAXI@Z 10044fb0 f i NpSceneQueries.obj
 0001:00043fe0       ??_G?$MultiQueryCallback@UPxRaycastHit@physx@@@@UAEPAXI@Z 10044fe0 f i NpSceneQueries.obj
 0001:00043fe0       ??_E?$MultiQueryCallback@UPxRaycastHit@physx@@@@UAEPAXI@Z 10044fe0 f i NpSceneQueries.obj
 0001:00044010       ??_G?$MultiQueryCallback@UPxSweepHit@physx@@@@UAEPAXI@Z 10045010 f i NpSceneQueries.obj
 0001:00044010       ??_E?$MultiQueryCallback@UPxSweepHit@physx@@@@UAEPAXI@Z 10045010 f i NpSceneQueries.obj
 0001:00044040       ??_EPrunerCallback@Sq@physx@@UAEPAXI@Z 10045040 f i NpSceneQueries.obj
 0001:00044040       ??_GPrunerCallback@Sq@physx@@UAEPAXI@Z 10045040 f i NpSceneQueries.obj
 0001:00044070       ?invoke@?$MultiQueryCallback@UPxOverlapHit@physx@@@@UAE_NAAMABUPrunerPayload@Sq@physx@@@Z 10045070 f i NpSceneQueries.obj
 0001:00044480       ?invoke@?$MultiQueryCallback@UPxRaycastHit@physx@@@@UAE_NAAMABUPrunerPayload@Sq@physx@@@Z 10045480 f i NpSceneQueries.obj
 0001:00044a30       ?invoke@?$MultiQueryCallback@UPxSweepHit@physx@@@@UAE_NAAMABUPrunerPayload@Sq@physx@@@Z 10045a30 f i NpSceneQueries.obj
 0001:000455b0       _PxRegisterPhysicsSerializers 100465b0 f   NpSerializerAdapter.obj
 0001:000458f0       _PxUnregisterPhysicsSerializers 100468f0 f   NpSerializerAdapter.obj
 0001:00045b70       ??1PxProcessPxBaseCallback@physx@@UAE@XZ 10046b70 f i NpSerializerAdapter.obj
 0001:00045b80       ??1PxSerializer@physx@@UAE@XZ 10046b80 f i NpSerializerAdapter.obj
 0001:00045b90       ??_E?$PxSerializerDefaultAdapter@VBV4TriangleMesh@Gu@physx@@@physx@@UAEPAXI@Z 10046b90 f i NpSerializerAdapter.obj
 0001:00045b90       ??_G?$PxSerializerDefaultAdapter@VBV4TriangleMesh@Gu@physx@@@physx@@UAEPAXI@Z 10046b90 f i NpSerializerAdapter.obj
 0001:00045bc0       ??_E?$PxSerializerDefaultAdapter@VConvexMesh@Gu@physx@@@physx@@UAEPAXI@Z 10046bc0 f i NpSerializerAdapter.obj
 0001:00045bc0       ??_G?$PxSerializerDefaultAdapter@VConvexMesh@Gu@physx@@@physx@@UAEPAXI@Z 10046bc0 f i NpSerializerAdapter.obj
 0001:00045bf0       ??_E?$PxSerializerDefaultAdapter@VHeightField@Gu@physx@@@physx@@UAEPAXI@Z 10046bf0 f i NpSerializerAdapter.obj
 0001:00045bf0       ??_G?$PxSerializerDefaultAdapter@VHeightField@Gu@physx@@@physx@@UAEPAXI@Z 10046bf0 f i NpSerializerAdapter.obj
 0001:00045c20       ??_E?$PxSerializerDefaultAdapter@VNpAggregate@physx@@@physx@@UAEPAXI@Z 10046c20 f i NpSerializerAdapter.obj
 0001:00045c20       ??_G?$PxSerializerDefaultAdapter@VNpAggregate@physx@@@physx@@UAEPAXI@Z 10046c20 f i NpSerializerAdapter.obj
 0001:00045c50       ??_G?$PxSerializerDefaultAdapter@VNpArticulation@physx@@@physx@@UAEPAXI@Z 10046c50 f i NpSerializerAdapter.obj
 0001:00045c50       ??_E?$PxSerializerDefaultAdapter@VNpArticulation@physx@@@physx@@UAEPAXI@Z 10046c50 f i NpSerializerAdapter.obj
 0001:00045c80       ??_E?$PxSerializerDefaultAdapter@VNpArticulationJoint@physx@@@physx@@UAEPAXI@Z 10046c80 f i NpSerializerAdapter.obj
 0001:00045c80       ??_G?$PxSerializerDefaultAdapter@VNpArticulationJoint@physx@@@physx@@UAEPAXI@Z 10046c80 f i NpSerializerAdapter.obj
 0001:00045cb0       ??_G?$PxSerializerDefaultAdapter@VNpArticulationLink@physx@@@physx@@UAEPAXI@Z 10046cb0 f i NpSerializerAdapter.obj
 0001:00045cb0       ??_E?$PxSerializerDefaultAdapter@VNpArticulationLink@physx@@@physx@@UAEPAXI@Z 10046cb0 f i NpSerializerAdapter.obj
 0001:00045ce0       ??_G?$PxSerializerDefaultAdapter@VNpConstraint@physx@@@physx@@UAEPAXI@Z 10046ce0 f i NpSerializerAdapter.obj
 0001:00045ce0       ??_E?$PxSerializerDefaultAdapter@VNpConstraint@physx@@@physx@@UAEPAXI@Z 10046ce0 f i NpSerializerAdapter.obj
 0001:00045d10       ??_G?$PxSerializerDefaultAdapter@VNpMaterial@physx@@@physx@@UAEPAXI@Z 10046d10 f i NpSerializerAdapter.obj
 0001:00045d10       ??_E?$PxSerializerDefaultAdapter@VNpMaterial@physx@@@physx@@UAEPAXI@Z 10046d10 f i NpSerializerAdapter.obj
 0001:00045d40       ??_E?$PxSerializerDefaultAdapter@VNpRigidDynamic@physx@@@physx@@UAEPAXI@Z 10046d40 f i NpSerializerAdapter.obj
 0001:00045d40       ??_G?$PxSerializerDefaultAdapter@VNpRigidDynamic@physx@@@physx@@UAEPAXI@Z 10046d40 f i NpSerializerAdapter.obj
 0001:00045d70       ??_E?$PxSerializerDefaultAdapter@VNpRigidStatic@physx@@@physx@@UAEPAXI@Z 10046d70 f i NpSerializerAdapter.obj
 0001:00045d70       ??_G?$PxSerializerDefaultAdapter@VNpRigidStatic@physx@@@physx@@UAEPAXI@Z 10046d70 f i NpSerializerAdapter.obj
 0001:00045da0       ??_G?$PxSerializerDefaultAdapter@VNpShape@physx@@@physx@@UAEPAXI@Z 10046da0 f i NpSerializerAdapter.obj
 0001:00045da0       ??_E?$PxSerializerDefaultAdapter@VNpShape@physx@@@physx@@UAEPAXI@Z 10046da0 f i NpSerializerAdapter.obj
 0001:00045dd0       ??_G?$PxSerializerDefaultAdapter@VPruningStructure@Sq@physx@@@physx@@UAEPAXI@Z 10046dd0 f i NpSerializerAdapter.obj
 0001:00045dd0       ??_E?$PxSerializerDefaultAdapter@VPruningStructure@Sq@physx@@@physx@@UAEPAXI@Z 10046dd0 f i NpSerializerAdapter.obj
 0001:00045e00       ??_G?$PxSerializerDefaultAdapter@VRTreeTriangleMesh@Gu@physx@@@physx@@UAEPAXI@Z 10046e00 f i NpSerializerAdapter.obj
 0001:00045e00       ??_E?$PxSerializerDefaultAdapter@VRTreeTriangleMesh@Gu@physx@@@physx@@UAEPAXI@Z 10046e00 f i NpSerializerAdapter.obj
 0001:00045e30       ??_GPxProcessPxBaseCallback@physx@@UAEPAXI@Z 10046e30 f i NpSerializerAdapter.obj
 0001:00045e30       ??_EPxProcessPxBaseCallback@physx@@UAEPAXI@Z 10046e30 f i NpSerializerAdapter.obj
 0001:00045e60       ??_EPxSerializer@physx@@UAEPAXI@Z 10046e60 f i NpSerializerAdapter.obj
 0001:00045e60       ??_GPxSerializer@physx@@UAEPAXI@Z 10046e60 f i NpSerializerAdapter.obj
 0001:00045e90       ??_GRequiresCallback@?1??registerReferences@?$PxSerializerDefaultAdapter@VBV4TriangleMesh@Gu@physx@@@physx@@UBEXAAVPxBase@3@AAVPxSerializationContext@3@@Z@UAEPAXI@Z 10046e90 f i NpSerializerAdapter.obj
 0001:00045e90       ??_ERequiresCallback@?1??registerReferences@?$PxSerializerDefaultAdapter@VBV4TriangleMesh@Gu@physx@@@physx@@UBEXAAVPxBase@3@AAVPxSerializationContext@3@@Z@UAEPAXI@Z 10046e90 f i NpSerializerAdapter.obj
 0001:00045ec0       ??_GRequiresCallback@?1??registerReferences@?$PxSerializerDefaultAdapter@VConvexMesh@Gu@physx@@@physx@@UBEXAAVPxBase@3@AAVPxSerializationContext@3@@Z@UAEPAXI@Z 10046ec0 f i NpSerializerAdapter.obj
 0001:00045ec0       ??_ERequiresCallback@?1??registerReferences@?$PxSerializerDefaultAdapter@VConvexMesh@Gu@physx@@@physx@@UBEXAAVPxBase@3@AAVPxSerializationContext@3@@Z@UAEPAXI@Z 10046ec0 f i NpSerializerAdapter.obj
 0001:00045ef0       ??_GRequiresCallback@?1??registerReferences@?$PxSerializerDefaultAdapter@VHeightField@Gu@physx@@@physx@@UBEXAAVPxBase@3@AAVPxSerializationContext@3@@Z@UAEPAXI@Z 10046ef0 f i NpSerializerAdapter.obj
 0001:00045ef0       ??_ERequiresCallback@?1??registerReferences@?$PxSerializerDefaultAdapter@VHeightField@Gu@physx@@@physx@@UBEXAAVPxBase@3@AAVPxSerializationContext@3@@Z@UAEPAXI@Z 10046ef0 f i NpSerializerAdapter.obj
 0001:00045f20       ??_ERequiresCallback@?1??registerReferences@?$PxSerializerDefaultAdapter@VNpAggregate@physx@@@physx@@UBEXAAVPxBase@3@AAVPxSerializationContext@3@@Z@UAEPAXI@Z 10046f20 f i NpSerializerAdapter.obj
 0001:00045f20       ??_GRequiresCallback@?1??registerReferences@?$PxSerializerDefaultAdapter@VNpAggregate@physx@@@physx@@UBEXAAVPxBase@3@AAVPxSerializationContext@3@@Z@UAEPAXI@Z 10046f20 f i NpSerializerAdapter.obj
 0001:00045f50       ??_ERequiresCallback@?1??registerReferences@?$PxSerializerDefaultAdapter@VNpArticulation@physx@@@physx@@UBEXAAVPxBase@3@AAVPxSerializationContext@3@@Z@UAEPAXI@Z 10046f50 f i NpSerializerAdapter.obj
 0001:00045f50       ??_GRequiresCallback@?1??registerReferences@?$PxSerializerDefaultAdapter@VNpArticulation@physx@@@physx@@UBEXAAVPxBase@3@AAVPxSerializationContext@3@@Z@UAEPAXI@Z 10046f50 f i NpSerializerAdapter.obj
 0001:00045f80       ??_ERequiresCallback@?1??registerReferences@?$PxSerializerDefaultAdapter@VNpArticulationJoint@physx@@@physx@@UBEXAAVPxBase@3@AAVPxSerializationContext@3@@Z@UAEPAXI@Z 10046f80 f i NpSerializerAdapter.obj
 0001:00045f80       ??_GRequiresCallback@?1??registerReferences@?$PxSerializerDefaultAdapter@VNpArticulationJoint@physx@@@physx@@UBEXAAVPxBase@3@AAVPxSerializationContext@3@@Z@UAEPAXI@Z 10046f80 f i NpSerializerAdapter.obj
 0001:00045fb0       ??_ERequiresCallback@?1??registerReferences@?$PxSerializerDefaultAdapter@VNpArticulationLink@physx@@@physx@@UBEXAAVPxBase@3@AAVPxSerializationContext@3@@Z@UAEPAXI@Z 10046fb0 f i NpSerializerAdapter.obj
 0001:00045fb0       ??_GRequiresCallback@?1??registerReferences@?$PxSerializerDefaultAdapter@VNpArticulationLink@physx@@@physx@@UBEXAAVPxBase@3@AAVPxSerializationContext@3@@Z@UAEPAXI@Z 10046fb0 f i NpSerializerAdapter.obj
 0001:00045fe0       ??_GRequiresCallback@?1??registerReferences@?$PxSerializerDefaultAdapter@VNpConstraint@physx@@@physx@@UBEXAAVPxBase@3@AAVPxSerializationContext@3@@Z@UAEPAXI@Z 10046fe0 f i NpSerializerAdapter.obj
 0001:00045fe0       ??_ERequiresCallback@?1??registerReferences@?$PxSerializerDefaultAdapter@VNpConstraint@physx@@@physx@@UBEXAAVPxBase@3@AAVPxSerializationContext@3@@Z@UAEPAXI@Z 10046fe0 f i NpSerializerAdapter.obj
 0001:00046010       ??_GRequiresCallback@?1??registerReferences@?$PxSerializerDefaultAdapter@VNpMaterial@physx@@@physx@@UBEXAAVPxBase@3@AAVPxSerializationContext@3@@Z@UAEPAXI@Z 10047010 f i NpSerializerAdapter.obj
 0001:00046010       ??_ERequiresCallback@?1??registerReferences@?$PxSerializerDefaultAdapter@VNpMaterial@physx@@@physx@@UBEXAAVPxBase@3@AAVPxSerializationContext@3@@Z@UAEPAXI@Z 10047010 f i NpSerializerAdapter.obj
 0001:00046040       ??_ERequiresCallback@?1??registerReferences@?$PxSerializerDefaultAdapter@VNpRigidDynamic@physx@@@physx@@UBEXAAVPxBase@3@AAVPxSerializationContext@3@@Z@UAEPAXI@Z 10047040 f i NpSerializerAdapter.obj
 0001:00046040       ??_GRequiresCallback@?1??registerReferences@?$PxSerializerDefaultAdapter@VNpRigidDynamic@physx@@@physx@@UBEXAAVPxBase@3@AAVPxSerializationContext@3@@Z@UAEPAXI@Z 10047040 f i NpSerializerAdapter.obj
 0001:00046070       ??_GRequiresCallback@?1??registerReferences@?$PxSerializerDefaultAdapter@VNpRigidStatic@physx@@@physx@@UBEXAAVPxBase@3@AAVPxSerializationContext@3@@Z@UAEPAXI@Z 10047070 f i NpSerializerAdapter.obj
 0001:00046070       ??_ERequiresCallback@?1??registerReferences@?$PxSerializerDefaultAdapter@VNpRigidStatic@physx@@@physx@@UBEXAAVPxBase@3@AAVPxSerializationContext@3@@Z@UAEPAXI@Z 10047070 f i NpSerializerAdapter.obj
 0001:000460a0       ??_GRequiresCallback@?1??registerReferences@?$PxSerializerDefaultAdapter@VNpShape@physx@@@physx@@UBEXAAVPxBase@3@AAVPxSerializationContext@3@@Z@UAEPAXI@Z 100470a0 f i NpSerializerAdapter.obj
 0001:000460a0       ??_ERequiresCallback@?1??registerReferences@?$PxSerializerDefaultAdapter@VNpShape@physx@@@physx@@UBEXAAVPxBase@3@AAVPxSerializationContext@3@@Z@UAEPAXI@Z 100470a0 f i NpSerializerAdapter.obj
 0001:000460d0       ??_ERequiresCallback@?1??registerReferences@?$PxSerializerDefaultAdapter@VPruningStructure@Sq@physx@@@physx@@UBEXAAVPxBase@3@AAVPxSerializationContext@3@@Z@UAEPAXI@Z 100470d0 f i NpSerializerAdapter.obj
 0001:000460d0       ??_GRequiresCallback@?1??registerReferences@?$PxSerializerDefaultAdapter@VPruningStructure@Sq@physx@@@physx@@UBEXAAVPxBase@3@AAVPxSerializationContext@3@@Z@UAEPAXI@Z 100470d0 f i NpSerializerAdapter.obj
 0001:00046100       ??_ERequiresCallback@?1??registerReferences@?$PxSerializerDefaultAdapter@VRTreeTriangleMesh@Gu@physx@@@physx@@UBEXAAVPxBase@3@AAVPxSerializationContext@3@@Z@UAEPAXI@Z 10047100 f i NpSerializerAdapter.obj
 0001:00046100       ??_GRequiresCallback@?1??registerReferences@?$PxSerializerDefaultAdapter@VRTreeTriangleMesh@Gu@physx@@@physx@@UBEXAAVPxBase@3@AAVPxSerializationContext@3@@Z@UAEPAXI@Z 10047100 f i NpSerializerAdapter.obj
 0001:00046130       ?createObject@?$PxSerializerDefaultAdapter@VBV4TriangleMesh@Gu@physx@@@physx@@UBEPAVPxBase@2@AAPAEAAVPxDeserializationContext@2@@Z 10047130 f i NpSerializerAdapter.obj
 0001:00046150       ?createObject@?$PxSerializerDefaultAdapter@VConvexMesh@Gu@physx@@@physx@@UBEPAVPxBase@2@AAPAEAAVPxDeserializationContext@2@@Z 10047150 f i NpSerializerAdapter.obj
 0001:00046170       ?createObject@?$PxSerializerDefaultAdapter@VHeightField@Gu@physx@@@physx@@UBEPAVPxBase@2@AAPAEAAVPxDeserializationContext@2@@Z 10047170 f i NpSerializerAdapter.obj
 0001:00046190       ?createObject@?$PxSerializerDefaultAdapter@VNpAggregate@physx@@@physx@@UBEPAVPxBase@2@AAPAEAAVPxDeserializationContext@2@@Z 10047190 f i NpSerializerAdapter.obj
 0001:000461b0       ?createObject@?$PxSerializerDefaultAdapter@VNpArticulation@physx@@@physx@@UBEPAVPxBase@2@AAPAEAAVPxDeserializationContext@2@@Z 100471b0 f i NpSerializerAdapter.obj
 0001:000461d0       ?createObject@?$PxSerializerDefaultAdapter@VNpArticulationJoint@physx@@@physx@@UBEPAVPxBase@2@AAPAEAAVPxDeserializationContext@2@@Z 100471d0 f i NpSerializerAdapter.obj
 0001:000461f0       ?createObject@?$PxSerializerDefaultAdapter@VNpArticulationLink@physx@@@physx@@UBEPAVPxBase@2@AAPAEAAVPxDeserializationContext@2@@Z 100471f0 f i NpSerializerAdapter.obj
 0001:00046210       ?createObject@?$PxSerializerDefaultAdapter@VNpConstraint@physx@@@physx@@UBEPAVPxBase@2@AAPAEAAVPxDeserializationContext@2@@Z 10047210 f i NpSerializerAdapter.obj
 0001:00046230       ?createObject@?$PxSerializerDefaultAdapter@VNpMaterial@physx@@@physx@@UBEPAVPxBase@2@AAPAEAAVPxDeserializationContext@2@@Z 10047230 f i NpSerializerAdapter.obj
 0001:00046250       ?createObject@?$PxSerializerDefaultAdapter@VNpRigidDynamic@physx@@@physx@@UBEPAVPxBase@2@AAPAEAAVPxDeserializationContext@2@@Z 10047250 f i NpSerializerAdapter.obj
 0001:00046270       ?createObject@?$PxSerializerDefaultAdapter@VNpRigidStatic@physx@@@physx@@UBEPAVPxBase@2@AAPAEAAVPxDeserializationContext@2@@Z 10047270 f i NpSerializerAdapter.obj
 0001:00046290       ?createObject@?$PxSerializerDefaultAdapter@VNpShape@physx@@@physx@@UBEPAVPxBase@2@AAPAEAAVPxDeserializationContext@2@@Z 10047290 f i NpSerializerAdapter.obj
 0001:000462b0       ?createObject@?$PxSerializerDefaultAdapter@VPruningStructure@Sq@physx@@@physx@@UBEPAVPxBase@2@AAPAEAAVPxDeserializationContext@2@@Z 100472b0 f i NpSerializerAdapter.obj
 0001:000462d0       ?createObject@?$PxSerializerDefaultAdapter@VRTreeTriangleMesh@Gu@physx@@@physx@@UBEPAVPxBase@2@AAPAEAAVPxDeserializationContext@2@@Z 100472d0 f i NpSerializerAdapter.obj
 0001:000462f0       ?exportData@?$PxSerializerDefaultAdapter@VBV4TriangleMesh@Gu@physx@@@physx@@UBEXAAVPxBase@2@AAVPxSerializationContext@2@@Z 100472f0 f i NpSerializerAdapter.obj
 0001:00046310       ?exportData@?$PxSerializerDefaultAdapter@VConvexMesh@Gu@physx@@@physx@@UBEXAAVPxBase@2@AAVPxSerializationContext@2@@Z 10047310 f i NpSerializerAdapter.obj
 0001:00046330       ?exportData@?$PxSerializerDefaultAdapter@VHeightField@Gu@physx@@@physx@@UBEXAAVPxBase@2@AAVPxSerializationContext@2@@Z 10047330 f i NpSerializerAdapter.obj
 0001:00046350       ?exportData@?$PxSerializerDefaultAdapter@VNpAggregate@physx@@@physx@@UBEXAAVPxBase@2@AAVPxSerializationContext@2@@Z 10047350 f i NpSerializerAdapter.obj
 0001:00046370       ?exportData@?$PxSerializerDefaultAdapter@VNpArticulation@physx@@@physx@@UBEXAAVPxBase@2@AAVPxSerializationContext@2@@Z 10047370 f i NpSerializerAdapter.obj
 0001:00046390       ?exportData@?$PxSerializerDefaultAdapter@VNpArticulationJoint@physx@@@physx@@UBEXAAVPxBase@2@AAVPxSerializationContext@2@@Z 10047390 f i NpSerializerAdapter.obj
 0001:000463b0       ?exportData@?$PxSerializerDefaultAdapter@VNpArticulationLink@physx@@@physx@@UBEXAAVPxBase@2@AAVPxSerializationContext@2@@Z 100473b0 f i NpSerializerAdapter.obj
 0001:000463d0       ?exportData@?$PxSerializerDefaultAdapter@VNpConstraint@physx@@@physx@@UBEXAAVPxBase@2@AAVPxSerializationContext@2@@Z 100473d0 f i NpSerializerAdapter.obj
 0001:000463f0       ?exportData@?$PxSerializerDefaultAdapter@VNpMaterial@physx@@@physx@@UBEXAAVPxBase@2@AAVPxSerializationContext@2@@Z 100473f0 f i NpSerializerAdapter.obj
 0001:00046410       ?exportData@?$PxSerializerDefaultAdapter@VNpRigidDynamic@physx@@@physx@@UBEXAAVPxBase@2@AAVPxSerializationContext@2@@Z 10047410 f i NpSerializerAdapter.obj
 0001:00046430       ?exportData@?$PxSerializerDefaultAdapter@VNpRigidStatic@physx@@@physx@@UBEXAAVPxBase@2@AAVPxSerializationContext@2@@Z 10047430 f i NpSerializerAdapter.obj
 0001:00046440       ?exportData@?$PxSerializerDefaultAdapter@VNpShape@physx@@@physx@@UBEXAAVPxBase@2@AAVPxSerializationContext@2@@Z 10047440 f i NpSerializerAdapter.obj
 0001:00046460       ?exportData@?$PxSerializerDefaultAdapter@VPruningStructure@Sq@physx@@@physx@@UBEXAAVPxBase@2@AAVPxSerializationContext@2@@Z 10047460 f i NpSerializerAdapter.obj
 0001:00046480       ?exportData@?$PxSerializerDefaultAdapter@VRTreeTriangleMesh@Gu@physx@@@physx@@UBEXAAVPxBase@2@AAVPxSerializationContext@2@@Z 10047480 f i NpSerializerAdapter.obj
 0001:000464a0       ?exportExtraData@?$PxSerializerDefaultAdapter@VBV4TriangleMesh@Gu@physx@@@physx@@UBEXAAVPxBase@2@AAVPxSerializationContext@2@@Z 100474a0 f i NpSerializerAdapter.obj
 0001:000464b0       ?exportExtraData@?$PxSerializerDefaultAdapter@VConvexMesh@Gu@physx@@@physx@@UBEXAAVPxBase@2@AAVPxSerializationContext@2@@Z 100474b0 f i NpSerializerAdapter.obj
 0001:000464c0       ?exportExtraData@?$PxSerializerDefaultAdapter@VHeightField@Gu@physx@@@physx@@UBEXAAVPxBase@2@AAVPxSerializationContext@2@@Z 100474c0 f i NpSerializerAdapter.obj
 0001:000464d0       ?exportExtraData@?$PxSerializerDefaultAdapter@VNpAggregate@physx@@@physx@@UBEXAAVPxBase@2@AAVPxSerializationContext@2@@Z 100474d0 f i NpSerializerAdapter.obj
 0001:000464e0       ?exportExtraData@?$PxSerializerDefaultAdapter@VNpArticulation@physx@@@physx@@UBEXAAVPxBase@2@AAVPxSerializationContext@2@@Z 100474e0 f i NpSerializerAdapter.obj
 0001:00046500       ?exportExtraData@?$PxSerializerDefaultAdapter@VNpArticulationJoint@physx@@@physx@@UBEXAAVPxBase@2@AAVPxSerializationContext@2@@Z 10047500 f i NpSerializerAdapter.obj
 0001:00046510       ?exportExtraData@?$PxSerializerDefaultAdapter@VNpArticulationLink@physx@@@physx@@UBEXAAVPxBase@2@AAVPxSerializationContext@2@@Z 10047510 f i NpSerializerAdapter.obj
 0001:00046530       ?exportExtraData@?$PxSerializerDefaultAdapter@VNpConstraint@physx@@@physx@@UBEXAAVPxBase@2@AAVPxSerializationContext@2@@Z 10047530 f i NpSerializerAdapter.obj
 0001:00046540       ?exportExtraData@?$PxSerializerDefaultAdapter@VNpMaterial@physx@@@physx@@UBEXAAVPxBase@2@AAVPxSerializationContext@2@@Z 10047540 f i NpSerializerAdapter.obj
 0001:00046550       ?exportExtraData@?$PxSerializerDefaultAdapter@VNpRigidDynamic@physx@@@physx@@UBEXAAVPxBase@2@AAVPxSerializationContext@2@@Z 10047550 f i NpSerializerAdapter.obj
 0001:00046570       ?exportExtraData@?$PxSerializerDefaultAdapter@VNpRigidStatic@physx@@@physx@@UBEXAAVPxBase@2@AAVPxSerializationContext@2@@Z 10047570 f i NpSerializerAdapter.obj
 0001:00046580       ?exportExtraData@?$PxSerializerDefaultAdapter@VNpShape@physx@@@physx@@UBEXAAVPxBase@2@AAVPxSerializationContext@2@@Z 10047580 f i NpSerializerAdapter.obj
 0001:000465a0       ?exportExtraData@?$PxSerializerDefaultAdapter@VPruningStructure@Sq@physx@@@physx@@UBEXAAVPxBase@2@AAVPxSerializationContext@2@@Z 100475a0 f i NpSerializerAdapter.obj
 0001:000465b0       ?exportExtraData@?$PxSerializerDefaultAdapter@VRTreeTriangleMesh@Gu@physx@@@physx@@UBEXAAVPxBase@2@AAVPxSerializationContext@2@@Z 100475b0 f i NpSerializerAdapter.obj
 0001:000465c0       ?getClassSize@?$PxSerializerDefaultAdapter@VBV4TriangleMesh@Gu@physx@@@physx@@UBEIXZ 100475c0 f i NpSerializerAdapter.obj
 0001:000465d0       ?getClassSize@?$PxSerializerDefaultAdapter@VConvexMesh@Gu@physx@@@physx@@UBEIXZ 100475d0 f i NpSerializerAdapter.obj
 0001:000465e0       ?getClassSize@?$PxSerializerDefaultAdapter@VHeightField@Gu@physx@@@physx@@UBEIXZ 100475e0 f i NpSerializerAdapter.obj
 0001:000465f0       ?getClassSize@?$PxSerializerDefaultAdapter@VNpAggregate@physx@@@physx@@UBEIXZ 100475f0 f i NpSerializerAdapter.obj
 0001:00046600       ?getClassSize@?$PxSerializerDefaultAdapter@VNpArticulation@physx@@@physx@@UBEIXZ 10047600 f i NpSerializerAdapter.obj
 0001:00046610       ?getClassSize@?$PxSerializerDefaultAdapter@VNpArticulationJoint@physx@@@physx@@UBEIXZ 10047610 f i NpSerializerAdapter.obj
 0001:00046620       ?getClassSize@?$PxSerializerDefaultAdapter@VNpArticulationLink@physx@@@physx@@UBEIXZ 10047620 f i NpSerializerAdapter.obj
 0001:00046630       ?getClassSize@?$PxSerializerDefaultAdapter@VNpConstraint@physx@@@physx@@UBEIXZ 10047630 f i NpSerializerAdapter.obj
 0001:00046640       ?getClassSize@?$PxSerializerDefaultAdapter@VNpMaterial@physx@@@physx@@UBEIXZ 10047640 f i NpSerializerAdapter.obj
 0001:00046650       ?getClassSize@?$PxSerializerDefaultAdapter@VNpRigidDynamic@physx@@@physx@@UBEIXZ 10047650 f i NpSerializerAdapter.obj
 0001:00046660       ?getClassSize@?$PxSerializerDefaultAdapter@VNpRigidStatic@physx@@@physx@@UBEIXZ 10047660 f i NpSerializerAdapter.obj
 0001:00046670       ?getClassSize@?$PxSerializerDefaultAdapter@VNpShape@physx@@@physx@@UBEIXZ 10047670 f i NpSerializerAdapter.obj
 0001:00046680       ?getClassSize@?$PxSerializerDefaultAdapter@VPruningStructure@Sq@physx@@@physx@@UBEIXZ 10047680 f i NpSerializerAdapter.obj
 0001:00046690       ?getClassSize@?$PxSerializerDefaultAdapter@VRTreeTriangleMesh@Gu@physx@@@physx@@UBEIXZ 10047690 f i NpSerializerAdapter.obj
 0001:000466a0       ?getConcreteTypeName@?$PxSerializerDefaultAdapter@VBV4TriangleMesh@Gu@physx@@@physx@@UBEPBDXZ 100476a0 f i NpSerializerAdapter.obj
 0001:000466b0       ?getConcreteTypeName@?$PxSerializerDefaultAdapter@VConvexMesh@Gu@physx@@@physx@@UBEPBDXZ 100476b0 f i NpSerializerAdapter.obj
 0001:000466c0       ?getConcreteTypeName@?$PxSerializerDefaultAdapter@VHeightField@Gu@physx@@@physx@@UBEPBDXZ 100476c0 f i NpSerializerAdapter.obj
 0001:000466d0       ?getConcreteTypeName@?$PxSerializerDefaultAdapter@VNpAggregate@physx@@@physx@@UBEPBDXZ 100476d0 f i NpSerializerAdapter.obj
 0001:000466e0       ?getConcreteTypeName@?$PxSerializerDefaultAdapter@VNpArticulation@physx@@@physx@@UBEPBDXZ 100476e0 f i NpSerializerAdapter.obj
 0001:000466f0       ?getConcreteTypeName@?$PxSerializerDefaultAdapter@VNpArticulationJoint@physx@@@physx@@UBEPBDXZ 100476f0 f i NpSerializerAdapter.obj
 0001:00046700       ?getConcreteTypeName@?$PxSerializerDefaultAdapter@VNpArticulationLink@physx@@@physx@@UBEPBDXZ 10047700 f i NpSerializerAdapter.obj
 0001:00046710       ?getConcreteTypeName@?$PxSerializerDefaultAdapter@VNpConstraint@physx@@@physx@@UBEPBDXZ 10047710 f i NpSerializerAdapter.obj
 0001:00046720       ?getConcreteTypeName@?$PxSerializerDefaultAdapter@VNpMaterial@physx@@@physx@@UBEPBDXZ 10047720 f i NpSerializerAdapter.obj
 0001:00046730       ?getConcreteTypeName@?$PxSerializerDefaultAdapter@VNpRigidDynamic@physx@@@physx@@UBEPBDXZ 10047730 f i NpSerializerAdapter.obj
 0001:00046740       ?getConcreteTypeName@?$PxSerializerDefaultAdapter@VNpRigidStatic@physx@@@physx@@UBEPBDXZ 10047740 f i NpSerializerAdapter.obj
 0001:00046750       ?getConcreteTypeName@?$PxSerializerDefaultAdapter@VNpShape@physx@@@physx@@UBEPBDXZ 10047750 f i NpSerializerAdapter.obj
 0001:00046760       ?getConcreteTypeName@?$PxSerializerDefaultAdapter@VPruningStructure@Sq@physx@@@physx@@UBEPBDXZ 10047760 f i NpSerializerAdapter.obj
 0001:00046770       ?getConcreteTypeName@?$PxSerializerDefaultAdapter@VRTreeTriangleMesh@Gu@physx@@@physx@@UBEPBDXZ 10047770 f i NpSerializerAdapter.obj
 0001:00046780       ?isSubordinate@?$PxSerializerDefaultAdapter@VBV4TriangleMesh@Gu@physx@@@physx@@UBE_NXZ 10047780 f i NpSerializerAdapter.obj
 0001:00046790       ?isSubordinate@?$PxSerializerDefaultAdapter@VConvexMesh@Gu@physx@@@physx@@UBE_NXZ 10047790 f i NpSerializerAdapter.obj
 0001:000467a0       ?isSubordinate@?$PxSerializerDefaultAdapter@VHeightField@Gu@physx@@@physx@@UBE_NXZ 100477a0 f i NpSerializerAdapter.obj
 0001:000467b0       ?isSubordinate@?$PxSerializerDefaultAdapter@VNpAggregate@physx@@@physx@@UBE_NXZ 100477b0 f i NpSerializerAdapter.obj
 0001:000467c0       ?isSubordinate@?$PxSerializerDefaultAdapter@VNpArticulation@physx@@@physx@@UBE_NXZ 100477c0 f i NpSerializerAdapter.obj
 0001:000467d0       ?isSubordinate@?$PxSerializerDefaultAdapter@VNpArticulationJoint@physx@@@physx@@UBE_NXZ 100477d0 f i NpSerializerAdapter.obj
 0001:000467e0       ?isSubordinate@?$PxSerializerDefaultAdapter@VNpArticulationLink@physx@@@physx@@UBE_NXZ 100477e0 f i NpSerializerAdapter.obj
 0001:000467f0       ?isSubordinate@?$PxSerializerDefaultAdapter@VNpConstraint@physx@@@physx@@UBE_NXZ 100477f0 f i NpSerializerAdapter.obj
 0001:00046800       ?isSubordinate@?$PxSerializerDefaultAdapter@VNpMaterial@physx@@@physx@@UBE_NXZ 10047800 f i NpSerializerAdapter.obj
 0001:00046810       ?isSubordinate@?$PxSerializerDefaultAdapter@VNpRigidDynamic@physx@@@physx@@UBE_NXZ 10047810 f i NpSerializerAdapter.obj
 0001:00046820       ?isSubordinate@?$PxSerializerDefaultAdapter@VNpRigidStatic@physx@@@physx@@UBE_NXZ 10047820 f i NpSerializerAdapter.obj
 0001:00046830       ?isSubordinate@?$PxSerializerDefaultAdapter@VNpShape@physx@@@physx@@UBE_NXZ 10047830 f i NpSerializerAdapter.obj
 0001:00046840       ?isSubordinate@?$PxSerializerDefaultAdapter@VPruningStructure@Sq@physx@@@physx@@UBE_NXZ 10047840 f i NpSerializerAdapter.obj
 0001:00046850       ?isSubordinate@?$PxSerializerDefaultAdapter@VRTreeTriangleMesh@Gu@physx@@@physx@@UBE_NXZ 10047850 f i NpSerializerAdapter.obj
 0001:00046860       ?process@RequiresCallback@?1??registerReferences@?$PxSerializerDefaultAdapter@VBV4TriangleMesh@Gu@physx@@@physx@@UBEXAAVPxBase@4@AAVPxSerializationContext@4@@Z@UAEX0@Z 10047860 f i NpSerializerAdapter.obj
 0001:00046880       ?process@RequiresCallback@?1??registerReferences@?$PxSerializerDefaultAdapter@VConvexMesh@Gu@physx@@@physx@@UBEXAAVPxBase@4@AAVPxSerializationContext@4@@Z@UAEX0@Z 10047880 f i NpSerializerAdapter.obj
 0001:000468a0       ?process@RequiresCallback@?1??registerReferences@?$PxSerializerDefaultAdapter@VHeightField@Gu@physx@@@physx@@UBEXAAVPxBase@4@AAVPxSerializationContext@4@@Z@UAEX0@Z 100478a0 f i NpSerializerAdapter.obj
 0001:000468c0       ?process@RequiresCallback@?1??registerReferences@?$PxSerializerDefaultAdapter@VNpAggregate@physx@@@physx@@UBEXAAVPxBase@4@AAVPxSerializationContext@4@@Z@UAEX0@Z 100478c0 f i NpSerializerAdapter.obj
 0001:000468e0       ?process@RequiresCallback@?1??registerReferences@?$PxSerializerDefaultAdapter@VNpArticulation@physx@@@physx@@UBEXAAVPxBase@4@AAVPxSerializationContext@4@@Z@UAEX0@Z 100478e0 f i NpSerializerAdapter.obj
 0001:00046900       ?process@RequiresCallback@?1??registerReferences@?$PxSerializerDefaultAdapter@VNpArticulationJoint@physx@@@physx@@UBEXAAVPxBase@4@AAVPxSerializationContext@4@@Z@UAEX0@Z 10047900 f i NpSerializerAdapter.obj
 0001:00046920       ?process@RequiresCallback@?1??registerReferences@?$PxSerializerDefaultAdapter@VNpArticulationLink@physx@@@physx@@UBEXAAVPxBase@4@AAVPxSerializationContext@4@@Z@UAEX0@Z 10047920 f i NpSerializerAdapter.obj
 0001:00046940       ?process@RequiresCallback@?1??registerReferences@?$PxSerializerDefaultAdapter@VNpConstraint@physx@@@physx@@UBEXAAVPxBase@4@AAVPxSerializationContext@4@@Z@UAEX0@Z 10047940 f i NpSerializerAdapter.obj
 0001:00046960       ?process@RequiresCallback@?1??registerReferences@?$PxSerializerDefaultAdapter@VNpMaterial@physx@@@physx@@UBEXAAVPxBase@4@AAVPxSerializationContext@4@@Z@UAEX0@Z 10047960 f i NpSerializerAdapter.obj
 0001:00046980       ?process@RequiresCallback@?1??registerReferences@?$PxSerializerDefaultAdapter@VNpRigidDynamic@physx@@@physx@@UBEXAAVPxBase@4@AAVPxSerializationContext@4@@Z@UAEX0@Z 10047980 f i NpSerializerAdapter.obj
 0001:000469a0       ?process@RequiresCallback@?1??registerReferences@?$PxSerializerDefaultAdapter@VNpRigidStatic@physx@@@physx@@UBEXAAVPxBase@4@AAVPxSerializationContext@4@@Z@UAEX0@Z 100479a0 f i NpSerializerAdapter.obj
 0001:000469c0       ?process@RequiresCallback@?1??registerReferences@?$PxSerializerDefaultAdapter@VNpShape@physx@@@physx@@UBEXAAVPxBase@4@AAVPxSerializationContext@4@@Z@UAEX0@Z 100479c0 f i NpSerializerAdapter.obj
 0001:00046a00       ?process@RequiresCallback@?1??registerReferences@?$PxSerializerDefaultAdapter@VPruningStructure@Sq@physx@@@physx@@UBEXAAVPxBase@4@AAVPxSerializationContext@4@@Z@UAEX0@Z 10047a00 f i NpSerializerAdapter.obj
 0001:00046a20       ?process@RequiresCallback@?1??registerReferences@?$PxSerializerDefaultAdapter@VRTreeTriangleMesh@Gu@physx@@@physx@@UBEXAAVPxBase@4@AAVPxSerializationContext@4@@Z@UAEX0@Z 10047a20 f i NpSerializerAdapter.obj
 0001:00046a40       ?registerReferences@?$PxSerializerDefaultAdapter@VBV4TriangleMesh@Gu@physx@@@physx@@UBEXAAVPxBase@2@AAVPxSerializationContext@2@@Z 10047a40 f i NpSerializerAdapter.obj
 0001:00046a80       ?registerReferences@?$PxSerializerDefaultAdapter@VConvexMesh@Gu@physx@@@physx@@UBEXAAVPxBase@2@AAVPxSerializationContext@2@@Z 10047a80 f i NpSerializerAdapter.obj
 0001:00046ac0       ?registerReferences@?$PxSerializerDefaultAdapter@VHeightField@Gu@physx@@@physx@@UBEXAAVPxBase@2@AAVPxSerializationContext@2@@Z 10047ac0 f i NpSerializerAdapter.obj
 0001:00046b00       ?registerReferences@?$PxSerializerDefaultAdapter@VNpAggregate@physx@@@physx@@UBEXAAVPxBase@2@AAVPxSerializationContext@2@@Z 10047b00 f i NpSerializerAdapter.obj
 0001:00046b40       ?registerReferences@?$PxSerializerDefaultAdapter@VNpArticulation@physx@@@physx@@UBEXAAVPxBase@2@AAVPxSerializationContext@2@@Z 10047b40 f i NpSerializerAdapter.obj
 0001:00046b80       ?registerReferences@?$PxSerializerDefaultAdapter@VNpArticulationJoint@physx@@@physx@@UBEXAAVPxBase@2@AAVPxSerializationContext@2@@Z 10047b80 f i NpSerializerAdapter.obj
 0001:00046bc0       ?registerReferences@?$PxSerializerDefaultAdapter@VNpArticulationLink@physx@@@physx@@UBEXAAVPxBase@2@AAVPxSerializationContext@2@@Z 10047bc0 f i NpSerializerAdapter.obj
 0001:00046c00       ?registerReferences@?$PxSerializerDefaultAdapter@VNpConstraint@physx@@@physx@@UBEXAAVPxBase@2@AAVPxSerializationContext@2@@Z 10047c00 f i NpSerializerAdapter.obj
 0001:00046c40       ?registerReferences@?$PxSerializerDefaultAdapter@VNpMaterial@physx@@@physx@@UBEXAAVPxBase@2@AAVPxSerializationContext@2@@Z 10047c40 f i NpSerializerAdapter.obj
 0001:00046c80       ?registerReferences@?$PxSerializerDefaultAdapter@VNpRigidDynamic@physx@@@physx@@UBEXAAVPxBase@2@AAVPxSerializationContext@2@@Z 10047c80 f i NpSerializerAdapter.obj
 0001:00046cc0       ?registerReferences@?$PxSerializerDefaultAdapter@VNpRigidStatic@physx@@@physx@@UBEXAAVPxBase@2@AAVPxSerializationContext@2@@Z 10047cc0 f i NpSerializerAdapter.obj
 0001:00046d00       ?registerReferences@?$PxSerializerDefaultAdapter@VNpShape@physx@@@physx@@UBEXAAVPxBase@2@AAVPxSerializationContext@2@@Z 10047d00 f i NpSerializerAdapter.obj
 0001:00046d40       ?registerReferences@?$PxSerializerDefaultAdapter@VPruningStructure@Sq@physx@@@physx@@UBEXAAVPxBase@2@AAVPxSerializationContext@2@@Z 10047d40 f i NpSerializerAdapter.obj
 0001:00046d80       ?registerReferences@?$PxSerializerDefaultAdapter@VRTreeTriangleMesh@Gu@physx@@@physx@@UBEXAAVPxBase@2@AAVPxSerializationContext@2@@Z 10047d80 f i NpSerializerAdapter.obj
 0001:00046dc0       ?requiresObjects@?$PxSerializerDefaultAdapter@VBV4TriangleMesh@Gu@physx@@@physx@@UBEXAAVPxBase@2@AAVPxProcessPxBaseCallback@2@@Z 10047dc0 f i NpSerializerAdapter.obj
 0001:00046dd0       ?requiresObjects@?$PxSerializerDefaultAdapter@VConvexMesh@Gu@physx@@@physx@@UBEXAAVPxBase@2@AAVPxProcessPxBaseCallback@2@@Z 10047dd0 f i NpSerializerAdapter.obj
 0001:00046de0       ?requiresObjects@?$PxSerializerDefaultAdapter@VHeightField@Gu@physx@@@physx@@UBEXAAVPxBase@2@AAVPxProcessPxBaseCallback@2@@Z 10047de0 f i NpSerializerAdapter.obj
 0001:00046df0       ?requiresObjects@?$PxSerializerDefaultAdapter@VNpAggregate@physx@@@physx@@UBEXAAVPxBase@2@AAVPxProcessPxBaseCallback@2@@Z 10047df0 f i NpSerializerAdapter.obj
 0001:00046e00       ?requiresObjects@?$PxSerializerDefaultAdapter@VNpArticulation@physx@@@physx@@UBEXAAVPxBase@2@AAVPxProcessPxBaseCallback@2@@Z 10047e00 f i NpSerializerAdapter.obj
 0001:00046e20       ?requiresObjects@?$PxSerializerDefaultAdapter@VNpArticulationJoint@physx@@@physx@@UBEXAAVPxBase@2@AAVPxProcessPxBaseCallback@2@@Z 10047e20 f i NpSerializerAdapter.obj
 0001:00046e40       ?requiresObjects@?$PxSerializerDefaultAdapter@VNpArticulationLink@physx@@@physx@@UBEXAAVPxBase@2@AAVPxProcessPxBaseCallback@2@@Z 10047e40 f i NpSerializerAdapter.obj
 0001:00046e60       ?requiresObjects@?$PxSerializerDefaultAdapter@VNpConstraint@physx@@@physx@@UBEXAAVPxBase@2@AAVPxProcessPxBaseCallback@2@@Z 10047e60 f i NpSerializerAdapter.obj
 0001:00046e70       ?requiresObjects@?$PxSerializerDefaultAdapter@VNpMaterial@physx@@@physx@@UBEXAAVPxBase@2@AAVPxProcessPxBaseCallback@2@@Z 10047e70 f i NpSerializerAdapter.obj
 0001:00046e80       ?requiresObjects@?$PxSerializerDefaultAdapter@VNpRigidDynamic@physx@@@physx@@UBEXAAVPxBase@2@AAVPxProcessPxBaseCallback@2@@Z 10047e80 f i NpSerializerAdapter.obj
 0001:00046ea0       ?requiresObjects@?$PxSerializerDefaultAdapter@VNpRigidStatic@physx@@@physx@@UBEXAAVPxBase@2@AAVPxProcessPxBaseCallback@2@@Z 10047ea0 f i NpSerializerAdapter.obj
 0001:00046eb0       ?requiresObjects@?$PxSerializerDefaultAdapter@VNpShape@physx@@@physx@@UBEXAAVPxBase@2@AAVPxProcessPxBaseCallback@2@@Z 10047eb0 f i NpSerializerAdapter.obj
 0001:00046ed0       ?requiresObjects@?$PxSerializerDefaultAdapter@VPruningStructure@Sq@physx@@@physx@@UBEXAAVPxBase@2@AAVPxProcessPxBaseCallback@2@@Z 10047ed0 f i NpSerializerAdapter.obj
 0001:00046ee0       ?requiresObjects@?$PxSerializerDefaultAdapter@VRTreeTriangleMesh@Gu@physx@@@physx@@UBEXAAVPxBase@2@AAVPxProcessPxBaseCallback@2@@Z 10047ee0 f i NpSerializerAdapter.obj
 0001:00046ef0       ?NpShapeGetScPtrOffset@physx@@YAIXZ 10047ef0 f   NpShape.obj
 0001:00046f00       ?NpShapeIncRefCount@physx@@YAXAAVShape@Scb@1@@Z 10047f00 f   NpShape.obj
 0001:00046f10       ?NpShapeDecRefCount@physx@@YAXAAVShape@Scb@1@@Z 10047f10 f   NpShape.obj
 0001:00046f40       ?NpShapeGetScRigidObjectFromScbSLOW@physx@@YAPAVRigidCore@Sc@1@ABVShape@Scb@1@@Z 10047f40 f   NpShape.obj
 0001:00046f60       ??0NpShape@physx@@QAE@V?$PxFlags@W4Enum@PxBaseFlag@physx@@G@1@@Z 10047f60 f   NpShape.obj
 0001:00046fd0       ?exportExtraData@NpShape@physx@@UAEXAAVPxSerializationContext@2@@Z 10047fd0 f   NpShape.obj
 0001:00047000       ?importExtraData@NpShape@physx@@QAEXAAVPxDeserializationContext@2@@Z 10048000 f   NpShape.obj
 0001:00047040       ?requiresObjects@NpShape@physx@@UAEXAAVPxProcessPxBaseCallback@2@@Z 10048040 f   NpShape.obj
 0001:00047120       ?resolveReferences@NpShape@physx@@QAEXAAVPxDeserializationContext@2@@Z 10048120 f   NpShape.obj
 0001:00047290       ?createObject@NpShape@physx@@SAPAV12@AAPAEAAVPxDeserializationContext@2@@Z 10048290 f   NpShape.obj
 0001:00047350       ??0NpShape@physx@@QAE@ABVPxGeometry@1@V?$PxFlags@W4Enum@PxShapeFlag@physx@@E@1@PBGG_N@Z 10048350 f   NpShape.obj
 0001:00047440       ??1NpShape@physx@@UAE@XZ   10048440 f   NpShape.obj
 0001:00047520       ?release@NpShape@physx@@UAEXXZ 10048520 f   NpShape.obj
 0001:00047540       ?getReferenceCount@NpShape@physx@@UBEIXZ 10048540 f   NpShape.obj
 0001:00047550       ?acquireReference@NpShape@physx@@UAEXXZ 10048550 f   NpShape.obj
 0001:00047560       ?getGeometryType@NpShape@physx@@UBE?AW4Enum@PxGeometryType@2@XZ 10048560 f   NpShape.obj
 0001:00047570       ?setGeometry@NpShape@physx@@UAEXABVPxGeometry@2@@Z 10048570 f   NpShape.obj
 0001:000476f0       ?getGeometry@NpShape@physx@@UBE?AVPxGeometryHolder@2@XZ 100486f0 f   NpShape.obj
 0001:00047720       ?getBoxGeometry@NpShape@physx@@UBE_NAAVPxBoxGeometry@2@@Z 10048720 f   NpShape.obj
 0001:00047760       ?getSphereGeometry@NpShape@physx@@UBE_NAAVPxSphereGeometry@2@@Z 10048760 f   NpShape.obj
 0001:00047790       ?getCapsuleGeometry@NpShape@physx@@UBE_NAAVPxCapsuleGeometry@2@@Z 10048790 f   NpShape.obj
 0001:000477d0       ?getPlaneGeometry@NpShape@physx@@UBE_NAAVPxPlaneGeometry@2@@Z 100487d0 f   NpShape.obj
 0001:00047800       ?getConvexMeshGeometry@NpShape@physx@@UBE_NAAVPxConvexMeshGeometry@2@@Z 10048800 f   NpShape.obj
 0001:00047870       ?getTriangleMeshGeometry@NpShape@physx@@UBE_NAAVPxTriangleMeshGeometry@2@@Z 10048870 f   NpShape.obj
 0001:000478e0       ?getHeightFieldGeometry@NpShape@physx@@UBE_NAAVPxHeightFieldGeometry@2@@Z 100488e0 f   NpShape.obj
 0001:00047940       ?getActor@NpShape@physx@@UBEPAVPxRigidActor@2@XZ 10048940 f   NpShape.obj
 0001:00047950       ?setLocalPose@NpShape@physx@@UAEXABVPxTransform@2@@Z 10048950 f   NpShape.obj
 0001:00047b10       ?getLocalPose@NpShape@physx@@UBE?AVPxTransform@2@XZ 10048b10 f   NpShape.obj
 0001:00047b60       ?setSimulationFilterData@NpShape@physx@@UAEXABUPxFilterData@2@@Z 10048b60 f   NpShape.obj
 0001:00047c30       ?getSimulationFilterData@NpShape@physx@@UBE?AUPxFilterData@2@XZ 10048c30 f   NpShape.obj
 0001:00047c60       ?setQueryFilterData@NpShape@physx@@UAEXABUPxFilterData@2@@Z 10048c60 f   NpShape.obj
 0001:00047c80       ?getQueryFilterData@NpShape@physx@@UBE?AUPxFilterData@2@XZ 10048c80 f   NpShape.obj
 0001:00047ca0       ?setMaterials@NpShape@physx@@UAEXPBQAVPxMaterial@2@G@Z 10048ca0 f   NpShape.obj
 0001:00047e60       ?getNbMaterials@NpShape@physx@@UBEGXZ 10048e60 f   NpShape.obj
 0001:00047e80       ?getMaterials@NpShape@physx@@UBEIPAPAVPxMaterial@2@II@Z 10048e80 f   NpShape.obj
 0001:00047e90       ?getMaterialFromInternalFaceIndex@NpShape@physx@@UBEPAVPxMaterial@2@I@Z 10048e90 f   NpShape.obj
 0001:00047fe0       ?setContactOffset@NpShape@physx@@UAEXM@Z 10048fe0 f   NpShape.obj
 0001:00048090       ?getContactOffset@NpShape@physx@@UBEMXZ 10049090 f   NpShape.obj
 0001:000480c0       ?setRestOffset@NpShape@physx@@UAEXM@Z 100490c0 f   NpShape.obj
 0001:00048170       ?getRestOffset@NpShape@physx@@UBEMXZ 10049170 f   NpShape.obj
 0001:000481a0       ?setTorsionalPatchRadius@NpShape@physx@@UAEXM@Z 100491a0 f   NpShape.obj
 0001:00048250       ?getTorsionalPatchRadius@NpShape@physx@@UBEMXZ 10049250 f   NpShape.obj
 0001:00048280       ?setMinTorsionalPatchRadius@NpShape@physx@@UAEXM@Z 10049280 f   NpShape.obj
 0001:00048330       ?getMinTorsionalPatchRadius@NpShape@physx@@UBEMXZ 10049330 f   NpShape.obj
 0001:00048360       ?setFlag@NpShape@physx@@UAEXW4Enum@PxShapeFlag@2@_N@Z 10049360 f   NpShape.obj
 0001:000483e0       ?setFlags@NpShape@physx@@UAEXV?$PxFlags@W4Enum@PxShapeFlag@physx@@E@2@@Z 100493e0 f   NpShape.obj
 0001:00048420       ?getFlags@NpShape@physx@@UBE?AV?$PxFlags@W4Enum@PxShapeFlag@physx@@E@2@XZ 10049420 f   NpShape.obj
 0001:00048450       ?isExclusive@NpShape@physx@@UBE_NXZ 10049450 f   NpShape.obj
 0001:00048460       ?setName@NpShape@physx@@UAEXPBD@Z 10049460 f   NpShape.obj
 0001:00048470       ?getName@NpShape@physx@@UBEPBDXZ 10049470 f   NpShape.obj
 0001:00048480       ?onRefCountZero@NpShape@physx@@UAEXXZ 10049480 f   NpShape.obj
 0001:000484a0       ?setFlagsInternal@NpShape@physx@@QAEXV?$PxFlags@W4Enum@PxShapeFlag@physx@@E@2@@Z 100494a0 f   NpShape.obj
 0001:000486d0       ?checkMaterialSetup@NpShape@physx@@SA_NABVPxGeometry@2@PBDPBQAVPxMaterial@2@G@Z 100496d0 f   NpShape.obj
 0001:00048870       ?onActorAttach@NpShape@physx@@QAEXAAVPxRigidActor@2@@Z 10049870 f   NpShape.obj
 0001:000488b0       ?onActorDetach@NpShape@physx@@QAEXXZ 100498b0 f   NpShape.obj
 0001:000488f0       ?getScRigidObjectExclusive@NpShape@physx@@QBEAAVRigidCore@Sc@2@XZ 100498f0 f   NpShape.obj
 0001:00048900       ?releaseInternal@NpShape@physx@@QAEXXZ 10049900 f   NpShape.obj
 0001:00048920       ?getOwnerScene@NpShape@physx@@QBEPAVNpScene@2@XZ 10049920 f   NpShape.obj
 0001:00048940       ?getAPIScene@NpShape@physx@@ABEPAVNpScene@2@XZ 10049940 f   NpShape.obj
 0001:00048950       ?incMeshRefCount@NpShape@physx@@AAEXXZ 10049950 f   NpShape.obj
 0001:00048970       ?decMeshRefCount@NpShape@physx@@AAEXXZ 10049970 f   NpShape.obj
 0001:000489a0       ?getMeshRefCountable@NpShape@physx@@AAEPAVRefCountable@Cm@2@XZ 100499a0 f   NpShape.obj
 0001:00048a10       ?isWritable@NpShape@physx@@AAE_NXZ 10049a10 f   NpShape.obj
 0001:00048a30       ?updateSQ@NpShape@physx@@AAEXPBD@Z 10049a30 f   NpShape.obj
 0001:00048ac0       ??$allocArrayBuffer@G@Scene@Scb@physx@@AAEPAGAAV?$Array@GV?$ReflectionAllocator@G@shdfnd@physx@@@shdfnd@2@IAAI@Z 10049ac0 f i NpShape.obj
 0001:00048b00       ??1PxShape@physx@@MAE@XZ   10049b00 f i NpShape.obj
 0001:00048b07       ??_ENpShape@physx@@WM@AEPAXI@Z 10049b07 f i NpShape.obj
 0001:00048b10       ??_GNpShape@physx@@UAEPAXI@Z 10049b10 f i NpShape.obj
 0001:00048b10       ??_ENpShape@physx@@UAEPAXI@Z 10049b10 f i NpShape.obj
 0001:00048c20       ??_EPxShape@physx@@MAEPAXI@Z 10049c20 f i NpShape.obj
 0001:00048c20       ??_GPxShape@physx@@MAEPAXI@Z 10049c20 f i NpShape.obj
 0001:00048c50       ?getConcreteTypeName@PxShape@physx@@UBEPBDXZ 10049c50 f i NpShape.obj
 0001:00048c60       ?getMaterials@Shape@Scb@physx@@QBEIPAPAVPxMaterial@3@II@Z 10049c60 f i NpShape.obj
 0001:00048cf0       ?isKindOf@PxShape@physx@@MBE_NPBD@Z 10049cf0 f i NpShape.obj
 0001:00048d70       ??0NpShapeManager@physx@@QAE@W4PxEMPTY@1@@Z 10049d70 f   NpShapeManager.obj
 0001:00048db0       ?exportExtraData@NpShapeManager@physx@@QAEXAAVPxSerializationContext@2@@Z 10049db0 f   NpShapeManager.obj
 0001:00048dd0       ?importExtraData@NpShapeManager@physx@@QAEXAAVPxDeserializationContext@2@@Z 10049dd0 f   NpShapeManager.obj
 0001:00048df0       ??0NpShapeManager@physx@@QAE@XZ 10049df0 f   NpShapeManager.obj
 0001:00048e20       ??1NpShapeManager@physx@@QAE@XZ 10049e20 f   NpShapeManager.obj
 0001:00048e60       ?getShapes@NpShapeManager@physx@@QBEIPAPAVPxShape@2@II@Z 10049e60 f   NpShapeManager.obj
 0001:00048eb0       ?attachShape@NpShapeManager@physx@@QAEXAAVNpShape@2@AAVPxRigidActor@2@@Z 10049eb0 f   NpShapeManager.obj
 0001:00048f40       ?detachShape@NpShapeManager@physx@@QAE_NAAVNpShape@2@AAVPxRigidActor@2@_N@Z 10049f40 f   NpShapeManager.obj
 0001:00049050       ?detachAll@NpShapeManager@physx@@QAEXPAVNpScene@2@ABVPxRigidActor@2@@Z 1004a050 f   NpShapeManager.obj
 0001:000491a0       ?teardownSceneQuery@NpShapeManager@physx@@QAEXAAVSceneQueryManager@Sq@2@ABVNpShape@2@@Z 1004a1a0 f   NpShapeManager.obj
 0001:00049200       ?setupSceneQuery@NpShapeManager@physx@@QAEXAAVSceneQueryManager@Sq@2@ABVPxRigidActor@2@ABVNpShape@2@@Z 1004a200 f   NpShapeManager.obj
 0001:00049230       ?addPrunerShape@NpShapeManager@physx@@QAEXAAVSceneQueryManager@Sq@2@IABVNpShape@2@ABVPxRigidActor@2@_NPBVPxBounds3@2@3@Z 1004a230 f   NpShapeManager.obj
 0001:00049290       ?setupAllSceneQuery@NpShapeManager@physx@@QAEXPAVNpScene@2@ABVPxRigidActor@2@_NPBVPxBounds3@2@PBVBVHStructure@Gu@2@@Z 1004a290 f   NpShapeManager.obj
 0001:00049380       ?teardownAllSceneQuery@NpShapeManager@physx@@QAEXAAVSceneQueryManager@Sq@2@ABVPxRigidActor@2@@Z 1004a380 f   NpShapeManager.obj
 0001:00049460       ?markAllSceneQueryForUpdate@NpShapeManager@physx@@QAEXAAVSceneQueryManager@Sq@2@ABVPxRigidActor@2@@Z 1004a460 f   NpShapeManager.obj
 0001:000494f0       ?findSceneQueryData@NpShapeManager@physx@@QBEIABVNpShape@2@AAI@Z 1004a4f0 f   NpShapeManager.obj
 0001:00049530       ?findSceneQueryData@NpShapeManager@physx@@QBEIABVNpShape@2@@Z 1004a530 f   NpShapeManager.obj
 0001:00049560       ?getWorldBounds@NpShapeManager@physx@@QBE?AVPxBounds3@2@ABVPxRigidActor@2@@Z 1004a560 f   NpShapeManager.obj
 0001:000498c0       ?addBVHStructureShapes@NpShapeManager@physx@@QAEXAAVSceneQueryManager@Sq@2@ABVPxRigidActor@2@PBVBVHStructure@Gu@2@@Z 1004a8c0 f   NpShapeManager.obj
 0001:00049a50       ?clearShapesOnRelease@NpShapeManager@physx@@QAEXAAVScene@Scb@2@AAVPxRigidActor@2@@Z 1004aa50 f   NpShapeManager.obj
 0001:00049ab0       ?releaseExclusiveUserReferences@NpShapeManager@physx@@QAEXXZ 1004aab0 f   NpShapeManager.obj
 0001:00049b00       ?visualize@NpShapeManager@physx@@QAEXAAVRenderOutput@Cm@2@PAVNpScene@2@ABVPxRigidActor@2@@Z 1004ab00 f   NpShapeManager.obj
 0001:0004a430       ?setupSceneQuery@NpShapeManager@physx@@IAEXAAVSceneQueryManager@Sq@2@ABVPxRigidActor@2@I@Z 1004b430 f   NpShapeManager.obj
 0001:0004a4b0       ?teardownSceneQuery@NpShapeManager@physx@@IAEXAAVSceneQueryManager@Sq@2@I@Z 1004b4b0 f   NpShapeManager.obj
 0001:0004a550       ??0PxMat44@physx@@QAE@ABVPxMat33@1@ABVPxVec3@1@@Z 1004b550 f i NpShapeManager.obj
 0001:0004a5d0       ??0PxMat44@physx@@QAE@ABVPxTransform@1@@Z 1004b5d0 f i NpShapeManager.obj
 0001:0004a770       ??0PxVec4@physx@@QAE@XZ    1004b770 f i NpShapeManager.obj
 0001:0004a780       ?allocate@?$Array@PAVShape@Scb@physx@@V?$InlineAllocator@$0BA@V?$ReflectionAllocator@PAVShape@Scb@physx@@@shdfnd@physx@@@shdfnd@3@@shdfnd@physx@@IAEPAPAVShape@Scb@3@I@Z 1004b780 f i NpShapeManager.obj
 0001:0004a810       ?allocate@?$Array@URemovedShape@Scb@physx@@V?$InlineAllocator@$0CA@V?$ReflectionAllocator@URemovedShape@Scb@physx@@@shdfnd@physx@@@shdfnd@3@@shdfnd@physx@@IAEPAURemovedShape@Scb@3@I@Z 1004b810 f i NpShapeManager.obj
 0001:0004a8a0       ?copy@?$Array@URemovedShape@Scb@physx@@V?$InlineAllocator@$0CA@V?$ReflectionAllocator@URemovedShape@Scb@physx@@@shdfnd@physx@@@shdfnd@3@@shdfnd@physx@@KAXPAURemovedShape@Scb@3@0PBU453@@Z 1004b8a0 f i NpShapeManager.obj
 0001:0004ab70       ?growAndPushBack@?$Array@PAVShape@Scb@physx@@V?$InlineAllocator@$0BA@V?$ReflectionAllocator@PAVShape@Scb@physx@@@shdfnd@physx@@@shdfnd@3@@shdfnd@physx@@IAEAAPAVShape@Scb@3@ABQAV453@@Z 1004bb70 f i NpShapeManager.obj
 0001:0004ac30       ?growAndPushBack@?$Array@URemovedShape@Scb@physx@@V?$InlineAllocator@$0CA@V?$ReflectionAllocator@URemovedShape@Scb@physx@@@shdfnd@physx@@@shdfnd@3@@shdfnd@physx@@IAEAAURemovedShape@Scb@3@ABU453@@Z 1004bc30 f i NpShapeManager.obj
 0001:0004acc0       ?onShapeAttach@RigidObject@Scb@physx@@QAEXAAVShape@23@@Z 1004bcc0 f i NpShapeManager.obj
 0001:0004ae40       ?onShapeDetach@RigidObject@Scb@physx@@QAEXAAVShape@23@_N1@Z 1004be40 f i NpShapeManager.obj
 0001:0004dbd0       ??0NpWriteCheck@physx@@QAE@PAVNpScene@1@PBD_N@Z 1004ebd0 f   NpWriteCheck.obj
 0001:0004dc80       ??1NpWriteCheck@physx@@QAE@XZ 1004ec80 f   NpWriteCheck.obj
 0001:0004dcf0       ??0Offsets@Actor@Scb@physx@@QAE@XZ 1004ecf0 f   ScbActor.obj
 0001:0004dd20       ?addActor@Aggregate@Scb@physx@@QAEXAAVActor@23@@Z 1004ed20 f   ScbAggregate.obj
 0001:0004de50       ?removeActor@Aggregate@Scb@physx@@QAEXAAVActor@23@_N@Z 1004ee50 f   ScbAggregate.obj
 0001:0004dfa0       ??$allocArrayBuffer@PAVActor@Scb@physx@@@Scene@Scb@physx@@AAEPAPAVActor@12@AAV?$Array@PAVActor@Scb@physx@@V?$ReflectionAllocator@PAVActor@Scb@physx@@@shdfnd@3@@shdfnd@2@IAAI@Z 1004efa0 f i ScbAggregate.obj
 0001:0004dfe0       ?destroy@Base@Scb@physx@@QAEXXZ 1004efe0 f   ScbBase.obj
 0001:0004e020       ?getBinaryMetaData@Base@Scb@physx@@SAXAAVPxOutputStream@3@@Z 1004f020 f   ScbMetaData.obj
 0001:0004e1b0       ?getBinaryMetaData@Shape@Scb@physx@@SAXAAVPxOutputStream@3@@Z 1004f1b0 f   ScbMetaData.obj
 0001:0004e2b0       ?getBinaryMetaData@Actor@Scb@physx@@SAXAAVPxOutputStream@3@@Z 1004f2b0 f   ScbMetaData.obj
 0001:0004e360       ?getBinaryMetaData@RigidObject@Scb@physx@@SAXAAVPxOutputStream@3@@Z 1004f360 f   ScbMetaData.obj
 0001:0004e410       ?getBinaryMetaData@Body@Scb@physx@@SAXAAVPxOutputStream@3@@Z 1004f410 f   ScbMetaData.obj
 0001:0004e6e0       ?getBinaryMetaData@RigidStatic@Scb@physx@@SAXAAVPxOutputStream@3@@Z 1004f6e0 f   ScbMetaData.obj
 0001:0004e7e0       ?getBinaryMetaData@Constraint@Scb@physx@@SAXAAVPxOutputStream@3@@Z 1004f7e0 f   ScbMetaData.obj
 0001:0004e9c0       ?getBinaryMetaData@Articulation@Scb@physx@@SAXAAVPxOutputStream@3@@Z 1004f9c0 f   ScbMetaData.obj
 0001:0004eba0       ?getBinaryMetaData@ArticulationJoint@Scb@physx@@SAXAAVPxOutputStream@3@@Z 1004fba0 f   ScbMetaData.obj
 0001:0004eca0       ?getBinaryMetaData@Aggregate@Scb@physx@@SAXAAVPxOutputStream@3@@Z 1004fca0 f   ScbMetaData.obj
 0001:0004ee80       ?scheduleForInsert@ObjectTracker@Scb@physx@@QAEXAAVBase@23@@Z 1004fe80 f   ScbScene.obj
 0001:0004eef0       ?scheduleForRemove@ObjectTracker@Scb@physx@@QAEXAAVBase@23@@Z 1004fef0 f   ScbScene.obj
 0001:0004ef60       ?scheduleForUpdate@ObjectTracker@Scb@physx@@QAEXAAVBase@23@@Z 1004ff60 f   ScbScene.obj
 0001:0004efb0       ?clear@ObjectTracker@Scb@physx@@QAEXXZ 1004ffb0 f   ScbScene.obj
 0001:0004f080       ?insert@ObjectTracker@Scb@physx@@QAEXAAVBase@23@@Z 10050080 f   ScbScene.obj
 0001:0004f0b0       ?remove@ObjectTracker@Scb@physx@@QAEXAAVBase@23@@Z 100500b0 f   ScbScene.obj
 0001:0004f0d0       ??0Scene@Scb@physx@@QAE@ABVPxSceneDesc@2@_K@Z 100500d0 f   ScbScene.obj
 0001:0004f4a0       ?release@Scene@Scb@physx@@QAEXXZ 100504a0 f   ScbScene.obj
 0001:0004f4f0       ?getPxScene@Scene@Scb@physx@@QAEPAVPxScene@3@XZ 100504f0 f   ScbScene.obj
 0001:0004f500       ?addActor@Scene@Scb@physx@@QAEXAAVRigidStatic@23@_NPAVPxBounds3@3@PBVBVHStructure@Gu@3@@Z 10050500 f   ScbScene.obj
 0001:0004f640       ?removeActor@Scene@Scb@physx@@QAEXAAVRigidStatic@23@_N1@Z 10050640 f   ScbScene.obj
 0001:0004f780       ?addActor@Scene@Scb@physx@@QAEXAAVBody@23@_NPAVPxBounds3@3@PBVBVHStructure@Gu@3@@Z 10050780 f   ScbScene.obj
 0001:0004f9e0       ?removeActor@Scene@Scb@physx@@QAEXAAVBody@23@_N1@Z 100509e0 f   ScbScene.obj
 0001:0004fc10       ?addConstraint@Scene@Scb@physx@@QAEXAAVConstraint@23@@Z 10050c10 f   ScbScene.obj
 0001:0004fcc0       ?removeConstraint@Scene@Scb@physx@@QAEXAAVConstraint@23@@Z 10050cc0 f   ScbScene.obj
 0001:0004fd00       ?addArticulation@Scene@Scb@physx@@QAEXAAVArticulation@23@@Z 10050d00 f   ScbScene.obj
 0001:0004fd70       ?removeArticulation@Scene@Scb@physx@@QAEXAAVArticulation@23@@Z 10050d70 f   ScbScene.obj
 0001:0004fdc0       ?addArticulationJoint@Scene@Scb@physx@@QAEXAAVArticulationJoint@23@@Z 10050dc0 f   ScbScene.obj
 0001:0004fe30       ?removeArticulationJoint@Scene@Scb@physx@@QAEXAAVArticulationJoint@23@@Z 10050e30 f   ScbScene.obj
 0001:0004fe70       ?addAggregate@Scene@Scb@physx@@QAEXAAVAggregate@23@@Z 10050e70 f   ScbScene.obj
 0001:0004fec0       ?removeAggregate@Scene@Scb@physx@@QAEXAAVAggregate@23@@Z 10050ec0 f   ScbScene.obj
 0001:0004ff00       ?addMaterial@Scene@Scb@physx@@QAEXABVMaterialCore@Sc@3@@Z 10050f00 f   ScbScene.obj
 0001:0004ff80       ?updateMaterial@Scene@Scb@physx@@QAEXABVMaterialCore@Sc@3@@Z 10050f80 f   ScbScene.obj
 0001:00050000       ?removeMaterial@Scene@Scb@physx@@QAEXABVMaterialCore@Sc@3@@Z 10051000 f   ScbScene.obj
 0001:00050090       ?updateLowLevelMaterial@Scene@Scb@physx@@QAEXPAPAVNpMaterial@3@@Z 10051090 f   ScbScene.obj
 0001:000502f0       ?getBroadPhaseType@Scene@Scb@physx@@QBE?AW4Enum@PxBroadPhaseType@3@XZ 100512f0 f   ScbScene.obj
 0001:00050300       ?getBroadPhaseCaps@Scene@Scb@physx@@QBE_NAAUPxBroadPhaseCaps@3@@Z 10051300 f   ScbScene.obj
 0001:00050310       ?getNbBroadPhaseRegions@Scene@Scb@physx@@QBEIXZ 10051310 f   ScbScene.obj
 0001:00050320       ?getBroadPhaseRegions@Scene@Scb@physx@@QBEIPAUPxBroadPhaseRegionInfo@3@II@Z 10051320 f   ScbScene.obj
 0001:00050330       ?addBroadPhaseRegion@Scene@Scb@physx@@QAEIABUPxBroadPhaseRegion@3@_N@Z 10051330 f   ScbScene.obj
 0001:00050370       ?removeBroadPhaseRegion@Scene@Scb@physx@@QAE_NI@Z 10051370 f   ScbScene.obj
 0001:000503b0       ?shiftOrigin@Scene@Scb@physx@@QAEXABVPxVec3@3@@Z 100513b0 f   ScbScene.obj
 0001:000503c0       ?syncWriteThroughProperties@Scene@Scb@physx@@QAEXXZ 100513c0 f   ScbScene.obj
 0001:000506c0       ?syncEntireScene@Scene@Scb@physx@@QAEXXZ 100516c0 f   ScbScene.obj
 0001:00050c10       ?processPendingRemove@Scene@Scb@physx@@QAEXXZ 10051c10 f   ScbScene.obj
 0001:00051270       ?scheduleForUpdate@Scene@Scb@physx@@QAEXAAVBase@23@@Z 10052270 f   ScbScene.obj
 0001:00051320       ?getStream@Scene@Scb@physx@@QAEPAEW4Enum@ScbType@3@@Z 10052320 f   ScbScene.obj
 0001:00051480       ?syncState@Scene@Scb@physx@@AAEXXZ 10052480 f   ScbScene.obj
 0001:000516b0       ?switchRigidToNoSim@Scene@Scb@physx@@QAEXAAVRigidObject@23@_N@Z 100526b0 f   ScbScene.obj
 0001:000517a0       ?switchRigidFromNoSim@Scene@Scb@physx@@QAEXAAVRigidObject@23@_N@Z 100527a0 f   ScbScene.obj
 0001:00051870       ??$add@VArticulation@Scb@physx@@@Scene@Scb@physx@@AAEXAAVArticulation@12@AAVObjectTracker@12@PAVPxBounds3@2@PBVBVHStructure@Gu@2@@Z 10052870 f i ScbScene.obj
 0001:000518c0       ??$add@VArticulationJoint@Scb@physx@@@Scene@Scb@physx@@AAEXAAVArticulationJoint@12@AAVObjectTracker@12@PAVPxBounds3@2@PBVBVHStructure@Gu@2@@Z 100528c0 f i ScbScene.obj
 0001:00051930       ??$add@VBody@Scb@physx@@@Scene@Scb@physx@@AAEXAAVBody@12@AAVObjectTracker@12@PAVPxBounds3@2@PBVBVHStructure@Gu@2@@Z 10052930 f i ScbScene.obj
 0001:00051b00       ??$add@VConstraint@Scb@physx@@@Scene@Scb@physx@@AAEXAAVConstraint@12@AAVObjectTracker@12@PAVPxBounds3@2@PBVBVHStructure@Gu@2@@Z 10052b00 f i ScbScene.obj
 0001:00051ba0       ??$add@VRigidStatic@Scb@physx@@@Scene@Scb@physx@@AAEXAAVRigidStatic@12@AAVObjectTracker@12@PAVPxBounds3@2@PBVBVHStructure@Gu@2@@Z 10052ba0 f i ScbScene.obj
 0001:00051d60       ??$addRigidNoSim@$00VBody@Scb@physx@@@Scene@Scb@physx@@AAEXAAVBody@12@AAVObjectTracker@12@PBVBVHStructure@Gu@2@@Z 10052d60 f i ScbScene.obj
 0001:00051f00       ??$addRigidNoSim@$0A@VRigidStatic@Scb@physx@@@Scene@Scb@physx@@AAEXAAVRigidStatic@12@AAVObjectTracker@12@PBVBVHStructure@Gu@2@@Z 10052f00 f i ScbScene.obj
 0001:000520a0       ??$pointerOffset@PAVShape@Scb@physx@@@shdfnd@physx@@YAPAVShape@Scb@1@PAXH@Z 100530a0 f i ScbScene.obj
 0001:000520b0       ??$processRemoves@VArticulation@Scb@physx@@$00$0A@@Scene@Scb@physx@@AAEXAAVObjectTracker@12@@Z 100530b0 f i ScbScene.obj
 0001:00052110       ??$processRemoves@VArticulationJoint@Scb@physx@@$0A@$0A@@Scene@Scb@physx@@AAEXAAVObjectTracker@12@@Z 10053110 f i ScbScene.obj
 0001:00052150       ??$processRemoves@VBody@Scb@physx@@$00$00@Scene@Scb@physx@@AAEXAAVObjectTracker@12@@Z 10053150 f i ScbScene.obj
 0001:000523c0       ??$processRemoves@VConstraint@Scb@physx@@$00$0A@@Scene@Scb@physx@@AAEXAAVObjectTracker@12@@Z 100533c0 f i ScbScene.obj
 0001:00052410       ??$processRemoves@VRigidStatic@Scb@physx@@$0A@$00@Scene@Scb@physx@@AAEXAAVObjectTracker@12@@Z 10053410 f i ScbScene.obj
 0001:00052650       ??$processShapeRemoves@VBody@Scb@physx@@@Scene@Scb@physx@@AAEXAAVObjectTracker@12@@Z 10053650 f i ScbScene.obj
 0001:000527b0       ??$processShapeRemoves@VRigidStatic@Scb@physx@@@Scene@Scb@physx@@AAEXAAVObjectTracker@12@@Z 100537b0 f i ScbScene.obj
 0001:00052910       ??$processSimUpdates@VArticulation@Scb@physx@@VArticulationCore@Sc@3@@Scene@Scb@physx@@AAEXPBQAVArticulationCore@Sc@2@I@Z 10053910 f i ScbScene.obj
 0001:00052a60       ??$processSimUpdates@VBody@Scb@physx@@VBodyCore@Sc@3@@Scene@Scb@physx@@AAEXPBQAVBodyCore@Sc@2@I@Z 10053a60 f i ScbScene.obj
 0001:00052aa0       ??$processSimUpdates@VConstraint@Scb@physx@@VConstraintCore@Sc@3@@Scene@Scb@physx@@AAEXPBQAVConstraintCore@Sc@2@I@Z 10053aa0 f i ScbScene.obj
 0001:00052bc0       ??$processUserUpdates@VArticulation@Scb@physx@@@Scene@Scb@physx@@AAEXAAVObjectTracker@12@@Z 10053bc0 f i ScbScene.obj
 0001:00052d60       ??$processUserUpdates@VArticulationJoint@Scb@physx@@@Scene@Scb@physx@@AAEXAAVObjectTracker@12@@Z 10053d60 f i ScbScene.obj
 0001:00052df0       ??$processUserUpdates@VBody@Scb@physx@@@Scene@Scb@physx@@AAEXAAVObjectTracker@12@@Z 10053df0 f i ScbScene.obj
 0001:00053010       ??$processUserUpdates@VConstraint@Scb@physx@@@Scene@Scb@physx@@AAEXAAVObjectTracker@12@@Z 10054010 f i ScbScene.obj
 0001:000531c0       ??$processUserUpdates@VRigidStatic@Scb@physx@@@Scene@Scb@physx@@AAEXAAVObjectTracker@12@@Z 100541c0 f i ScbScene.obj
 0001:00053490       ??$remove@VArticulation@Scb@physx@@@Scene@Scb@physx@@AAEXAAVArticulation@12@AAVObjectTracker@12@_N@Z 10054490 f i ScbScene.obj
 0001:000534d0       ??$remove@VArticulationJoint@Scb@physx@@@Scene@Scb@physx@@AAEXAAVArticulationJoint@12@AAVObjectTracker@12@_N@Z 100544d0 f i ScbScene.obj
 0001:00053510       ??$remove@VBody@Scb@physx@@@Scene@Scb@physx@@AAEXAAVBody@12@AAVObjectTracker@12@_N@Z 10054510 f i ScbScene.obj
 0001:00053750       ??$remove@VRigidStatic@Scb@physx@@@Scene@Scb@physx@@AAEXAAVRigidStatic@12@AAVObjectTracker@12@_N@Z 10054750 f i ScbScene.obj
 0001:00053980       ??$removeRigidNoSim@$00VBody@Scb@physx@@@Scene@Scb@physx@@AAEXAAVBody@12@AAVObjectTracker@12@@Z 10054980 f i ScbScene.obj
 0001:00053ba0       ??$removeRigidNoSim@$0A@VRigidStatic@Scb@physx@@@Scene@Scb@physx@@AAEXAAVRigidStatic@12@AAVObjectTracker@12@@Z 10054ba0 f i ScbScene.obj
 0001:00053dc0       ??0BodyBuffer@Scb@physx@@QAE@XZ 10054dc0 f i ScbScene.obj
 0001:00053e30       ??0RigidObjectBuffer@Scb@physx@@QAE@XZ 10054e30 f i ScbScene.obj
 0001:00053eb0       ?allocate@?$Array@VMaterialEvent@Scb@physx@@V?$ReflectionAllocator@VMaterialEvent@Scb@physx@@@shdfnd@3@@shdfnd@physx@@IAEPAVMaterialEvent@Scb@3@I@Z 10054eb0 f i ScbScene.obj
 0001:00053f20       ?allocateNotThreadSafe@FlushPool@Cm@physx@@QAEPAXII@Z 10054f20 f i ScbScene.obj
 0001:00054000       ?clearNotThreadSafe@FlushPool@Cm@physx@@QAEXI@Z 10055000 f i ScbScene.obj
 0001:00054050       ?copy@?$Array@VMaterialEvent@Scb@physx@@V?$ReflectionAllocator@VMaterialEvent@Scb@physx@@@shdfnd@3@@shdfnd@physx@@KAXPAVMaterialEvent@Scb@3@0PBV453@@Z 10055050 f i ScbScene.obj
 0001:000540a0       ?create@?$HashBase@PAVBase@Scb@physx@@PAV123@U?$Hash@PAVBase@Scb@physx@@@shdfnd@3@UGetKey@?$HashSetBase@PAVBase@Scb@physx@@U?$Hash@PAVBase@Scb@physx@@@shdfnd@3@VNonTrackingAllocator@53@$00@internal@53@VNonTrackingAllocator@53@$00@internal@shdfnd@physx@@QAEPAPAVBase@Scb@4@ABQAV564@AA_N@Z 100550a0 f i ScbScene.obj
 0001:000541d0       ?erase@?$HashBase@PAVBase@Scb@physx@@PAV123@U?$Hash@PAVBase@Scb@physx@@@shdfnd@3@UGetKey@?$HashSetBase@PAVBase@Scb@physx@@U?$Hash@PAVBase@Scb@physx@@@shdfnd@3@VNonTrackingAllocator@53@$00@internal@53@VNonTrackingAllocator@53@$00@internal@shdfnd@physx@@QAE_NABQAVBase@Scb@4@@Z 100551d0 f i ScbScene.obj
 0001:000542f0       ?growAndPushBack@?$Array@VMaterialEvent@Scb@physx@@V?$ReflectionAllocator@VMaterialEvent@Scb@physx@@@shdfnd@3@@shdfnd@physx@@IAEAAVMaterialEvent@Scb@3@ABV453@@Z 100552f0 f i ScbScene.obj
 0001:00054370       ?recreate@?$Array@PAVShape@Scb@physx@@V?$InlineAllocator@$0BA@V?$ReflectionAllocator@PAVShape@Scb@physx@@@shdfnd@physx@@@shdfnd@3@@shdfnd@physx@@IAEXI@Z 10055370 f i ScbScene.obj
 0001:00054420       ?recreate@?$Array@URemovedShape@Scb@physx@@V?$InlineAllocator@$0CA@V?$ReflectionAllocator@URemovedShape@Scb@physx@@@shdfnd@physx@@@shdfnd@3@@shdfnd@physx@@IAEXI@Z 10055420 f i ScbScene.obj
 0001:00054490       ?recreate@?$Array@VMaterialEvent@Scb@physx@@V?$ReflectionAllocator@VMaterialEvent@Scb@physx@@@shdfnd@3@@shdfnd@physx@@IAEXI@Z 10055490 f i ScbScene.obj
 0001:000544e0       ?reserveInternal@?$HashBase@PAVBase@Scb@physx@@PAV123@U?$Hash@PAVBase@Scb@physx@@@shdfnd@3@UGetKey@?$HashSetBase@PAVBase@Scb@physx@@U?$Hash@PAVBase@Scb@physx@@@shdfnd@3@VNonTrackingAllocator@53@$00@internal@53@VNonTrackingAllocator@53@$00@internal@shdfnd@physx@@AAEXI@Z 100554e0 f i ScbScene.obj
 0001:00054670       ?resize@?$Array@PAVShape@Scb@physx@@V?$InlineAllocator@$0BA@V?$ReflectionAllocator@PAVShape@Scb@physx@@@shdfnd@physx@@@shdfnd@3@@shdfnd@physx@@QAEXIABQAVShape@Scb@3@@Z 10055670 f i ScbScene.obj
 0001:00054730       ?resize@?$Array@URemovedShape@Scb@physx@@V?$InlineAllocator@$0CA@V?$ReflectionAllocator@URemovedShape@Scb@physx@@@shdfnd@physx@@@shdfnd@3@@shdfnd@physx@@QAEXIABURemovedShape@Scb@3@@Z 10055730 f i ScbScene.obj
 0001:00054790       ?resize@?$Array@VMaterialEvent@Scb@physx@@V?$ReflectionAllocator@VMaterialEvent@Scb@physx@@@shdfnd@3@@shdfnd@physx@@QAEXIABVMaterialEvent@Scb@3@@Z 10055790 f i ScbScene.obj
 0001:000547f0       ?syncCollisionWriteThroughState@Body@Scb@physx@@QAEXXZ 100557f0 f i ScbScene.obj
 0001:00054aa0       ?syncState@Articulation@Scb@physx@@QAEXXZ 10055aa0 f i ScbScene.obj
 0001:00054bd0       ?syncState@ArticulationJoint@Scb@physx@@QAEXXZ 10055bd0 f i ScbScene.obj
 0001:00055070       ?syncState@Body@Scb@physx@@QAEXXZ 10056070 f i ScbScene.obj
 0001:00055860       ?syncState@Constraint@Scb@physx@@QAEXXZ 10056860 f i ScbScene.obj
 0001:00055950       ?syncState@RigidObject@Scb@physx@@QAEXXZ 10056950 f i ScbScene.obj
 0001:00055b60       ?syncState@Shape@Scb@physx@@QAEXXZ 10056b60 f   ScbShape.obj
 0001:00055cf0       ?setMaterialsHelper@Shape@Scb@physx@@AAE_NPBQAVPxMaterial@3@G@Z 10056cf0 f   ScbShape.obj
 0001:00055df0       _PxConstructSolverBodies   10056df0 f   NpImmediateMode.obj
 0001:00055ff0       _PxConstructStaticSolverBody 10056ff0 f   NpImmediateMode.obj
 0001:00056050       _PxBatchConstraints        10057050 f   NpImmediateMode.obj
 0001:00056210       _PxCreateContactConstraints 10057210 f   NpImmediateMode.obj
 0001:000563c0       _PxCreateJointConstraints  100573c0 f   NpImmediateMode.obj
 0001:00056520       _PxCreateJointConstraintsWithShaders 10057520 f   NpImmediateMode.obj
 0001:00056710       _PxSolveConstraints        10057710 f   NpImmediateMode.obj
 0001:000568e0       _PxIntegrateSolverBodies   100578e0 f   NpImmediateMode.obj
 0001:00056df0       _PxGenerateContacts        10057df0 f   NpImmediateMode.obj
 0001:00057260       ?createCache@@YAXAAUCache@Gu@physx@@W4Enum@PxGeometryType@3@1AAVPxCacheAllocator@3@@Z 10058260 f   NpImmediateMode.obj
 0001:000576b0       ??0ContactPatchData@CorrelationBuffer@Dy@physx@@QAE@XZ 100586b0 f i NpImmediateMode.obj
 0001:000576c0       ??0ContactPoint@Gu@physx@@QAE@XZ 100586c0 f i NpImmediateMode.obj
 0001:000576d0       ??0FrictionPatch@Dy@physx@@QAE@XZ 100586d0 f i NpImmediateMode.obj
 0001:000576e0       ??0PersistentContact@Gu@physx@@QAE@XZ 100586e0 f i NpImmediateMode.obj
 0001:000576f0       ??0Px1DConstraint@physx@@QAE@XZ 100586f0 f i NpImmediateMode.obj
 0001:00057700       ??0PhysXIndicator@physx@@QAE@_N@Z 10058700 f   PhysXIndicatorWindows.obj
 0001:000578a0       ??1PhysXIndicator@physx@@QAE@XZ 100588a0 f   PhysXIndicatorWindows.obj
 0001:000578e0       ?setIsGpu@PhysXIndicator@physx@@QAEX_N@Z 100588e0 f   PhysXIndicatorWindows.obj
 0001:00057910       ___local_stdio_printf_options 10058910 f i PhysXIndicatorWindows.obj
 0001:00057920       _sprintf                   10058920 f i PhysXIndicatorWindows.obj
 0001:00057950       _PxGetSuggestedCudaDeviceOrdinal 10058950 f   PxGpu.obj
 0001:00057980       _PxCreateCudaContextManager 10058980 f   PxGpu.obj
 0001:000579b0       _PxCreateCudaClientContextManager 100589b0 f   PxGpu.obj
 0001:000579d0       _PxSetPhysXGpuLoadHook     100589d0 f   PxPhysXGpuModuleLoader.obj
 0001:000579e0       ?PxLoadPhysxGPUModule@physx@@YAXPBD@Z 100589e0 f   PxPhysXGpuModuleLoader.obj
 0001:00057b20       _PxSetPhysXDelayLoadHook   10058b20 f   NpWindowsDelayLoadHook.obj
 0001:00057b30       ?PxGetPhysXDelayLoadHook@physx@@YAPBVPxDelayLoadHook@1@XZ 10058b30 f   NpWindowsDelayLoadHook.obj
 0001:00057b40       ?delayHook@@YGP6GHXZIPAUDelayLoadInfo@@@Z 10058b40 f   NpWindowsDelayLoadHook.obj
 0001:00057be0       ?PxvInit@physx@@YAXABUPxvOffsetTable@1@@Z 10058be0 f   LowLevel_static_32:px_globals.obj
 0001:00057c10       ?PxvTerm@physx@@YAXXZ      10058c10 f   LowLevel_static_32:px_globals.obj
 0001:00057c30       ?PxvRegisterHeightFields@physx@@YAXXZ 10058c30 f   LowLevel_static_32:px_globals.obj
 0001:00057c90       ?PxvGetPhysXGpu@physx@@YAPAVPxPhysXGpu@1@_N@Z 10058c90 f   LowLevel_static_32:px_globals.obj
 0001:00057cd0       ??0PxsContext@physx@@QAE@ABVPxSceneDesc@1@PAVPxTaskManager@1@AAVFlushPool@Cm@1@_K@Z 10058cd0 f   LowLevel_static_32:PxsContext.obj
 0001:000581c0       ??1PxsContext@physx@@QAE@XZ 100591c0 f   LowLevel_static_32:PxsContext.obj
 0001:00058360       ?createTransformCache@PxsContext@physx@@QAEXAAVVirtualAllocatorCallback@shdfnd@2@@Z 10059360 f   LowLevel_static_32:PxsContext.obj
 0001:000583d0       ?createContactManager@PxsContext@physx@@QAEPAVPxsContactManager@2@PAV32@_N@Z 100593d0 f   LowLevel_static_32:PxsContext.obj
 0001:000584e0       ?createCache@PxsContext@physx@@QAEXAAUCache@Gu@2@PAVPxsContactManager@2@EE@Z 100594e0 f   LowLevel_static_32:PxsContext.obj
 0001:00058800       ?destroyCache@PxsContext@physx@@QAEXAAUCache@Gu@2@@Z 10059800 f   LowLevel_static_32:PxsContext.obj
 0001:00058860       ?destroyContactManager@PxsContext@physx@@QAEXPAVPxsContactManager@2@@Z 10059860 f   LowLevel_static_32:PxsContext.obj
 0001:00058960       ?setScratchBlock@PxsContext@physx@@QAEXPAXI@Z 10059960 f   LowLevel_static_32:PxsContext.obj
 0001:000589b0       ?setContactDistance@PxsContext@physx@@QAEXPAV?$Array@MVVirtualAllocator@shdfnd@physx@@@shdfnd@2@@Z 100599b0 f   LowLevel_static_32:PxsContext.obj
 0001:000589c0       ?updateContactManager@PxsContext@physx@@QAEXM_N0PAVPxBaseTask@2@1@Z 100599c0 f   LowLevel_static_32:PxsContext.obj
 0001:000589f0       ?secondPassUpdateContactManager@PxsContext@physx@@QAEXMPAVPxBaseTask@2@@Z 100599f0 f   LowLevel_static_32:PxsContext.obj
 0001:00058a10       ?fetchUpdateContactManager@PxsContext@physx@@QAEXXZ 10059a10 f   LowLevel_static_32:PxsContext.obj
 0001:00058bd0       ?swapStreams@PxsContext@physx@@QAEXXZ 10059bd0 f   LowLevel_static_32:PxsContext.obj
 0001:00058be0       ?resetThreadContexts@PxsContext@physx@@QAEXXZ 10059be0 f   LowLevel_static_32:PxsContext.obj
 0001:00058c40       ?getManagerTouchEventCount@PxsContext@physx@@QBE_NPAH00@Z 10059c40 f   LowLevel_static_32:PxsContext.obj
 0001:00058c80       ?fillManagerTouchEvents@PxsContext@physx@@QAE_NPAUPxvContactManagerTouchEvent@2@AAH0101@Z 10059c80 f   LowLevel_static_32:PxsContext.obj
 0001:00058dd0       ?fillManagerPatchChangedEvents@PxsContext@physx@@QAE_NPAPAVPxsContactManager@2@AAI01@Z 10059dd0 f   LowLevel_static_32:PxsContext.obj
 0001:00058f00       ?beginUpdate@PxsContext@physx@@QAEXXZ 10059f00 f   LowLevel_static_32:PxsContext.obj
 0001:00058f20       ?getVisualizationParameter@PxsContext@physx@@QBEMW4Enum@PxVisualizationParameter@2@@Z 10059f20 f   LowLevel_static_32:PxsContext.obj
 0001:00058f30       ?setVisualizationParameter@PxsContext@physx@@QAEXW4Enum@PxVisualizationParameter@2@M@Z 10059f30 f   LowLevel_static_32:PxsContext.obj
 0001:00058f50       ?shiftOrigin@PxsContext@physx@@QAEXABVPxVec3@2@@Z 10059f50 f   LowLevel_static_32:PxsContext.obj
 0001:000590c0       ?setCreateContactStream@PxsContext@physx@@QAEX_N@Z 1005a0c0 f   LowLevel_static_32:PxsContext.obj
 0001:00059120       ?mergeCMDiscreteUpdateResults@PxsContext@physx@@AAEXPAVPxBaseTask@2@@Z 1005a120 f   LowLevel_static_32:PxsContext.obj
 0001:000592d0       ??$combineInPlace@UOR@?$BitMapBase@VNonTrackingAllocator@shdfnd@physx@@@Cm@physx@@VNonTrackingAllocator@shdfnd@4@@?$BitMapBase@VNonTrackingAllocator@shdfnd@physx@@@Cm@physx@@QAEXABV012@@Z 1005a2d0 f i LowLevel_static_32:PxsContext.obj
 0001:00059420       ??$sort@PAXU?$Less@PAX@shdfnd@physx@@V?$ReflectionAllocator@VLargePersistentContactManifold@Gu@physx@@@23@@shdfnd@physx@@YAXPAPAXIABU?$Less@PAX@01@ABV?$ReflectionAllocator@VLargePersistentContactManifold@Gu@physx@@@01@I@Z 1005a420 f i LowLevel_static_32:PxsContext.obj
 0001:000597a0       ??$sort@PAXU?$Less@PAX@shdfnd@physx@@V?$ReflectionAllocator@VSpherePersistentContactManifold@Gu@physx@@@23@@shdfnd@physx@@YAXPAPAXIABU?$Less@PAX@01@ABV?$ReflectionAllocator@VSpherePersistentContactManifold@Gu@physx@@@01@I@Z 1005a7a0 f i LowLevel_static_32:PxsContext.obj
 0001:00059b20       ??1?$PoolBase@VLargePersistentContactManifold@Gu@physx@@V?$ReflectionAllocator@VLargePersistentContactManifold@Gu@physx@@@shdfnd@3@@shdfnd@physx@@QAE@XZ 1005ab20 f i LowLevel_static_32:PxsContext.obj
 0001:00059cf0       ??1?$PoolBase@VSpherePersistentContactManifold@Gu@physx@@V?$ReflectionAllocator@VSpherePersistentContactManifold@Gu@physx@@@shdfnd@3@@shdfnd@physx@@QAE@XZ 1005acf0 f i LowLevel_static_32:PxsContext.obj
 0001:00059eb0       ??1?$PxcThreadCoherentCache@VPxcNpThreadContext@physx@@UPxcNpContext@2@@physx@@QAE@XZ 1005aeb0 f i LowLevel_static_32:PxsContext.obj
 0001:00059f20       ??1PxcNpContext@physx@@QAE@XZ 1005af20 f i LowLevel_static_32:PxsContext.obj
 0001:00059f80       ?allocate@?$Array@PAEV?$ReflectionAllocator@PAE@shdfnd@physx@@@shdfnd@physx@@IAEPAPAEI@Z 1005af80 f i LowLevel_static_32:PxsContext.obj
 0001:00059ff0       ?allocate@?$Array@PAXV?$InlineAllocator@$0BAA@V?$ReflectionAllocator@VLargePersistentContactManifold@Gu@physx@@@shdfnd@physx@@@shdfnd@physx@@@shdfnd@physx@@IAEPAPAXI@Z 1005aff0 f i LowLevel_static_32:PxsContext.obj
 0001:0005a080       ?allocate@?$Array@PAXV?$InlineAllocator@$0BAA@V?$ReflectionAllocator@VSpherePersistentContactManifold@Gu@physx@@@shdfnd@physx@@@shdfnd@physx@@@shdfnd@physx@@IAEPAPAXI@Z 1005b080 f i LowLevel_static_32:PxsContext.obj
 0001:0005a110       ?allocate@?$ReflectionAllocator@VLargePersistentContactManifold@Gu@physx@@@shdfnd@physx@@QAEPAXIPBDH@Z 1005b110 f i LowLevel_static_32:PxsContext.obj
 0001:0005a170       ?allocate@?$ReflectionAllocator@VPxsContactManager@physx@@@shdfnd@physx@@QAEPAXIPBDH@Z 1005b170 f i LowLevel_static_32:PxsContext.obj
 0001:0005a1d0       ?allocate@?$ReflectionAllocator@VSpherePersistentContactManifold@Gu@physx@@@shdfnd@physx@@QAEPAXIPBDH@Z 1005b1d0 f i LowLevel_static_32:PxsContext.obj
 0001:0005a230       ?destroy@?$PoolList@VPxsContactManager@physx@@VPxsContext@2@@Cm@physx@@QAEXXZ 1005b230 f i LowLevel_static_32:PxsContext.obj
 0001:0005a2e0       ?extend@?$BitMapBase@VNonTrackingAllocator@shdfnd@physx@@@Cm@physx@@IAEXI@Z 1005b2e0 f i LowLevel_static_32:PxsContext.obj
 0001:0005a390       ?extend@?$PoolList@VPxsContactManager@physx@@VPxsContext@2@@Cm@physx@@QAE_NXZ 1005b390 f i LowLevel_static_32:PxsContext.obj
 0001:0005a510       ?growAndPushBack@?$Array@PAXV?$InlineAllocator@$0BAA@V?$ReflectionAllocator@VLargePersistentContactManifold@Gu@physx@@@shdfnd@physx@@@shdfnd@physx@@@shdfnd@physx@@IAEAAPAXABQAX@Z 1005b510 f i LowLevel_static_32:PxsContext.obj
 0001:0005a600       ?growAndPushBack@?$Array@PAXV?$InlineAllocator@$0BAA@V?$ReflectionAllocator@VSpherePersistentContactManifold@Gu@physx@@@shdfnd@physx@@@shdfnd@physx@@@shdfnd@physx@@IAEAAPAXABQAX@Z 1005b600 f i LowLevel_static_32:PxsContext.obj
 0001:0005a6f0       ?growAndPushBack@?$Array@PAXV?$ReflectionAllocator@VLargePersistentContactManifold@Gu@physx@@@shdfnd@physx@@@shdfnd@physx@@IAEAAPAXABQAX@Z 1005b6f0 f i LowLevel_static_32:PxsContext.obj
 0001:0005a7b0       ?growAndPushBack@?$Array@PAXV?$ReflectionAllocator@VSpherePersistentContactManifold@Gu@physx@@@shdfnd@physx@@@shdfnd@physx@@IAEAAPAXABQAX@Z 1005b7b0 f i LowLevel_static_32:PxsContext.obj
 0001:0005a870       ?recreate@?$Array@PAEV?$ReflectionAllocator@PAE@shdfnd@physx@@@shdfnd@physx@@IAEXI@Z 1005b870 f i LowLevel_static_32:PxsContext.obj
 0001:0005a900       ?PxcContactSphereSphere@physx@@YA_NABVGeometryUnion@Gu@1@0ABVPxTransform@1@1ABUNarrowPhaseParams@31@AAUCache@31@AAVContactBuffer@31@PAVRenderOutput@Cm@1@@Z 1005b900 f   LowLevel_static_32:PxcContact.obj
 0001:0005a910       ?PxcContactSphereCapsule@physx@@YA_NABVGeometryUnion@Gu@1@0ABVPxTransform@1@1ABUNarrowPhaseParams@31@AAUCache@31@AAVContactBuffer@31@PAVRenderOutput@Cm@1@@Z 1005b910 f   LowLevel_static_32:PxcContact.obj
 0001:0005a920       ?PxcContactSphereBox@physx@@YA_NABVGeometryUnion@Gu@1@0ABVPxTransform@1@1ABUNarrowPhaseParams@31@AAUCache@31@AAVContactBuffer@31@PAVRenderOutput@Cm@1@@Z 1005b920 f   LowLevel_static_32:PxcContact.obj
 0001:0005a930       ?PxcContactSpherePlane@physx@@YA_NABVGeometryUnion@Gu@1@0ABVPxTransform@1@1ABUNarrowPhaseParams@31@AAUCache@31@AAVContactBuffer@31@PAVRenderOutput@Cm@1@@Z 1005b930 f   LowLevel_static_32:PxcContact.obj
 0001:0005a940       ?PxcContactSphereConvex@physx@@YA_NABVGeometryUnion@Gu@1@0ABVPxTransform@1@1ABUNarrowPhaseParams@31@AAUCache@31@AAVContactBuffer@31@PAVRenderOutput@Cm@1@@Z 1005b940 f   LowLevel_static_32:PxcContact.obj
 0001:0005a950       ?PxcContactSphereHeightField@physx@@YA_NABVGeometryUnion@Gu@1@0ABVPxTransform@1@1ABUNarrowPhaseParams@31@AAUCache@31@AAVContactBuffer@31@PAVRenderOutput@Cm@1@@Z 1005b950 f   LowLevel_static_32:PxcContact.obj
 0001:0005a960       ?PxcContactSphereMesh@physx@@YA_NABVGeometryUnion@Gu@1@0ABVPxTransform@1@1ABUNarrowPhaseParams@31@AAUCache@31@AAVContactBuffer@31@PAVRenderOutput@Cm@1@@Z 1005b960 f   LowLevel_static_32:PxcContact.obj
 0001:0005a970       ?PxcContactPlaneBox@physx@@YA_NABVGeometryUnion@Gu@1@0ABVPxTransform@1@1ABUNarrowPhaseParams@31@AAUCache@31@AAVContactBuffer@31@PAVRenderOutput@Cm@1@@Z 1005b970 f   LowLevel_static_32:PxcContact.obj
 0001:0005a980       ?PxcContactPlaneCapsule@physx@@YA_NABVGeometryUnion@Gu@1@0ABVPxTransform@1@1ABUNarrowPhaseParams@31@AAUCache@31@AAVContactBuffer@31@PAVRenderOutput@Cm@1@@Z 1005b980 f   LowLevel_static_32:PxcContact.obj
 0001:0005a990       ?PxcContactPlaneConvex@physx@@YA_NABVGeometryUnion@Gu@1@0ABVPxTransform@1@1ABUNarrowPhaseParams@31@AAUCache@31@AAVContactBuffer@31@PAVRenderOutput@Cm@1@@Z 1005b990 f   LowLevel_static_32:PxcContact.obj
 0001:0005a9a0       ?PxcContactCapsuleCapsule@physx@@YA_NABVGeometryUnion@Gu@1@0ABVPxTransform@1@1ABUNarrowPhaseParams@31@AAUCache@31@AAVContactBuffer@31@PAVRenderOutput@Cm@1@@Z 1005b9a0 f   LowLevel_static_32:PxcContact.obj
 0001:0005a9b0       ?PxcContactCapsuleBox@physx@@YA_NABVGeometryUnion@Gu@1@0ABVPxTransform@1@1ABUNarrowPhaseParams@31@AAUCache@31@AAVContactBuffer@31@PAVRenderOutput@Cm@1@@Z 1005b9b0 f   LowLevel_static_32:PxcContact.obj
 0001:0005a9c0       ?PxcContactCapsuleConvex@physx@@YA_NABVGeometryUnion@Gu@1@0ABVPxTransform@1@1ABUNarrowPhaseParams@31@AAUCache@31@AAVContactBuffer@31@PAVRenderOutput@Cm@1@@Z 1005b9c0 f   LowLevel_static_32:PxcContact.obj
 0001:0005a9d0       ?PxcContactCapsuleHeightField@physx@@YA_NABVGeometryUnion@Gu@1@0ABVPxTransform@1@1ABUNarrowPhaseParams@31@AAUCache@31@AAVContactBuffer@31@PAVRenderOutput@Cm@1@@Z 1005b9d0 f   LowLevel_static_32:PxcContact.obj
 0001:0005a9e0       ?PxcContactCapsuleMesh@physx@@YA_NABVGeometryUnion@Gu@1@0ABVPxTransform@1@1ABUNarrowPhaseParams@31@AAUCache@31@AAVContactBuffer@31@PAVRenderOutput@Cm@1@@Z 1005b9e0 f   LowLevel_static_32:PxcContact.obj
 0001:0005a9f0       ?PxcContactBoxBox@physx@@YA_NABVGeometryUnion@Gu@1@0ABVPxTransform@1@1ABUNarrowPhaseParams@31@AAUCache@31@AAVContactBuffer@31@PAVRenderOutput@Cm@1@@Z 1005b9f0 f   LowLevel_static_32:PxcContact.obj
 0001:0005aa00       ?PxcContactBoxConvex@physx@@YA_NABVGeometryUnion@Gu@1@0ABVPxTransform@1@1ABUNarrowPhaseParams@31@AAUCache@31@AAVContactBuffer@31@PAVRenderOutput@Cm@1@@Z 1005ba00 f   LowLevel_static_32:PxcContact.obj
 0001:0005aa10       ?PxcContactBoxHeightField@physx@@YA_NABVGeometryUnion@Gu@1@0ABVPxTransform@1@1ABUNarrowPhaseParams@31@AAUCache@31@AAVContactBuffer@31@PAVRenderOutput@Cm@1@@Z 1005ba10 f   LowLevel_static_32:PxcContact.obj
 0001:0005aa20       ?PxcContactBoxMesh@physx@@YA_NABVGeometryUnion@Gu@1@0ABVPxTransform@1@1ABUNarrowPhaseParams@31@AAUCache@31@AAVContactBuffer@31@PAVRenderOutput@Cm@1@@Z 1005ba20 f   LowLevel_static_32:PxcContact.obj
 0001:0005aa30       ?PxcContactConvexConvex@physx@@YA_NABVGeometryUnion@Gu@1@0ABVPxTransform@1@1ABUNarrowPhaseParams@31@AAUCache@31@AAVContactBuffer@31@PAVRenderOutput@Cm@1@@Z 1005ba30 f   LowLevel_static_32:PxcContact.obj
 0001:0005aa40       ?PxcContactConvexHeightField@physx@@YA_NABVGeometryUnion@Gu@1@0ABVPxTransform@1@1ABUNarrowPhaseParams@31@AAUCache@31@AAVContactBuffer@31@PAVRenderOutput@Cm@1@@Z 1005ba40 f   LowLevel_static_32:PxcContact.obj
 0001:0005aa50       ?PxcContactConvexMesh@physx@@YA_NABVGeometryUnion@Gu@1@0ABVPxTransform@1@1ABUNarrowPhaseParams@31@AAUCache@31@AAVContactBuffer@31@PAVRenderOutput@Cm@1@@Z 1005ba50 f   LowLevel_static_32:PxcContact.obj
 0001:0005aa60       ?PxcPCMContactSphereSphere@physx@@YA_NABVGeometryUnion@Gu@1@0ABVPxTransform@1@1ABUNarrowPhaseParams@31@AAUCache@31@AAVContactBuffer@31@PAVRenderOutput@Cm@1@@Z 1005ba60 f   LowLevel_static_32:PxcContact.obj
 0001:0005aa70       ?PxcPCMContactSpherePlane@physx@@YA_NABVGeometryUnion@Gu@1@0ABVPxTransform@1@1ABUNarrowPhaseParams@31@AAUCache@31@AAVContactBuffer@31@PAVRenderOutput@Cm@1@@Z 1005ba70 f   LowLevel_static_32:PxcContact.obj
 0001:0005aa80       ?PxcPCMContactSphereCapsule@physx@@YA_NABVGeometryUnion@Gu@1@0ABVPxTransform@1@1ABUNarrowPhaseParams@31@AAUCache@31@AAVContactBuffer@31@PAVRenderOutput@Cm@1@@Z 1005ba80 f   LowLevel_static_32:PxcContact.obj
 0001:0005aa90       ?PxcPCMContactSphereBox@physx@@YA_NABVGeometryUnion@Gu@1@0ABVPxTransform@1@1ABUNarrowPhaseParams@31@AAUCache@31@AAVContactBuffer@31@PAVRenderOutput@Cm@1@@Z 1005ba90 f   LowLevel_static_32:PxcContact.obj
 0001:0005aaa0       ?PxcPCMContactSphereConvex@physx@@YA_NABVGeometryUnion@Gu@1@0ABVPxTransform@1@1ABUNarrowPhaseParams@31@AAUCache@31@AAVContactBuffer@31@PAVRenderOutput@Cm@1@@Z 1005baa0 f   LowLevel_static_32:PxcContact.obj
 0001:0005aab0       ?PxcPCMContactSphereHeightField@physx@@YA_NABVGeometryUnion@Gu@1@0ABVPxTransform@1@1ABUNarrowPhaseParams@31@AAUCache@31@AAVContactBuffer@31@PAVRenderOutput@Cm@1@@Z 1005bab0 f   LowLevel_static_32:PxcContact.obj
 0001:0005aac0       ?PxcPCMContactSphereMesh@physx@@YA_NABVGeometryUnion@Gu@1@0ABVPxTransform@1@1ABUNarrowPhaseParams@31@AAUCache@31@AAVContactBuffer@31@PAVRenderOutput@Cm@1@@Z 1005bac0 f   LowLevel_static_32:PxcContact.obj
 0001:0005aad0       ?PxcPCMContactPlaneBox@physx@@YA_NABVGeometryUnion@Gu@1@0ABVPxTransform@1@1ABUNarrowPhaseParams@31@AAUCache@31@AAVContactBuffer@31@PAVRenderOutput@Cm@1@@Z 1005bad0 f   LowLevel_static_32:PxcContact.obj
 0001:0005aae0       ?PxcPCMContactPlaneCapsule@physx@@YA_NABVGeometryUnion@Gu@1@0ABVPxTransform@1@1ABUNarrowPhaseParams@31@AAUCache@31@AAVContactBuffer@31@PAVRenderOutput@Cm@1@@Z 1005bae0 f   LowLevel_static_32:PxcContact.obj
 0001:0005aaf0       ?PxcPCMContactPlaneConvex@physx@@YA_NABVGeometryUnion@Gu@1@0ABVPxTransform@1@1ABUNarrowPhaseParams@31@AAUCache@31@AAVContactBuffer@31@PAVRenderOutput@Cm@1@@Z 1005baf0 f   LowLevel_static_32:PxcContact.obj
 0001:0005ab00       ?PxcPCMContactCapsuleCapsule@physx@@YA_NABVGeometryUnion@Gu@1@0ABVPxTransform@1@1ABUNarrowPhaseParams@31@AAUCache@31@AAVContactBuffer@31@PAVRenderOutput@Cm@1@@Z 1005bb00 f   LowLevel_static_32:PxcContact.obj
 0001:0005ab10       ?PxcPCMContactCapsuleBox@physx@@YA_NABVGeometryUnion@Gu@1@0ABVPxTransform@1@1ABUNarrowPhaseParams@31@AAUCache@31@AAVContactBuffer@31@PAVRenderOutput@Cm@1@@Z 1005bb10 f   LowLevel_static_32:PxcContact.obj
 0001:0005ab20       ?PxcPCMContactCapsuleConvex@physx@@YA_NABVGeometryUnion@Gu@1@0ABVPxTransform@1@1ABUNarrowPhaseParams@31@AAUCache@31@AAVContactBuffer@31@PAVRenderOutput@Cm@1@@Z 1005bb20 f   LowLevel_static_32:PxcContact.obj
 0001:0005ab30       ?PxcPCMContactCapsuleHeightField@physx@@YA_NABVGeometryUnion@Gu@1@0ABVPxTransform@1@1ABUNarrowPhaseParams@31@AAUCache@31@AAVContactBuffer@31@PAVRenderOutput@Cm@1@@Z 1005bb30 f   LowLevel_static_32:PxcContact.obj
 0001:0005ab40       ?PxcPCMContactCapsuleMesh@physx@@YA_NABVGeometryUnion@Gu@1@0ABVPxTransform@1@1ABUNarrowPhaseParams@31@AAUCache@31@AAVContactBuffer@31@PAVRenderOutput@Cm@1@@Z 1005bb40 f   LowLevel_static_32:PxcContact.obj
 0001:0005ab50       ?PxcPCMContactBoxBox@physx@@YA_NABVGeometryUnion@Gu@1@0ABVPxTransform@1@1ABUNarrowPhaseParams@31@AAUCache@31@AAVContactBuffer@31@PAVRenderOutput@Cm@1@@Z 1005bb50 f   LowLevel_static_32:PxcContact.obj
 0001:0005ab60       ?PxcPCMContactBoxConvex@physx@@YA_NABVGeometryUnion@Gu@1@0ABVPxTransform@1@1ABUNarrowPhaseParams@31@AAUCache@31@AAVContactBuffer@31@PAVRenderOutput@Cm@1@@Z 1005bb60 f   LowLevel_static_32:PxcContact.obj
 0001:0005ab70       ?PxcPCMContactBoxHeightField@physx@@YA_NABVGeometryUnion@Gu@1@0ABVPxTransform@1@1ABUNarrowPhaseParams@31@AAUCache@31@AAVContactBuffer@31@PAVRenderOutput@Cm@1@@Z 1005bb70 f   LowLevel_static_32:PxcContact.obj
 0001:0005ab80       ?PxcPCMContactBoxMesh@physx@@YA_NABVGeometryUnion@Gu@1@0ABVPxTransform@1@1ABUNarrowPhaseParams@31@AAUCache@31@AAVContactBuffer@31@PAVRenderOutput@Cm@1@@Z 1005bb80 f   LowLevel_static_32:PxcContact.obj
 0001:0005ab90       ?PxcPCMContactConvexConvex@physx@@YA_NABVGeometryUnion@Gu@1@0ABVPxTransform@1@1ABUNarrowPhaseParams@31@AAUCache@31@AAVContactBuffer@31@PAVRenderOutput@Cm@1@@Z 1005bb90 f   LowLevel_static_32:PxcContact.obj
 0001:0005aba0       ?PxcPCMContactConvexHeightField@physx@@YA_NABVGeometryUnion@Gu@1@0ABVPxTransform@1@1ABUNarrowPhaseParams@31@AAUCache@31@AAVContactBuffer@31@PAVRenderOutput@Cm@1@@Z 1005bba0 f   LowLevel_static_32:PxcContact.obj
 0001:0005abb0       ?PxcPCMContactConvexMesh@physx@@YA_NABVGeometryUnion@Gu@1@0ABVPxTransform@1@1ABUNarrowPhaseParams@31@AAUCache@31@AAVContactBuffer@31@PAVRenderOutput@Cm@1@@Z 1005bbb0 f   LowLevel_static_32:PxcContact.obj
 0001:0005abc0       ??0PxcNpMemBlockPool@physx@@QAE@AAVPxcScratchAllocator@1@@Z 1005bbc0 f   LowLevel_static_32:PxcNpMemBlockPool.obj
 0001:0005ad80       ??1PxcNpMemBlockPool@physx@@QAE@XZ 1005bd80 f   LowLevel_static_32:PxcNpMemBlockPool.obj
 0001:0005aff0       ?init@PxcNpMemBlockPool@physx@@QAEXII@Z 1005bff0 f   LowLevel_static_32:PxcNpMemBlockPool.obj
 0001:0005b130       ?setBlockCount@PxcNpMemBlockPool@physx@@QAEXI@Z 1005c130 f   LowLevel_static_32:PxcNpMemBlockPool.obj
 0001:0005b1c0       ?getUsedBlockCount@PxcNpMemBlockPool@physx@@QBEIXZ 1005c1c0 f   LowLevel_static_32:PxcNpMemBlockPool.obj
 0001:0005b1d0       ?getMaxUsedBlockCount@PxcNpMemBlockPool@physx@@QBEIXZ 1005c1d0 f   LowLevel_static_32:PxcNpMemBlockPool.obj
 0001:0005b1e0       ?getPeakConstraintBlockCount@PxcNpMemBlockPool@physx@@QBEIXZ 1005c1e0 f   LowLevel_static_32:PxcNpMemBlockPool.obj
 0001:0005b1f0       ?releaseUnusedBlocks@PxcNpMemBlockPool@physx@@QAEXXZ 1005c1f0 f   LowLevel_static_32:PxcNpMemBlockPool.obj
 0001:0005b250       ?acquireConstraintBlock@PxcNpMemBlockPool@physx@@QAEPAUPxcNpMemBlock@2@XZ 1005c250 f   LowLevel_static_32:PxcNpMemBlockPool.obj
 0001:0005b260       ?acquireConstraintBlock@PxcNpMemBlockPool@physx@@QAEPAUPxcNpMemBlock@2@AAV?$Array@PAUPxcNpMemBlock@physx@@V?$ReflectionAllocator@PAUPxcNpMemBlock@physx@@@shdfnd@2@@shdfnd@2@@Z 1005c260 f   LowLevel_static_32:PxcNpMemBlockPool.obj
 0001:0005b280       ?acquireContactBlock@PxcNpMemBlockPool@physx@@QAEPAUPxcNpMemBlock@2@XZ 1005c280 f   LowLevel_static_32:PxcNpMemBlockPool.obj
 0001:0005b2a0       ?acquireFrictionBlock@PxcNpMemBlockPool@physx@@QAEPAUPxcNpMemBlock@2@XZ 1005c2a0 f   LowLevel_static_32:PxcNpMemBlockPool.obj
 0001:0005b2c0       ?acquireNpCacheBlock@PxcNpMemBlockPool@physx@@QAEPAUPxcNpMemBlock@2@XZ 1005c2c0 f   LowLevel_static_32:PxcNpMemBlockPool.obj
 0001:0005b2e0       ?acquireExceptionalConstraintMemory@PxcNpMemBlockPool@physx@@QAEPAEI@Z 1005c2e0 f   LowLevel_static_32:PxcNpMemBlockPool.obj
 0001:0005b370       ?acquireConstraintMemory@PxcNpMemBlockPool@physx@@QAEXXZ 1005c370 f   LowLevel_static_32:PxcNpMemBlockPool.obj
 0001:0005b430       ?releaseConstraintMemory@PxcNpMemBlockPool@physx@@QAEXXZ 1005c430 f   LowLevel_static_32:PxcNpMemBlockPool.obj
 0001:0005b5c0       ?releaseConstraintBlocks@PxcNpMemBlockPool@physx@@QAEXAAV?$Array@PAUPxcNpMemBlock@physx@@V?$ReflectionAllocator@PAUPxcNpMemBlock@physx@@@shdfnd@2@@shdfnd@2@@Z 1005c5c0 f   LowLevel_static_32:PxcNpMemBlockPool.obj
 0001:0005b680       ?releaseContacts@PxcNpMemBlockPool@physx@@QAEXXZ 1005c680 f   LowLevel_static_32:PxcNpMemBlockPool.obj
 0001:0005b6c0       ?swapFrictionStreams@PxcNpMemBlockPool@physx@@QAEXXZ 1005c6c0 f   LowLevel_static_32:PxcNpMemBlockPool.obj
 0001:0005b700       ?swapNpCacheStreams@PxcNpMemBlockPool@physx@@QAEXXZ 1005c700 f   LowLevel_static_32:PxcNpMemBlockPool.obj
 0001:0005b730       ?flushUnused@PxcNpMemBlockPool@physx@@QAEXXZ 1005c730 f   LowLevel_static_32:PxcNpMemBlockPool.obj
 0001:0005b770       ?acquire@PxcNpMemBlockPool@physx@@AAEPAUPxcNpMemBlock@2@AAV?$Array@PAUPxcNpMemBlock@physx@@V?$ReflectionAllocator@PAUPxcNpMemBlock@physx@@@shdfnd@2@@shdfnd@2@PAI1_N@Z 1005c770 f   LowLevel_static_32:PxcNpMemBlockPool.obj
 0001:0005b8e0       ?release@PxcNpMemBlockPool@physx@@AAEXAAV?$Array@PAUPxcNpMemBlock@physx@@V?$ReflectionAllocator@PAUPxcNpMemBlock@physx@@@shdfnd@2@@shdfnd@2@PAI@Z 1005c8e0 f   LowLevel_static_32:PxcNpMemBlockPool.obj
 0001:0005b960       ??1?$Array@PAUPxcNpMemBlock@physx@@V?$ReflectionAllocator@PAUPxcNpMemBlock@physx@@@shdfnd@2@@shdfnd@physx@@QAE@XZ 1005c960 f i LowLevel_static_32:PxcNpMemBlockPool.obj
 0001:0005b990       ??_F?$Array@PAUPxcNpMemBlock@physx@@V?$ReflectionAllocator@PAUPxcNpMemBlock@physx@@@shdfnd@2@@shdfnd@physx@@QAEXXZ 1005c990 f i LowLevel_static_32:PxcNpMemBlockPool.obj
 0001:0005b9b0       ?allocate@?$Array@PAUPxcNpMemBlock@physx@@V?$ReflectionAllocator@PAUPxcNpMemBlock@physx@@@shdfnd@2@@shdfnd@physx@@IAEPAPAUPxcNpMemBlock@3@I@Z 1005c9b0 f i LowLevel_static_32:PxcNpMemBlockPool.obj
 0001:0005ba20       ?growAndPushBack@?$Array@PAUPxcNpMemBlock@physx@@V?$ReflectionAllocator@PAUPxcNpMemBlock@physx@@@shdfnd@2@@shdfnd@physx@@IAEAAPAUPxcNpMemBlock@3@ABQAU43@@Z 1005ca20 f i LowLevel_static_32:PxcNpMemBlockPool.obj
 0001:0005bad0       ?recreate@?$Array@PAUPxcNpMemBlock@physx@@V?$ReflectionAllocator@PAUPxcNpMemBlock@physx@@@shdfnd@2@@shdfnd@physx@@IAEXI@Z 1005cad0 f i LowLevel_static_32:PxcNpMemBlockPool.obj
 0001:0005bb60       ?resize@?$Array@PAUPxcNpMemBlock@physx@@V?$ReflectionAllocator@PAUPxcNpMemBlock@physx@@@shdfnd@2@@shdfnd@physx@@QAEXIABQAUPxcNpMemBlock@3@@Z 1005cb60 f i LowLevel_static_32:PxcNpMemBlockPool.obj
 0001:0005bc20       ??0PxcNpThreadContext@physx@@QAE@PAUPxcNpContext@1@@Z 1005cc20 f   LowLevel_static_32:PxcNpThreadContext.obj
 0001:0005bdd0       ??1PxcNpThreadContext@physx@@QAE@XZ 1005cdd0 f   LowLevel_static_32:PxcNpThreadContext.obj
 0001:0005be60       ?clearStats@PxcNpThreadContext@physx@@QAEXXZ 1005ce60 f   LowLevel_static_32:PxcNpThreadContext.obj
 0001:0005bea0       ?reset@PxcNpThreadContext@physx@@QAEXI@Z 1005cea0 f   LowLevel_static_32:PxcNpThreadContext.obj
 0001:0005bf50       ?resize@?$BitMapBase@VNonTrackingAllocator@shdfnd@physx@@@Cm@physx@@QAEXI_N@Z 1005cf50 f i LowLevel_static_32:PxcNpThreadContext.obj
 0001:0005c000       ??0PxsContactManager@physx@@QAE@PAVPxsContext@1@I@Z 1005d000 f   LowLevel_static_32:PxsContactManager.obj
 0001:0005c040       ??1PxsContactManager@physx@@QAE@XZ 1005d040 f   LowLevel_static_32:PxsContactManager.obj
 0001:0005c050       ?setCCD@PxsContactManager@physx@@QAEX_N@Z 1005d050 f   LowLevel_static_32:PxsContactManager.obj
 0001:0005c070       ?resetCachedState@PxsContactManager@physx@@QAEXXZ 1005d070 f   LowLevel_static_32:PxsContactManager.obj
 0001:0005c090       ?resetFrictionCachedState@PxsContactManager@physx@@QAEXXZ 1005d090 f   LowLevel_static_32:PxsContactManager.obj
 0001:0005c0b0       ??0PxcNpCacheStreamPair@physx@@QAE@AAVPxcNpMemBlockPool@1@@Z 1005d0b0 f   LowLevel_static_32:PxcNpCacheStreamPair.obj
 0001:0005c0d0       ?reserve@PxcNpCacheStreamPair@physx@@QAEPAEI@Z 1005d0d0 f   LowLevel_static_32:PxcNpCacheStreamPair.obj
 0001:0005c140       ?reset@PxcNpCacheStreamPair@physx@@QAEXXZ 1005d140 f   LowLevel_static_32:PxcNpCacheStreamPair.obj
 0001:0005c150       ?resize@ArticulationV@Dy@physx@@UAE_NI@Z 1005d150 f   LowLevelDynamics_static_32:DyArticulation.obj
 0001:0005c180       ??0Articulation@Dy@physx@@QAE@PAVArticulationSim@Sc@2@@Z 1005d180 f   LowLevelDynamics_static_32:DyArticulation.obj
 0001:0005c280       ??1Articulation@Dy@physx@@UAE@XZ 1005d280 f   LowLevelDynamics_static_32:DyArticulation.obj
 0001:0005c3b0       ?resize@Articulation@Dy@physx@@UAE_NI@Z 1005d3b0 f   LowLevelDynamics_static_32:DyArticulation.obj
 0001:0005c580       ?getDataSizes@Articulation@Dy@physx@@UAEXIAAI00@Z 1005d580 f   LowLevelDynamics_static_32:DyArticulation.obj
 0001:0005c5c0       ?getImpulseResponse@Articulation@Dy@physx@@UBEXIPAUSpatialVectorF@Cm@3@ABVSpatialVector@53@AAV653@@Z 1005d5c0 f   LowLevelDynamics_static_32:DyArticulation.obj
 0001:0005c5e0       ?getImpulseSelfResponse@Articulation@Dy@physx@@UBEXIIPAUSpatialVectorF@Cm@3@ABVSpatialVector@53@1AAV653@2@Z 1005d5e0 f   LowLevelDynamics_static_32:DyArticulation.obj
 0001:0005c610       ?getLinkVelocity@Articulation@Dy@physx@@UBE?AUSpatialVectorV@Cm@3@I@Z 1005d610 f   LowLevelDynamics_static_32:DyArticulation.obj
 0001:0005c640       ?getLinkMotionVector@Articulation@Dy@physx@@UBE?AUSpatialVectorV@Cm@3@I@Z 1005d640 f   LowLevelDynamics_static_32:DyArticulation.obj
 0001:0005c670       ?getMotionVelocity@Articulation@Dy@physx@@UBE?AVSpatialVector@Cm@3@I@Z 1005d670 f   LowLevelDynamics_static_32:DyArticulation.obj
 0001:0005c6d0       ?getLinkMaxPenBias@Articulation@Dy@physx@@UBEMI@Z 1005d6d0 f   LowLevelDynamics_static_32:DyArticulation.obj
 0001:0005c700       ?computeUnconstrainedVelocities@Articulation@Dy@physx@@SAIABUArticulationSolverDesc@23@MAAVPxConstraintAllocator@3@PAUPxSolverConstraintDesc@3@AAIABVPxVec3@3@_KPAUSpatialVectorF@Cm@3@6@Z 1005d700 f   LowLevelDynamics_static_32:DyArticulation.obj
 0001:0005c790       ?computeUnconstrainedVelocitiesTGS@Articulation@Dy@physx@@SAXABUArticulationSolverDesc@23@MABVPxVec3@3@_KPAUSpatialVectorF@Cm@3@3@Z 1005d790 f   LowLevelDynamics_static_32:DyArticulation.obj
 0001:0005c7f0       ?saveVelocity@Articulation@Dy@physx@@SAXABUArticulationSolverDesc@23@PAUSpatialVectorF@Cm@3@@Z 1005d7f0 f   LowLevelDynamics_static_32:DyArticulation.obj
 0001:0005c870       ?saveVelocityTGS@Articulation@Dy@physx@@SAXABUArticulationSolverDesc@23@M@Z 1005d870 f   LowLevelDynamics_static_32:DyArticulation.obj
 0001:0005c910       ?updateBodies@Articulation@Dy@physx@@SAXABUArticulationSolverDesc@23@M@Z 1005d910 f   LowLevelDynamics_static_32:DyArticulation.obj
 0001:0005d730       ?recordDeltaMotion@Articulation@Dy@physx@@SAXABUArticulationSolverDesc@23@MPAUSpatialVectorF@Cm@3@@Z 1005e730 f   LowLevelDynamics_static_32:DyArticulation.obj
 0001:0005d9c0       ?deltaMotionToMotionVelocity@Articulation@Dy@physx@@SAXABUArticulationSolverDesc@23@M@Z 1005e9c0 f   LowLevelDynamics_static_32:DyArticulation.obj
 0001:0005da50       ?pxcFsApplyImpulse@Articulation@Dy@physx@@UAEXIT__m128@@0PAUSpatialVectorF@Cm@3@1@Z 1005ea50 f   LowLevelDynamics_static_32:DyArticulation.obj
 0001:0005dbc0       ?pxcFsApplyImpulses@Articulation@Dy@physx@@UAEXIABT__m128@@0I00PAUSpatialVectorF@Cm@3@1@Z 1005ebc0 f   LowLevelDynamics_static_32:DyArticulation.obj
 0001:0005dc10       ?solveInternalConstraints@Articulation@Dy@physx@@UAEXMMPAUSpatialVectorF@Cm@3@0_N@Z 1005ec10 f   LowLevelDynamics_static_32:DyArticulation.obj
 0001:0005dc20       ?pxcFsGetVelocity@Articulation@Dy@physx@@UAE?AUSpatialVectorV@Cm@3@I@Z 1005ec20 f   LowLevelDynamics_static_32:DyArticulation.obj
 0001:0005e1e0       ?pxcFsGetVelocities@Articulation@Dy@physx@@UAEXIIAAUSpatialVectorV@Cm@3@0@Z 1005f1e0 f   LowLevelDynamics_static_32:DyArticulation.obj
 0001:0005e240       ?prepareDataBlock@Articulation@Dy@physx@@SAXAAUFsData@23@PBUArticulationLink@23@GPAVPxTransform@3@PAVPxQuat@3@PAUFsInertia@23@PAUArticulationJointTransforms@23@I@Z 1005f240 f   LowLevelDynamics_static_32:DyArticulation.obj
 0001:0005e640       ?prepareFsData@Articulation@Dy@physx@@SAXAAUFsData@23@PBUArticulationLink@23@@Z 1005f640 f   LowLevelDynamics_static_32:DyArticulation.obj
 0001:0005e7d0       ?getResistance@Articulation@Dy@physx@@SAMM@Z 1005f7d0 f   LowLevelDynamics_static_32:DyArticulation.obj
 0001:0005e7e0       ?getFsDataSize@Articulation@Dy@physx@@SAII@Z 1005f7e0 f   LowLevelDynamics_static_32:DyArticulation.obj
 0001:0005e7f0       ?getLtbDataSize@Articulation@Dy@physx@@SAII@Z 1005f7f0 f   LowLevelDynamics_static_32:DyArticulation.obj
 0001:0005e800       ?setInertia@Articulation@Dy@physx@@SAXAAUFsInertia@23@ABUPxsBodyCore@3@ABVPxTransform@3@@Z 1005f800 f   LowLevelDynamics_static_32:DyArticulation.obj
 0001:0005ecb0       ?setJointTransforms@Articulation@Dy@physx@@SAXAAUArticulationJointTransforms@23@ABVPxTransform@3@1ABUArticulationJointCore@23@@Z 1005fcb0 f   LowLevelDynamics_static_32:DyArticulation.obj
 0001:0005f400       ?applyImpulses@Articulation@Dy@physx@@SAXABUFsData@23@PAUSpatialVectorV@Cm@3@1@Z 10060400 f   LowLevelDynamics_static_32:DyArticulation.obj
 0001:0005f900       ?computeUnconstrainedVelocitiesInternal@Articulation@Dy@physx@@AAEXABUArticulationSolverDesc@23@MABVPxVec3@3@_KPIAUFsInertia@23@PIAUArticulationJointTransforms@23@AAUPxcFsScratchAllocator@23@@Z 10060900 f   LowLevelDynamics_static_32:DyArticulation.obj
 0001:0005feb0       ?prepareLtbMatrix@Articulation@Dy@physx@@AAEXAAUFsData@23@PBUFsInertia@23@PBVPxTransform@3@PBUArticulationJointTransforms@23@M@Z 10060eb0 f   LowLevelDynamics_static_32:DyArticulation.obj
 0001:00060220       ?computeJointDrives@Articulation@Dy@physx@@AAEXAAUFsData@23@PAT__m128@@PBUArticulationLink@23@PBVPxTransform@3@PBUArticulationJointTransforms@23@PBUMat33V@aos@shdfnd@3@M@Z 10061220 f   LowLevelDynamics_static_32:DyArticulation.obj
 0001:00060800       ?initialize@PxvArticulationDriveCache@Dy@physx@@SAXAAUFsData@23@GPBUArticulationLink@23@MIPADI@Z 10061800 f   LowLevelDynamics_static_32:DyArticulation.obj
 0001:00060990       ?getLinkCount@PxvArticulationDriveCache@Dy@physx@@SAIABUFsData@23@@Z 10061990 f   LowLevelDynamics_static_32:DyArticulation.obj
 0001:000609a0       ?applyImpulses@PxvArticulationDriveCache@Dy@physx@@SAXABUFsData@23@PAUSpatialVectorV@Cm@3@1@Z 100619a0 f   LowLevelDynamics_static_32:DyArticulation.obj
 0001:000609b0       ?getImpulseResponse@PxvArticulationDriveCache@Dy@physx@@SAXABUFsData@23@IABUSpatialVectorV@Cm@3@AAU563@@Z 100619b0 f   LowLevelDynamics_static_32:DyArticulation.obj
 0001:000609c0       ?PxvRegisterArticulations@Dy@physx@@YAXXZ 100619c0 f   LowLevelDynamics_static_32:DyArticulation.obj
 0001:00060a30       ?PxcLtbFactor@Dy@physx@@YAXAAUFsData@12@@Z 10061a30 f   LowLevelDynamics_static_32:DyArticulation.obj
 0001:00061c40       ?PxcLtbComputeJv@Dy@physx@@YAXPAT__m128@@ABUFsData@12@PBUSpatialVectorV@Cm@2@@Z 10062c40 f   LowLevelDynamics_static_32:DyArticulation.obj
 0001:00061d30       ?PxcLtbSolve@Dy@physx@@YAXABUFsData@12@PAT__m128@@PAUSpatialVectorV@Cm@2@@Z 10062d30 f   LowLevelDynamics_static_32:DyArticulation.obj
 0001:000622b0       ?PxcLtbProject@Dy@physx@@YAXABUFsData@12@PAUSpatialVectorV@Cm@2@PAT__m128@@@Z 100632b0 f   LowLevelDynamics_static_32:DyArticulation.obj
 0001:00062320       ?PxcFsComputeJointLoadsSimd@Dy@physx@@YAXABUFsData@12@PIBUFsInertia@12@PIAUMat33V@aos@shdfnd@2@PIBMIIUPxcFsScratchAllocator@12@@Z 10063320 f   LowLevelDynamics_static_32:DyArticulation.obj
 0001:00064a60       ?PxcFsPropagateDrivenInertiaSimd@Dy@physx@@YAXAAUFsData@12@PBUFsInertia@12@PBMPBUMat33V@aos@shdfnd@2@UPxcFsScratchAllocator@12@@Z 10065a60 f   LowLevelDynamics_static_32:DyArticulation.obj
 0001:00065990       ?PxcFsApplyJointDrives@Dy@physx@@YAXAAUFsData@12@PBT__m128@@@Z 10066990 f   LowLevelDynamics_static_32:DyArticulation.obj
 0001:00065ec0       ??0SpatialVectorV@Cm@physx@@QAE@XZ 10066ec0 f i LowLevelDynamics_static_32:DyArticulation.obj
 0001:00065ed0       ??1ArticulationV@Dy@physx@@UAE@XZ 10066ed0 f i LowLevelDynamics_static_32:DyArticulation.obj
 0001:00065f00       ??1SpatialVector@Cm@physx@@QAE@XZ 10066f00 f i LowLevelDynamics_static_32:DyArticulation.obj
 0001:00065f10       ??_EArticulation@Dy@physx@@UAEPAXI@Z 10066f10 f i LowLevelDynamics_static_32:DyArticulation.obj
 0001:00065f10       ??_GArticulation@Dy@physx@@UAEPAXI@Z 10066f10 f i LowLevelDynamics_static_32:DyArticulation.obj
 0001:00065f40       ??_GArticulationV@Dy@physx@@UAEPAXI@Z 10066f40 f i LowLevelDynamics_static_32:DyArticulation.obj
 0001:00065f40       ??_EArticulationV@Dy@physx@@UAEPAXI@Z 10066f40 f i LowLevelDynamics_static_32:DyArticulation.obj
 0001:00065f90       ?addBody@ArticulationV@Dy@physx@@UAEXXZ 10066f90 f i LowLevelDynamics_static_32:DyArticulation.obj
 0001:00066020       ?applyCache@ArticulationV@Dy@physx@@UAEXAAVPxArticulationCache@3@V?$PxFlags@W4Enum@PxArticulationCache@physx@@E@3@@Z 10067020 f i LowLevelDynamics_static_32:DyArticulation.obj
 0001:00066030       ?computeSIS@ArticulationFnsSimdBase@Dy@physx@@SA?AUMat33V@aos@shdfnd@3@ABUFsInertia@23@QBUSpatialVectorV@Cm@3@QAU893@@Z 10067030 f i LowLevelDynamics_static_32:DyArticulation.obj
 0001:00066510       ?copyInternalStateToCache@ArticulationV@Dy@physx@@UAEXAAVPxArticulationCache@3@V?$PxFlags@W4Enum@PxArticulationCache@physx@@E@3@@Z 10067510 f i LowLevelDynamics_static_32:DyArticulation.obj
 0001:00066520       ?getCoefficentMatrix@ArticulationV@Dy@physx@@UAEXMIPBVPxContactJoint@3@IAAVPxArticulationCache@3@@Z 10067520 f i LowLevelDynamics_static_32:DyArticulation.obj
 0001:00066530       ?getCoefficentMatrixWithLoopJoints@ArticulationV@Dy@physx@@UAEXPAUArticulationLoopConstraint@23@IAAVPxArticulationCache@3@@Z 10067530 f i LowLevelDynamics_static_32:DyArticulation.obj
 0001:00066540       ?getCoriolisAndCentrifugalForce@ArticulationV@Dy@physx@@UAEXAAVPxArticulationCache@3@@Z 10067540 f i LowLevelDynamics_static_32:DyArticulation.obj
 0001:00066550       ?getCurrentTransform@Articulation@Dy@physx@@UBEABVPxTransform@3@I@Z 10067550 f i LowLevelDynamics_static_32:DyArticulation.obj
 0001:00066570       ?getDeltaQ@Articulation@Dy@physx@@UBEABVPxQuat@3@I@Z 10067570 f i LowLevelDynamics_static_32:DyArticulation.obj
 0001:00066580       ?getDof@ArticulationV@Dy@physx@@UAEII@Z 10067580 f i LowLevelDynamics_static_32:DyArticulation.obj
 0001:00066590       ?getDofs@ArticulationV@Dy@physx@@UAEIXZ 10067590 f i LowLevelDynamics_static_32:DyArticulation.obj
 0001:000665a0       ?getGeneralizedExternalForce@ArticulationV@Dy@physx@@UAEXAAVPxArticulationCache@3@@Z 100675a0 f i LowLevelDynamics_static_32:DyArticulation.obj
 0001:000665b0       ?getGeneralizedGravityForce@ArticulationV@Dy@physx@@UAEXABVPxVec3@3@AAVPxArticulationCache@3@@Z 100675b0 f i LowLevelDynamics_static_32:DyArticulation.obj
 0001:000665c0       ?getGeneralizedMassMatrix@ArticulationV@Dy@physx@@UAEXAAVPxArticulationCache@3@@Z 100675c0 f i LowLevelDynamics_static_32:DyArticulation.obj
 0001:000665d0       ?getGeneralizedMassMatrixCRB@ArticulationV@Dy@physx@@UAEXAAVPxArticulationCache@3@@Z 100675d0 f i LowLevelDynamics_static_32:DyArticulation.obj
 0001:000665e0       ?getJointAcceleration@ArticulationV@Dy@physx@@UAEXABVPxVec3@3@AAVPxArticulationCache@3@@Z 100675e0 f i LowLevelDynamics_static_32:DyArticulation.obj
 0001:000665f0       ?getJointForce@ArticulationV@Dy@physx@@UAEXAAVPxArticulationCache@3@@Z 100675f0 f i LowLevelDynamics_static_32:DyArticulation.obj
 0001:00066600       ?getKinematicJacobian@ArticulationV@Dy@physx@@UAEXIAAVPxArticulationCache@3@@Z 10067600 f i LowLevelDynamics_static_32:DyArticulation.obj
 0001:00066610       ?getLambda@ArticulationV@Dy@physx@@UAE_NPAUArticulationLoopConstraint@23@IAAVPxArticulationCache@3@1PBMABVPxVec3@3@I@Z 10067610 f i LowLevelDynamics_static_32:DyArticulation.obj
 0001:00066620       ?growAndPushBack@?$Array@VSpatialVector@Cm@physx@@V?$ReflectionAllocator@VSpatialVector@Cm@physx@@@shdfnd@3@@shdfnd@physx@@IAEAAVSpatialVector@Cm@3@ABV453@@Z 10067620 f i LowLevelDynamics_static_32:DyArticulation.obj
 0001:00066780       ?initializeCommonData@ArticulationV@Dy@physx@@UAEXXZ 10067780 f i LowLevelDynamics_static_32:DyArticulation.obj
 0001:00066790       ?onUpdateSolverDesc@Articulation@Dy@physx@@UAEXXZ 10067790 f i LowLevelDynamics_static_32:DyArticulation.obj
 0001:000667c0       ?onUpdateSolverDesc@ArticulationV@Dy@physx@@UAEXXZ 100677c0 f i LowLevelDynamics_static_32:DyArticulation.obj
 0001:000667d0       ?packJointData@ArticulationV@Dy@physx@@UAEXPBMPAM@Z 100677d0 f i LowLevelDynamics_static_32:DyArticulation.obj
 0001:000667e0       ?pxcFsGetVelocityTGS@Articulation@Dy@physx@@UAE?AUSpatialVectorV@Cm@3@I@Z 100677e0 f i LowLevelDynamics_static_32:DyArticulation.obj
 0001:00066800       ?recreate@?$Array@UMat33V@aos@shdfnd@physx@@V?$ReflectionAllocator@UMat33V@aos@shdfnd@physx@@@34@@shdfnd@physx@@IAEXI@Z 10067800 f i LowLevelDynamics_static_32:DyArticulation.obj
 0001:000668e0       ?recreate@?$Array@USpatialVectorV@Cm@physx@@V?$ReflectionAllocator@USpatialVectorV@Cm@physx@@@shdfnd@3@@shdfnd@physx@@IAEXI@Z 100678e0 f i LowLevelDynamics_static_32:DyArticulation.obj
 0001:000669b0       ?recreate@?$Array@VPxQuat@physx@@V?$ReflectionAllocator@VPxQuat@physx@@@shdfnd@2@@shdfnd@physx@@IAEXI@Z 100679b0 f i LowLevelDynamics_static_32:DyArticulation.obj
 0001:00066b20       ?recreate@?$Array@VPxTransform@physx@@V?$ReflectionAllocator@VPxTransform@physx@@@shdfnd@2@@shdfnd@physx@@IAEXI@Z 10067b20 f i LowLevelDynamics_static_32:DyArticulation.obj
 0001:00066c50       ?removeBody@ArticulationV@Dy@physx@@UAEXXZ 10067c50 f i LowLevelDynamics_static_32:DyArticulation.obj
 0001:00066c60       ?resize@?$Array@DV?$ReflectionAllocator@D@shdfnd@physx@@@shdfnd@physx@@QAEXIABD@Z 10067c60 f i LowLevelDynamics_static_32:DyArticulation.obj
 0001:00066d20       ?resize@?$Array@UMat33V@aos@shdfnd@physx@@V?$ReflectionAllocator@UMat33V@aos@shdfnd@physx@@@34@@shdfnd@physx@@QAEXIABUMat33V@aos@23@@Z 10067d20 f i LowLevelDynamics_static_32:DyArticulation.obj
 0001:00066d80       ?resize@?$Array@USpatialVectorV@Cm@physx@@V?$ReflectionAllocator@USpatialVectorV@Cm@physx@@@shdfnd@3@@shdfnd@physx@@QAEXIABUSpatialVectorV@Cm@3@@Z 10067d80 f i LowLevelDynamics_static_32:DyArticulation.obj
 0001:00066dd0       ?resize@?$Array@VPxQuat@physx@@V?$ReflectionAllocator@VPxQuat@physx@@@shdfnd@2@@shdfnd@physx@@QAEXIABVPxQuat@3@@Z 10067dd0 f i LowLevelDynamics_static_32:DyArticulation.obj
 0001:00066ed0       ?resize@?$Array@VPxTransform@physx@@V?$ReflectionAllocator@VPxTransform@physx@@@shdfnd@2@@shdfnd@physx@@QAEXIABVPxTransform@3@@Z 10067ed0 f i LowLevelDynamics_static_32:DyArticulation.obj
 0001:00066f50       ?teleportRootLink@ArticulationV@Dy@physx@@UAEXXZ 10067f50 f i LowLevelDynamics_static_32:DyArticulation.obj
 0001:00066f60       ?unpackJointData@ArticulationV@Dy@physx@@UAEXPBMPAM@Z 10067f60 f i LowLevelDynamics_static_32:DyArticulation.obj
 0001:00066f70       ?setJointPose@ArticulationJointCore@Dy@physx@@QAEXAAVArticulationJointCoreData@23@@Z 10067f70 f   LowLevelDynamics_static_32:DyFeatherstoneArticulation.obj
 0001:000677c0       ??1ArticulationData@Dy@physx@@QAE@XZ 100687c0 f   LowLevelDynamics_static_32:DyFeatherstoneArticulation.obj
 0001:00067a70       ?resizeLinkData@ArticulationData@Dy@physx@@QAEXI@Z 10068a70 f   LowLevelDynamics_static_32:DyFeatherstoneArticulation.obj
 0001:00067ed0       ?resizeJointData@ArticulationData@Dy@physx@@QAEXI@Z 10068ed0 f   LowLevelDynamics_static_32:DyFeatherstoneArticulation.obj
 0001:00067fc0       ?getLinkData@ArticulationData@Dy@physx@@QBEAAVArticulationLinkData@23@I@Z 10068fc0 f   LowLevelDynamics_static_32:DyFeatherstoneArticulation.obj
 0001:00067fe0       ??0FeatherstoneArticulation@Dy@physx@@QAE@PAVArticulationSim@Sc@2@@Z 10068fe0 f   LowLevelDynamics_static_32:DyFeatherstoneArticulation.obj
 0001:00068290       ??1FeatherstoneArticulation@Dy@physx@@UAE@XZ 10069290 f   LowLevelDynamics_static_32:DyFeatherstoneArticulation.obj
 0001:00068300       ?getDataSizes@FeatherstoneArticulation@Dy@physx@@UAEXIAAI00@Z 10069300 f   LowLevelDynamics_static_32:DyFeatherstoneArticulation.obj
 0001:00068330       ?resize@FeatherstoneArticulation@Dy@physx@@UAE_NI@Z 10069330 f   LowLevelDynamics_static_32:DyFeatherstoneArticulation.obj
 0001:000683a0       ?onUpdateSolverDesc@FeatherstoneArticulation@Dy@physx@@UAEXXZ 100693a0 f   LowLevelDynamics_static_32:DyFeatherstoneArticulation.obj
 0001:000683e0       ?getDofs@FeatherstoneArticulation@Dy@physx@@UAEIXZ 100693e0 f   LowLevelDynamics_static_32:DyFeatherstoneArticulation.obj
 0001:00068400       ?getDof@FeatherstoneArticulation@Dy@physx@@UAEII@Z 10069400 f   LowLevelDynamics_static_32:DyFeatherstoneArticulation.obj
 0001:00068420       ?applyCache@FeatherstoneArticulation@Dy@physx@@UAEXAAVPxArticulationCache@3@V?$PxFlags@W4Enum@PxArticulationCache@physx@@E@3@@Z 10069420 f   LowLevelDynamics_static_32:DyFeatherstoneArticulation.obj
 0001:00068450       ?copyInternalStateToCache@FeatherstoneArticulation@Dy@physx@@UAEXAAVPxArticulationCache@3@V?$PxFlags@W4Enum@PxArticulationCache@physx@@E@3@@Z 10069450 f   LowLevelDynamics_static_32:DyFeatherstoneArticulation.obj
 0001:00068770       ?teleportRootLink@FeatherstoneArticulation@Dy@physx@@UAEXXZ 10069770 f   LowLevelDynamics_static_32:DyFeatherstoneArticulation.obj
 0001:00069540       ?getImpulseResponse@FeatherstoneArticulation@Dy@physx@@UBEXIPAUSpatialVectorF@Cm@3@ABVSpatialVector@53@AAV653@@Z 1006a540 f   LowLevelDynamics_static_32:DyFeatherstoneArticulation.obj
 0001:00069a40       ?getImpulseSelfResponse@FeatherstoneArticulation@Dy@physx@@UBEXIIPAUSpatialVectorF@Cm@3@ABVSpatialVector@53@1AAV653@2@Z 1006aa40 f   LowLevelDynamics_static_32:DyFeatherstoneArticulation.obj
 0001:00069a80       ?getLinkVelocity@FeatherstoneArticulation@Dy@physx@@UBE?AUSpatialVectorV@Cm@3@I@Z 1006aa80 f   LowLevelDynamics_static_32:DyFeatherstoneArticulation.obj
 0001:00069ad0       ?getLinkMotionVector@FeatherstoneArticulation@Dy@physx@@UBE?AUSpatialVectorV@Cm@3@I@Z 1006aad0 f   LowLevelDynamics_static_32:DyFeatherstoneArticulation.obj
 0001:00069b20       ?getMotionVelocity@FeatherstoneArticulation@Dy@physx@@UBE?AVSpatialVector@Cm@3@I@Z 1006ab20 f   LowLevelDynamics_static_32:DyFeatherstoneArticulation.obj
 0001:00069b70       ?getLinkMaxPenBias@FeatherstoneArticulation@Dy@physx@@UBEMI@Z 1006ab70 f   LowLevelDynamics_static_32:DyFeatherstoneArticulation.obj
 0001:00069b90       ?setupSolverConstraintsTGS@FeatherstoneArticulation@Dy@physx@@SAIABUArticulationSolverDesc@23@AAVPxcConstraintBlockStream@3@PAUPxTGSSolverConstraintDesc@23@MMMAAIAAVPxsConstraintBlockManager@3@PAUSpatialVectorF@Cm@3@@Z 1006ab90 f   LowLevelDynamics_static_32:DyFeatherstoneArticulation.obj
 0001:00069bf0       ?saveVelocity@FeatherstoneArticulation@Dy@physx@@SAXABUArticulationSolverDesc@23@PAUSpatialVectorF@Cm@3@@Z 1006abf0 f   LowLevelDynamics_static_32:DyFeatherstoneArticulation.obj
 0001:00069c50       ?saveVelocityTGS@FeatherstoneArticulation@Dy@physx@@SAXABUArticulationSolverDesc@23@M@Z 1006ac50 f   LowLevelDynamics_static_32:DyFeatherstoneArticulation.obj
 0001:00069c60       ?recordDeltaMotion@FeatherstoneArticulation@Dy@physx@@SAXABUArticulationSolverDesc@23@MPAUSpatialVectorF@Cm@3@@Z 1006ac60 f   LowLevelDynamics_static_32:DyFeatherstoneArticulation.obj
 0001:0006a560       ?deltaMotionToMotionVelocity@FeatherstoneArticulation@Dy@physx@@SAXABUArticulationSolverDesc@23@M@Z 1006b560 f   LowLevelDynamics_static_32:DyFeatherstoneArticulation.obj
 0001:0006a670       ?pxcFsApplyImpulse@FeatherstoneArticulation@Dy@physx@@UAEXIT__m128@@0PAUSpatialVectorF@Cm@3@1@Z 1006b670 f   LowLevelDynamics_static_32:DyFeatherstoneArticulation.obj
 0001:0006aab0       ?pxcFsApplyImpulses@FeatherstoneArticulation@Dy@physx@@UAEXIABT__m128@@0I00PAUSpatialVectorF@Cm@3@1@Z 1006bab0 f   LowLevelDynamics_static_32:DyFeatherstoneArticulation.obj
 0001:0006b7e0       ?pxcFsApplyImpulses@FeatherstoneArticulation@Dy@physx@@UAEXPAUSpatialVectorF@Cm@3@@Z 1006c7e0 f   LowLevelDynamics_static_32:DyFeatherstoneArticulation.obj
 0001:0006b9f0       ?pxcFsGetVelocity@FeatherstoneArticulation@Dy@physx@@UAE?AUSpatialVectorV@Cm@3@I@Z 1006c9f0 f   LowLevelDynamics_static_32:DyFeatherstoneArticulation.obj
 0001:0006c150       ?pxcFsGetVelocities@FeatherstoneArticulation@Dy@physx@@UAEXIIAAUSpatialVectorV@Cm@3@0@Z 1006d150 f   LowLevelDynamics_static_32:DyFeatherstoneArticulation.obj
 0001:0006cf10       ?pxcFsGetVelocityTGS@FeatherstoneArticulation@Dy@physx@@UAE?AUSpatialVectorV@Cm@3@I@Z 1006df10 f   LowLevelDynamics_static_32:DyFeatherstoneArticulation.obj
 0001:0006cf30       ?getCurrentTransform@FeatherstoneArticulation@Dy@physx@@UBEABVPxTransform@3@I@Z 1006df30 f   LowLevelDynamics_static_32:DyFeatherstoneArticulation.obj
 0001:0006cf50       ?getDeltaQ@FeatherstoneArticulation@Dy@physx@@UBEABVPxQuat@3@I@Z 1006df50 f   LowLevelDynamics_static_32:DyFeatherstoneArticulation.obj
 0001:0006cf60       ?applyImpulses@FeatherstoneArticulation@Dy@physx@@QAEXPAUSpatialVectorF@Cm@3@0@Z 1006df60 f   LowLevelDynamics_static_32:DyFeatherstoneArticulation.obj
 0001:0006d090       ?getDeltaV@FeatherstoneArticulation@Dy@physx@@QAEXPAUSpatialVectorF@Cm@3@0@Z 1006e090 f   LowLevelDynamics_static_32:DyFeatherstoneArticulation.obj
 0001:0006da00       ?propagateVelocity@FeatherstoneArticulation@Dy@physx@@SA?AUSpatialVectorF@Cm@3@ABVArticulationLinkData@23@ABVArticulationJointCoreData@23@ABU453@PAM2@Z 1006ea00 f   LowLevelDynamics_static_32:DyFeatherstoneArticulation.obj
 0001:0006e3b0       ?propagateVelocityTestImpulse@FeatherstoneArticulation@Dy@physx@@SA?AUSpatialVectorF@Cm@3@ABVArticulationLinkData@23@ABVArticulationJointCoreData@23@ABU453@2@Z 1006f3b0 f   LowLevelDynamics_static_32:DyFeatherstoneArticulation.obj
 0001:0006ed30       ?propagateImpulse@FeatherstoneArticulation@Dy@physx@@SA?AUSpatialVectorF@Cm@3@ABVArticulationLinkData@23@ABVArticulationJointCoreData@23@ABU453@@Z 1006fd30 f   LowLevelDynamics_static_32:DyFeatherstoneArticulation.obj
 0001:0006f200       ?copyJointData@FeatherstoneArticulation@Dy@physx@@AAEXAAVArticulationData@23@PAMPBM@Z 10070200 f   LowLevelDynamics_static_32:DyFeatherstoneArticulation.obj
 0001:0006f280       ?computeDofs@FeatherstoneArticulation@Dy@physx@@AAEXXZ 10070280 f   LowLevelDynamics_static_32:DyFeatherstoneArticulation.obj
 0001:0006f430       ?jcalc@FeatherstoneArticulation@Dy@physx@@AAEXAAVArticulationData@23@@Z 10070430 f   LowLevelDynamics_static_32:DyFeatherstoneArticulation.obj
 0001:0006f750       ?computeSpatialInertia@FeatherstoneArticulation@Dy@physx@@AAEXAAVArticulationData@23@@Z 10070750 f   LowLevelDynamics_static_32:DyFeatherstoneArticulation.obj
 0001:0006fa70       ?computeZ@FeatherstoneArticulation@Dy@physx@@AAEXAAVArticulationData@23@ABVPxVec3@3@AAUScratchData@23@@Z 10070a70 f   LowLevelDynamics_static_32:DyFeatherstoneArticulation.obj
 0001:000701d0       ?computeD@FeatherstoneArticulation@Dy@physx@@AAEXAAVArticulationData@23@AAUScratchData@23@PAUSpatialVectorF@Cm@3@2@Z 100711d0 f   LowLevelDynamics_static_32:DyFeatherstoneArticulation.obj
 0001:000709b0       ?solveInternalConstraints@FeatherstoneArticulation@Dy@physx@@EAEXMMPAUSpatialVectorF@Cm@3@0_N@Z 100719b0 f   LowLevelDynamics_static_32:DyFeatherstoneArticulation.obj
 0001:00072bf0       ?computeC@FeatherstoneArticulation@Dy@physx@@AAEXAAVArticulationData@23@AAUScratchData@23@@Z 10073bf0 f   LowLevelDynamics_static_32:DyFeatherstoneArticulation.obj
 0001:00073130       ?computeRelativeTransformC2P@FeatherstoneArticulation@Dy@physx@@AAEXAAVArticulationData@23@@Z 10074130 f   LowLevelDynamics_static_32:DyFeatherstoneArticulation.obj
 0001:000737a0       ?computeRelativeTransformC2B@FeatherstoneArticulation@Dy@physx@@AAEXAAVArticulationData@23@@Z 100747a0 f   LowLevelDynamics_static_32:DyFeatherstoneArticulation.obj
 0001:00073dd0       ?computeLinkVelocities@FeatherstoneArticulation@Dy@physx@@AAEXAAVArticulationData@23@AAUScratchData@23@@Z 10074dd0 f   LowLevelDynamics_static_32:DyFeatherstoneArticulation.obj
 0001:000743e0       ?transformInertia@FeatherstoneArticulation@Dy@physx@@AAEXABUSpatialTransform@23@AAUSpatialMatrix@23@@Z 100753e0 f   LowLevelDynamics_static_32:DyFeatherstoneArticulation.obj
 0001:00075fd0       ?getDeltaVWithDeltaJV@FeatherstoneArticulation@Dy@physx@@CA?AUSpatialVectorF@Cm@3@_NIABVArticulationData@23@PAU453@PAM@Z 10076fd0 f   LowLevelDynamics_static_32:DyFeatherstoneArticulation.obj
 0001:00076460       ?getDeltaV@FeatherstoneArticulation@Dy@physx@@CA?AUSpatialVectorF@Cm@3@_NIABVArticulationData@23@PAU453@@Z 10077460 f   LowLevelDynamics_static_32:DyFeatherstoneArticulation.obj
 0001:000768e0       ?getZ@FeatherstoneArticulation@Dy@physx@@CAXIABVArticulationData@23@PAUSpatialVectorF@Cm@3@ABU563@@Z 100778e0 f   LowLevelDynamics_static_32:DyFeatherstoneArticulation.obj
 0001:00076a00       ?getImpulseResponse@FeatherstoneArticulation@Dy@physx@@CA?AUSpatialVectorF@Cm@3@I_NABVArticulationData@23@PAU453@ABU453@@Z 10077a00 f   LowLevelDynamics_static_32:DyFeatherstoneArticulation.obj
 0001:00076a40       ?getImpulseResponseWithJ@FeatherstoneArticulation@Dy@physx@@CA?AUSpatialVectorF@Cm@3@I_NABVArticulationData@23@PAU453@ABU453@PAM@Z 10077a40 f   LowLevelDynamics_static_32:DyFeatherstoneArticulation.obj
 0001:00076a80       ?getImpulseSelfResponse@FeatherstoneArticulation@Dy@physx@@SAXPAUArticulationLink@23@_NPAUSpatialVectorF@Cm@3@ABVArticulationData@23@IABUSpatialVectorV@63@AAU863@I45@Z 10077a80 f   LowLevelDynamics_static_32:DyFeatherstoneArticulation.obj
 0001:000776b0       ?createHardLimit@FeatherstoneArticulation@Dy@physx@@QAEXPAUArticulationLink@23@_NPAUSpatialVectorF@Cm@3@AAVArticulationData@23@IAAUSolverConstraint1DExt@23@ABVPxVec3@3@MM@Z 100786b0 f   LowLevelDynamics_static_32:DyFeatherstoneArticulation.obj
 0001:000778b0       ?createHardLimits@FeatherstoneArticulation@Dy@physx@@QAEXAAUSolverConstraint1DExt@23@0ABVPxVec3@3@MMMABUSpatialVectorV@Cm@3@2M@Z 100788b0 f   LowLevelDynamics_static_32:DyFeatherstoneArticulation.obj
 0001:00077a80       ?createTangentialSpring@FeatherstoneArticulation@Dy@physx@@QAEXPAUArticulationLink@23@_NPAUSpatialVectorF@Cm@3@AAVArticulationData@23@IAAUSolverConstraint1DExt@23@ABVPxVec3@3@MMM@Z 10078a80 f   LowLevelDynamics_static_32:DyFeatherstoneArticulation.obj
 0001:00077ca0       ?setupSolverConstraints@FeatherstoneArticulation@Dy@physx@@QAEIPAUArticulationLink@23@I_NAAVArticulationData@23@PAUSpatialVectorF@Cm@3@AAI@Z 10078ca0 f   LowLevelDynamics_static_32:DyFeatherstoneArticulation.obj
 0001:00077d00       ?setupInternalConstraints@FeatherstoneArticulation@Dy@physx@@QAEXPAUArticulationLink@23@I_NAAVArticulationData@23@PAUSpatialVectorF@Cm@3@MMM_N@Z 10078d00 f   LowLevelDynamics_static_32:DyFeatherstoneArticulation.obj
 0001:00079880       ?createHardLimitTGS@FeatherstoneArticulation@Dy@physx@@QAEXAAUSolverConstraint1DExtStep@23@ABVPxVec3@3@MMABUSpatialVectorV@Cm@3@2M@Z 1007a880 f   LowLevelDynamics_static_32:DyFeatherstoneArticulation.obj
 0001:00079990       ?createTangentialSpringTGS@FeatherstoneArticulation@Dy@physx@@QAEXPAUArticulationLink@23@_NPAUSpatialVectorF@Cm@3@AAVArticulationData@23@IAAUSolverConstraint1DExtStep@23@ABVPxVec3@3@MMM@Z 1007a990 f   LowLevelDynamics_static_32:DyFeatherstoneArticulation.obj
 0001:00079bd0       ?teleportLinks@FeatherstoneArticulation@Dy@physx@@QAEXAAVArticulationData@23@@Z 1007abd0 f   LowLevelDynamics_static_32:DyFeatherstoneArticulation.obj
 0001:0007a8e0       ?allocateScratchSpatialData@FeatherstoneArticulation@Dy@physx@@QAEPAEPAVPxcScratchAllocator@3@IAAUScratchData@23@_N@Z 1007b8e0 f   LowLevelDynamics_static_32:DyFeatherstoneArticulation.obj
 0001:0007a9c0       ?propagateTransform@FeatherstoneArticulation@Dy@physx@@QAE?AVPxTransform@3@IPAUArticulationLink@23@AAVArticulationJointCoreData@23@PAUSpatialVectorF@Cm@3@MABV43@3PAM44@Z 1007b9c0 f   LowLevelDynamics_static_32:DyFeatherstoneArticulation.obj
 0001:0007bca0       ?PxvRegisterArticulationsReducedCoordinate@Dy@physx@@YAXXZ 1007cca0 f   LowLevelDynamics_static_32:DyFeatherstoneArticulation.obj
 0001:0007bd10       ?PxcFsFlushVelocity@Dy@physx@@YAXAAVFeatherstoneArticulation@12@PAUSpatialVectorF@Cm@2@@Z 1007cd10 f   LowLevelDynamics_static_32:DyFeatherstoneArticulation.obj
 0001:0007c6b0       ?getImpulseResponseSlow@Dy@physx@@YAXPAUArticulationLink@12@ABVArticulationData@12@IABVSpatialVector@Cm@2@AAV562@I23@Z 1007d6b0 f   LowLevelDynamics_static_32:DyFeatherstoneArticulation.obj
 0001:0007df60       ?createDriveOrLimit@Dy@physx@@YAXAAUSolverConstraint1DExt@12@MMM_N1ABUSpatialVectorV@Cm@2@2M@Z 1007ef60 f   LowLevelDynamics_static_32:DyFeatherstoneArticulation.obj
 0001:0007e020       ?createSpringDrive@Dy@physx@@YAXAAUSolverConstraint1DExt@12@MMMMMMABUSpatialVectorV@Cm@2@1M@Z 1007f020 f   LowLevelDynamics_static_32:DyFeatherstoneArticulation.obj
 0001:0007e120       ?createSpringDrive@Dy@physx@@YAXAAUSolverConstraint1DExtStep@12@MMMMMMMABUSpatialVectorV@Cm@2@1M@Z 1007f120 f   LowLevelDynamics_static_32:DyFeatherstoneArticulation.obj
 0001:0007e240       ?createDriveOrLimit@Dy@physx@@YAXAAUSolverConstraint1DExtStep@12@MMM_NMMM1ABUSpatialVectorV@Cm@2@2M@Z 1007f240 f   LowLevelDynamics_static_32:DyFeatherstoneArticulation.obj
 0001:0007e310       ??0SpatialVector@Cm@physx@@QAE@XZ 1007f310 f i LowLevelDynamics_static_32:DyFeatherstoneArticulation.obj
 0001:0007e320       ??0SpatialVectorF@Cm@physx@@QAE@XZ 1007f320 f i LowLevelDynamics_static_32:DyFeatherstoneArticulation.obj
 0001:0007e330       ??1SpatialVectorF@Cm@physx@@QAE@XZ 1007f330 f i LowLevelDynamics_static_32:DyFeatherstoneArticulation.obj
 0001:0007e340       ??DPxQuat@physx@@QBE?AV01@ABV01@@Z 1007f340 f i LowLevelDynamics_static_32:DyFeatherstoneArticulation.obj
 0001:0007e420       ??_EFeatherstoneArticulation@Dy@physx@@UAEPAXI@Z 1007f420 f i LowLevelDynamics_static_32:DyFeatherstoneArticulation.obj
 0001:0007e420       ??_GFeatherstoneArticulation@Dy@physx@@UAEPAXI@Z 1007f420 f i LowLevelDynamics_static_32:DyFeatherstoneArticulation.obj
 0001:0007e4a0       ?exp@shdfnd@physx@@YA?AVPxQuat@2@ABVPxVec3@2@@Z 1007f4a0 f i LowLevelDynamics_static_32:DyFeatherstoneArticulation.obj
 0001:0007e560       ?recreate@?$Array@MV?$ReflectionAllocator@M@shdfnd@physx@@@shdfnd@physx@@IAEXI@Z 1007f560 f i LowLevelDynamics_static_32:DyFeatherstoneArticulation.obj
 0001:0007e670       ?recreate@?$Array@UArticulationInternalConstraint@Dy@physx@@V?$ReflectionAllocator@UArticulationInternalConstraint@Dy@physx@@@shdfnd@3@@shdfnd@physx@@IAEXI@Z 1007f670 f i LowLevelDynamics_static_32:DyFeatherstoneArticulation.obj
 0001:0007e860       ?recreate@?$Array@UArticulationInternalLockedAxis@Dy@physx@@V?$ReflectionAllocator@UArticulationInternalLockedAxis@Dy@physx@@@shdfnd@3@@shdfnd@physx@@IAEXI@Z 1007f860 f i LowLevelDynamics_static_32:DyFeatherstoneArticulation.obj
 0001:0007e9b0       ?recreate@?$Array@USpatialVectorF@Cm@physx@@V?$ReflectionAllocator@USpatialVectorF@Cm@physx@@@shdfnd@3@@shdfnd@physx@@IAEXI@Z 1007f9b0 f i LowLevelDynamics_static_32:DyFeatherstoneArticulation.obj
 0001:0007eaa0       ?resizeUninitialized@?$Array@UArticulationInternalConstraint@Dy@physx@@V?$ReflectionAllocator@UArticulationInternalConstraint@Dy@physx@@@shdfnd@3@@shdfnd@physx@@QAEXI@Z 1007faa0 f i LowLevelDynamics_static_32:DyFeatherstoneArticulation.obj
 0001:0007ead0       ?resizeUninitialized@?$Array@UArticulationInternalLockedAxis@Dy@physx@@V?$ReflectionAllocator@UArticulationInternalLockedAxis@Dy@physx@@@shdfnd@3@@shdfnd@physx@@QAEXI@Z 1007fad0 f i LowLevelDynamics_static_32:DyFeatherstoneArticulation.obj
 0001:0007eb00       ?toRadiansAndUnitAxis@PxQuat@physx@@QBEXAAMAAVPxVec3@2@@Z 1007fb00 f i LowLevelDynamics_static_32:DyFeatherstoneArticulation.obj
 0001:0007ebf0       ?copyToSolverBodyData@Dy@physx@@YAXABVPxVec3@2@0M0ABVPxTransform@2@MMIMAAUPxSolverBodyData@2@I@Z 1007fbf0 f   LowLevelDynamics_static_32:DyRigidBodyToSolverBody.obj
 0001:0007efc0       ?createFinalizeSolverContacts@Dy@physx@@YA_NAAUPxSolverContactDesc@2@AAUPxsContactManagerOutput@2@AAVThreadContext@12@MMMMMAAVPxConstraintAllocator@2@PAUSpatialVectorF@Cm@2@@Z 1007ffc0 f   LowLevelDynamics_static_32:DyContactPrep.obj
 0001:0007f340       ?createFinalizeSolverContacts@Dy@physx@@YA_NAAUPxSolverContactDesc@2@AAUCorrelationBuffer@12@MMMMMAAVPxConstraintAllocator@2@PAUSpatialVectorF@Cm@2@@Z 10080340 f   LowLevelDynamics_static_32:DyContactPrep.obj
 0001:0007f7b0       ?getContactManagerConstraintDesc@Dy@physx@@YAIABUPxsContactManagerOutput@2@ABVPxsContactManager@2@AAUPxSolverConstraintDesc@2@@Z 100807b0 f   LowLevelDynamics_static_32:DyContactPrep.obj
 0001:0007f7d0       ?setupExtSolverContact@Dy@physx@@YA?AT__m128@@ABVSolverExtBody@12@0MMMMABVPxTransform@2@1ABT3@222222ABUContactPoint@Gu@2@AAUSolverContactPointExt@12@2PAUSpatialVectorF@Cm@2@@Z 100807d0 f   LowLevelDynamics_static_32:DyContactPrep.obj
 0001:0007fc00       ?getFrictionPatches@Dy@physx@@YA_NAAUCorrelationBuffer@12@PBEIABVPxTransform@2@2M@Z 10080c00 f i LowLevelDynamics_static_32:DyContactPrep.obj
 0001:000816d0       ?createFinalizeSolverContacts4@Dy@physx@@YA?AW4Enum@SolverConstraintPrepState@12@PAPAUPxsContactManagerOutput@2@AAVThreadContext@12@PAUPxSolverContactDesc@2@MMMMMAAVPxConstraintAllocator@2@@Z 100826d0 f   LowLevelDynamics_static_32:DyContactPrep4.obj
 0001:00081b30       ?createFinalizeSolverContacts4@Dy@physx@@YA?AW4Enum@SolverConstraintPrepState@12@AAUCorrelationBuffer@12@PAUPxSolverContactDesc@2@MMMMMAAVPxConstraintAllocator@2@@Z 10082b30 f   LowLevelDynamics_static_32:DyContactPrep4.obj
 0001:00081fc0       ?computeBlockStreamByteSizes4@Dy@physx@@YAXPAUPxSolverContactDesc@2@AAIPAIABUCorrelationBuffer@12@@Z 10082fc0 f   LowLevelDynamics_static_32:DyContactPrep4.obj
 0001:00085a10       ?setupSolverConstraint4@Dy@physx@@YA?AW4Enum@SolverConstraintPrepState@12@PIAUSolverConstraintShaderPrepDesc@12@PIAUPxSolverConstraintPrepDesc@2@MMAAIAAVPxConstraintAllocator@2@@Z 10086a10 f   LowLevelDynamics_static_32:DyConstraintSetupBlock.obj
 0001:00085bc0       ?setupSolverConstraint4@Dy@physx@@YA?AW4Enum@SolverConstraintPrepState@12@PIAUPxSolverConstraintPrepDesc@2@MMAAIAAVPxConstraintAllocator@2@I@Z 10086bc0 f   LowLevelDynamics_static_32:DyConstraintSetupBlock.obj
 0001:00086f30       ?SetupSolverConstraint@Dy@physx@@YAIAAUSolverConstraintShaderPrepDesc@12@AAUPxSolverConstraintPrepDesc@2@AAVPxConstraintAllocator@2@MMPAUSpatialVectorF@Cm@2@@Z 10087f30 f   LowLevelDynamics_static_32:DyConstraintSetup.obj
 0001:00087050       ?setupSolverConstraint@ConstraintHelper@Dy@physx@@SAIAAUPxSolverConstraintPrepDesc@3@AAVPxConstraintAllocator@3@MMPAUSpatialVectorF@Cm@3@@Z 10088050 f   LowLevelDynamics_static_32:DyConstraintSetup.obj
 0001:00087b00       ?preprocessRows@Dy@physx@@YAXPAPAUPx1DConstraint@2@PAU32@PAVPxVec4@2@2IABVPxMat33@2@3MMABUPxConstraintInvMassScale@2@_N55@Z 10088b00 f   LowLevelDynamics_static_32:DyConstraintSetup.obj
 0001:00089240       ?create@SolverCoreGeneral@Dy@physx@@SAPAV123@_N@Z 1008a240 f   LowLevelDynamics_static_32:DySolverControl.obj
 0001:00089270       ?destroyV@SolverCoreGeneral@Dy@physx@@UAEXXZ 1008a270 f   LowLevelDynamics_static_32:DySolverControl.obj
 0001:00089290       ?solveVParallelAndWriteBack@SolverCoreGeneral@Dy@physx@@UBEHAAUSolverIslandParams@23@PAUSpatialVectorF@Cm@3@1@Z 1008a290 f   LowLevelDynamics_static_32:DySolverControl.obj
 0001:0008a150       ?solveV_Blocks@SolverCoreGeneral@Dy@physx@@UBEXAAUSolverIslandParams@23@@Z 1008b150 f   LowLevelDynamics_static_32:DySolverControl.obj
 0001:0008a7c0       ?writeBackV@SolverCoreGeneral@Dy@physx@@UBEXPIBUPxSolverConstraintDesc@3@IPAUPxConstraintBatchHeader@3@IPIAUThresholdStreamElement@23@IAAIPAUPxSolverBodyData@3@QAP6AXPBU43@IAAUSolverContext@23@@Z@Z 1008b7c0 f   LowLevelDynamics_static_32:DySolverControl.obj
 0001:0008a850       ?solveVBlock@Dy@physx@@YAXPAVSolverCore@12@AAUSolverIslandParams@12@@Z 1008b850 f   LowLevelDynamics_static_32:DySolverControl.obj
 0001:0008a860       ?getSolveBlockTable@Dy@physx@@YAPAP6AXPBUPxSolverConstraintDesc@2@IAAUSolverContext@12@@ZXZ 1008b860 f   LowLevelDynamics_static_32:DySolverControl.obj
 0001:0008a870       ?getSolverConcludeBlockTable@Dy@physx@@YAPAP6AXPBUPxSolverConstraintDesc@2@IAAUSolverContext@12@@ZXZ 1008b870 f   LowLevelDynamics_static_32:DySolverControl.obj
 0001:0008a880       ?getSolveWritebackBlockTable@Dy@physx@@YAPAP6AXPBUPxSolverConstraintDesc@2@IAAUSolverContext@12@@ZXZ 1008b880 f   LowLevelDynamics_static_32:DySolverControl.obj
 0001:0008a890       ?SolverCoreRegisterArticulationFns@Dy@physx@@YAXXZ 1008b890 f   LowLevelDynamics_static_32:DySolverControl.obj
 0001:0008a8d0       ??0ThresholdStreamElement@Dy@physx@@QAE@XZ 1008b8d0 f i LowLevelDynamics_static_32:DySolverControl.obj
 0001:0008a8f0       ??1SolverCore@Dy@physx@@UAE@XZ 1008b8f0 f i LowLevelDynamics_static_32:DySolverControl.obj
 0001:0008a900       ??_GSolverCore@Dy@physx@@UAEPAXI@Z 1008b900 f i LowLevelDynamics_static_32:DySolverControl.obj
 0001:0008a900       ??_ESolverCore@Dy@physx@@UAEPAXI@Z 1008b900 f i LowLevelDynamics_static_32:DySolverControl.obj
 0001:0008a930       ??_ESolverCoreGeneral@Dy@physx@@UAEPAXI@Z 1008b930 f i LowLevelDynamics_static_32:DySolverControl.obj
 0001:0008a930       ??_GSolverCoreGeneral@Dy@physx@@UAEPAXI@Z 1008b930 f i LowLevelDynamics_static_32:DySolverControl.obj
 0001:0008a960       ?WaitForProgressCount@Dy@physx@@YAXPCHH@Z 1008b960 f i LowLevelDynamics_static_32:DySolverControl.obj
 0001:0008a9b0       ?setupSolverConstraintsTGS@Articulation@Dy@physx@@SAIABUArticulationSolverDesc@23@AAVPxcConstraintBlockStream@3@PAUPxTGSSolverConstraintDesc@23@MMMAAIAAVPxsConstraintBlockManager@3@PAUSpatialVectorF@Cm@3@@Z 1008b9b0 f   LowLevelDynamics_static_32:DyTGSContactPrep.obj
 0001:0008b840       ?createHardLimitTGS@ArticulationHelper@Dy@physx@@SAXABUFsData@23@PBUArticulationLink@23@IAAUSolverConstraint1DExtStep@23@ABVPxVec3@3@MM@Z 1008c840 f   LowLevelDynamics_static_32:DyTGSContactPrep.obj
 0001:0008ba40       ?createTangentialSpringTGS@ArticulationHelper@Dy@physx@@SAXABUFsData@23@PBUArticulationLink@23@IAAUSolverConstraint1DExtStep@23@ABVPxVec3@3@MMM@Z 1008ca40 f   LowLevelDynamics_static_32:DyTGSContactPrep.obj
 0001:0008bc80       ?projectVelocity@SolverExtBodyStep@Dy@physx@@QBEMABVPxVec3@3@0@Z 1008cc80 f   LowLevelDynamics_static_32:DyTGSContactPrep.obj
 0001:0008bd90       ?getLinVel@SolverExtBodyStep@Dy@physx@@QBE?AVPxVec3@3@XZ 1008cd90 f   LowLevelDynamics_static_32:DyTGSContactPrep.obj
 0001:0008be00       ?createImpulseResponseVector@Dy@physx@@YA?AVSpatialVector@Cm@2@ABVPxVec3@2@0ABVSolverExtBodyStep@12@@Z 1008ce00 f   LowLevelDynamics_static_32:DyTGSContactPrep.obj
 0001:0008bf00       ?getImpulseResponse@Dy@physx@@YAMABVSolverExtBodyStep@12@ABVSpatialVector@Cm@2@AAV452@MM012MM_N@Z 1008cf00 f   LowLevelDynamics_static_32:DyTGSContactPrep.obj
 0001:0008c3d0       ?setupFinalizeExtSolverContactsStep@Dy@physx@@YAXPBUContactPoint@Gu@2@ABUCorrelationBuffer@12@ABVPxTransform@2@2PAEABVSolverExtBodyStep@12@4MMMMMMMM3MMM@Z 1008d3d0 f   LowLevelDynamics_static_32:DyTGSContactPrep.obj
 0001:0008f200       ?createFinalizeSolverContactsStep@Dy@physx@@YA_NAAUPxTGSSolverContactDesc@12@AAUCorrelationBuffer@12@MMMMMAAVPxConstraintAllocator@2@@Z 10090200 f   LowLevelDynamics_static_32:DyTGSContactPrep.obj
 0001:0008f6d0       ?createFinalizeSolverContactsStep@Dy@physx@@YA_NAAUPxTGSSolverContactDesc@12@AAUPxsContactManagerOutput@2@AAVThreadContext@12@MMMMMAAVPxConstraintAllocator@2@@Z 100906d0 f   LowLevelDynamics_static_32:DyTGSContactPrep.obj
 0001:0008fa90       ?solveContact@Dy@physx@@YAXABUPxTGSSolverConstraintDesc@12@_NMM@Z 10090a90 f   LowLevelDynamics_static_32:DyTGSContactPrep.obj
 0001:00090050       ?writeBackContact@Dy@physx@@YAXABUPxTGSSolverConstraintDesc@12@PAUSolverContext@12@@Z 10091050 f   LowLevelDynamics_static_32:DyTGSContactPrep.obj
 0001:00090130       ?setSolverConstantsStep@Dy@physx@@YAXAAM000000ABUPx1DConstraint@2@MMMMMMMMM@Z 10091130 f   LowLevelDynamics_static_32:DyTGSContactPrep.obj
 0001:00090320       ?setupSolverConstraintStep@Dy@physx@@YAIABUPxTGSSolverConstraintPrepDesc@12@AAVPxConstraintAllocator@2@MMMMIM@Z 10091320 f   LowLevelDynamics_static_32:DyTGSContactPrep.obj
 0001:00091510       ?SetupSolverConstraintStep@Dy@physx@@YAIAAUSolverConstraintShaderPrepDesc@12@AAUPxTGSSolverConstraintPrepDesc@12@AAVPxConstraintAllocator@2@MMMMIM@Z 10092510 f   LowLevelDynamics_static_32:DyTGSContactPrep.obj
 0001:00091690       ?solveExt1DStep@Dy@physx@@YAXABUPxTGSSolverConstraintDesc@12@MAAUSolverContext@12@QBUPxTGSSolverBodyTxInertia@12@@Z 10092690 f   LowLevelDynamics_static_32:DyTGSContactPrep.obj
 0001:00091ff0       ?solve1DStep@Dy@physx@@YAXABUPxTGSSolverConstraintDesc@12@QBUPxTGSSolverBodyTxInertia@12@M@Z 10092ff0 f   LowLevelDynamics_static_32:DyTGSContactPrep.obj
 0001:00092b90       ?conclude1DStep@Dy@physx@@YAXABUPxTGSSolverConstraintDesc@12@@Z 10093b90 f   LowLevelDynamics_static_32:DyTGSContactPrep.obj
 0001:00092be0       ?concludeContact@Dy@physx@@YAXABUPxTGSSolverConstraintDesc@12@@Z 10093be0 f   LowLevelDynamics_static_32:DyTGSContactPrep.obj
 0001:00092bf0       ?writeBack1D@Dy@physx@@YAXABUPxTGSSolverConstraintDesc@12@@Z 10093bf0 f   LowLevelDynamics_static_32:DyTGSContactPrep.obj
 0001:00092e30       ?solveExtContactStep@Dy@physx@@YAXABUPxTGSSolverConstraintDesc@12@_NMMAAUSolverContext@12@@Z 10093e30 f   LowLevelDynamics_static_32:DyTGSContactPrep.obj
 0001:00093690       ?solveContactBlock@Dy@physx@@YAXABUPxConstraintBatchHeader@2@PBUPxTGSSolverConstraintDesc@12@_NMM@Z 10094690 f   LowLevelDynamics_static_32:DyTGSContactPrep.obj
 0001:000936e0       ?solve1DBlock@Dy@physx@@YAXABUPxConstraintBatchHeader@2@PBUPxTGSSolverConstraintDesc@12@QBUPxTGSSolverBodyTxInertia@12@M@Z 100946e0 f   LowLevelDynamics_static_32:DyTGSContactPrep.obj
 0001:00093730       ?solveExtContactBlock@Dy@physx@@YAXABUPxConstraintBatchHeader@2@PBUPxTGSSolverConstraintDesc@12@_NMMAAUSolverContext@12@@Z 10094730 f   LowLevelDynamics_static_32:DyTGSContactPrep.obj
 0001:00093790       ?solveExt1DBlock@Dy@physx@@YAXABUPxConstraintBatchHeader@2@PBUPxTGSSolverConstraintDesc@12@MAAUSolverContext@12@QBUPxTGSSolverBodyTxInertia@12@@Z 10094790 f   LowLevelDynamics_static_32:DyTGSContactPrep.obj
 0001:000937e0       ?writeBackContact@Dy@physx@@YAXABUPxConstraintBatchHeader@2@PBUPxTGSSolverConstraintDesc@12@PAUSolverContext@12@@Z 100947e0 f   LowLevelDynamics_static_32:DyTGSContactPrep.obj
 0001:00093820       ?writeBack1D@Dy@physx@@YAXABUPxConstraintBatchHeader@2@PBUPxTGSSolverConstraintDesc@12@@Z 10094820 f   LowLevelDynamics_static_32:DyTGSContactPrep.obj
 0001:00093a90       ?solveConclude1DBlock@Dy@physx@@YAXABUPxConstraintBatchHeader@2@PBUPxTGSSolverConstraintDesc@12@QBUPxTGSSolverBodyTxInertia@12@M@Z 10094a90 f   LowLevelDynamics_static_32:DyTGSContactPrep.obj
 0001:00093ae0       ?solveConclude1DBlockExt@Dy@physx@@YAXABUPxConstraintBatchHeader@2@PBUPxTGSSolverConstraintDesc@12@MAAUSolverContext@12@QBUPxTGSSolverBodyTxInertia@12@@Z 10094ae0 f   LowLevelDynamics_static_32:DyTGSContactPrep.obj
 0001:00093b30       ?solveConcludeContactBlock@Dy@physx@@YAXABUPxConstraintBatchHeader@2@PBUPxTGSSolverConstraintDesc@12@M@Z 10094b30 f   LowLevelDynamics_static_32:DyTGSContactPrep.obj
 0001:00093b80       ?solveConcludeContactExtBlock@Dy@physx@@YAXABUPxConstraintBatchHeader@2@PBUPxTGSSolverConstraintDesc@12@MAAUSolverContext@12@@Z 10094b80 f   LowLevelDynamics_static_32:DyTGSContactPrep.obj
 0001:00093e40       ?ellipseClamp@shdfnd@physx@@YA?AVPxVec3@2@ABV32@0@Z 10094e40 f i LowLevelDynamics_static_32:DyTGSContactPrep.obj
 0001:00096560       ?getImpulseResponse@ArticulationHelper@Dy@physx@@SAXABUFsData@23@IABUSpatialVectorV@Cm@3@AAU563@@Z 10097560 f   LowLevelDynamics_static_32:DyArticulationHelper.obj
 0001:00096960       ?getImpulseSelfResponse@ArticulationHelper@Dy@physx@@SAXABUFsData@23@IABUSpatialVectorV@Cm@3@AAU563@I12@Z 10097960 f   LowLevelDynamics_static_32:DyArticulationHelper.obj
 0001:00097030       ?getLtbDataSize@ArticulationHelper@Dy@physx@@SAII@Z 10098030 f   LowLevelDynamics_static_32:DyArticulationHelper.obj
 0001:00097040       ?getFsDataSize@ArticulationHelper@Dy@physx@@SAII@Z 10098040 f   LowLevelDynamics_static_32:DyArticulationHelper.obj
 0001:00097050       ?createHardLimit@ArticulationHelper@Dy@physx@@SAXABUFsData@23@PBUArticulationLink@23@IAAUSolverConstraint1DExt@23@ABVPxVec3@3@MM@Z 10098050 f   LowLevelDynamics_static_32:DyArticulationHelper.obj
 0001:00097240       ?createTangentialSpring@ArticulationHelper@Dy@physx@@SAXABUFsData@23@PBUArticulationLink@23@IAAUSolverConstraint1DExt@23@ABVPxVec3@3@MMM@Z 10098240 f   LowLevelDynamics_static_32:DyArticulationHelper.obj
 0001:00097460       ?setupSolverConstraints@ArticulationHelper@Dy@physx@@SAIAAVArticulation@23@IAAVPxConstraintAllocator@3@PAUPxSolverConstraintDesc@3@PBUArticulationLink@23@PBUArticulationJointTransforms@23@MAAI@Z 10098460 f   LowLevelDynamics_static_32:DyArticulationHelper.obj
 0001:00098210       ?getImpulseResponseSlow@Dy@physx@@YAXABUFsData@12@IABUSpatialVectorV@Cm@2@AAU452@I12@Z 10099210 f   LowLevelDynamics_static_32:DyArticulationHelper.obj
 0001:00098be0       ?PxcFsGetImpulseResponse@Dy@physx@@YAXABUFsData@12@IABUSpatialVectorV@Cm@2@AAU452@@Z 10099be0 f   LowLevelDynamics_static_32:DyArticulationHelper.obj
 0001:00099020       ?PxcFsGetImpulseSelfResponse@Dy@physx@@YAXABUFsData@12@IABUSpatialVectorV@Cm@2@AAU452@I12@Z 1009a020 f   LowLevelDynamics_static_32:DyArticulationHelper.obj
 0001:00099150       ?propagateImpulse@?$ArticulationFnsSimd@VArticulationFnsSimdBase@Dy@physx@@@Dy@physx@@SA?AUSpatialVectorV@Cm@3@ABUFsRow@23@ABUFsJointVectors@23@AAT__m128@@ABU453@ABUFsRowAux@23@@Z 1009a150 f i LowLevelDynamics_static_32:DyArticulationHelper.obj
 0001:00099220       ?propagateVelocity@?$ArticulationFnsSimd@VArticulationFnsSimdBase@Dy@physx@@@Dy@physx@@SA?AUSpatialVectorV@Cm@3@ABUFsRow@23@ABUFsJointVectors@23@ABT__m128@@ABU453@ABUFsRowAux@23@@Z 1009a220 f i LowLevelDynamics_static_32:DyArticulationHelper.obj
 0001:000993a0       ?create@SolverCoreGeneralPF@Dy@physx@@SAPAV123@XZ 1009a3a0 f   LowLevelDynamics_static_32:DySolverControlPF.obj
 0001:000993d0       ?destroyV@SolverCoreGeneralPF@Dy@physx@@UAEXXZ 1009a3d0 f   LowLevelDynamics_static_32:DySolverControlPF.obj
 0001:000993f0       ?solveVParallelAndWriteBack@SolverCoreGeneralPF@Dy@physx@@UBEHAAUSolverIslandParams@23@PAUSpatialVectorF@Cm@3@1@Z 1009a3f0 f   LowLevelDynamics_static_32:DySolverControlPF.obj
 0001:0009a4a0       ?solveV_Blocks@SolverCoreGeneralPF@Dy@physx@@UBEXAAUSolverIslandParams@23@@Z 1009b4a0 f   LowLevelDynamics_static_32:DySolverControlPF.obj
 0001:0009abe0       ?writeBackV@SolverCoreGeneralPF@Dy@physx@@UBEXPIBUPxSolverConstraintDesc@3@IPAUPxConstraintBatchHeader@3@IPIAUThresholdStreamElement@23@IAAIPAUPxSolverBodyData@3@QAP6AXPBU43@IAAUSolverContext@23@@Z@Z 1009bbe0 f   LowLevelDynamics_static_32:DySolverControlPF.obj
 0001:0009ac70       ?SolverCoreRegisterArticulationFnsCoulomb@Dy@physx@@YAXXZ 1009bc70 f   LowLevelDynamics_static_32:DySolverControlPF.obj
 0001:0009acd0       ??_GSolverCoreGeneralPF@Dy@physx@@UAEPAXI@Z 1009bcd0 f i LowLevelDynamics_static_32:DySolverControlPF.obj
 0001:0009acd0       ??_ESolverCoreGeneralPF@Dy@physx@@UAEPAXI@Z 1009bcd0 f i LowLevelDynamics_static_32:DySolverControlPF.obj
 0001:0009ad00       ?PxcFsGetMotionVector@Dy@physx@@YA?AUSpatialVectorV@Cm@2@AAVArticulationV@12@I@Z 1009bd00 f   LowLevelDynamics_static_32:DyArticulationSIMD.obj
 0001:0009ad20       ?PxcFsFlushVelocity@Dy@physx@@YAXAAUFsData@12@@Z 1009bd20 f   LowLevelDynamics_static_32:DyArticulationSIMD.obj
 0001:0009b1c0       ?packJointData@FeatherstoneArticulation@Dy@physx@@UAEXPBMPAM@Z 1009c1c0 f   LowLevelDynamics_static_32:DyFeatherstoneInverseDynamic.obj
 0001:0009b2a0       ?unpackJointData@FeatherstoneArticulation@Dy@physx@@UAEXPBMPAM@Z 1009c2a0 f   LowLevelDynamics_static_32:DyFeatherstoneInverseDynamic.obj
 0001:0009b330       ?initializeCommonData@FeatherstoneArticulation@Dy@physx@@UAEXXZ 1009c330 f   LowLevelDynamics_static_32:DyFeatherstoneInverseDynamic.obj
 0001:0009b360       ?getGeneralizedGravityForce@FeatherstoneArticulation@Dy@physx@@UAEXABVPxVec3@3@AAVPxArticulationCache@3@@Z 1009c360 f   LowLevelDynamics_static_32:DyFeatherstoneInverseDynamic.obj
 0001:0009b660       ?getCoriolisAndCentrifugalForce@FeatherstoneArticulation@Dy@physx@@UAEXAAVPxArticulationCache@3@@Z 1009c660 f   LowLevelDynamics_static_32:DyFeatherstoneInverseDynamic.obj
 0001:0009b7b0       ?getGeneralizedExternalForce@FeatherstoneArticulation@Dy@physx@@UAEXAAVPxArticulationCache@3@@Z 1009c7b0 f   LowLevelDynamics_static_32:DyFeatherstoneInverseDynamic.obj
 0001:0009bd10       ?getJointForce@FeatherstoneArticulation@Dy@physx@@UAEXAAVPxArticulationCache@3@@Z 1009cd10 f   LowLevelDynamics_static_32:DyFeatherstoneInverseDynamic.obj
 0001:0009be50       ?getKinematicJacobian@FeatherstoneArticulation@Dy@physx@@UAEXIAAVPxArticulationCache@3@@Z 1009ce50 f   LowLevelDynamics_static_32:DyFeatherstoneInverseDynamic.obj
 0001:0009bf30       ?getKMatrix@FeatherstoneArticulation@Dy@physx@@QAEXPAUArticulationJointCore@23@IIAAVPxArticulationCache@3@@Z 1009cf30 f   LowLevelDynamics_static_32:DyFeatherstoneInverseDynamic.obj
 0001:0009bf40       ?getCoefficentMatrix@FeatherstoneArticulation@Dy@physx@@UAEXMIPBVPxContactJoint@3@IAAVPxArticulationCache@3@@Z 1009cf40 f   LowLevelDynamics_static_32:DyFeatherstoneInverseDynamic.obj
 0001:0009c800       ?getCoefficentMatrixWithLoopJoints@FeatherstoneArticulation@Dy@physx@@UAEXPAUArticulationLoopConstraint@23@IAAVPxArticulationCache@3@@Z 1009d800 f   LowLevelDynamics_static_32:DyFeatherstoneInverseDynamic.obj
 0001:0009d180       ?getLambda@FeatherstoneArticulation@Dy@physx@@UAE_NPAUArticulationLoopConstraint@23@IAAVPxArticulationCache@3@1PBMABVPxVec3@3@I@Z 1009e180 f   LowLevelDynamics_static_32:DyFeatherstoneInverseDynamic.obj
 0001:0009d9f0       ?getGeneralizedMassMatrix@FeatherstoneArticulation@Dy@physx@@UAEXAAVPxArticulationCache@3@@Z 1009e9f0 f   LowLevelDynamics_static_32:DyFeatherstoneInverseDynamic.obj
 0001:0009dbf0       ?getGeneralizedMassMatrixCRB@FeatherstoneArticulation@Dy@physx@@UAEXAAVPxArticulationCache@3@@Z 1009ebf0 f   LowLevelDynamics_static_32:DyFeatherstoneInverseDynamic.obj
 0001:0009dc40       ?applyCacheToDest@FeatherstoneArticulation@Dy@physx@@QAEXAAVArticulationData@23@AAVPxArticulationCache@3@PAM222V?$PxFlags@W4Enum@PxArticulationCache@physx@@E@3@@Z 1009ec40 f   LowLevelDynamics_static_32:DyFeatherstoneInverseDynamic.obj
 0001:0009dd20       ?constraintPrep@FeatherstoneArticulation@Dy@physx@@AAEXPAUArticulationLoopConstraint@23@IPAUSpatialVectorF@Cm@3@AAUPxSolverConstraintPrepDesc@3@AAUPxSolverBody@3@AAUPxSolverBodyData@3@PAUPxSolverConstraintDesc@3@AAVPxConstraintAllocator@3@@Z 1009ed20 f   LowLevelDynamics_static_32:DyFeatherstoneInverseDynamic.obj
 0001:0009e0f0       ?jcalcLoopJointSubspace@FeatherstoneArticulation@Dy@physx@@AAEXPAUArticulationJointCore@23@AAVArticulationJointCoreData@23@AAUSpatialSubspaceMatrix@23@@Z 1009f0f0 f   LowLevelDynamics_static_32:DyFeatherstoneInverseDynamic.obj
 0001:0009f4c0       ?getImpulseSelfResponseInv@FeatherstoneArticulation@Dy@physx@@AAEX_NIIPAUSpatialVectorF@Cm@3@ABVSpatialVector@53@2AAV653@3PAM@Z 100a04c0 f   LowLevelDynamics_static_32:DyFeatherstoneInverseDynamic.obj
 0001:000a00b0       ?getImpulseResponseSlowInv@FeatherstoneArticulation@Dy@physx@@AAEXPAUArticulationLink@23@ABVArticulationData@23@IABVSpatialVector@Cm@3@AAV673@I23PAM@Z 100a10b0 f   LowLevelDynamics_static_32:DyFeatherstoneInverseDynamic.obj
 0001:000a19c0       ?getImpulseResponseInv@FeatherstoneArticulation@Dy@physx@@AAE?AUSpatialVectorF@Cm@3@_NIPAU453@ABVSpatialVector@53@PAM@Z 100a29c0 f   LowLevelDynamics_static_32:DyFeatherstoneInverseDynamic.obj
 0001:000a2190       ?inverseDynamic@FeatherstoneArticulation@Dy@physx@@AAEXAAVArticulationData@23@ABVPxVec3@3@AAUScratchData@23@@Z 100a3190 f   LowLevelDynamics_static_32:DyFeatherstoneInverseDynamic.obj
 0001:000a21e0       ?inverseDynamicFloatingBase@FeatherstoneArticulation@Dy@physx@@AAEXAAVArticulationData@23@ABVPxVec3@3@AAUScratchData@23@@Z 100a31e0 f   LowLevelDynamics_static_32:DyFeatherstoneInverseDynamic.obj
 0001:000a2240       ?computeZAForceInv@FeatherstoneArticulation@Dy@physx@@AAEXAAVArticulationData@23@AAUScratchData@23@@Z 100a3240 f   LowLevelDynamics_static_32:DyFeatherstoneInverseDynamic.obj
 0001:000a2550       ?initCompositeSpatialInertia@FeatherstoneArticulation@Dy@physx@@AAEXAAVArticulationData@23@PAUSpatialMatrix@23@@Z 100a3550 f   LowLevelDynamics_static_32:DyFeatherstoneInverseDynamic.obj
 0001:000a26b0       ?computeCompositeSpatialInertiaAndZAForceInv@FeatherstoneArticulation@Dy@physx@@AAEXAAVArticulationData@23@AAUScratchData@23@@Z 100a36b0 f   LowLevelDynamics_static_32:DyFeatherstoneInverseDynamic.obj
 0001:000a4700       ?computeRelativeGeneralizedForceInv@FeatherstoneArticulation@Dy@physx@@AAEXAAVArticulationData@23@AAUScratchData@23@@Z 100a5700 f   LowLevelDynamics_static_32:DyFeatherstoneInverseDynamic.obj
 0001:000a5f00       ?computeLinkAccelerationInv@FeatherstoneArticulation@Dy@physx@@AAEXAAVArticulationData@23@AAUScratchData@23@@Z 100a6f00 f   LowLevelDynamics_static_32:DyFeatherstoneInverseDynamic.obj
 0001:000a6470       ?computeGeneralizedForceInv@FeatherstoneArticulation@Dy@physx@@AAEXAAVArticulationData@23@AAUScratchData@23@@Z 100a7470 f   LowLevelDynamics_static_32:DyFeatherstoneInverseDynamic.obj
 0001:000a68b0       ?calculateMassMatrixColInv@FeatherstoneArticulation@Dy@physx@@AAEXAAUScratchData@23@@Z 100a78b0 f   LowLevelDynamics_static_32:DyFeatherstoneInverseDynamic.obj
 0001:000a7150       ?calculateHFixBase@FeatherstoneArticulation@Dy@physx@@AAEXAAVPxArticulationCache@3@@Z 100a8150 f   LowLevelDynamics_static_32:DyFeatherstoneInverseDynamic.obj
 0001:000a7780       ?calculateHFloatingBase@FeatherstoneArticulation@Dy@physx@@AAEXAAVPxArticulationCache@3@@Z 100a8780 f   LowLevelDynamics_static_32:DyFeatherstoneInverseDynamic.obj
 0001:000a9540       ?computeHi@Dy@physx@@YAIAAVArticulationData@12@IPAMPAUSpatialVectorF@Cm@2@@Z 100aa540 f   LowLevelDynamics_static_32:DyFeatherstoneInverseDynamic.obj
 0001:000a9bf0       ??0BlockBasedAllocator@Dy@physx@@QAE@XZ 100aabf0 f i LowLevelDynamics_static_32:DyFeatherstoneInverseDynamic.obj
 0001:000a9c20       ??0PxMat33@physx@@QAE@W4PxZERO@1@@Z 100aac20 f i LowLevelDynamics_static_32:DyFeatherstoneInverseDynamic.obj
 0001:000a9c70       ??0ScratchData@Dy@physx@@QAE@XZ 100aac70 f i LowLevelDynamics_static_32:DyFeatherstoneInverseDynamic.obj
 0001:000a9cc0       ??1ArticulationBlockAllocator@Dy@physx@@UAE@XZ 100aacc0 f i LowLevelDynamics_static_32:DyFeatherstoneInverseDynamic.obj
 0001:000a9d50       ??1BlockBasedAllocator@Dy@physx@@UAE@XZ 100aad50 f i LowLevelDynamics_static_32:DyFeatherstoneInverseDynamic.obj
 0001:000a9d90       ??1PxConstraintAllocator@physx@@UAE@XZ 100aad90 f i LowLevelDynamics_static_32:DyFeatherstoneInverseDynamic.obj
 0001:000a9da0       ??_EArticulationBlockAllocator@Dy@physx@@UAEPAXI@Z 100aada0 f i LowLevelDynamics_static_32:DyFeatherstoneInverseDynamic.obj
 0001:000a9da0       ??_GArticulationBlockAllocator@Dy@physx@@UAEPAXI@Z 100aada0 f i LowLevelDynamics_static_32:DyFeatherstoneInverseDynamic.obj
 0001:000a9dc0       ??_GBlockBasedAllocator@Dy@physx@@UAEPAXI@Z 100aadc0 f i LowLevelDynamics_static_32:DyFeatherstoneInverseDynamic.obj
 0001:000a9dc0       ??_EBlockBasedAllocator@Dy@physx@@UAEPAXI@Z 100aadc0 f i LowLevelDynamics_static_32:DyFeatherstoneInverseDynamic.obj
 0001:000a9e10       ??_EPxConstraintAllocator@physx@@UAEPAXI@Z 100aae10 f i LowLevelDynamics_static_32:DyFeatherstoneInverseDynamic.obj
 0001:000a9e10       ??_GPxConstraintAllocator@physx@@UAEPAXI@Z 100aae10 f i LowLevelDynamics_static_32:DyFeatherstoneInverseDynamic.obj
 0001:000a9e40       ?alloc@PxcScratchAllocator@physx@@QAEPAXI_N@Z 100aae40 f i LowLevelDynamics_static_32:DyFeatherstoneInverseDynamic.obj
 0001:000a9f00       ?allocate@BlockBasedAllocator@Dy@physx@@UAEPAEI@Z 100aaf00 f i LowLevelDynamics_static_32:DyFeatherstoneInverseDynamic.obj
 0001:000aa270       ?free@PxcScratchAllocator@physx@@QAEXPAX@Z 100ab270 f i LowLevelDynamics_static_32:DyFeatherstoneInverseDynamic.obj
 0001:000aa2f0       ?growAndPushBack@?$Array@PAUAllocationPage@BlockBasedAllocator@Dy@physx@@V?$ReflectionAllocator@PAUAllocationPage@BlockBasedAllocator@Dy@physx@@@shdfnd@4@@shdfnd@physx@@IAEAAPAUAllocationPage@BlockBasedAllocator@Dy@3@ABQAU4563@@Z 100ab2f0 f i LowLevelDynamics_static_32:DyFeatherstoneInverseDynamic.obj
 0001:000aa3f0       ?release@BlockBasedAllocator@Dy@physx@@QAEXXZ 100ab3f0 f i LowLevelDynamics_static_32:DyFeatherstoneInverseDynamic.obj
 0001:000aa440       ?reserveConstraintData@ArticulationBlockAllocator@Dy@physx@@UAEPAEI@Z 100ab440 f i LowLevelDynamics_static_32:DyFeatherstoneInverseDynamic.obj
 0001:000aa450       ?reserveFrictionData@ArticulationBlockAllocator@Dy@physx@@UAEPAEI@Z 100ab450 f i LowLevelDynamics_static_32:DyFeatherstoneInverseDynamic.obj
 0001:000aa470       ?getJointAcceleration@FeatherstoneArticulation@Dy@physx@@UAEXABVPxVec3@3@AAVPxArticulationCache@3@@Z 100ab470 f   LowLevelDynamics_static_32:DyFeatherstoneForwardDynamic.obj
 0001:000aaec0       ?computeUnconstrainedVelocities@FeatherstoneArticulation@Dy@physx@@SAIABUArticulationSolverDesc@23@MAAVPxConstraintAllocator@3@PAUPxSolverConstraintDesc@3@AAIABVPxVec3@3@_KPAUSpatialVectorF@Cm@3@6@Z 100abec0 f   LowLevelDynamics_static_32:DyFeatherstoneForwardDynamic.obj
 0001:000aaef0       ?computeUnconstrainedVelocitiesTGS@FeatherstoneArticulation@Dy@physx@@SAXABUArticulationSolverDesc@23@MABVPxVec3@3@_KPAUSpatialVectorF@Cm@3@3@Z 100abef0 f   LowLevelDynamics_static_32:DyFeatherstoneForwardDynamic.obj
 0001:000aaf20       ?updateBodies@FeatherstoneArticulation@Dy@physx@@SAXABUArticulationSolverDesc@23@M@Z 100abf20 f   LowLevelDynamics_static_32:DyFeatherstoneForwardDynamic.obj
 0001:000aaf40       ?updateBodiesTGS@FeatherstoneArticulation@Dy@physx@@SAXABUArticulationSolverDesc@23@M@Z 100abf40 f   LowLevelDynamics_static_32:DyFeatherstoneForwardDynamic.obj
 0001:000aaf60       ?updateBodies@FeatherstoneArticulation@Dy@physx@@SAXABUArticulationSolverDesc@23@M_N@Z 100abf60 f   LowLevelDynamics_static_32:DyFeatherstoneForwardDynamic.obj
 0001:000ab360       ?updateArticulation@FeatherstoneArticulation@Dy@physx@@AAEXAAUScratchData@23@ABVPxVec3@3@PAUSpatialVectorF@Cm@3@2@Z 100ac360 f   LowLevelDynamics_static_32:DyFeatherstoneForwardDynamic.obj
 0001:000ab3f0       ?computeUnconstrainedVelocitiesInternal@FeatherstoneArticulation@Dy@physx@@AAEIAAIABVPxVec3@3@PAUSpatialVectorF@Cm@3@2@Z 100ac3f0 f   LowLevelDynamics_static_32:DyFeatherstoneForwardDynamic.obj
 0001:000ab620       ?computeUnconstrainedVelocitiesTGSInternal@FeatherstoneArticulation@Dy@physx@@AAEXABVPxVec3@3@PAUSpatialVectorF@Cm@3@1@Z 100ac620 f   LowLevelDynamics_static_32:DyFeatherstoneForwardDynamic.obj
 0001:000ab820       ?initLinks@FeatherstoneArticulation@Dy@physx@@AAEXAAVArticulationData@23@ABVPxVec3@3@AAUScratchData@23@PAUSpatialVectorF@Cm@3@3@Z 100ac820 f   LowLevelDynamics_static_32:DyFeatherstoneForwardDynamic.obj
 0001:000ab8a0       ?computeIs@FeatherstoneArticulation@Dy@physx@@AAEXAAVArticulationLinkData@23@AAVArticulationJointCoreData@23@@Z 100ac8a0 f   LowLevelDynamics_static_32:DyFeatherstoneForwardDynamic.obj
 0001:000abbf0       ?computePropagateSpatialInertia@FeatherstoneArticulation@Dy@physx@@AAE?AUSpatialMatrix@23@EAAVArticulationLinkData@23@AAVArticulationJointCoreData@23@@Z 100acbf0 f   LowLevelDynamics_static_32:DyFeatherstoneForwardDynamic.obj
 0001:000ac910       ?computeArticulatedSpatialInertia@FeatherstoneArticulation@Dy@physx@@AAEXAAVArticulationData@23@@Z 100ad910 f   LowLevelDynamics_static_32:DyFeatherstoneForwardDynamic.obj
 0001:000ade10       ?computeArticulatedSpatialZ@FeatherstoneArticulation@Dy@physx@@AAEXAAVArticulationData@23@AAUScratchData@23@@Z 100aee10 f   LowLevelDynamics_static_32:DyFeatherstoneForwardDynamic.obj
 0001:000ae6a0       ?computeJointAcceleration@FeatherstoneArticulation@Dy@physx@@AAEXAAVArticulationLinkData@23@AAVArticulationJointCoreData@23@ABUSpatialVectorF@Cm@3@PAM@Z 100af6a0 f   LowLevelDynamics_static_32:DyFeatherstoneForwardDynamic.obj
 0001:000ae7e0       ?computeLinkAcceleration@FeatherstoneArticulation@Dy@physx@@AAEXAAVArticulationData@23@AAUScratchData@23@@Z 100af7e0 f   LowLevelDynamics_static_32:DyFeatherstoneForwardDynamic.obj
 0001:000af6f0       ?computeJointTransmittedFrictionForce@FeatherstoneArticulation@Dy@physx@@AAEXAAVArticulationData@23@AAUScratchData@23@PAUSpatialVectorF@Cm@3@2@Z 100b06f0 f   LowLevelDynamics_static_32:DyFeatherstoneForwardDynamic.obj
 0001:000afaa0       ?updateBodies@FeatherstoneArticulation@Dy@physx@@AAEXXZ 100b0aa0 f   LowLevelDynamics_static_32:DyFeatherstoneForwardDynamic.obj
 0001:000afb60       ?applyExternalImpulse@FeatherstoneArticulation@Dy@physx@@AAEXPAUArticulationLink@23@I_NAAVArticulationData@23@PAUSpatialVectorF@Cm@3@3MABVPxVec3@3@PAVSpatialVector@73@@Z 100b0b60 f   LowLevelDynamics_static_32:DyFeatherstoneForwardDynamic.obj
 0001:000b0960       ?enforcePrismaticLimits@FeatherstoneArticulation@Dy@physx@@AAEXPAMPAUArticulationJointCore@23@@Z 100b1960 f   LowLevelDynamics_static_32:DyFeatherstoneForwardDynamic.obj
 0001:000b09b0       ?propagateLinksDown@FeatherstoneArticulation@Dy@physx@@QAEXAAVArticulationData@23@PAM1PAUSpatialVectorF@Cm@3@@Z 100b19b0 f   LowLevelDynamics_static_32:DyFeatherstoneForwardDynamic.obj
 0001:000b1bd0       ?computeAndEnforceJointPositions@FeatherstoneArticulation@Dy@physx@@QAEXAAVArticulationData@23@PAM@Z 100b2bd0 f   LowLevelDynamics_static_32:DyFeatherstoneForwardDynamic.obj
 0001:000b1d30       ?updateRootBody@FeatherstoneArticulation@Dy@physx@@SAXABUSpatialVectorF@Cm@3@ABVPxTransform@3@AAVArticulationData@23@M@Z 100b2d30 f   LowLevelDynamics_static_32:DyFeatherstoneForwardDynamic.obj
 0001:000b1fe0       ?computeSphericalJointPositions@Dy@physx@@YA?AVPxQuat@2@PAUArticulationJointCore@12@V32@1PAM@Z 100b2fe0 f   LowLevelDynamics_static_32:DyFeatherstoneForwardDynamic.obj
 0001:000b2820       ??0PxMat33@physx@@QAE@W4PxIDENTITY@1@@Z 100b3820 f i LowLevelDynamics_static_32:DyFeatherstoneForwardDynamic.obj
 0001:000b2870       ??4SpatialMatrix@Dy@physx@@QAEAAU012@$$QAU012@@Z 100b3870 f i LowLevelDynamics_static_32:DyFeatherstoneForwardDynamic.obj
 0001:000b2920       ?constructSpatialMatrix@SpatialMatrix@Dy@physx@@SA?AU123@ABUSpatialVectorF@Cm@3@0@Z 100b3920 f i LowLevelDynamics_static_32:DyFeatherstoneForwardDynamic.obj
 0001:000b2bc0       ?getInverse@PxMat33@physx@@QBE?BV12@XZ 100b3bc0 f i LowLevelDynamics_static_32:DyFeatherstoneForwardDynamic.obj
 0001:000b2e10       ?getInverse@SpatialMatrix@Dy@physx@@QAE?AU123@XZ 100b3e10 f i LowLevelDynamics_static_32:DyFeatherstoneForwardDynamic.obj
 0001:000b3e00       ?createFinalizeSolverContactsCoulomb1D@Dy@physx@@YA_NAAUPxSolverContactDesc@2@AAUPxsContactManagerOutput@2@AAVThreadContext@12@MMMMMAAVPxConstraintAllocator@2@PAUSpatialVectorF@Cm@2@@Z 100b4e00 f   LowLevelDynamics_static_32:DyContactPrepPF.obj
 0001:000b3e60       ?createFinalizeSolverContactsCoulomb2D@Dy@physx@@YA_NAAUPxSolverContactDesc@2@AAUPxsContactManagerOutput@2@AAVThreadContext@12@MMMMMAAVPxConstraintAllocator@2@PAUSpatialVectorF@Cm@2@@Z 100b4e60 f   LowLevelDynamics_static_32:DyContactPrepPF.obj
 0001:000b3ec0       ?createFinalizeSolverContactsCoulomb@Dy@physx@@YA_NAAUPxSolverContactDesc@2@AAUPxsContactManagerOutput@2@AAVThreadContext@12@MMMMMAAVPxConstraintAllocator@2@W4Enum@PxFrictionType@2@PAUSpatialVectorF@Cm@2@@Z 100b4ec0 f   LowLevelDynamics_static_32:DyContactPrepPF.obj
 0001:000b5370       ?createContactPatches@Dy@physx@@YA_NAAUCorrelationBuffer@12@PBUContactPoint@Gu@2@IM@Z 100b6370 f   LowLevelDynamics_static_32:DyFrictionCorrelation.obj
 0001:000b5650       ?correlatePatches@Dy@physx@@YA_NAAUCorrelationBuffer@12@PBUContactPoint@Gu@2@ABVPxTransform@2@2MII@Z 100b6650 f   LowLevelDynamics_static_32:DyFrictionCorrelation.obj
 0001:000b5c90       ?growPatches@Dy@physx@@YAXAAUCorrelationBuffer@12@PBUContactPoint@Gu@2@ABVPxTransform@2@2MIM@Z 100b6c90 f   LowLevelDynamics_static_32:DyFrictionCorrelation.obj
 0001:000b64d0       ?projectVelocity@SolverExtBody@Dy@physx@@QBEMABVPxVec3@3@0@Z 100b74d0 f   LowLevelDynamics_static_32:DyArticulationContactPrep.obj
 0001:000b65e0       ?getLinVel@SolverExtBody@Dy@physx@@QBE?AVPxVec3@3@XZ 100b75e0 f   LowLevelDynamics_static_32:DyArticulationContactPrep.obj
 0001:000b6650       ?getAngVel@SolverExtBody@Dy@physx@@QBE?AVPxVec3@3@XZ 100b7650 f   LowLevelDynamics_static_32:DyArticulationContactPrep.obj
 0001:000b66c0       ?getImpulseResponse@Dy@physx@@YAMABVSolverExtBody@12@ABVSpatialVector@Cm@2@AAV452@MM012MMPAUSpatialVectorF@52@_N@Z 100b76c0 f   LowLevelDynamics_static_32:DyArticulationContactPrep.obj
 0001:000b69b0       ?createImpulseResponseVector@Dy@physx@@YA?AVSpatialVector@Cm@2@ABVPxVec3@2@0ABVSolverExtBody@12@@Z 100b79b0 f   LowLevelDynamics_static_32:DyArticulationContactPrep.obj
 0001:000b6ab0       ?setupFinalizeExtSolverContacts@Dy@physx@@YAXPBUContactPoint@Gu@2@ABUCorrelationBuffer@12@ABVPxTransform@2@2PAEABVSolverExtBody@12@4MMMMMMM3MPAUSpatialVectorF@Cm@2@@Z 100b7ab0 f   LowLevelDynamics_static_32:DyArticulationContactPrep.obj
 0001:000b8150       ?createFinalizeSolverContacts4Coulomb1D@Dy@physx@@YA?AW4Enum@SolverConstraintPrepState@12@PAPAUPxsContactManagerOutput@2@AAVThreadContext@12@PAUPxSolverContactDesc@2@MMMMMAAVPxConstraintAllocator@2@@Z 100b9150 f   LowLevelDynamics_static_32:DyContactPrep4PF.obj
 0001:000b81b0       ?createFinalizeSolverContacts4Coulomb2D@Dy@physx@@YA?AW4Enum@SolverConstraintPrepState@12@PAPAUPxsContactManagerOutput@2@AAVThreadContext@12@PAUPxSolverContactDesc@2@MMMMMAAVPxConstraintAllocator@2@@Z 100b91b0 f   LowLevelDynamics_static_32:DyContactPrep4PF.obj
 0001:000b8210       ?createFinalizeSolverContacts4Coulomb@Dy@physx@@YA?AW4Enum@SolverConstraintPrepState@12@PAPAUPxsContactManagerOutput@2@AAVThreadContext@12@PAUPxSolverContactDesc@2@MMMMMAAVPxConstraintAllocator@2@W43PxFrictionType@2@@Z 100b9210 f   LowLevelDynamics_static_32:DyContactPrep4PF.obj
 0001:000b88f0       ?computeBlockStreamByteSizesCoulomb4@Dy@physx@@YAXPAUPxSolverContactDesc@2@AAVThreadContext@12@ABUCorrelationBuffer@12@IAAIPAI3@Z 100b98f0 f   LowLevelDynamics_static_32:DyContactPrep4PF.obj
 0001:000bae50       ?solveExtContacts@Dy@physx@@YA?AT__m128@@PAUSolverContactPointExt@12@IABT3@AAT3@2222222PIAM@Z 100bbe50 f   LowLevelDynamics_static_32:DySolverConstraints.obj
 0001:000bafb0       ?solve1D@Dy@physx@@YAXABUPxSolverConstraintDesc@2@AAUSolverContext@12@@Z 100bbfb0 f   LowLevelDynamics_static_32:DySolverConstraints.obj
 0001:000bb1f0       ?conclude1D@Dy@physx@@YAXABUPxSolverConstraintDesc@2@AAUSolverContext@12@@Z 100bc1f0 f   LowLevelDynamics_static_32:DySolverConstraints.obj
 0001:000bb230       ?solveContact@Dy@physx@@YAXABUPxSolverConstraintDesc@2@AAUSolverContext@12@@Z 100bc230 f   LowLevelDynamics_static_32:DySolverConstraints.obj
 0001:000bb6f0       ?solveContact_BStatic@Dy@physx@@YAXABUPxSolverConstraintDesc@2@AAUSolverContext@12@@Z 100bc6f0 f   LowLevelDynamics_static_32:DySolverConstraints.obj
 0001:000bba50       ?concludeContact@Dy@physx@@YAXABUPxSolverConstraintDesc@2@AAUSolverContext@12@@Z 100bca50 f   LowLevelDynamics_static_32:DySolverConstraints.obj
 0001:000bbbd0       ?writeBackContact@Dy@physx@@YAXABUPxSolverConstraintDesc@2@AAUSolverContext@12@AAUPxSolverBodyData@2@2@Z 100bcbd0 f   LowLevelDynamics_static_32:DySolverConstraints.obj
 0001:000bbe60       ?writeBack1D@Dy@physx@@YAXABUPxSolverConstraintDesc@2@AAUSolverContext@12@AAUPxSolverBodyData@2@2@Z 100bce60 f   LowLevelDynamics_static_32:DySolverConstraints.obj
 0001:000bc010       ?solve1DBlock@Dy@physx@@YAXPIBUPxSolverConstraintDesc@2@IAAUSolverContext@12@@Z 100bd010 f   LowLevelDynamics_static_32:DySolverConstraints.obj
 0001:000bc2c0       ?solve1DConcludeBlock@Dy@physx@@YAXPIBUPxSolverConstraintDesc@2@IAAUSolverContext@12@@Z 100bd2c0 f   LowLevelDynamics_static_32:DySolverConstraints.obj
 0001:000bc3a0       ?solve1DBlockWriteBack@Dy@physx@@YAXPIBUPxSolverConstraintDesc@2@IAAUSolverContext@12@@Z 100bd3a0 f   LowLevelDynamics_static_32:DySolverConstraints.obj
 0001:000bc450       ?writeBack1DBlock@Dy@physx@@YAXPIBUPxSolverConstraintDesc@2@IAAUSolverContext@12@@Z 100bd450 f   LowLevelDynamics_static_32:DySolverConstraints.obj
 0001:000bc4e0       ?solveContactBlock@Dy@physx@@YAXPIBUPxSolverConstraintDesc@2@IAAUSolverContext@12@@Z 100bd4e0 f   LowLevelDynamics_static_32:DySolverConstraints.obj
 0001:000bc540       ?solveContactConcludeBlock@Dy@physx@@YAXPIBUPxSolverConstraintDesc@2@IAAUSolverContext@12@@Z 100bd540 f   LowLevelDynamics_static_32:DySolverConstraints.obj
 0001:000bc5b0       ?solveContactBlockWriteBack@Dy@physx@@YAXPIBUPxSolverConstraintDesc@2@IAAUSolverContext@12@@Z 100bd5b0 f   LowLevelDynamics_static_32:DySolverConstraints.obj
 0001:000bc6c0       ?solveContact_BStaticBlock@Dy@physx@@YAXPIBUPxSolverConstraintDesc@2@IAAUSolverContext@12@@Z 100bd6c0 f   LowLevelDynamics_static_32:DySolverConstraints.obj
 0001:000bca90       ?solveContact_BStaticConcludeBlock@Dy@physx@@YAXPIBUPxSolverConstraintDesc@2@IAAUSolverContext@12@@Z 100bda90 f   LowLevelDynamics_static_32:DySolverConstraints.obj
 0001:000bcb00       ?solveContact_BStaticBlockWriteBack@Dy@physx@@YAXPIBUPxSolverConstraintDesc@2@IAAUSolverContext@12@@Z 100bdb00 f   LowLevelDynamics_static_32:DySolverConstraints.obj
 0001:000bcc10       ?clearExt1D@Dy@physx@@YAXABUPxSolverConstraintDesc@2@AAUSolverContext@12@@Z 100bdc10 f   LowLevelDynamics_static_32:DySolverConstraints.obj
 0001:000bcc50       ?solveExt1D@Dy@physx@@YAXABUPxSolverConstraintDesc@2@AAUSolverContext@12@@Z 100bdc50 f   LowLevelDynamics_static_32:DySolverConstraints.obj
 0001:000bd0d0       ?solveExtContact@Dy@physx@@YAXABUPxSolverConstraintDesc@2@AAUSolverContext@12@@Z 100be0d0 f   LowLevelDynamics_static_32:DySolverConstraints.obj
 0001:000bd760       ?solveExtContactBlock@Dy@physx@@YAXPIBUPxSolverConstraintDesc@2@IAAUSolverContext@12@@Z 100be760 f   LowLevelDynamics_static_32:DySolverConstraints.obj
 0001:000bd790       ?solveExtContactConcludeBlock@Dy@physx@@YAXPIBUPxSolverConstraintDesc@2@IAAUSolverContext@12@@Z 100be790 f   LowLevelDynamics_static_32:DySolverConstraints.obj
 0001:000bd7c0       ?solveExtContactBlockWriteBack@Dy@physx@@YAXPIBUPxSolverConstraintDesc@2@IAAUSolverContext@12@@Z 100be7c0 f   LowLevelDynamics_static_32:DySolverConstraints.obj
 0001:000bd8a0       ?solveExt1DBlock@Dy@physx@@YAXPIBUPxSolverConstraintDesc@2@IAAUSolverContext@12@@Z 100be8a0 f   LowLevelDynamics_static_32:DySolverConstraints.obj
 0001:000bd8d0       ?solveExt1DConcludeBlock@Dy@physx@@YAXPIBUPxSolverConstraintDesc@2@IAAUSolverContext@12@@Z 100be8d0 f   LowLevelDynamics_static_32:DySolverConstraints.obj
 0001:000bd930       ?solveExt1DBlockWriteBack@Dy@physx@@YAXPIBUPxSolverConstraintDesc@2@IAAUSolverContext@12@@Z 100be930 f   LowLevelDynamics_static_32:DySolverConstraints.obj
 0001:000bd9b0       ?ext1DBlockWriteBack@Dy@physx@@YAXPIBUPxSolverConstraintDesc@2@IAAUSolverContext@12@@Z 100be9b0 f   LowLevelDynamics_static_32:DySolverConstraints.obj
 0001:000bdb80       ?solveConcludeExtContact@Dy@physx@@YAXABUPxSolverConstraintDesc@2@AAUSolverContext@12@@Z 100beb80 f   LowLevelDynamics_static_32:DySolverConstraints.obj
 0001:000bdba0       ?solveConcludeExt1D@Dy@physx@@YAXABUPxSolverConstraintDesc@2@AAUSolverContext@12@@Z 100beba0 f   LowLevelDynamics_static_32:DySolverConstraints.obj
 0001:000bdbf0       ?solveConclude1D@Dy@physx@@YAXABUPxSolverConstraintDesc@2@AAUSolverContext@12@@Z 100bebf0 f   LowLevelDynamics_static_32:DySolverConstraints.obj
 0001:000bdc40       ?solveConcludeContact@Dy@physx@@YAXABUPxSolverConstraintDesc@2@AAUSolverContext@12@@Z 100bec40 f   LowLevelDynamics_static_32:DySolverConstraints.obj
 0001:000bdc60       ?solveConcludeContact_BStatic@Dy@physx@@YAXABUPxSolverConstraintDesc@2@AAUSolverContext@12@@Z 100bec60 f   LowLevelDynamics_static_32:DySolverConstraints.obj
 0001:000bdc80       ?writeBackContact4_Block@Dy@physx@@YAXPIBUPxSolverConstraintDesc@2@AAUSolverContext@12@PIAPBUPxSolverBodyData@2@2@Z 100bec80 f   LowLevelDynamics_static_32:DySolverConstraintsBlock.obj
 0001:000bdfc0       ?writeBack1D4@Dy@physx@@YAXPIBUPxSolverConstraintDesc@2@AAUSolverContext@12@PIAPBUPxSolverBodyData@2@2@Z 100befc0 f   LowLevelDynamics_static_32:DySolverConstraintsBlock.obj
 0001:000be350       ?solveContactPreBlock@Dy@physx@@YAXPIBUPxSolverConstraintDesc@2@IAAUSolverContext@12@@Z 100bf350 f   LowLevelDynamics_static_32:DySolverConstraintsBlock.obj
 0001:000be370       ?solveContactPreBlock_Static@Dy@physx@@YAXPIBUPxSolverConstraintDesc@2@IAAUSolverContext@12@@Z 100bf370 f   LowLevelDynamics_static_32:DySolverConstraintsBlock.obj
 0001:000be390       ?solveContactPreBlock_Conclude@Dy@physx@@YAXPIBUPxSolverConstraintDesc@2@IAAUSolverContext@12@@Z 100bf390 f   LowLevelDynamics_static_32:DySolverConstraintsBlock.obj
 0001:000be3c0       ?solveContactPreBlock_ConcludeStatic@Dy@physx@@YAXPIBUPxSolverConstraintDesc@2@IAAUSolverContext@12@@Z 100bf3c0 f   LowLevelDynamics_static_32:DySolverConstraintsBlock.obj
 0001:000be3f0       ?solveContactPreBlock_WriteBack@Dy@physx@@YAXPIBUPxSolverConstraintDesc@2@IAAUSolverContext@12@@Z 100bf3f0 f   LowLevelDynamics_static_32:DySolverConstraintsBlock.obj
 0001:000be4d0       ?solveContactPreBlock_WriteBackStatic@Dy@physx@@YAXPIBUPxSolverConstraintDesc@2@IAAUSolverContext@12@@Z 100bf4d0 f   LowLevelDynamics_static_32:DySolverConstraintsBlock.obj
 0001:000be5b0       ?solve1D4_Block@Dy@physx@@YAXPIBUPxSolverConstraintDesc@2@IAAUSolverContext@12@@Z 100bf5b0 f   LowLevelDynamics_static_32:DySolverConstraintsBlock.obj
 0001:000be5d0       ?solve1D4Block_Conclude@Dy@physx@@YAXPIBUPxSolverConstraintDesc@2@IAAUSolverContext@12@@Z 100bf5d0 f   LowLevelDynamics_static_32:DySolverConstraintsBlock.obj
 0001:000be630       ?solve1D4Block_WriteBack@Dy@physx@@YAXPIBUPxSolverConstraintDesc@2@IAAUSolverContext@12@@Z 100bf630 f   LowLevelDynamics_static_32:DySolverConstraintsBlock.obj
 0001:000be660       ?writeBack1D4Block@Dy@physx@@YAXPIBUPxSolverConstraintDesc@2@IAAUSolverContext@12@@Z 100bf660 f   LowLevelDynamics_static_32:DySolverConstraintsBlock.obj
 0001:000c0120       ?solveContactCoulomb@Dy@physx@@YAXABUPxSolverConstraintDesc@2@AAUSolverContext@12@@Z 100c1120 f   LowLevelDynamics_static_32:DySolverPFConstraints.obj
 0001:000c0370       ?solveFriction@Dy@physx@@YAXABUPxSolverConstraintDesc@2@AAUSolverContext@12@@Z 100c1370 f   LowLevelDynamics_static_32:DySolverPFConstraints.obj
 0001:000c06e0       ?solveContactCoulomb_BStatic@Dy@physx@@YAXABUPxSolverConstraintDesc@2@AAUSolverContext@12@@Z 100c16e0 f   LowLevelDynamics_static_32:DySolverPFConstraints.obj
 0001:000c0870       ?solveFriction_BStatic@Dy@physx@@YAXABUPxSolverConstraintDesc@2@AAUSolverContext@12@@Z 100c1870 f   LowLevelDynamics_static_32:DySolverPFConstraints.obj
 0001:000c0ad0       ?concludeContactCoulomb@Dy@physx@@YAXABUPxSolverConstraintDesc@2@AAUSolverContext@12@@Z 100c1ad0 f   LowLevelDynamics_static_32:DySolverPFConstraints.obj
 0001:000c0bd0       ?writeBackContactCoulomb@Dy@physx@@YAXABUPxSolverConstraintDesc@2@AAUSolverContext@12@AAUPxSolverBodyData@2@2@Z 100c1bd0 f   LowLevelDynamics_static_32:DySolverPFConstraints.obj
 0001:000c0e10       ?solveFrictionBlock@Dy@physx@@YAXPIBUPxSolverConstraintDesc@2@IAAUSolverContext@12@@Z 100c1e10 f   LowLevelDynamics_static_32:DySolverPFConstraints.obj
 0001:000c11a0       ?solveFrictionBlockWriteBack@Dy@physx@@YAXPIBUPxSolverConstraintDesc@2@IAAUSolverContext@12@@Z 100c21a0 f   LowLevelDynamics_static_32:DySolverPFConstraints.obj
 0001:000c1530       ?solveFriction_BStaticBlock@Dy@physx@@YAXPIBUPxSolverConstraintDesc@2@IAAUSolverContext@12@@Z 100c2530 f   LowLevelDynamics_static_32:DySolverPFConstraints.obj
 0001:000c17b0       ?solveFriction_BStaticConcludeBlock@Dy@physx@@YAXPIBUPxSolverConstraintDesc@2@IAAUSolverContext@12@@Z 100c27b0 f   LowLevelDynamics_static_32:DySolverPFConstraints.obj
 0001:000c1a30       ?solveFriction_BStaticBlockWriteBack@Dy@physx@@YAXPIBUPxSolverConstraintDesc@2@IAAUSolverContext@12@@Z 100c2a30 f   LowLevelDynamics_static_32:DySolverPFConstraints.obj
 0001:000c1cb0       ?solveContactCoulombBlock@Dy@physx@@YAXPIBUPxSolverConstraintDesc@2@IAAUSolverContext@12@@Z 100c2cb0 f   LowLevelDynamics_static_32:DySolverPFConstraints.obj
 0001:000c1f20       ?solveContactCoulombConcludeBlock@Dy@physx@@YAXPIBUPxSolverConstraintDesc@2@IAAUSolverContext@12@@Z 100c2f20 f   LowLevelDynamics_static_32:DySolverPFConstraints.obj
 0001:000c1f50       ?solveContactCoulombBlockWriteBack@Dy@physx@@YAXPIBUPxSolverConstraintDesc@2@IAAUSolverContext@12@@Z 100c2f50 f   LowLevelDynamics_static_32:DySolverPFConstraints.obj
 0001:000c2000       ?solveContactCoulomb_BStaticBlock@Dy@physx@@YAXPIBUPxSolverConstraintDesc@2@IAAUSolverContext@12@@Z 100c3000 f   LowLevelDynamics_static_32:DySolverPFConstraints.obj
 0001:000c21b0       ?solveContactCoulomb_BStaticConcludeBlock@Dy@physx@@YAXPIBUPxSolverConstraintDesc@2@IAAUSolverContext@12@@Z 100c31b0 f   LowLevelDynamics_static_32:DySolverPFConstraints.obj
 0001:000c21e0       ?solveContactCoulomb_BStaticBlockWriteBack@Dy@physx@@YAXPIBUPxSolverConstraintDesc@2@IAAUSolverContext@12@@Z 100c31e0 f   LowLevelDynamics_static_32:DySolverPFConstraints.obj
 0001:000c2290       ?solveExtContactCoulomb@Dy@physx@@YAXABUPxSolverConstraintDesc@2@AAUSolverContext@12@@Z 100c3290 f   LowLevelDynamics_static_32:DySolverPFConstraints.obj
 0001:000c25a0       ?solveExtFriction@Dy@physx@@YAXABUPxSolverConstraintDesc@2@AAUSolverContext@12@@Z 100c35a0 f   LowLevelDynamics_static_32:DySolverPFConstraints.obj
 0001:000c2a40       ?solveExtFrictionBlock@Dy@physx@@YAXPIBUPxSolverConstraintDesc@2@IAAUSolverContext@12@@Z 100c3a40 f   LowLevelDynamics_static_32:DySolverPFConstraints.obj
 0001:000c2a70       ?solveExtFrictionConcludeBlock@Dy@physx@@YAXPIBUPxSolverConstraintDesc@2@IAAUSolverContext@12@@Z 100c3a70 f   LowLevelDynamics_static_32:DySolverPFConstraints.obj
 0001:000c2aa0       ?solveExtFrictionBlockWriteBack@Dy@physx@@YAXPIBUPxSolverConstraintDesc@2@IAAUSolverContext@12@@Z 100c3aa0 f   LowLevelDynamics_static_32:DySolverPFConstraints.obj
 0001:000c2ad0       ?solveConcludeExtContactCoulomb@Dy@physx@@YAXABUPxSolverConstraintDesc@2@AAUSolverContext@12@@Z 100c3ad0 f   LowLevelDynamics_static_32:DySolverPFConstraints.obj
 0001:000c2af0       ?solveExtContactCoulombBlock@Dy@physx@@YAXPIBUPxSolverConstraintDesc@2@IAAUSolverContext@12@@Z 100c3af0 f   LowLevelDynamics_static_32:DySolverPFConstraints.obj
 0001:000c2e30       ?solveExtContactCoulombConcludeBlock@Dy@physx@@YAXPIBUPxSolverConstraintDesc@2@IAAUSolverContext@12@@Z 100c3e30 f   LowLevelDynamics_static_32:DySolverPFConstraints.obj
 0001:000c2e60       ?solveExtContactCoulombBlockWriteBack@Dy@physx@@YAXPIBUPxSolverConstraintDesc@2@IAAUSolverContext@12@@Z 100c3e60 f   LowLevelDynamics_static_32:DySolverPFConstraints.obj
 0001:000c2f40       ?solveConcludeContactCoulomb@Dy@physx@@YAXABUPxSolverConstraintDesc@2@AAUSolverContext@12@@Z 100c3f40 f   LowLevelDynamics_static_32:DySolverPFConstraints.obj
 0001:000c2f60       ?solveConcludeContactCoulomb_BStatic@Dy@physx@@YAXABUPxSolverConstraintDesc@2@AAUSolverContext@12@@Z 100c3f60 f   LowLevelDynamics_static_32:DySolverPFConstraints.obj
 0001:000c2f80       ?writeBackContactCoulomb4@Dy@physx@@YAXPBUPxSolverConstraintDesc@2@AAUSolverContext@12@PIAPBUPxSolverBodyData@2@2@Z 100c3f80 f   LowLevelDynamics_static_32:DySolverPFConstraintsBlock.obj
 0001:000c3210       ?solveContactCoulombPreBlock@Dy@physx@@YAXPIBUPxSolverConstraintDesc@2@IAAUSolverContext@12@@Z 100c4210 f   LowLevelDynamics_static_32:DySolverPFConstraintsBlock.obj
 0001:000c3230       ?solveContactCoulombPreBlock_Static@Dy@physx@@YAXPIBUPxSolverConstraintDesc@2@IAAUSolverContext@12@@Z 100c4230 f   LowLevelDynamics_static_32:DySolverPFConstraintsBlock.obj
 0001:000c3250       ?solveContactCoulombPreBlock_Conclude@Dy@physx@@YAXPIBUPxSolverConstraintDesc@2@IAAUSolverContext@12@@Z 100c4250 f   LowLevelDynamics_static_32:DySolverPFConstraintsBlock.obj
 0001:000c3270       ?solveContactCoulombPreBlock_ConcludeStatic@Dy@physx@@YAXPIBUPxSolverConstraintDesc@2@IAAUSolverContext@12@@Z 100c4270 f   LowLevelDynamics_static_32:DySolverPFConstraintsBlock.obj
 0001:000c3290       ?solveContactCoulombPreBlock_WriteBack@Dy@physx@@YAXPIBUPxSolverConstraintDesc@2@IAAUSolverContext@12@@Z 100c4290 f   LowLevelDynamics_static_32:DySolverPFConstraintsBlock.obj
 0001:000c3370       ?solveContactCoulombPreBlock_WriteBackStatic@Dy@physx@@YAXPIBUPxSolverConstraintDesc@2@IAAUSolverContext@12@@Z 100c4370 f   LowLevelDynamics_static_32:DySolverPFConstraintsBlock.obj
 0001:000c3450       ?solveFrictionCoulombPreBlock@Dy@physx@@YAXPIBUPxSolverConstraintDesc@2@IAAUSolverContext@12@@Z 100c4450 f   LowLevelDynamics_static_32:DySolverPFConstraintsBlock.obj
 0001:000c3470       ?solveFrictionCoulombPreBlock_Static@Dy@physx@@YAXPIBUPxSolverConstraintDesc@2@IAAUSolverContext@12@@Z 100c4470 f   LowLevelDynamics_static_32:DySolverPFConstraintsBlock.obj
 0001:000c3490       ?solveFrictionCoulombPreBlock_Conclude@Dy@physx@@YAXPIBUPxSolverConstraintDesc@2@IAAUSolverContext@12@@Z 100c4490 f   LowLevelDynamics_static_32:DySolverPFConstraintsBlock.obj
 0001:000c34b0       ?solveFrictionCoulombPreBlock_ConcludeStatic@Dy@physx@@YAXPIBUPxSolverConstraintDesc@2@IAAUSolverContext@12@@Z 100c44b0 f   LowLevelDynamics_static_32:DySolverPFConstraintsBlock.obj
 0001:000c34d0       ?solveFrictionCoulombPreBlock_WriteBack@Dy@physx@@YAXPIBUPxSolverConstraintDesc@2@IAAUSolverContext@12@@Z 100c44d0 f   LowLevelDynamics_static_32:DySolverPFConstraintsBlock.obj
 0001:000c34f0       ?solveFrictionCoulombPreBlock_WriteBackStatic@Dy@physx@@YAXPIBUPxSolverConstraintDesc@2@IAAUSolverContext@12@@Z 100c44f0 f   LowLevelDynamics_static_32:DySolverPFConstraintsBlock.obj
 0001:000c4cb0       ?setupFinalizeExtSolverContactsCoulomb@Dy@physx@@YA_NABVContactBuffer@Gu@2@ABUCorrelationBuffer@12@ABVPxTransform@2@2PAEMMABVSolverExtBody@12@4IMMMMMMPAUSpatialVectorF@Cm@2@@Z 100c5cb0 f   LowLevelDynamics_static_32:DyArticulationContactPrepPF.obj
 0001:000c5980       ??0PruningStructure@Sq@physx@@QAE@V?$PxFlags@W4Enum@PxBaseFlag@physx@@G@2@@Z 100c6980 f   SceneQuery_static_32:SqPruningStructure.obj
 0001:000c59a0       ?resolveReferences@PruningStructure@Sq@physx@@UAEXAAVPxDeserializationContext@3@@Z 100c69a0 f   SceneQuery_static_32:SqPruningStructure.obj
 0001:000c59e0       ?createObject@PruningStructure@Sq@physx@@SAPAV123@AAPAEAAVPxDeserializationContext@3@@Z 100c69e0 f   SceneQuery_static_32:SqPruningStructure.obj
 0001:000c5af0       ?exportExtraData@PruningStructure@Sq@physx@@QAEXAAVPxSerializationContext@3@@Z 100c6af0 f   SceneQuery_static_32:SqPruningStructure.obj
 0001:000c5bb0       ?importExtraData@PruningStructure@Sq@physx@@QAEXAAVPxDeserializationContext@3@@Z 100c6bb0 f   SceneQuery_static_32:SqPruningStructure.obj
 0001:000c5c90       ?requiresObjects@PruningStructure@Sq@physx@@UAEXAAVPxProcessPxBaseCallback@3@@Z 100c6c90 f   SceneQuery_static_32:SqPruningStructure.obj
 0001:000c5cc0       ?getRigidActors@PruningStructure@Sq@physx@@UBEIPAPAVPxRigidActor@3@II@Z 100c6cc0 f   SceneQuery_static_32:SqPruningStructure.obj
 0001:000c5d40       ?release@PruningStructure@Sq@physx@@UAEXXZ 100c6d40 f   SceneQuery_static_32:SqPruningStructure.obj
 0001:000c5d90       ??0PruningStructure@Sq@physx@@QAE@XZ 100c6d90 f   SceneQuery_static_32:SqPruningStructure.obj
 0001:000c5df0       ??1PruningStructure@Sq@physx@@UAE@XZ 100c6df0 f   SceneQuery_static_32:SqPruningStructure.obj
 0001:000c5e70       ?build@PruningStructure@Sq@physx@@QAE_NPBQAVPxRigidActor@3@I@Z 100c6e70 f   SceneQuery_static_32:SqPruningStructure.obj
 0001:000c6440       ?invalidate@PruningStructure@Sq@physx@@QAEXPAVPxActor@3@@Z 100c7440 f   SceneQuery_static_32:SqPruningStructure.obj
 0001:000c64b0       ??1PxPruningStructure@physx@@MAE@XZ 100c74b0 f i SceneQuery_static_32:SqPruningStructure.obj
 0001:000c64c0       ??_GPruningStructure@Sq@physx@@UAEPAXI@Z 100c74c0 f i SceneQuery_static_32:SqPruningStructure.obj
 0001:000c64c0       ??_EPruningStructure@Sq@physx@@UAEPAXI@Z 100c74c0 f i SceneQuery_static_32:SqPruningStructure.obj
 0001:000c6570       ??_EPxPruningStructure@physx@@MAEPAXI@Z 100c7570 f i SceneQuery_static_32:SqPruningStructure.obj
 0001:000c6570       ??_GPxPruningStructure@physx@@MAEPAXI@Z 100c7570 f i SceneQuery_static_32:SqPruningStructure.obj
 0001:000c65a0       ?getConcreteTypeName@PxPruningStructure@physx@@UBEPBDXZ 100c75a0 f i SceneQuery_static_32:SqPruningStructure.obj
 0001:000c65b0       ?getNbRigidActors@PruningStructure@Sq@physx@@UBEIXZ 100c75b0 f i SceneQuery_static_32:SqPruningStructure.obj
 0001:000c65c0       ?isKindOf@PxPruningStructure@physx@@MBE_NPBD@Z 100c75c0 f i SceneQuery_static_32:SqPruningStructure.obj
 0001:000c6640       ??0PrunerExt@Sq@physx@@QAE@XZ 100c7640 f   SceneQuery_static_32:SqSceneQueryManager.obj
 0001:000c6680       ??1PrunerExt@Sq@physx@@QAE@XZ 100c7680 f   SceneQuery_static_32:SqSceneQueryManager.obj
 0001:000c66e0       ?init@PrunerExt@Sq@physx@@QAEXW4Enum@PxPruningStructureType@3@_KI@Z 100c76e0 f   SceneQuery_static_32:SqSceneQueryManager.obj
 0001:000c6840       ?flushMemory@PrunerExt@Sq@physx@@QAEXXZ 100c7840 f   SceneQuery_static_32:SqSceneQueryManager.obj
 0001:000c6870       ?preallocate@PrunerExt@Sq@physx@@QAEXI@Z 100c7870 f   SceneQuery_static_32:SqSceneQueryManager.obj
 0001:000c68a0       ?flushShapes@PrunerExt@Sq@physx@@QAEXI@Z 100c78a0 f   SceneQuery_static_32:SqSceneQueryManager.obj
 0001:000c6930       ?addToDirtyList@PrunerExt@Sq@physx@@QAEXI@Z 100c7930 f   SceneQuery_static_32:SqSceneQueryManager.obj
 0001:000c69a0       ?isDirty@PrunerExt@Sq@physx@@QBEHI@Z 100c79a0 f   SceneQuery_static_32:SqSceneQueryManager.obj
 0001:000c69d0       ?removeFromDirtyList@PrunerExt@Sq@physx@@QAEXI@Z 100c79d0 f   SceneQuery_static_32:SqSceneQueryManager.obj
 0001:000c6a30       ?growDirtyList@PrunerExt@Sq@physx@@QAEXI@Z 100c7a30 f   SceneQuery_static_32:SqSceneQueryManager.obj
 0001:000c6a80       ??0CompoundPrunerExt@Sq@physx@@QAE@XZ 100c7a80 f   SceneQuery_static_32:SqSceneQueryManager.obj
 0001:000c6ae0       ??1CompoundPrunerExt@Sq@physx@@QAE@XZ 100c7ae0 f   SceneQuery_static_32:SqSceneQueryManager.obj
 0001:000c6b10       ?flushMemory@CompoundPrunerExt@Sq@physx@@QAEXXZ 100c7b10 f   SceneQuery_static_32:SqSceneQueryManager.obj
 0001:000c6b20       ?preallocate@CompoundPrunerExt@Sq@physx@@QAEXI@Z 100c7b20 f   SceneQuery_static_32:SqSceneQueryManager.obj
 0001:000c6b40       ?flushShapes@CompoundPrunerExt@Sq@physx@@QAEXXZ 100c7b40 f   SceneQuery_static_32:SqSceneQueryManager.obj
 0001:000c6bf0       ?addToDirtyList@CompoundPrunerExt@Sq@physx@@QAEXII@Z 100c7bf0 f   SceneQuery_static_32:SqSceneQueryManager.obj
 0001:000c6ce0       ?isDirty@CompoundPrunerExt@Sq@physx@@QBEHII@Z 100c7ce0 f   SceneQuery_static_32:SqSceneQueryManager.obj
 0001:000c6d80       ?removeFromDirtyList@CompoundPrunerExt@Sq@physx@@QAEXII@Z 100c7d80 f   SceneQuery_static_32:SqSceneQueryManager.obj
 0001:000c6e60       ?sync@DynamicBoundsSync@Sq@physx@@UAEXPBI0PBVPxBounds3@3@IABV?$BitMapBase@VNonTrackingAllocator@shdfnd@physx@@@Cm@3@@Z 100c7e60 f   SceneQuery_static_32:SqSceneQueryManager.obj
 0001:000c6f40       ??0SceneQueryManager@Sq@physx@@QAE@AAVScene@Scb@2@W4Enum@PxPruningStructureType@2@1IABVPxSceneLimits@2@@Z 100c7f40 f   SceneQuery_static_32:SqSceneQueryManager.obj
 0001:000c71d0       ??1SceneQueryManager@Sq@physx@@QAE@XZ 100c81d0 f   SceneQuery_static_32:SqSceneQueryManager.obj
 0001:000c72a0       ?addPrunerShape@SceneQueryManager@Sq@physx@@QAEIABVShape@Scb@3@ABVActor@53@_NIPBVPxBounds3@3@2@Z 100c82a0 f   SceneQuery_static_32:SqSceneQueryManager.obj
 0001:000c7430       ?removePrunerShape@SceneQueryManager@Sq@physx@@QAEXII@Z 100c8430 f   SceneQuery_static_32:SqSceneQueryManager.obj
 0001:000c75b0       ?getPayload@SceneQueryManager@Sq@physx@@QBEABUPrunerPayload@23@II@Z 100c85b0 f   SceneQuery_static_32:SqSceneQueryManager.obj
 0001:000c75f0       ?addPruningStructure@SceneQueryManager@Sq@physx@@QAEXABVPruningStructure@23@@Z 100c85f0 f   SceneQuery_static_32:SqSceneQueryManager.obj
 0001:000c7660       ?addCompoundShape@SceneQueryManager@Sq@physx@@QAEXABVBVHStructure@Gu@3@IABVPxTransform@3@PAIPAPBVShape@Scb@3@ABVActor@83@@Z 100c8660 f   SceneQuery_static_32:SqSceneQueryManager.obj
 0001:000c7850       ?preallocate@SceneQueryManager@Sq@physx@@QAEXII@Z 100c8850 f   SceneQuery_static_32:SqSceneQueryManager.obj
 0001:000c78a0       ?markForUpdate@SceneQueryManager@Sq@physx@@QAEXII@Z 100c88a0 f   SceneQuery_static_32:SqSceneQueryManager.obj
 0001:000c7a20       ?setDynamicTreeRebuildRateHint@SceneQueryManager@Sq@physx@@QAEXI@Z 100c8a20 f   SceneQuery_static_32:SqSceneQueryManager.obj
 0001:000c7a60       ?flushUpdates@SceneQueryManager@Sq@physx@@QAEXXZ 100c8a60 f   SceneQuery_static_32:SqSceneQueryManager.obj
 0001:000c7ac0       ?forceDynamicTreeRebuild@SceneQueryManager@Sq@physx@@QAEX_N0@Z 100c8ac0 f   SceneQuery_static_32:SqSceneQueryManager.obj
 0001:000c7b20       ?sceneQueryBuildStep@SceneQueryManager@Sq@physx@@QAEXW4Enum@PruningIndex@23@@Z 100c8b20 f   SceneQuery_static_32:SqSceneQueryManager.obj
 0001:000c7b50       ?updateCompoundActors@SceneQueryManager@Sq@physx@@QAEXPBQAVBodyCore@Sc@3@I@Z 100c8b50 f   SceneQuery_static_32:SqSceneQueryManager.obj
 0001:000c7b90       ?updateCompoundActor@SceneQueryManager@Sq@physx@@QAEXIABVPxTransform@3@_N@Z 100c8b90 f   SceneQuery_static_32:SqSceneQueryManager.obj
 0001:000c7bc0       ?removeCompoundActor@SceneQueryManager@Sq@physx@@QAEXI_N@Z 100c8bc0 f   SceneQuery_static_32:SqSceneQueryManager.obj
 0001:000c7be0       ?prepareSceneQueriesUpdate@SceneQueryManager@Sq@physx@@QAE_NW4Enum@PruningIndex@23@@Z 100c8be0 f   SceneQuery_static_32:SqSceneQueryManager.obj
 0001:000c7c10       ?afterSync@SceneQueryManager@Sq@physx@@QAEXW4Enum@PxSceneQueryUpdateMode@3@@Z 100c8c10 f   SceneQuery_static_32:SqSceneQueryManager.obj
 0001:000c7c70       ?shiftOrigin@SceneQueryManager@Sq@physx@@QAEXABVPxVec3@3@@Z 100c8c70 f   SceneQuery_static_32:SqSceneQueryManager.obj
 0001:000c7cb0       ?flushMemory@SceneQueryManager@Sq@physx@@QAEXXZ 100c8cb0 f   SceneQuery_static_32:SqSceneQueryManager.obj
 0001:000c7d10       ?flushShapes@SceneQueryManager@Sq@physx@@AAEXXZ 100c8d10 f   SceneQuery_static_32:SqSceneQueryManager.obj
 0001:000c7e70       ??1SqBoundsSync@Sc@physx@@UAE@XZ 100c8e70 f i SceneQuery_static_32:SqSceneQueryManager.obj
 0001:000c7e80       ??_EDynamicBoundsSync@Sq@physx@@UAEPAXI@Z 100c8e80 f i SceneQuery_static_32:SqSceneQueryManager.obj
 0001:000c7e80       ??_GDynamicBoundsSync@Sq@physx@@UAEPAXI@Z 100c8e80 f i SceneQuery_static_32:SqSceneQueryManager.obj
 0001:000c7eb0       ??_ESqBoundsSync@Sc@physx@@UAEPAXI@Z 100c8eb0 f i SceneQuery_static_32:SqSceneQueryManager.obj
 0001:000c7eb0       ??_GSqBoundsSync@Sc@physx@@UAEPAXI@Z 100c8eb0 f i SceneQuery_static_32:SqSceneQueryManager.obj
 0001:000c7ee0       ?clear@?$HashSetBase@V?$Pair@II@shdfnd@physx@@U?$Hash@V?$Pair@II@shdfnd@physx@@@23@VNonTrackingAllocator@23@$00@internal@shdfnd@physx@@QAEXXZ 100c8ee0 f i SceneQuery_static_32:SqSceneQueryManager.obj
 0001:000c7f60       ?count@?$BitMapBase@VNonTrackingAllocator@shdfnd@physx@@@Cm@physx@@QBEIXZ 100c8f60 f i SceneQuery_static_32:SqSceneQueryManager.obj
 0001:000c8100       ?hash@?$HashBase@V?$Pair@II@shdfnd@physx@@V123@U?$Hash@V?$Pair@II@shdfnd@physx@@@23@UGetKey@?$HashSetBase@V?$Pair@II@shdfnd@physx@@U?$Hash@V?$Pair@II@shdfnd@physx@@@23@VNonTrackingAllocator@23@$00@internal@23@VNonTrackingAllocator@23@$00@internal@shdfnd@physx@@ABEIABV?$Pair@II@34@I@Z 100c9100 f i SceneQuery_static_32:SqSceneQueryManager.obj
 0001:000c8180       ?recreate@?$Array@IV?$ReflectionAllocator@I@shdfnd@physx@@@shdfnd@physx@@IAEXI@Z 100c9180 f i SceneQuery_static_32:SqSceneQueryManager.obj
 0001:000c8250       ?reserveInternal@?$HashBase@V?$Pair@II@shdfnd@physx@@V123@U?$Hash@V?$Pair@II@shdfnd@physx@@@23@UGetKey@?$HashSetBase@V?$Pair@II@shdfnd@physx@@U?$Hash@V?$Pair@II@shdfnd@physx@@@23@VNonTrackingAllocator@23@$00@internal@23@VNonTrackingAllocator@23@$00@internal@shdfnd@physx@@AAEXI@Z 100c9250 f i SceneQuery_static_32:SqSceneQueryManager.obj
 0001:000c8440       ?resize@?$Array@IV?$ReflectionAllocator@I@shdfnd@physx@@@shdfnd@physx@@QAEXIABI@Z 100c9440 f i SceneQuery_static_32:SqSceneQueryManager.obj
 0001:000c8500       ?init@BitArray@Sq@physx@@QAE_NI@Z 100c9500 f   SceneQuery_static_32:SqAABBTree.obj
 0001:000c8580       ?resize@BitArray@Sq@physx@@QAEXI@Z 100c9580 f   SceneQuery_static_32:SqAABBTree.obj
 0001:000c8620       ??0AABBTree@Sq@physx@@QAE@XZ 100c9620 f   SceneQuery_static_32:SqAABBTree.obj
 0001:000c8680       ??1AABBTree@Sq@physx@@QAE@XZ 100c9680 f   SceneQuery_static_32:SqAABBTree.obj
 0001:000c86c0       ?build@AABBTree@Sq@physx@@QAE_NAAVAABBTreeBuildParams@Gu@3@@Z 100c96c0 f   SceneQuery_static_32:SqAABBTree.obj
 0001:000c8730       ?progressiveBuild@AABBTree@Sq@physx@@QAEIAAVAABBTreeBuildParams@Gu@3@AAUBuildStats@53@II@Z 100c9730 f   SceneQuery_static_32:SqAABBTree.obj
 0001:000c8980       ?release@AABBTree@Sq@physx@@QAEX_N@Z 100c9980 f   SceneQuery_static_32:SqAABBTree.obj
 0001:000c8a50       ?mergeTree@AABBTree@Sq@physx@@QAEXABVAABBTreeMergeData@23@@Z 100c9a50 f   SceneQuery_static_32:SqAABBTree.obj
 0001:000c8cb0       ?initTree@AABBTree@Sq@physx@@QAEXABVAABBTreeMergeData@23@@Z 100c9cb0 f   SceneQuery_static_32:SqAABBTree.obj
 0001:000c8db0       ?shiftOrigin@AABBTree@Sq@physx@@QAEXABVPxVec3@3@@Z 100c9db0 f   SceneQuery_static_32:SqAABBTree.obj
 0001:000c8e60       ?shiftIndices@AABBTree@Sq@physx@@QAEXI@Z 100c9e60 f   SceneQuery_static_32:SqAABBTree.obj
 0001:000c8e80       ?buildInit@AABBTree@Sq@physx@@AAE_NAAVAABBTreeBuildParams@Gu@3@AAUBuildStats@53@@Z 100c9e80 f   SceneQuery_static_32:SqAABBTree.obj
 0001:000c8ec0       ?buildEnd@AABBTree@Sq@physx@@AAEXAAVAABBTreeBuildParams@Gu@3@AAUBuildStats@53@@Z 100c9ec0 f   SceneQuery_static_32:SqAABBTree.obj
 0001:000c90e0       ?mergeRuntimeNode@AABBTree@Sq@physx@@AAEXAAVAABBTreeRuntimeNode@23@ABVAABBTreeMergeData@23@I@Z 100ca0e0 f   SceneQuery_static_32:SqAABBTree.obj
 0001:000c9400       ?mergeRuntimeLeaf@AABBTree@Sq@physx@@AAEXAAVAABBTreeRuntimeNode@23@ABVAABBTreeMergeData@23@I@Z 100ca400 f   SceneQuery_static_32:SqAABBTree.obj
 0001:000c9610       ?addRuntimeChilds@AABBTree@Sq@physx@@AAEXAAIABVAABBTreeMergeData@23@@Z 100ca610 f   SceneQuery_static_32:SqAABBTree.obj
 0001:000c9710       ?traverseRuntimeNode@AABBTree@Sq@physx@@AAEXAAVAABBTreeRuntimeNode@23@ABVAABBTreeMergeData@23@I@Z 100ca710 f   SceneQuery_static_32:SqAABBTree.obj
 0001:000c9820       ?fullRefit@AABBTree@Sq@physx@@QAEXPBVPxBounds3@3@@Z 100ca820 f   SceneQuery_static_32:SqAABBTree.obj
 0001:000c9990       ?markNodeForRefit@AABBTree@Sq@physx@@QAEXI@Z 100ca990 f   SceneQuery_static_32:SqAABBTree.obj
 0001:000c9ac0       ?refitMarkedNodes@AABBTree@Sq@physx@@QAEXPBVPxBounds3@3@@Z 100caac0 f   SceneQuery_static_32:SqAABBTree.obj
 0001:000c9cb0       ?pop@FIFOStack@Sq@physx@@QAE_NAAPAVAABBTreeBuildNode@Gu@3@@Z 100cacb0 f   SceneQuery_static_32:SqAABBTree.obj
 0001:000c9cf0       ?flatten@@YAXABVNodeAllocator@Gu@physx@@PAVAABBTreeRuntimeNode@Sq@3@@Z 100cacf0 f   SceneQuery_static_32:SqAABBTree.obj
 0001:000c9e50       ??0AABBTreeRuntimeNode@Sq@physx@@QAE@XZ 100cae50 f i SceneQuery_static_32:SqAABBTree.obj
 0001:000c9e60       ??1AABBTreeRuntimeNode@Sq@physx@@QAE@XZ 100cae60 f i SceneQuery_static_32:SqAABBTree.obj
 0001:000c9e70       ??_EAABBTreeRuntimeNode@Sq@physx@@QAEPAXI@Z 100cae70 f i SceneQuery_static_32:SqAABBTree.obj
 0001:000c9fb0       ?growAndPushBack@?$Array@PAVAABBTreeBuildNode@Gu@physx@@V?$ReflectionAllocator@PAVAABBTreeBuildNode@Gu@physx@@@shdfnd@3@@shdfnd@physx@@IAEAAPAVAABBTreeBuildNode@Gu@3@ABQAV453@@Z 100cafb0 f i SceneQuery_static_32:SqAABBTree.obj
 0001:000ca0b0       ?computeStaticWorldAABB@Sq@physx@@YAXAAVPxBounds3@2@ABVShape@Scb@2@ABVActor@52@@Z 100cb0b0 f   SceneQuery_static_32:SqBounds.obj
 0001:000ca270       ?computeDynamicWorldAABB@Sq@physx@@YAXAAVPxBounds3@2@ABVShape@Scb@2@ABVActor@52@@Z 100cb270 f   SceneQuery_static_32:SqBounds.obj
 0001:000ca5e0       ??0BucketPrunerNode@Sq@physx@@QAE@XZ 100cb5e0 f   SceneQuery_static_32:SqBucketPruner.obj
 0001:000ca6f0       ?classifyBoxes@BucketPrunerNode@Sq@physx@@QAEXMMIPIAUBucketBox@23@PIBUPrunerPayload@23@0PIAU523@_NI@Z 100cb6f0 f   SceneQuery_static_32:SqBucketPruner.obj
 0001:000caa00       ??0BucketPrunerMap@Sq@physx@@QAE@XZ 100cba00 f   SceneQuery_static_32:SqBucketPruner.obj
 0001:000caa40       ??1BucketPrunerMap@Sq@physx@@QAE@XZ 100cba40 f   SceneQuery_static_32:SqBucketPruner.obj
 0001:000caa50       ?purge@BucketPrunerMap@Sq@physx@@QAEXXZ 100cba50 f   SceneQuery_static_32:SqBucketPruner.obj
 0001:000caac0       ?shrinkMemory@BucketPrunerMap@Sq@physx@@QAEXXZ 100cbac0 f   SceneQuery_static_32:SqBucketPruner.obj
 0001:000cab10       ?addPair@BucketPrunerMap@Sq@physx@@QAEPAUBucketPrunerPair@23@ABUPrunerPayload@23@II@Z 100cbb10 f   SceneQuery_static_32:SqBucketPruner.obj
 0001:000cad20       ?removePair@BucketPrunerMap@Sq@physx@@QAE_NABUPrunerPayload@23@AAI1@Z 100cbd20 f   SceneQuery_static_32:SqBucketPruner.obj
 0001:000cae90       ?findPair@BucketPrunerMap@Sq@physx@@QBEPBUBucketPrunerPair@23@ABUPrunerPayload@23@@Z 100cbe90 f   SceneQuery_static_32:SqBucketPruner.obj
 0001:000caf80       ?removePairInternal@BucketPrunerMap@Sq@physx@@QAEXABUPrunerPayload@23@II@Z 100cbf80 f   SceneQuery_static_32:SqBucketPruner.obj
 0001:000cb0d0       ?reallocPairs@BucketPrunerMap@Sq@physx@@QAEXXZ 100cc0d0 f   SceneQuery_static_32:SqBucketPruner.obj
 0001:000cb2c0       ?reserveMemory@BucketPrunerMap@Sq@physx@@QAEXI@Z 100cc2c0 f   SceneQuery_static_32:SqBucketPruner.obj
 0001:000cb310       ??0BucketPrunerCore@Sq@physx@@QAE@_N@Z 100cc310 f   SceneQuery_static_32:SqBucketPruner.obj
 0001:000cb510       ??1BucketPrunerCore@Sq@physx@@QAE@XZ 100cc510 f   SceneQuery_static_32:SqBucketPruner.obj
 0001:000cb5f0       ?release@BucketPrunerCore@Sq@physx@@QAEXXZ 100cc5f0 f   SceneQuery_static_32:SqBucketPruner.obj
 0001:000cb6c0       ?setExternalMemory@BucketPrunerCore@Sq@physx@@QAEXIPAVPxBounds3@3@PAUPrunerPayload@23@@Z 100cc6c0 f   SceneQuery_static_32:SqBucketPruner.obj
 0001:000cb6e0       ?addObject@BucketPrunerCore@Sq@physx@@QAE_NABUPrunerPayload@23@ABVPxBounds3@3@I@Z 100cc6e0 f   SceneQuery_static_32:SqBucketPruner.obj
 0001:000cb8f0       ?removeObject@BucketPrunerCore@Sq@physx@@QAE_NABUPrunerPayload@23@AAI@Z 100cc8f0 f   SceneQuery_static_32:SqBucketPruner.obj
 0001:000cbab0       ?updateObject@BucketPrunerCore@Sq@physx@@QAE_NABVPxBounds3@3@ABUPrunerPayload@23@@Z 100ccab0 f   SceneQuery_static_32:SqBucketPruner.obj
 0001:000cbaf0       ?removeMarkedObjects@BucketPrunerCore@Sq@physx@@QAEII@Z 100ccaf0 f   SceneQuery_static_32:SqBucketPruner.obj
 0001:000cbe00       ?raycast@BucketPrunerCore@Sq@physx@@QBE_NABVPxVec3@3@0AAMAAUPrunerCallback@23@@Z 100cce00 f   SceneQuery_static_32:SqBucketPruner.obj
 0001:000cbe40       ?overlap@BucketPrunerCore@Sq@physx@@QBE_NABVShapeData@Gu@3@AAUPrunerCallback@23@@Z 100cce40 f   SceneQuery_static_32:SqBucketPruner.obj
 0001:000cbf30       ?sweep@BucketPrunerCore@Sq@physx@@QBE_NABVShapeData@Gu@3@ABVPxVec3@3@AAMAAUPrunerCallback@23@@Z 100ccf30 f   SceneQuery_static_32:SqBucketPruner.obj
 0001:000cbfe0       ?shiftOrigin@BucketPrunerCore@Sq@physx@@QAEXABVPxVec3@3@@Z 100ccfe0 f   SceneQuery_static_32:SqBucketPruner.obj
 0001:000cc590       ?visualize@BucketPrunerCore@Sq@physx@@QBEXAAVRenderOutput@Cm@3@I@Z 100cd590 f   SceneQuery_static_32:SqBucketPruner.obj
 0001:000cc8d0       ?classifyBoxes@BucketPrunerCore@Sq@physx@@AAEXXZ 100cd8d0 f   SceneQuery_static_32:SqBucketPruner.obj
 0001:000cce30       ?allocateSortedMemory@BucketPrunerCore@Sq@physx@@AAEXI@Z 100cde30 f   SceneQuery_static_32:SqBucketPruner.obj
 0001:000ccf20       ?resizeCore@BucketPrunerCore@Sq@physx@@AAEXXZ 100cdf20 f   SceneQuery_static_32:SqBucketPruner.obj
 0001:000cd070       ??0BucketPruner@Sq@physx@@QAE@XZ 100ce070 f   SceneQuery_static_32:SqBucketPruner.obj
 0001:000cd0a0       ??1BucketPruner@Sq@physx@@UAE@XZ 100ce0a0 f   SceneQuery_static_32:SqBucketPruner.obj
 0001:000cd0d0       ?addObjects@BucketPruner@Sq@physx@@UAE_NPAIPBVPxBounds3@3@PBUPrunerPayload@23@I_N@Z 100ce0d0 f   SceneQuery_static_32:SqBucketPruner.obj
 0001:000cd140       ?removeObjects@BucketPruner@Sq@physx@@UAEXPBII@Z 100ce140 f   SceneQuery_static_32:SqBucketPruner.obj
 0001:000cd1b0       ?updateObjectsAfterManualBoundsUpdates@BucketPruner@Sq@physx@@UAEXPBII@Z 100ce1b0 f   SceneQuery_static_32:SqBucketPruner.obj
 0001:000cd1f0       ?updateObjectsAndInflateBounds@BucketPruner@Sq@physx@@UAEXPBI0PBVPxBounds3@3@I@Z 100ce1f0 f   SceneQuery_static_32:SqBucketPruner.obj
 0001:000cd2d0       ?commit@BucketPruner@Sq@physx@@UAEXXZ 100ce2d0 f   SceneQuery_static_32:SqBucketPruner.obj
 0001:000cd2e0       ?raycast@BucketPruner@Sq@physx@@UBE_NABVPxVec3@3@0AAMAAUPrunerCallback@23@@Z 100ce2e0 f   SceneQuery_static_32:SqBucketPruner.obj
 0001:000cd330       ?overlap@BucketPruner@Sq@physx@@UBE_NABVShapeData@Gu@3@AAUPrunerCallback@23@@Z 100ce330 f   SceneQuery_static_32:SqBucketPruner.obj
 0001:000cd460       ?sweep@BucketPruner@Sq@physx@@UBE_NABVShapeData@Gu@3@ABVPxVec3@3@AAMAAUPrunerCallback@23@@Z 100ce460 f   SceneQuery_static_32:SqBucketPruner.obj
 0001:000cd520       ?shiftOrigin@BucketPruner@Sq@physx@@UAEXABVPxVec3@3@@Z 100ce520 f   SceneQuery_static_32:SqBucketPruner.obj
 0001:000cd530       ?visualize@BucketPruner@Sq@physx@@UBEXAAVRenderOutput@Cm@3@I@Z 100ce530 f   SceneQuery_static_32:SqBucketPruner.obj
 0001:000ced60       ??0BucketBox@Sq@physx@@QAE@XZ 100cfd60 f i SceneQuery_static_32:SqBucketPruner.obj
 0001:000ced70       ??0OBBAABBTest_SIMD@@QAE@ABVPxMat33@physx@@ABVPxVec3@2@1@Z 100cfd70 f i SceneQuery_static_32:SqBucketPruner.obj
 0001:000ceeb0       ??1Pruner@Sq@physx@@UAE@XZ 100cfeb0 f i SceneQuery_static_32:SqBucketPruner.obj
 0001:000ceec0       ??R?$BucketPrunerOverlapTraversal@UBucketPrunerAABBAABBTest@@$00@@QBE_NABVBucketPrunerCore@Sq@physx@@ABUBucketPrunerAABBAABBTest@@AAUPrunerCallback@23@ABVPxBounds3@3@@Z 100cfec0 f i SceneQuery_static_32:SqBucketPruner.obj
 0001:000cf470       ??R?$BucketPrunerOverlapTraversal@UOBBAABBTest_SIMD@@$0A@@@QBE_NABVBucketPrunerCore@Sq@physx@@ABUOBBAABBTest_SIMD@@AAUPrunerCallback@23@ABVPxBounds3@3@@Z 100d0470 f i SceneQuery_static_32:SqBucketPruner.obj
 0001:000cfc60       ??R?$BucketPrunerOverlapTraversal@USphereAABBTest_SIMD@@$00@@QBE_NABVBucketPrunerCore@Sq@physx@@ABUSphereAABBTest_SIMD@@AAUPrunerCallback@23@ABVPxBounds3@3@@Z 100d0c60 f i SceneQuery_static_32:SqBucketPruner.obj
 0001:000d0160       ??_GBucketPruner@Sq@physx@@UAEPAXI@Z 100d1160 f i SceneQuery_static_32:SqBucketPruner.obj
 0001:000d0160       ??_EBucketPruner@Sq@physx@@UAEPAXI@Z 100d1160 f i SceneQuery_static_32:SqBucketPruner.obj
 0001:000d01c0       ??_GPruner@Sq@physx@@UAEPAXI@Z 100d11c0 f i SceneQuery_static_32:SqBucketPruner.obj
 0001:000d01c0       ??_EPruner@Sq@physx@@UAEPAXI@Z 100d11c0 f i SceneQuery_static_32:SqBucketPruner.obj
 0001:000d04d0       ?getPayload@BucketPruner@Sq@physx@@UBEABUPrunerPayload@23@I@Z 100d14d0 f i SceneQuery_static_32:SqBucketPruner.obj
 0001:000d04f0       ?getPayload@BucketPruner@Sq@physx@@UBEABUPrunerPayload@23@IAAPAVPxBounds3@3@@Z 100d14f0 f i SceneQuery_static_32:SqBucketPruner.obj
 0001:000d0520       ?merge@BucketPruner@Sq@physx@@UAEXPBX@Z 100d1520 f i SceneQuery_static_32:SqBucketPruner.obj
 0001:000d0530       ?preallocate@BucketPruner@Sq@physx@@UAEXI@Z 100d1530 f i SceneQuery_static_32:SqBucketPruner.obj
 0001:000d0820       ?visualize@Pruner@Sq@physx@@UBEXAAVRenderOutput@Cm@3@I@Z 100d1820 f i SceneQuery_static_32:SqBucketPruner.obj
 0001:000d0830       ?createAABBPruner@Sq@physx@@YAPAVIncrementalPruner@12@_N@Z 100d1830 f   SceneQuery_static_32:SqAABBPruner.obj
 0001:000d09c0       ??0AABBPruner@Sq@physx@@QAE@_N_K@Z 100d19c0 f   SceneQuery_static_32:SqAABBPruner.obj
 0001:000d0b00       ??1AABBPruner@Sq@physx@@UAE@XZ 100d1b00 f   SceneQuery_static_32:SqAABBPruner.obj
 0001:000d0bd0       ?addObjects@AABBPruner@Sq@physx@@UAE_NPAIPBVPxBounds3@3@PBUPrunerPayload@23@I_N@Z 100d1bd0 f   SceneQuery_static_32:SqAABBPruner.obj
 0001:000d0c70       ?removeObjects@AABBPruner@Sq@physx@@UAEXPBII@Z 100d1c70 f   SceneQuery_static_32:SqAABBPruner.obj
 0001:000d0de0       ?updateObjectsAfterManualBoundsUpdates@AABBPruner@Sq@physx@@UAEXPBII@Z 100d1de0 f   SceneQuery_static_32:SqAABBPruner.obj
 0001:000d0ee0       ?updateObjectsAndInflateBounds@AABBPruner@Sq@physx@@UAEXPBI0PBVPxBounds3@3@I@Z 100d1ee0 f   SceneQuery_static_32:SqAABBPruner.obj
 0001:000d1090       ?commit@AABBPruner@Sq@physx@@UAEXXZ 100d2090 f   SceneQuery_static_32:SqAABBPruner.obj
 0001:000d1340       ?raycast@AABBPruner@Sq@physx@@UBE_NABVPxVec3@3@0AAMAAUPrunerCallback@23@@Z 100d2340 f   SceneQuery_static_32:SqAABBPruner.obj
 0001:000d13e0       ?overlap@AABBPruner@Sq@physx@@UBE_NABVShapeData@Gu@3@AAUPrunerCallback@23@@Z 100d23e0 f   SceneQuery_static_32:SqAABBPruner.obj
 0001:000d1760       ?sweep@AABBPruner@Sq@physx@@UBE_NABVShapeData@Gu@3@ABVPxVec3@3@AAMAAUPrunerCallback@23@@Z 100d2760 f   SceneQuery_static_32:SqAABBPruner.obj
 0001:000d1870       ?shiftOrigin@AABBPruner@Sq@physx@@UAEXABVPxVec3@3@@Z 100d2870 f   SceneQuery_static_32:SqAABBPruner.obj
 0001:000d18c0       ?visualize@AABBPruner@Sq@physx@@UBEXAAVRenderOutput@Cm@3@I@Z 100d28c0 f   SceneQuery_static_32:SqAABBPruner.obj
 0001:000d19a0       ?merge@AABBPruner@Sq@physx@@UAEXPBX@Z 100d29a0 f   SceneQuery_static_32:SqAABBPruner.obj
 0001:000d1a10       ?purge@AABBPruner@Sq@physx@@UAEXXZ 100d2a10 f   SceneQuery_static_32:SqAABBPruner.obj
 0001:000d1a30       ?setRebuildRateHint@AABBPruner@Sq@physx@@UAEXI@Z 100d2a30 f   SceneQuery_static_32:SqAABBPruner.obj
 0001:000d1a50       ?buildStep@AABBPruner@Sq@physx@@UAE_N_N@Z 100d2a50 f   SceneQuery_static_32:SqAABBPruner.obj
 0001:000d1c30       ?prepareBuild@AABBPruner@Sq@physx@@UAE_NXZ 100d2c30 f   SceneQuery_static_32:SqAABBPruner.obj
 0001:000d1d90       ?fullRebuildAABBTree@AABBPruner@Sq@physx@@QAE_NXZ 100d2d90 f   SceneQuery_static_32:SqAABBPruner.obj
 0001:000d1e90       ?release@AABBPruner@Sq@physx@@QAEXXZ 100d2e90 f   SceneQuery_static_32:SqAABBPruner.obj
 0001:000d1fb0       ?refitUpdatedAndRemoved@AABBPruner@Sq@physx@@QAEXXZ 100d2fb0 f   SceneQuery_static_32:SqAABBPruner.obj
 0001:000d1ff0       ?updateBucketPruner@AABBPruner@Sq@physx@@QAEXXZ 100d2ff0 f   SceneQuery_static_32:SqAABBPruner.obj
 0001:000d2000       ?getAABB@AABBPruner@Sq@physx@@QAE?AVPxBounds3@3@I@Z 100d3000 f   SceneQuery_static_32:SqAABBPruner.obj
 0001:000d2050       ??0?$OBBAABBTests@$00@Gu@physx@@QAE@ABVPxVec3@2@ABVPxMat33@2@0@Z 100d3050 f i SceneQuery_static_32:SqAABBPruner.obj
 0001:000d21f0       ??R?$AABBTreeOverlap@U?$OBBAABBTests@$00@Gu@physx@@VAABBTree@Sq@3@VAABBTreeRuntimeNode@53@UPrunerPayload@53@UPrunerCallback@53@@Gu@physx@@QAE_NPBUPrunerPayload@Sq@2@PBVPxBounds3@2@ABVAABBTree@42@ABU?$OBBAABBTests@$00@12@AAUPrunerCallback@42@@Z 100d31f0 f i SceneQuery_static_32:SqAABBPruner.obj
 0001:000d2760       ??R?$AABBTreeOverlap@UAABBAABBTest@Gu@physx@@VAABBTree@Sq@3@VAABBTreeRuntimeNode@53@UPrunerPayload@53@UPrunerCallback@53@@Gu@physx@@QAE_NPBUPrunerPayload@Sq@2@PBVPxBounds3@2@ABVAABBTree@42@ABUAABBAABBTest@12@AAUPrunerCallback@42@@Z 100d3760 f i SceneQuery_static_32:SqAABBPruner.obj
 0001:000d2a50       ??R?$AABBTreeOverlap@UCapsuleAABBTest@Gu@physx@@VAABBTree@Sq@3@VAABBTreeRuntimeNode@53@UPrunerPayload@53@UPrunerCallback@53@@Gu@physx@@QAE_NPBUPrunerPayload@Sq@2@PBVPxBounds3@2@ABVAABBTree@42@ABUCapsuleAABBTest@12@AAUPrunerCallback@42@@Z 100d3a50 f i SceneQuery_static_32:SqAABBPruner.obj
 0001:000d2e20       ??R?$AABBTreeOverlap@USphereAABBTest@Gu@physx@@VAABBTree@Sq@3@VAABBTreeRuntimeNode@53@UPrunerPayload@53@UPrunerCallback@53@@Gu@physx@@QAE_NPBUPrunerPayload@Sq@2@PBVPxBounds3@2@ABVAABBTree@42@ABUSphereAABBTest@12@AAUPrunerCallback@42@@Z 100d3e20 f i SceneQuery_static_32:SqAABBPruner.obj
 0001:000d3170       ??R?$AABBTreeRaycast@$00VAABBTree@Sq@physx@@VAABBTreeRuntimeNode@23@UPrunerPayload@23@UPrunerCallback@23@@Gu@physx@@QAE_NPBUPrunerPayload@Sq@2@PBVPxBounds3@2@ABVAABBTree@42@ABVPxVec3@2@3AAM3AAUPrunerCallback@42@@Z 100d4170 f i SceneQuery_static_32:SqAABBPruner.obj
 0001:000d3840       ??R?$AABBTreeRaycast@$0A@VAABBTree@Sq@physx@@VAABBTreeRuntimeNode@23@UPrunerPayload@23@UPrunerCallback@23@@Gu@physx@@QAE_NPBUPrunerPayload@Sq@2@PBVPxBounds3@2@ABVAABBTree@42@ABVPxVec3@2@3AAM3AAUPrunerCallback@42@@Z 100d4840 f i SceneQuery_static_32:SqAABBPruner.obj
 0001:000d3eb0       ??_GAABBPruner@Sq@physx@@UAEPAXI@Z 100d4eb0 f i SceneQuery_static_32:SqAABBPruner.obj
 0001:000d3eb0       ??_EAABBPruner@Sq@physx@@UAEPAXI@Z 100d4eb0 f i SceneQuery_static_32:SqAABBPruner.obj
 0001:000d3fb0       ??_EIncrementalPruner@Sq@physx@@UAEPAXI@Z 100d4fb0 f i SceneQuery_static_32:SqAABBPruner.obj
 0001:000d3fb0       ??_GIncrementalPruner@Sq@physx@@UAEPAXI@Z 100d4fb0 f i SceneQuery_static_32:SqAABBPruner.obj
 0001:000d40c0       ?allocate@?$Array@IV?$ReflectionAllocator@I@shdfnd@physx@@@shdfnd@physx@@IAEPAII@Z 100d50c0 f i SceneQuery_static_32:SqAABBPruner.obj
 0001:000d4130       ?allocate@?$Array@PBVAABBTreeRuntimeNode@Sq@physx@@V?$InlineAllocator@$0EAA@V?$ReflectionAllocator@PBVAABBTreeRuntimeNode@Sq@physx@@@shdfnd@physx@@@shdfnd@3@@shdfnd@physx@@IAEPAPBVAABBTreeRuntimeNode@Sq@3@I@Z 100d5130 f i SceneQuery_static_32:SqAABBPruner.obj
 0001:000d41c0       ?getPayload@AABBPruner@Sq@physx@@UBEABUPrunerPayload@23@I@Z 100d51c0 f i SceneQuery_static_32:SqAABBPruner.obj
 0001:000d41e0       ?getPayload@AABBPruner@Sq@physx@@UBEABUPrunerPayload@23@IAAPAVPxBounds3@3@@Z 100d51e0 f i SceneQuery_static_32:SqAABBPruner.obj
 0001:000d4210       ?growAndPushBack@?$Array@UNewTreeFixup@AABBPruner@Sq@physx@@V?$ReflectionAllocator@UNewTreeFixup@AABBPruner@Sq@physx@@@shdfnd@4@@shdfnd@physx@@IAEAAUNewTreeFixup@AABBPruner@Sq@3@ABU4563@@Z 100d5210 f i SceneQuery_static_32:SqAABBPruner.obj
 0001:000d4320       ?preallocate@AABBPruner@Sq@physx@@UAEXI@Z 100d5320 f i SceneQuery_static_32:SqAABBPruner.obj
 0001:000d4330       ?recreate@?$Array@PBVAABBTreeRuntimeNode@Sq@physx@@V?$InlineAllocator@$0EAA@V?$ReflectionAllocator@PBVAABBTreeRuntimeNode@Sq@physx@@@shdfnd@physx@@@shdfnd@3@@shdfnd@physx@@IAEXI@Z 100d5330 f i SceneQuery_static_32:SqAABBPruner.obj
 0001:000d43e0       ?resizeUninitialized@?$Array@PBVAABBTreeRuntimeNode@Sq@physx@@V?$InlineAllocator@$0EAA@V?$ReflectionAllocator@PBVAABBTreeRuntimeNode@Sq@physx@@@shdfnd@physx@@@shdfnd@3@@shdfnd@physx@@QAEXI@Z 100d53e0 f i SceneQuery_static_32:SqAABBPruner.obj
 0001:000d4410       ??0BVHCompoundPruner@Sq@physx@@QAE@XZ 100d5410 f   SceneQuery_static_32:SqCompoundPruner.obj
 0001:000d4530       ??1BVHCompoundPruner@Sq@physx@@UAE@XZ 100d5530 f   SceneQuery_static_32:SqCompoundPruner.obj
 0001:000d45f0       ?release@BVHCompoundPruner@Sq@physx@@QAEXXZ 100d55f0 f   SceneQuery_static_32:SqCompoundPruner.obj
 0001:000d4600       ?addCompound@BVHCompoundPruner@Sq@physx@@UAE_NPAIABVBVHStructure@Gu@3@IABVPxTransform@3@W4Enum@CompoundFlag@23@PBUPrunerPayload@23@@Z 100d5600 f   SceneQuery_static_32:SqCompoundPruner.obj
 0001:000d46a0       ?removeCompound@BVHCompoundPruner@Sq@physx@@UAEXI@Z 100d56a0 f   SceneQuery_static_32:SqCompoundPruner.obj
 0001:000d47c0       ?updateCompound@BVHCompoundPruner@Sq@physx@@UAEXIABVPxTransform@3@@Z 100d57c0 f   SceneQuery_static_32:SqCompoundPruner.obj
 0001:000d48e0       ?updateObjectAfterManualBoundsUpdates@BVHCompoundPruner@Sq@physx@@UAEXII@Z 100d58e0 f   SceneQuery_static_32:SqCompoundPruner.obj
 0001:000d4920       ?removeObject@BVHCompoundPruner@Sq@physx@@UAEXII@Z 100d5920 f   SceneQuery_static_32:SqCompoundPruner.obj
 0001:000d4980       ?addObject@BVHCompoundPruner@Sq@physx@@UAE_NIAAIABVPxBounds3@3@UPrunerPayload@23@@Z 100d5980 f   SceneQuery_static_32:SqCompoundPruner.obj
 0001:000d49e0       ?raycast@BVHCompoundPruner@Sq@physx@@UBE_NABVPxVec3@3@0AAMAAUPrunerCallback@23@V?$PxFlags@W4Enum@PxQueryFlag@physx@@G@3@@Z 100d59e0 f   SceneQuery_static_32:SqCompoundPruner.obj
 0001:000d4a70       ?overlap@BVHCompoundPruner@Sq@physx@@UBE_NABVShapeData@Gu@3@AAUPrunerCallback@23@V?$PxFlags@W4Enum@PxQueryFlag@physx@@G@3@@Z 100d5a70 f   SceneQuery_static_32:SqCompoundPruner.obj
 0001:000d4e40       ?sweep@BVHCompoundPruner@Sq@physx@@UBE_NABVShapeData@Gu@3@ABVPxVec3@3@AAMAAUPrunerCallback@23@V?$PxFlags@W4Enum@PxQueryFlag@physx@@G@3@@Z 100d5e40 f   SceneQuery_static_32:SqCompoundPruner.obj
 0001:000d4f40       ?getPayload@BVHCompoundPruner@Sq@physx@@UBEABUPrunerPayload@23@II@Z 100d5f40 f   SceneQuery_static_32:SqCompoundPruner.obj
 0001:000d4f80       ?getPayload@BVHCompoundPruner@Sq@physx@@UBEABUPrunerPayload@23@IIAAPAVPxBounds3@3@@Z 100d5f80 f   SceneQuery_static_32:SqCompoundPruner.obj
 0001:000d4fd0       ?shiftOrigin@BVHCompoundPruner@Sq@physx@@UAEXABVPxVec3@3@@Z 100d5fd0 f   SceneQuery_static_32:SqCompoundPruner.obj
 0001:000d5000       ?visualize@BVHCompoundPruner@Sq@physx@@UBEXAAVRenderOutput@Cm@3@I@Z 100d6000 f   SceneQuery_static_32:SqCompoundPruner.obj
 0001:000d5010       ?updateMapping@BVHCompoundPruner@Sq@physx@@AAEXIPAVIncrementalAABBTreeNode@23@@Z 100d6010 f   SceneQuery_static_32:SqCompoundPruner.obj
 0001:000d50f0       ?updateMainTreeNode@BVHCompoundPruner@Sq@physx@@AAEXI@Z 100d60f0 f   SceneQuery_static_32:SqCompoundPruner.obj
 0001:000d51c0       ?test@BVHCompoundPruner@Sq@physx@@AAEXXZ 100d61c0 f   SceneQuery_static_32:SqCompoundPruner.obj
 0001:000d5200       ??1?$MainTreeRaycastCompoundPrunerCallback@$00@@UAE@XZ 100d6200 f i SceneQuery_static_32:SqCompoundPruner.obj
 0001:000d5210       ??1?$MainTreeRaycastCompoundPrunerCallback@$0A@@@UAE@XZ 100d6210 f i SceneQuery_static_32:SqCompoundPruner.obj
 0001:000d5220       ??1CompoundPruner@Sq@physx@@UAE@XZ 100d6220 f i SceneQuery_static_32:SqCompoundPruner.obj
 0001:000d5230       ??1MainTreeOverlapCompoundPrunerCallback@@UAE@XZ 100d6230 f i SceneQuery_static_32:SqCompoundPruner.obj
 0001:000d5240       ??R?$AABBTreeOverlap@U?$OBBAABBTests@$00@Gu@physx@@VIncrementalAABBTree@Sq@3@VIncrementalAABBTreeNode@53@UPrunerPayload@53@UPrunerCallback@53@@Gu@physx@@QAE_NPBUPrunerPayload@Sq@2@PBVPxBounds3@2@ABVIncrementalAABBTree@42@ABU?$OBBAABBTests@$00@12@AAUPrunerCallback@42@@Z 100d6240 f i SceneQuery_static_32:SqCompoundPruner.obj
 0001:000d57a0       ??R?$AABBTreeOverlap@U?$OBBAABBTests@$00@Gu@physx@@VIncrementalAABBTree@Sq@3@VIncrementalAABBTreeNode@53@VCompoundTree@53@UMainTreeOBBOverlapCompoundPrunerCallback@@@Gu@physx@@QAE_NPBVCompoundTree@Sq@2@PBVPxBounds3@2@ABVIncrementalAABBTree@42@ABU?$OBBAABBTests@$00@12@AAUMainTreeOBBOverlapCompoundPrunerCallback@@@Z 100d67a0 f i SceneQuery_static_32:SqCompoundPruner.obj
 0001:000d5d00       ??R?$AABBTreeOverlap@UAABBAABBTest@Gu@physx@@VIncrementalAABBTree@Sq@3@VIncrementalAABBTreeNode@53@VCompoundTree@53@UMainTreeAABBOverlapCompoundPrunerCallback@@@Gu@physx@@QAE_NPBVCompoundTree@Sq@2@PBVPxBounds3@2@ABVIncrementalAABBTree@42@ABUAABBAABBTest@12@AAUMainTreeAABBOverlapCompoundPrunerCallback@@@Z 100d6d00 f i SceneQuery_static_32:SqCompoundPruner.obj
 0001:000d5fc0       ??R?$AABBTreeOverlap@UCapsuleAABBTest@Gu@physx@@VIncrementalAABBTree@Sq@3@VIncrementalAABBTreeNode@53@UPrunerPayload@53@UPrunerCallback@53@@Gu@physx@@QAE_NPBUPrunerPayload@Sq@2@PBVPxBounds3@2@ABVIncrementalAABBTree@42@ABUCapsuleAABBTest@12@AAUPrunerCallback@42@@Z 100d6fc0 f i SceneQuery_static_32:SqCompoundPruner.obj
 0001:000d6370       ??R?$AABBTreeOverlap@UCapsuleAABBTest@Gu@physx@@VIncrementalAABBTree@Sq@3@VIncrementalAABBTreeNode@53@VCompoundTree@53@UMainTreeCapsuleOverlapCompoundPrunerCallback@@@Gu@physx@@QAE_NPBVCompoundTree@Sq@2@PBVPxBounds3@2@ABVIncrementalAABBTree@42@ABUCapsuleAABBTest@12@AAUMainTreeCapsuleOverlapCompoundPrunerCallback@@@Z 100d7370 f i SceneQuery_static_32:SqCompoundPruner.obj
 0001:000d6720       ??R?$AABBTreeOverlap@USphereAABBTest@Gu@physx@@VIncrementalAABBTree@Sq@3@VIncrementalAABBTreeNode@53@UPrunerPayload@53@UPrunerCallback@53@@Gu@physx@@QAE_NPBUPrunerPayload@Sq@2@PBVPxBounds3@2@ABVIncrementalAABBTree@42@ABUSphereAABBTest@12@AAUPrunerCallback@42@@Z 100d7720 f i SceneQuery_static_32:SqCompoundPruner.obj
 0001:000d6a40       ??R?$AABBTreeOverlap@USphereAABBTest@Gu@physx@@VIncrementalAABBTree@Sq@3@VIncrementalAABBTreeNode@53@VCompoundTree@53@UMainTreeSphereOverlapCompoundPrunerCallback@@@Gu@physx@@QAE_NPBVCompoundTree@Sq@2@PBVPxBounds3@2@ABVIncrementalAABBTree@42@ABUSphereAABBTest@12@AAUMainTreeSphereOverlapCompoundPrunerCallback@@@Z 100d7a40 f i SceneQuery_static_32:SqCompoundPruner.obj
 0001:000d6d60       ??R?$AABBTreeRaycast@$00VIncrementalAABBTree@Sq@physx@@VIncrementalAABBTreeNode@23@UPrunerPayload@23@UPrunerCallback@23@@Gu@physx@@QAE_NPBUPrunerPayload@Sq@2@PBVPxBounds3@2@ABVIncrementalAABBTree@42@ABVPxVec3@2@3AAM3AAUPrunerCallback@42@@Z 100d7d60 f i SceneQuery_static_32:SqCompoundPruner.obj
 0001:000d73f0       ??R?$AABBTreeRaycast@$00VIncrementalAABBTree@Sq@physx@@VIncrementalAABBTreeNode@23@VCompoundTree@23@U?$MainTreeRaycastCompoundPrunerCallback@$00@@@Gu@physx@@QAE_NPBVCompoundTree@Sq@2@PBVPxBounds3@2@ABVIncrementalAABBTree@42@ABVPxVec3@2@3AAM3AAU?$MainTreeRaycastCompoundPrunerCallback@$00@@@Z 100d83f0 f i SceneQuery_static_32:SqCompoundPruner.obj
 0001:000d7a80       ??R?$AABBTreeRaycast@$0A@VIncrementalAABBTree@Sq@physx@@VIncrementalAABBTreeNode@23@UPrunerPayload@23@UPrunerCallback@23@@Gu@physx@@QAE_NPBUPrunerPayload@Sq@2@PBVPxBounds3@2@ABVIncrementalAABBTree@42@ABVPxVec3@2@3AAM3AAUPrunerCallback@42@@Z 100d8a80 f i SceneQuery_static_32:SqCompoundPruner.obj
 0001:000d80b0       ??R?$AABBTreeRaycast@$0A@VIncrementalAABBTree@Sq@physx@@VIncrementalAABBTreeNode@23@VCompoundTree@23@U?$MainTreeRaycastCompoundPrunerCallback@$0A@@@@Gu@physx@@QAE_NPBVCompoundTree@Sq@2@PBVPxBounds3@2@ABVIncrementalAABBTree@42@ABVPxVec3@2@3AAM3AAU?$MainTreeRaycastCompoundPrunerCallback@$0A@@@@Z 100d90b0 f i SceneQuery_static_32:SqCompoundPruner.obj
 0001:000d86e0       ??_E?$MainTreeRaycastCompoundPrunerCallback@$00@@UAEPAXI@Z 100d96e0 f i SceneQuery_static_32:SqCompoundPruner.obj
 0001:000d86e0       ??_G?$MainTreeRaycastCompoundPrunerCallback@$00@@UAEPAXI@Z 100d96e0 f i SceneQuery_static_32:SqCompoundPruner.obj
 0001:000d8710       ??_E?$MainTreeRaycastCompoundPrunerCallback@$0A@@@UAEPAXI@Z 100d9710 f i SceneQuery_static_32:SqCompoundPruner.obj
 0001:000d8710       ??_G?$MainTreeRaycastCompoundPrunerCallback@$0A@@@UAEPAXI@Z 100d9710 f i SceneQuery_static_32:SqCompoundPruner.obj
 0001:000d8740       ??_EBVHCompoundPruner@Sq@physx@@UAEPAXI@Z 100d9740 f i SceneQuery_static_32:SqCompoundPruner.obj
 0001:000d8740       ??_GBVHCompoundPruner@Sq@physx@@UAEPAXI@Z 100d9740 f i SceneQuery_static_32:SqCompoundPruner.obj
 0001:000d8830       ??_GCompoundPruner@Sq@physx@@UAEPAXI@Z 100d9830 f i SceneQuery_static_32:SqCompoundPruner.obj
 0001:000d8830       ??_ECompoundPruner@Sq@physx@@UAEPAXI@Z 100d9830 f i SceneQuery_static_32:SqCompoundPruner.obj
 0001:000d8870       ??_GMainTreeAABBOverlapCompoundPrunerCallback@@UAEPAXI@Z 100d9870 f i SceneQuery_static_32:SqCompoundPruner.obj
 0001:000d8870       ??_EMainTreeAABBOverlapCompoundPrunerCallback@@UAEPAXI@Z 100d9870 f i SceneQuery_static_32:SqCompoundPruner.obj
 0001:000d88a0       ??_EMainTreeCapsuleOverlapCompoundPrunerCallback@@UAEPAXI@Z 100d98a0 f i SceneQuery_static_32:SqCompoundPruner.obj
 0001:000d88a0       ??_GMainTreeCapsuleOverlapCompoundPrunerCallback@@UAEPAXI@Z 100d98a0 f i SceneQuery_static_32:SqCompoundPruner.obj
 0001:000d88d0       ??_EMainTreeOBBOverlapCompoundPrunerCallback@@UAEPAXI@Z 100d98d0 f i SceneQuery_static_32:SqCompoundPruner.obj
 0001:000d88d0       ??_GMainTreeOBBOverlapCompoundPrunerCallback@@UAEPAXI@Z 100d98d0 f i SceneQuery_static_32:SqCompoundPruner.obj
 0001:000d8900       ??_EMainTreeOverlapCompoundPrunerCallback@@UAEPAXI@Z 100d9900 f i SceneQuery_static_32:SqCompoundPruner.obj
 0001:000d8900       ??_GMainTreeOverlapCompoundPrunerCallback@@UAEPAXI@Z 100d9900 f i SceneQuery_static_32:SqCompoundPruner.obj
 0001:000d8930       ??_EMainTreeSphereOverlapCompoundPrunerCallback@@UAEPAXI@Z 100d9930 f i SceneQuery_static_32:SqCompoundPruner.obj
 0001:000d8930       ??_GMainTreeSphereOverlapCompoundPrunerCallback@@UAEPAXI@Z 100d9930 f i SceneQuery_static_32:SqCompoundPruner.obj
 0001:000d8960       ?allocate@?$Array@PBVIncrementalAABBTreeNode@Sq@physx@@V?$InlineAllocator@$0EAA@V?$ReflectionAllocator@PBVIncrementalAABBTreeNode@Sq@physx@@@shdfnd@physx@@@shdfnd@3@@shdfnd@physx@@IAEPAPBVIncrementalAABBTreeNode@Sq@3@I@Z 100d9960 f i SceneQuery_static_32:SqCompoundPruner.obj
 0001:000d89f0       ?create@?$HashBase@V?$Pair@$$CBII@shdfnd@physx@@IU?$Hash@I@23@UGetKey@?$HashMapBase@IIU?$Hash@I@shdfnd@physx@@VNonTrackingAllocator@23@@internal@23@VNonTrackingAllocator@23@$00@internal@shdfnd@physx@@QAEPAV?$Pair@$$CBII@34@ABIAA_N@Z 100d99f0 f i SceneQuery_static_32:SqCompoundPruner.obj
 0001:000d8b00       ?erase@?$HashBase@V?$Pair@$$CBII@shdfnd@physx@@IU?$Hash@I@23@UGetKey@?$HashMapBase@IIU?$Hash@I@shdfnd@physx@@VNonTrackingAllocator@23@@internal@23@VNonTrackingAllocator@23@$00@internal@shdfnd@physx@@QAE_NABI@Z 100d9b00 f i SceneQuery_static_32:SqCompoundPruner.obj
 0001:000d8c20       ?find@?$HashMapBase@IIU?$Hash@I@shdfnd@physx@@VNonTrackingAllocator@23@@internal@shdfnd@physx@@QBEPBV?$Pair@$$CBII@34@ABI@Z 100d9c20 f i SceneQuery_static_32:SqCompoundPruner.obj
 0001:000d8ca0       ?invoke@?$MainTreeRaycastCompoundPrunerCallback@$00@@UAE_NAAMABVCompoundTree@Sq@physx@@@Z 100d9ca0 f i SceneQuery_static_32:SqCompoundPruner.obj
 0001:000d9170       ?invoke@?$MainTreeRaycastCompoundPrunerCallback@$0A@@@UAE_NAAMABVCompoundTree@Sq@physx@@@Z 100da170 f i SceneQuery_static_32:SqCompoundPruner.obj
 0001:000d93f0       ?invoke@MainTreeAABBOverlapCompoundPrunerCallback@@UAE_NAAMABVCompoundTree@Sq@physx@@@Z 100da3f0 f i SceneQuery_static_32:SqCompoundPruner.obj
 0001:000d98e0       ?invoke@MainTreeCapsuleOverlapCompoundPrunerCallback@@UAE_NAAMABVCompoundTree@Sq@physx@@@Z 100da8e0 f i SceneQuery_static_32:SqCompoundPruner.obj
 0001:000d9da0       ?invoke@MainTreeOBBOverlapCompoundPrunerCallback@@UAE_NAAMABVCompoundTree@Sq@physx@@@Z 100dada0 f i SceneQuery_static_32:SqCompoundPruner.obj
 0001:000da290       ?invoke@MainTreeSphereOverlapCompoundPrunerCallback@@UAE_NAAMABVCompoundTree@Sq@physx@@@Z 100db290 f i SceneQuery_static_32:SqCompoundPruner.obj
 0001:000da430       ?recreate@?$Array@PAVIncrementalAABBTreeNode@Sq@physx@@V?$ReflectionAllocator@PAVIncrementalAABBTreeNode@Sq@physx@@@shdfnd@3@@shdfnd@physx@@IAEXI@Z 100db430 f i SceneQuery_static_32:SqCompoundPruner.obj
 0001:000da510       ?recreate@?$Array@PBVIncrementalAABBTreeNode@Sq@physx@@V?$InlineAllocator@$0EAA@V?$ReflectionAllocator@PBVIncrementalAABBTreeNode@Sq@physx@@@shdfnd@physx@@@shdfnd@3@@shdfnd@physx@@IAEXI@Z 100db510 f i SceneQuery_static_32:SqCompoundPruner.obj
 0001:000da5c0       ?reserveInternal@?$HashBase@V?$Pair@$$CBII@shdfnd@physx@@IU?$Hash@I@23@UGetKey@?$HashMapBase@IIU?$Hash@I@shdfnd@physx@@VNonTrackingAllocator@23@@internal@23@VNonTrackingAllocator@23@$00@internal@shdfnd@physx@@AAEXI@Z 100db5c0 f i SceneQuery_static_32:SqCompoundPruner.obj
 0001:000da760       ?resize@?$Array@PAVIncrementalAABBTreeNode@Sq@physx@@V?$ReflectionAllocator@PAVIncrementalAABBTreeNode@Sq@physx@@@shdfnd@3@@shdfnd@physx@@QAEXIABQAVIncrementalAABBTreeNode@Sq@3@@Z 100db760 f i SceneQuery_static_32:SqCompoundPruner.obj
 0001:000da820       ?resizeUninitialized@?$Array@IV?$ReflectionAllocator@I@shdfnd@physx@@@shdfnd@physx@@QAEXI@Z 100db820 f i SceneQuery_static_32:SqCompoundPruner.obj
 0001:000da850       ?resizeUninitialized@?$Array@PAVIncrementalAABBTreeNode@Sq@physx@@V?$ReflectionAllocator@PAVIncrementalAABBTreeNode@Sq@physx@@@shdfnd@3@@shdfnd@physx@@QAEXI@Z 100db850 f i SceneQuery_static_32:SqCompoundPruner.obj
 0001:000da880       ?resizeUninitialized@?$Array@PBVIncrementalAABBTreeNode@Sq@physx@@V?$InlineAllocator@$0EAA@V?$ReflectionAllocator@PBVIncrementalAABBTreeNode@Sq@physx@@@shdfnd@physx@@@shdfnd@3@@shdfnd@physx@@QAEXI@Z 100db880 f i SceneQuery_static_32:SqCompoundPruner.obj
 0001:000da8b0       ?transformFast@PxBounds3@physx@@SA?AV12@ABVPxTransform@2@ABV12@@Z 100db8b0 f i SceneQuery_static_32:SqCompoundPruner.obj
 0001:000dac70       ?transformSafe@PxBounds3@physx@@SA?AV12@ABVPxTransform@2@ABV12@@Z 100dbc70 f i SceneQuery_static_32:SqCompoundPruner.obj
 0001:000dad10       ?visualize@CompoundPruner@Sq@physx@@UBEXAAVRenderOutput@Cm@3@I@Z 100dbd10 f i SceneQuery_static_32:SqCompoundPruner.obj
 0001:000dad20       ??0PruningPool@Sq@physx@@QAE@XZ 100dbd20 f   SceneQuery_static_32:SqPruningPool.obj
 0001:000dad60       ??1PruningPool@Sq@physx@@QAE@XZ 100dbd60 f   SceneQuery_static_32:SqPruningPool.obj
 0001:000dadd0       ?shiftOrigin@PruningPool@Sq@physx@@QAEXABVPxVec3@3@@Z 100dbdd0 f   SceneQuery_static_32:SqPruningPool.obj
 0001:000dae60       ?addObjects@PruningPool@Sq@physx@@QAEIPAIPBVPxBounds3@3@PBUPrunerPayload@23@I@Z 100dbe60 f   SceneQuery_static_32:SqPruningPool.obj
 0001:000daf60       ?removeObject@PruningPool@Sq@physx@@QAEII@Z 100dbf60 f   SceneQuery_static_32:SqPruningPool.obj
 0001:000db000       ?preallocate@PruningPool@Sq@physx@@QAEXI@Z 100dc000 f   SceneQuery_static_32:SqPruningPool.obj
 0001:000db020       ?resize@PruningPool@Sq@physx@@QAE_NI@Z 100dc020 f   SceneQuery_static_32:SqPruningPool.obj
 0001:000db240       ?initMap@AABBTreeUpdateMap@Sq@physx@@QAEXIABVAABBTree@23@@Z 100dc240 f   SceneQuery_static_32:SqAABBTreeUpdateMap.obj
 0001:000db340       ?invalidate@AABBTreeUpdateMap@Sq@physx@@QAEXIIAAVAABBTree@23@@Z 100dc340 f   SceneQuery_static_32:SqAABBTreeUpdateMap.obj
 0001:000db470       ??0IncrementalAABBPrunerCore@Sq@physx@@QAE@PBVPruningPool@12@@Z 100dc470 f   SceneQuery_static_32:SqIncrementalAABBPrunerCore.obj
 0001:000db560       ??1IncrementalAABBPrunerCore@Sq@physx@@QAE@XZ 100dc560 f   SceneQuery_static_32:SqIncrementalAABBPrunerCore.obj
 0001:000db670       ?release@IncrementalAABBPrunerCore@Sq@physx@@QAEXXZ 100dc670 f   SceneQuery_static_32:SqIncrementalAABBPrunerCore.obj
 0001:000db730       ?addObject@IncrementalAABBPrunerCore@Sq@physx@@QAE_NII@Z 100dc730 f   SceneQuery_static_32:SqIncrementalAABBPrunerCore.obj
 0001:000db7f0       ?removeObject@IncrementalAABBPrunerCore@Sq@physx@@QAE_NIIAAI@Z 100dc7f0 f   SceneQuery_static_32:SqIncrementalAABBPrunerCore.obj
 0001:000db9a0       ?swapIndex@IncrementalAABBPrunerCore@Sq@physx@@QAEXII@Z 100dc9a0 f   SceneQuery_static_32:SqIncrementalAABBPrunerCore.obj
 0001:000dba50       ?updateObject@IncrementalAABBPrunerCore@Sq@physx@@QAE_NI@Z 100dca50 f   SceneQuery_static_32:SqIncrementalAABBPrunerCore.obj
 0001:000dbaf0       ?removeMarkedObjects@IncrementalAABBPrunerCore@Sq@physx@@QAEII@Z 100dcaf0 f   SceneQuery_static_32:SqIncrementalAABBPrunerCore.obj
 0001:000dbb40       ?raycast@IncrementalAABBPrunerCore@Sq@physx@@QBE_NABVPxVec3@3@0AAMAAUPrunerCallback@23@@Z 100dcb40 f   SceneQuery_static_32:SqIncrementalAABBPrunerCore.obj
 0001:000dbbc0       ?overlap@IncrementalAABBPrunerCore@Sq@physx@@QBE_NABVShapeData@Gu@3@AAUPrunerCallback@23@@Z 100dcbc0 f   SceneQuery_static_32:SqIncrementalAABBPrunerCore.obj
 0001:000dbf70       ?sweep@IncrementalAABBPrunerCore@Sq@physx@@QBE_NABVShapeData@Gu@3@ABVPxVec3@3@AAMAAUPrunerCallback@23@@Z 100dcf70 f   SceneQuery_static_32:SqIncrementalAABBPrunerCore.obj
 0001:000dc070       ?shiftOrigin@IncrementalAABBPrunerCore@Sq@physx@@QAEXABVPxVec3@3@@Z 100dd070 f   SceneQuery_static_32:SqIncrementalAABBPrunerCore.obj
 0001:000dc0a0       ?visualize@IncrementalAABBPrunerCore@Sq@physx@@QBEXAAVRenderOutput@Cm@3@I@Z 100dd0a0 f   SceneQuery_static_32:SqIncrementalAABBPrunerCore.obj
 0001:000dc200       ?updateMapping@IncrementalAABBPrunerCore@Sq@physx@@AAEXAAV?$HashMap@IPAVIncrementalAABBTreeNode@Sq@physx@@U?$Hash@I@shdfnd@3@VNonTrackingAllocator@53@@shdfnd@3@IPAVIncrementalAABBTreeNode@23@@Z 100dd200 f   SceneQuery_static_32:SqIncrementalAABBPrunerCore.obj
 0001:000dc300       ?test@IncrementalAABBPrunerCore@Sq@physx@@AAEX_N@Z 100dd300 f   SceneQuery_static_32:SqIncrementalAABBPrunerCore.obj
 0001:000dc430       ??0CoreTree@Sq@physx@@QAE@XZ 100dd430 f i SceneQuery_static_32:SqIncrementalAABBPrunerCore.obj
 0001:000dc4a0       ??1CoreTree@Sq@physx@@QAE@XZ 100dd4a0 f i SceneQuery_static_32:SqIncrementalAABBPrunerCore.obj
 0001:000dc4c0       ??R?$AABBTreeOverlap@UAABBAABBTest@Gu@physx@@VIncrementalAABBTree@Sq@3@VIncrementalAABBTreeNode@53@UPrunerPayload@53@UPrunerCallback@53@@Gu@physx@@QAE_NPBUPrunerPayload@Sq@2@PBVPxBounds3@2@ABVIncrementalAABBTree@42@ABUAABBAABBTest@12@AAUPrunerCallback@42@@Z 100dd4c0 f i SceneQuery_static_32:SqIncrementalAABBPrunerCore.obj
 0001:000dc880       ?clear@?$HashMapBase@IPAVIncrementalAABBTreeNode@Sq@physx@@U?$Hash@I@shdfnd@3@VNonTrackingAllocator@53@@internal@shdfnd@physx@@QAEXXZ 100dd880 f i SceneQuery_static_32:SqIncrementalAABBPrunerCore.obj
 0001:000dc8f0       ?create@?$HashBase@V?$Pair@$$CBIPAVIncrementalAABBTreeNode@Sq@physx@@@shdfnd@physx@@IU?$Hash@I@23@UGetKey@?$HashMapBase@IPAVIncrementalAABBTreeNode@Sq@physx@@U?$Hash@I@shdfnd@3@VNonTrackingAllocator@53@@internal@23@VNonTrackingAllocator@23@$00@internal@shdfnd@physx@@QAEPAV?$Pair@$$CBIPAVIncrementalAABBTreeNode@Sq@physx@@@34@ABIAA_N@Z 100dd8f0 f i SceneQuery_static_32:SqIncrementalAABBPrunerCore.obj
 0001:000dca00       ?erase@?$HashBase@V?$Pair@$$CBIPAVIncrementalAABBTreeNode@Sq@physx@@@shdfnd@physx@@IU?$Hash@I@23@UGetKey@?$HashMapBase@IPAVIncrementalAABBTreeNode@Sq@physx@@U?$Hash@I@shdfnd@3@VNonTrackingAllocator@53@@internal@23@VNonTrackingAllocator@23@$00@internal@shdfnd@physx@@QAE_NABIAAV?$Pair@$$CBIPAVIncrementalAABBTreeNode@Sq@physx@@@34@@Z 100dda00 f i SceneQuery_static_32:SqIncrementalAABBPrunerCore.obj
 0001:000dcb30       ?find@?$HashMapBase@IPAVIncrementalAABBTreeNode@Sq@physx@@U?$Hash@I@shdfnd@3@VNonTrackingAllocator@53@@internal@shdfnd@physx@@QBEPBV?$Pair@$$CBIPAVIncrementalAABBTreeNode@Sq@physx@@@34@ABI@Z 100ddb30 f i SceneQuery_static_32:SqIncrementalAABBPrunerCore.obj
 0001:000dcbb0       ?reserveInternal@?$HashBase@V?$Pair@$$CBIPAVIncrementalAABBTreeNode@Sq@physx@@@shdfnd@physx@@IU?$Hash@I@23@UGetKey@?$HashMapBase@IPAVIncrementalAABBTreeNode@Sq@physx@@U?$Hash@I@shdfnd@3@VNonTrackingAllocator@53@@internal@23@VNonTrackingAllocator@23@$00@internal@shdfnd@physx@@AAEXI@Z 100ddbb0 f i SceneQuery_static_32:SqIncrementalAABBPrunerCore.obj
 0001:000dcd50       ??0ExtendedBucketPruner@Sq@physx@@QAE@PBVPruningPool@12@@Z 100ddd50 f   SceneQuery_static_32:SqExtendedBucketPruner.obj
 0001:000dcf80       ??1ExtendedBucketPruner@Sq@physx@@UAE@XZ 100ddf80 f   SceneQuery_static_32:SqExtendedBucketPruner.obj
 0001:000dd080       ?release@ExtendedBucketPruner@Sq@physx@@QAEXXZ 100de080 f   SceneQuery_static_32:SqExtendedBucketPruner.obj
 0001:000dd140       ?addTree@ExtendedBucketPruner@Sq@physx@@QAEXABVAABBTreeMergeData@23@I@Z 100de140 f   SceneQuery_static_32:SqExtendedBucketPruner.obj
 0001:000dd380       ?updateObject@ExtendedBucketPruner@Sq@physx@@QAE_NABVPxBounds3@3@ABUPrunerPayload@23@I@Z 100de380 f   SceneQuery_static_32:SqExtendedBucketPruner.obj
 0001:000dd400       ?removeObject@ExtendedBucketPruner@Sq@physx@@QAE_NABUPrunerPayload@23@I0IAAI@Z 100de400 f   SceneQuery_static_32:SqExtendedBucketPruner.obj
 0001:000dd610       ?swapIndex@ExtendedBucketPruner@Sq@physx@@QAEXIABUPrunerPayload@23@I_N@Z 100de610 f   SceneQuery_static_32:SqExtendedBucketPruner.obj
 0001:000dd6a0       ?refitMarkedNodes@ExtendedBucketPruner@Sq@physx@@QAEXPBVPxBounds3@3@@Z 100de6a0 f   SceneQuery_static_32:SqExtendedBucketPruner.obj
 0001:000ddc60       ?removeMarkedObjects@ExtendedBucketPruner@Sq@physx@@QAEII@Z 100dec60 f   SceneQuery_static_32:SqExtendedBucketPruner.obj
 0001:000ddf50       ?raycast@ExtendedBucketPruner@Sq@physx@@QBE_NABVPxVec3@3@0AAMAAUPrunerCallback@23@@Z 100def50 f   SceneQuery_static_32:SqExtendedBucketPruner.obj
 0001:000de010       ?overlap@ExtendedBucketPruner@Sq@physx@@QBE_NABVShapeData@Gu@3@AAUPrunerCallback@23@@Z 100df010 f   SceneQuery_static_32:SqExtendedBucketPruner.obj
 0001:000de420       ?sweep@ExtendedBucketPruner@Sq@physx@@QBE_NABVShapeData@Gu@3@ABVPxVec3@3@AAMAAUPrunerCallback@23@@Z 100df420 f   SceneQuery_static_32:SqExtendedBucketPruner.obj
 0001:000de550       ?shiftOrigin@ExtendedBucketPruner@Sq@physx@@QAEXABVPxVec3@3@@Z 100df550 f   SceneQuery_static_32:SqExtendedBucketPruner.obj
 0001:000de5a0       ?visualize@ExtendedBucketPruner@Sq@physx@@QBEXAAVRenderOutput@Cm@3@I@Z 100df5a0 f   SceneQuery_static_32:SqExtendedBucketPruner.obj
 0001:000de650       ?invalidateObject@ExtendedBucketPruner@Sq@physx@@AAEXABUExtendedBucketPrunerData@23@IABUPrunerPayload@23@I@Z 100df650 f   SceneQuery_static_32:SqExtendedBucketPruner.obj
 0001:000de760       ?resize@ExtendedBucketPruner@Sq@physx@@AAEXI@Z 100df760 f   SceneQuery_static_32:SqExtendedBucketPruner.obj
 0001:000de8d0       ?buildMainAABBTree@ExtendedBucketPruner@Sq@physx@@AAEXXZ 100df8d0 f   SceneQuery_static_32:SqExtendedBucketPruner.obj
 0001:000de930       ?cleanTrees@ExtendedBucketPruner@Sq@physx@@AAEXXZ 100df930 f   SceneQuery_static_32:SqExtendedBucketPruner.obj
