 PhysXCommon_32

 Timestamp is 5c5f406e (Sat Feb  9 14:04:46 2019)

 Preferred load address is 10000000

 Start         Length     Name                   Class
 0001:00000000 0000d410H .text$di                CODE
 0001:0000d410 001b0f70H .text$mn                CODE
 0001:001be380 00000193H .text$x                 CODE
 0002:00000000 00000160H .idata$5                DATA
 0002:00000160 00000004H .00cfg                  DATA
 0002:00000164 00000004H .CRT$XCA                DATA
 0002:00000168 00000a2cH .CRT$XCU                DATA
 0002:00000b94 00000004H .CRT$XCZ                DATA
 0002:00000b98 00000004H .CRT$XIA                DATA
 0002:00000b9c 0000000cH .CRT$XIC                DATA
 0002:00000ba8 00000004H .CRT$XIZ                DATA
 0002:00000bac 00000004H .CRT$XPA                DATA
 0002:00000bb0 00000008H .CRT$XPX                DATA
 0002:00000bb8 00000004H .CRT$XPXA               DATA
 0002:00000bbc 00000004H .CRT$XPZ                DATA
 0002:00000bc0 00000004H .CRT$XTA                DATA
 0002:00000bc4 0000000cH .CRT$XTZ                DATA
 0002:00000bc8 00000000H .gfids$y                DATA
 0002:00000bd0 000295b8H .rdata                  DATA
 0002:0002a188 000002a8H .rdata$r                DATA
 0002:0002a430 00000040H .rdata$sxdata           DATA
 0002:0002a470 000003f8H .rdata$zzzdbg           DATA
 0002:0002a868 00000004H .rtc$IAA                DATA
 0002:0002a86c 00000218H .rtc$IMZ                DATA
 0002:0002aa84 00000004H .rtc$IZZ                DATA
 0002:0002aa88 00000004H .rtc$TAA                DATA
 0002:0002aa8c 00000218H .rtc$TMZ                DATA
 0002:0002aca4 00000004H .rtc$TZZ                DATA
 0002:0002aca8 00000c64H .xdata$x                DATA
 0002:0002b90c 00000020H .didat$2                DATA
 0002:0002b92c 00000020H .didat$3                DATA
 0002:0002b94c 00000060H .didat$4                DATA
 0002:0002b9ac 00000438H .didat$6                DATA
 0002:0002bde4 0000006cH .didat$7                DATA
 0002:0002be50 00009f80H .edata                  DATA
 0002:00035dd0 00000014H .idata$2                DATA
 0002:00035de4 00000014H .idata$3                DATA
 0002:00035df8 00000160H .idata$4                DATA
 0002:00035f58 00000662H .idata$6                DATA
 0003:00000000 00000d70H .data                   DATA
 0003:00000d70 00000408H .data$r                 DATA
 0003:00001178 00000068H .didat$5                DATA
 0003:000011e0 000045d4H .bss                    DATA
 0004:00000000 000000a0H .rsrc$01                DATA
 0004:000000a0 000004b0H .rsrc$02                DATA

  Address         Publics by Value              Rva+Base       Lib:Object

 0000:00000000       __except_list              00000000     <absolute>
 0000:00000000       ___guard_fids_table        00000000     <absolute>
 0000:00000000       ___volatile_metadata       00000000     <absolute>
 0000:00000000       ___hybrid_code_map         00000000     <absolute>
 0000:00000000       ___hybrid_code_map_count   00000000     <absolute>
 0000:00000000       ___guard_iat_table         00000000     <absolute>
 0000:00000000       ___dynamic_value_reloc_table 00000000     <absolute>
 0000:00000000       ___guard_longjmp_count     00000000     <absolute>
 0000:00000000       ___guard_fids_count        00000000     <absolute>
 0000:00000000       ___guard_iat_count         00000000     <absolute>
 0000:00000000       ___enclave_config          00000000     <absolute>
 0000:00000000       ___guard_longjmp_table     00000000     <absolute>
 0000:00000000       ___hybrid_auxiliary_iat    00000000     <absolute>
 0000:00000010       ___safe_se_handler_count   00000010     <absolute>
 0000:00000100       ___guard_flags             00000100     <absolute>
 0000:00000000       ___ImageBase               10000000     <linker-defined>
 0001:0000d410       ?PxCreateCollection@@YAPAVPxCollection@physx@@XZ 1000e410 f   CmCollection.obj
 0001:0000d460       ?add@Collection@Cm@physx@@UAEXAAVPxBase@3@_K@Z 1000e460 f   CmCollection.obj
 0001:0000d530       ?remove@Collection@Cm@physx@@UAEXAAVPxBase@3@@Z 1000e530 f   CmCollection.obj
 0001:0000d5e0       ?contains@Collection@Cm@physx@@UBE_NAAVPxBase@3@@Z 1000e5e0 f   CmCollection.obj
 0001:0000d620       ?addId@Collection@Cm@physx@@UAEXAAVPxBase@3@_K@Z 1000e620 f   CmCollection.obj
 0001:0000d780       ?removeId@Collection@Cm@physx@@UAEX_K@Z 1000e780 f   CmCollection.obj
 0001:0000d850       ?find@Collection@Cm@physx@@UBEPAVPxBase@3@_K@Z 1000e850 f   CmCollection.obj
 0001:0000d8c0       ?add@Collection@Cm@physx@@UAEXAAVPxCollection@3@@Z 1000e8c0 f   CmCollection.obj
 0001:0000da60       ?remove@Collection@Cm@physx@@UAEXAAVPxCollection@3@@Z 1000ea60 f   CmCollection.obj
 0001:0000db20       ?getNbObjects@Collection@Cm@physx@@UBEIXZ 1000eb20 f   CmCollection.obj
 0001:0000db40       ?getObject@Collection@Cm@physx@@UBEAAVPxBase@3@I@Z 1000eb40 f   CmCollection.obj
 0001:0000dbb0       ?getObjects@Collection@Cm@physx@@UBEIPAPAVPxBase@3@II@Z 1000ebb0 f   CmCollection.obj
 0001:0000dc90       ?getNbIds@Collection@Cm@physx@@UBEIXZ 1000ec90 f   CmCollection.obj
 0001:0000dcb0       ?getId@Collection@Cm@physx@@UBE_KABVPxBase@3@@Z 1000ecb0 f   CmCollection.obj
 0001:0000dd00       ?getIds@Collection@Cm@physx@@UBEIPA_KII@Z 1000ed00 f   CmCollection.obj
 0001:0000de10       ??$?2V?$ReflectionAllocator@VCollection@Cm@physx@@@shdfnd@physx@@@UserAllocated@shdfnd@physx@@SAPAXIV?$ReflectionAllocator@VCollection@Cm@physx@@@12@PBDH@Z 1000ee10 f i CmCollection.obj
 0001:0000de30       ??0?$CoalescedHashMap@PAVPxBase@physx@@_KU?$Hash@PAVPxBase@physx@@@shdfnd@2@VNonTrackingAllocator@42@@shdfnd@physx@@QAE@IM@Z 1000ee30 f i CmCollection.obj
 0001:0000de60       ??0?$CoalescedHashMap@_KPAVPxBase@physx@@U?$Hash@_K@shdfnd@2@VNonTrackingAllocator@42@@shdfnd@physx@@QAE@IM@Z 1000ee60 f i CmCollection.obj
 0001:0000de90       ??0?$CollectionHashMap@PAVPxBase@physx@@_KU?$Hash@PAVPxBase@physx@@@shdfnd@2@VNonTrackingAllocator@42@@Cm@physx@@QAE@IM@Z 1000ee90 f i CmCollection.obj
 0001:0000dec0       ??0?$CollectionHashMap@_KPAVPxBase@physx@@U?$Hash@_K@shdfnd@2@VNonTrackingAllocator@42@@Cm@physx@@QAE@IM@Z 1000eec0 f i CmCollection.obj
 0001:0000def0       ??0?$HashBase@V?$Pair@$$CB_KPAVPxBase@physx@@@shdfnd@physx@@_KU?$Hash@_K@23@UGetKey@?$HashMapBase@_KPAVPxBase@physx@@U?$Hash@_K@shdfnd@2@VNonTrackingAllocator@42@@internal@23@VNonTrackingAllocator@23@$00@internal@shdfnd@physx@@QAE@IM@Z 1000eef0 f i CmCollection.obj
 0001:0000df30       ??0?$HashBase@V?$Pair@QAVPxBase@physx@@_K@shdfnd@physx@@PAVPxBase@3@U?$Hash@PAVPxBase@physx@@@23@UGetKey@?$HashMapBase@PAVPxBase@physx@@_KU?$Hash@PAVPxBase@physx@@@shdfnd@2@VNonTrackingAllocator@42@@internal@23@VNonTrackingAllocator@23@$00@internal@shdfnd@physx@@QAE@IM@Z 1000ef30 f i CmCollection.obj
 0001:0000df70       ??0?$HashMapBase@PAVPxBase@physx@@_KU?$Hash@PAVPxBase@physx@@@shdfnd@2@VNonTrackingAllocator@42@@internal@shdfnd@physx@@QAE@IM@Z 1000ef70 f i CmCollection.obj
 0001:0000dfa0       ??0?$HashMapBase@_KPAVPxBase@physx@@U?$Hash@_K@shdfnd@2@VNonTrackingAllocator@42@@internal@shdfnd@physx@@QAE@IM@Z 1000efa0 f i CmCollection.obj
 0001:0000dfd0       ??0?$Pair@$$CB_KPAVPxBase@physx@@@shdfnd@physx@@QAE@ABV012@@Z 1000efd0 f i CmCollection.obj
 0001:0000e000       ??0?$Pair@$$CB_KPAVPxBase@physx@@@shdfnd@physx@@QAE@AB_KABQAVPxBase@2@@Z 1000f000 f i CmCollection.obj
 0001:0000e030       ??0?$Pair@QAVPxBase@physx@@_K@shdfnd@physx@@QAE@ABQAVPxBase@2@AB_K@Z 1000f030 f i CmCollection.obj
 0001:0000e060       ??0?$Pair@QAVPxBase@physx@@_K@shdfnd@physx@@QAE@ABV012@@Z 1000f060 f i CmCollection.obj
 0001:0000e090       ??0?$ReflectionAllocator@VCollection@Cm@physx@@@shdfnd@physx@@QAE@PBD@Z 1000f090 f i CmCollection.obj
 0001:0000e0a0       ??0Collection@Cm@physx@@QAE@XZ 1000f0a0 f i CmCollection.obj
 0001:0000e100       ??0Iter@?$HashBase@V?$Pair@$$CB_KPAVPxBase@physx@@@shdfnd@physx@@_KU?$Hash@_K@23@UGetKey@?$HashMapBase@_KPAVPxBase@physx@@U?$Hash@_K@shdfnd@2@VNonTrackingAllocator@42@@internal@23@VNonTrackingAllocator@23@$00@internal@shdfnd@physx@@QAE@AAV1234@@Z 1000f100 f i CmCollection.obj
 0001:0000e170       ??0NonTrackingAllocator@shdfnd@physx@@QAE@PBD@Z 1000f170 f i CmCollection.obj
 0001:0000e180       ??0PxCollection@physx@@IAE@XZ 1000f180 f i CmCollection.obj
 0001:0000e1a0       ??1?$CoalescedHashMap@PAVPxBase@physx@@_KU?$Hash@PAVPxBase@physx@@@shdfnd@2@VNonTrackingAllocator@42@@shdfnd@physx@@QAE@XZ 1000f1a0 f i CmCollection.obj
 0001:0000e1c0       ??1?$CoalescedHashMap@_KPAVPxBase@physx@@U?$Hash@_K@shdfnd@2@VNonTrackingAllocator@42@@shdfnd@physx@@QAE@XZ 1000f1c0 f i CmCollection.obj
 0001:0000e1e0       ??1?$CollectionHashMap@PAVPxBase@physx@@_KU?$Hash@PAVPxBase@physx@@@shdfnd@2@VNonTrackingAllocator@42@@Cm@physx@@QAE@XZ 1000f1e0 f i CmCollection.obj
 0001:0000e200       ??1?$CollectionHashMap@_KPAVPxBase@physx@@U?$Hash@_K@shdfnd@2@VNonTrackingAllocator@42@@Cm@physx@@QAE@XZ 1000f200 f i CmCollection.obj
 0001:0000e220       ??1?$HashBase@V?$Pair@$$CB_KPAVPxBase@physx@@@shdfnd@physx@@_KU?$Hash@_K@23@UGetKey@?$HashMapBase@_KPAVPxBase@physx@@U?$Hash@_K@shdfnd@2@VNonTrackingAllocator@42@@internal@23@VNonTrackingAllocator@23@$00@internal@shdfnd@physx@@QAE@XZ 1000f220 f i CmCollection.obj
 0001:0000e250       ??1?$HashBase@V?$Pair@QAVPxBase@physx@@_K@shdfnd@physx@@PAVPxBase@3@U?$Hash@PAVPxBase@physx@@@23@UGetKey@?$HashMapBase@PAVPxBase@physx@@_KU?$Hash@PAVPxBase@physx@@@shdfnd@2@VNonTrackingAllocator@42@@internal@23@VNonTrackingAllocator@23@$00@internal@shdfnd@physx@@QAE@XZ 1000f250 f i CmCollection.obj
 0001:0000e280       ??1?$HashMapBase@PAVPxBase@physx@@_KU?$Hash@PAVPxBase@physx@@@shdfnd@2@VNonTrackingAllocator@42@@internal@shdfnd@physx@@QAE@XZ 1000f280 f i CmCollection.obj
 0001:0000e2a0       ??1?$HashMapBase@_KPAVPxBase@physx@@U?$Hash@_K@shdfnd@2@VNonTrackingAllocator@42@@internal@shdfnd@physx@@QAE@XZ 1000f2a0 f i CmCollection.obj
 0001:0000e2c0       ??1Collection@Cm@physx@@UAE@XZ 1000f2c0 f i CmCollection.obj
 0001:0000e2f0       ??1PxCollection@physx@@MAE@XZ 1000f2f0 f i CmCollection.obj
 0001:0000e310       ??2@YAPAXIPAX@Z            1000f310 f i CmCollection.obj
 0001:0000e320       ??3UserAllocated@shdfnd@physx@@SAXPAX@Z 1000f320 f i CmCollection.obj
 0001:0000e340       ??A?$HashMapBase@PAVPxBase@physx@@_KU?$Hash@PAVPxBase@physx@@@shdfnd@2@VNonTrackingAllocator@42@@internal@shdfnd@physx@@QAEAA_KABQAVPxBase@3@@Z 1000f340 f i CmCollection.obj
 0001:0000e3a0       ??A?$HashMapBase@_KPAVPxBase@physx@@U?$Hash@_K@shdfnd@2@VNonTrackingAllocator@42@@internal@shdfnd@physx@@QAEAAPAVPxBase@3@AB_K@Z 1000f3a0 f i CmCollection.obj
 0001:0000e400       ??CIter@?$HashBase@V?$Pair@$$CB_KPAVPxBase@physx@@@shdfnd@physx@@_KU?$Hash@_K@23@UGetKey@?$HashMapBase@_KPAVPxBase@physx@@U?$Hash@_K@shdfnd@2@VNonTrackingAllocator@42@@internal@23@VNonTrackingAllocator@23@$00@internal@shdfnd@physx@@QAEPAV?$Pair@$$CB_KPAVPxBase@physx@@@34@XZ 1000f400 f i CmCollection.obj
 0001:0000e430       ??EIter@?$HashBase@V?$Pair@$$CB_KPAVPxBase@physx@@@shdfnd@physx@@_KU?$Hash@_K@23@UGetKey@?$HashMapBase@_KPAVPxBase@physx@@U?$Hash@_K@shdfnd@2@VNonTrackingAllocator@42@@internal@23@VNonTrackingAllocator@23@$00@internal@shdfnd@physx@@QAE?AV01234@H@Z 1000f430 f i CmCollection.obj
 0001:0000e490       ??R?$Hash@PAVPxBase@physx@@@shdfnd@physx@@QBEIABQAVPxBase@2@@Z 1000f490 f i CmCollection.obj
 0001:0000e4b0       ??R?$Hash@_K@shdfnd@physx@@QBEIAB_K@Z 1000f4b0 f i CmCollection.obj
 0001:0000e4d0       ??RGetKey@?$HashMapBase@PAVPxBase@physx@@_KU?$Hash@PAVPxBase@physx@@@shdfnd@2@VNonTrackingAllocator@42@@internal@shdfnd@physx@@QAEABQAVPxBase@4@ABV?$Pair@QAVPxBase@physx@@_K@34@@Z 1000f4d0 f i CmCollection.obj
 0001:0000e4e0       ??RGetKey@?$HashMapBase@_KPAVPxBase@physx@@U?$Hash@_K@shdfnd@2@VNonTrackingAllocator@42@@internal@shdfnd@physx@@QAEAB_KABV?$Pair@$$CB_KPAVPxBase@physx@@@34@@Z 1000f4e0 f i CmCollection.obj
 0001:0000e4f0       ??_GCollection@Cm@physx@@UAEPAXI@Z 1000f4f0 f i CmCollection.obj
 0001:0000e4f0       ??_ECollection@Cm@physx@@UAEPAXI@Z 1000f4f0 f i CmCollection.obj
 0001:0000e540       ??_GPxCollection@physx@@MAEPAXI@Z 1000f540 f i CmCollection.obj
 0001:0000e540       ??_EPxCollection@physx@@MAEPAXI@Z 1000f540 f i CmCollection.obj
 0001:0000e570       ?__empty_global_delete@@YAXPAX@Z 1000f570 f i CmCollection.obj
 0001:0000e580       ?__empty_global_delete@@YAXPAXI@Z 1000f580 f i CmCollection.obj
 0001:0000e590       ?advance@Iter@?$HashBase@V?$Pair@$$CB_KPAVPxBase@physx@@@shdfnd@physx@@_KU?$Hash@_K@23@UGetKey@?$HashMapBase@_KPAVPxBase@physx@@U?$Hash@_K@shdfnd@2@VNonTrackingAllocator@42@@internal@23@VNonTrackingAllocator@23@$00@internal@shdfnd@physx@@AAEXXZ 1000f590 f i CmCollection.obj
 0001:0000e5c0       ?allocate@?$ReflectionAllocator@VCollection@Cm@physx@@@shdfnd@physx@@QAEPAXIPBDH@Z 1000f5c0 f i CmCollection.obj
 0001:0000e610       ?allocate@NonTrackingAllocator@shdfnd@physx@@QAEPAXIPBDH@Z 1000f610 f i CmCollection.obj
 0001:0000e660       ?capacity@?$HashBase@V?$Pair@QAVPxBase@physx@@_K@shdfnd@physx@@PAVPxBase@3@U?$Hash@PAVPxBase@physx@@@23@UGetKey@?$HashMapBase@PAVPxBase@physx@@_KU?$Hash@PAVPxBase@physx@@@shdfnd@2@VNonTrackingAllocator@42@@internal@23@VNonTrackingAllocator@23@$00@internal@shdfnd@physx@@QBEIXZ 1000f660 f i CmCollection.obj
 0001:0000e680       ?capacity@?$HashMapBase@PAVPxBase@physx@@_KU?$Hash@PAVPxBase@physx@@@shdfnd@2@VNonTrackingAllocator@42@@internal@shdfnd@physx@@QBEIXZ 1000f680 f i CmCollection.obj
 0001:0000e6a0       ?check@Iter@?$HashBase@V?$Pair@$$CB_KPAVPxBase@physx@@@shdfnd@physx@@_KU?$Hash@_K@23@UGetKey@?$HashMapBase@_KPAVPxBase@physx@@U?$Hash@_K@shdfnd@2@VNonTrackingAllocator@42@@internal@23@VNonTrackingAllocator@23@$00@internal@shdfnd@physx@@QBEXXZ 1000f6a0 f i CmCollection.obj
 0001:0000e700       ?create@?$HashBase@V?$Pair@$$CB_KPAVPxBase@physx@@@shdfnd@physx@@_KU?$Hash@_K@23@UGetKey@?$HashMapBase@_KPAVPxBase@physx@@U?$Hash@_K@shdfnd@2@VNonTrackingAllocator@42@@internal@23@VNonTrackingAllocator@23@$00@internal@shdfnd@physx@@QAEPAV?$Pair@$$CB_KPAVPxBase@physx@@@34@AB_KAA_N@Z 1000f700 f i CmCollection.obj
 0001:0000e850       ?create@?$HashBase@V?$Pair@QAVPxBase@physx@@_K@shdfnd@physx@@PAVPxBase@3@U?$Hash@PAVPxBase@physx@@@23@UGetKey@?$HashMapBase@PAVPxBase@physx@@_KU?$Hash@PAVPxBase@physx@@@shdfnd@2@VNonTrackingAllocator@42@@internal@23@VNonTrackingAllocator@23@$00@internal@shdfnd@physx@@QAEPAV?$Pair@QAVPxBase@physx@@_K@34@ABQAVPxBase@4@AA_N@Z 1000f850 f i CmCollection.obj
 0001:0000e9a0       ?deallocate@NonTrackingAllocator@shdfnd@physx@@QAEXPAX@Z 1000f9a0 f i CmCollection.obj
 0001:0000e9d0       ?destroy@?$HashBase@V?$Pair@$$CB_KPAVPxBase@physx@@@shdfnd@physx@@_KU?$Hash@_K@23@UGetKey@?$HashMapBase@_KPAVPxBase@physx@@U?$Hash@_K@shdfnd@2@VNonTrackingAllocator@42@@internal@23@VNonTrackingAllocator@23@$00@internal@shdfnd@physx@@AAEXXZ 1000f9d0 f i CmCollection.obj
 0001:0000ea30       ?destroy@?$HashBase@V?$Pair@QAVPxBase@physx@@_K@shdfnd@physx@@PAVPxBase@3@U?$Hash@PAVPxBase@physx@@@23@UGetKey@?$HashMapBase@PAVPxBase@physx@@_KU?$Hash@PAVPxBase@physx@@@shdfnd@2@VNonTrackingAllocator@42@@internal@23@VNonTrackingAllocator@23@$00@internal@shdfnd@physx@@AAEXXZ 1000fa30 f i CmCollection.obj
 0001:0000ea90       ?done@Iter@?$HashBase@V?$Pair@$$CB_KPAVPxBase@physx@@@shdfnd@physx@@_KU?$Hash@_K@23@UGetKey@?$HashMapBase@_KPAVPxBase@physx@@U?$Hash@_K@shdfnd@2@VNonTrackingAllocator@42@@internal@23@VNonTrackingAllocator@23@$00@internal@shdfnd@physx@@QBE_NXZ 1000fa90 f i CmCollection.obj
 0001:0000ead0       ?equal@?$Hash@PAVPxBase@physx@@@shdfnd@physx@@QBE_NABQAVPxBase@3@0@Z 1000fad0 f i CmCollection.obj
 0001:0000eb00       ?equal@?$Hash@_K@shdfnd@physx@@QBE_NAB_K0@Z 1000fb00 f i CmCollection.obj
 0001:0000eb50       ?erase@?$HashBase@V?$Pair@$$CB_KPAVPxBase@physx@@@shdfnd@physx@@_KU?$Hash@_K@23@UGetKey@?$HashMapBase@_KPAVPxBase@physx@@U?$Hash@_K@shdfnd@2@VNonTrackingAllocator@42@@internal@23@VNonTrackingAllocator@23@$00@internal@shdfnd@physx@@QAE_NAB_K@Z 1000fb50 f i CmCollection.obj
 0001:0000ebf0       ?erase@?$HashBase@V?$Pair@QAVPxBase@physx@@_K@shdfnd@physx@@PAVPxBase@3@U?$Hash@PAVPxBase@physx@@@23@UGetKey@?$HashMapBase@PAVPxBase@physx@@_KU?$Hash@PAVPxBase@physx@@@shdfnd@2@VNonTrackingAllocator@42@@internal@23@VNonTrackingAllocator@23@$00@internal@shdfnd@physx@@QAE_NABQAVPxBase@4@@Z 1000fbf0 f i CmCollection.obj
 0001:0000ec90       ?erase@?$HashMapBase@PAVPxBase@physx@@_KU?$Hash@PAVPxBase@physx@@@shdfnd@2@VNonTrackingAllocator@42@@internal@shdfnd@physx@@QAE_NABQAVPxBase@4@@Z 1000fc90 f i CmCollection.obj
 0001:0000ecb0       ?erase@?$HashMapBase@_KPAVPxBase@physx@@U?$Hash@_K@shdfnd@2@VNonTrackingAllocator@42@@internal@shdfnd@physx@@QAE_NAB_K@Z 1000fcb0 f i CmCollection.obj
 0001:0000ecd0       ?eraseInternal@?$HashBase@V?$Pair@$$CB_KPAVPxBase@physx@@@shdfnd@physx@@_KU?$Hash@_K@23@UGetKey@?$HashMapBase@_KPAVPxBase@physx@@U?$Hash@_K@shdfnd@2@VNonTrackingAllocator@42@@internal@23@VNonTrackingAllocator@23@$00@internal@shdfnd@physx@@AAE_NPAI@Z 1000fcd0 f i CmCollection.obj
 0001:0000ed50       ?eraseInternal@?$HashBase@V?$Pair@QAVPxBase@physx@@_K@shdfnd@physx@@PAVPxBase@3@U?$Hash@PAVPxBase@physx@@@23@UGetKey@?$HashMapBase@PAVPxBase@physx@@_KU?$Hash@PAVPxBase@physx@@@shdfnd@2@VNonTrackingAllocator@42@@internal@23@VNonTrackingAllocator@23@$00@internal@shdfnd@physx@@AAE_NPAI@Z 1000fd50 f i CmCollection.obj
 0001:0000edd0       ?find@?$HashBase@V?$Pair@$$CB_KPAVPxBase@physx@@@shdfnd@physx@@_KU?$Hash@_K@23@UGetKey@?$HashMapBase@_KPAVPxBase@physx@@U?$Hash@_K@shdfnd@2@VNonTrackingAllocator@42@@internal@23@VNonTrackingAllocator@23@$00@internal@shdfnd@physx@@QBEPBV?$Pair@$$CB_KPAVPxBase@physx@@@34@AB_K@Z 1000fdd0 f i CmCollection.obj
 0001:0000ee70       ?find@?$HashBase@V?$Pair@QAVPxBase@physx@@_K@shdfnd@physx@@PAVPxBase@3@U?$Hash@PAVPxBase@physx@@@23@UGetKey@?$HashMapBase@PAVPxBase@physx@@_KU?$Hash@PAVPxBase@physx@@@shdfnd@2@VNonTrackingAllocator@42@@internal@23@VNonTrackingAllocator@23@$00@internal@shdfnd@physx@@QBEPBV?$Pair@QAVPxBase@physx@@_K@34@ABQAVPxBase@4@@Z 1000fe70 f i CmCollection.obj
 0001:0000ef10       ?find@?$HashMapBase@PAVPxBase@physx@@_KU?$Hash@PAVPxBase@physx@@@shdfnd@2@VNonTrackingAllocator@42@@internal@shdfnd@physx@@QBEPBV?$Pair@QAVPxBase@physx@@_K@34@ABQAVPxBase@4@@Z 1000ff10 f i CmCollection.obj
 0001:0000ef30       ?find@?$HashMapBase@_KPAVPxBase@physx@@U?$Hash@_K@shdfnd@2@VNonTrackingAllocator@42@@internal@shdfnd@physx@@QBEPBV?$Pair@$$CB_KPAVPxBase@physx@@@34@AB_K@Z 1000ff30 f i CmCollection.obj
 0001:0000ef50       ?freeListAdd@?$HashBase@V?$Pair@$$CB_KPAVPxBase@physx@@@shdfnd@physx@@_KU?$Hash@_K@23@UGetKey@?$HashMapBase@_KPAVPxBase@physx@@U?$Hash@_K@shdfnd@2@VNonTrackingAllocator@42@@internal@23@VNonTrackingAllocator@23@$00@internal@shdfnd@physx@@AAEXI@Z 1000ff50 f i CmCollection.obj
 0001:0000efe0       ?freeListAdd@?$HashBase@V?$Pair@$$CB_KPAVPxBase@physx@@@shdfnd@physx@@_KU?$Hash@_K@23@UGetKey@?$HashMapBase@_KPAVPxBase@physx@@U?$Hash@_K@shdfnd@2@VNonTrackingAllocator@42@@internal@23@VNonTrackingAllocator@23@$00@internal@shdfnd@physx@@AAEXII@Z 1000ffe0 f i CmCollection.obj
 0001:0000f0a0       ?freeListAdd@?$HashBase@V?$Pair@QAVPxBase@physx@@_K@shdfnd@physx@@PAVPxBase@3@U?$Hash@PAVPxBase@physx@@@23@UGetKey@?$HashMapBase@PAVPxBase@physx@@_KU?$Hash@PAVPxBase@physx@@@shdfnd@2@VNonTrackingAllocator@42@@internal@23@VNonTrackingAllocator@23@$00@internal@shdfnd@physx@@AAEXI@Z 100100a0 f i CmCollection.obj
 0001:0000f130       ?freeListAdd@?$HashBase@V?$Pair@QAVPxBase@physx@@_K@shdfnd@physx@@PAVPxBase@3@U?$Hash@PAVPxBase@physx@@@23@UGetKey@?$HashMapBase@PAVPxBase@physx@@_KU?$Hash@PAVPxBase@physx@@@shdfnd@2@VNonTrackingAllocator@42@@internal@23@VNonTrackingAllocator@23@$00@internal@shdfnd@physx@@AAEXII@Z 10010130 f i CmCollection.obj
 0001:0000f1f0       ?freeListEmpty@?$HashBase@V?$Pair@$$CB_KPAVPxBase@physx@@@shdfnd@physx@@_KU?$Hash@_K@23@UGetKey@?$HashMapBase@_KPAVPxBase@physx@@U?$Hash@_K@shdfnd@2@VNonTrackingAllocator@42@@internal@23@VNonTrackingAllocator@23@$00@internal@shdfnd@physx@@ABE_NXZ 100101f0 f i CmCollection.obj
 0001:0000f250       ?freeListEmpty@?$HashBase@V?$Pair@QAVPxBase@physx@@_K@shdfnd@physx@@PAVPxBase@3@U?$Hash@PAVPxBase@physx@@@23@UGetKey@?$HashMapBase@PAVPxBase@physx@@_KU?$Hash@PAVPxBase@physx@@@shdfnd@2@VNonTrackingAllocator@42@@internal@23@VNonTrackingAllocator@23@$00@internal@shdfnd@physx@@ABE_NXZ 10010250 f i CmCollection.obj
 0001:0000f2b0       ?freeListGetNext@?$HashBase@V?$Pair@$$CB_KPAVPxBase@physx@@@shdfnd@physx@@_KU?$Hash@_K@23@UGetKey@?$HashMapBase@_KPAVPxBase@physx@@U?$Hash@_K@shdfnd@2@VNonTrackingAllocator@42@@internal@23@VNonTrackingAllocator@23@$00@internal@shdfnd@physx@@AAEIXZ 100102b0 f i CmCollection.obj
 0001:0000f390       ?freeListGetNext@?$HashBase@V?$Pair@QAVPxBase@physx@@_K@shdfnd@physx@@PAVPxBase@3@U?$Hash@PAVPxBase@physx@@@23@UGetKey@?$HashMapBase@PAVPxBase@physx@@_KU?$Hash@PAVPxBase@physx@@@shdfnd@2@VNonTrackingAllocator@42@@internal@23@VNonTrackingAllocator@23@$00@internal@shdfnd@physx@@AAEIXZ 10010390 f i CmCollection.obj
 0001:0000f470       ?getEntries@?$CoalescedHashMap@PAVPxBase@physx@@_KU?$Hash@PAVPxBase@physx@@@shdfnd@2@VNonTrackingAllocator@42@@shdfnd@physx@@QBEPBV?$Pair@QAVPxBase@physx@@_K@23@XZ 10010470 f i CmCollection.obj
 0001:0000f490       ?getEntries@?$HashBase@V?$Pair@QAVPxBase@physx@@_K@shdfnd@physx@@PAVPxBase@3@U?$Hash@PAVPxBase@physx@@@23@UGetKey@?$HashMapBase@PAVPxBase@physx@@_KU?$Hash@PAVPxBase@physx@@@shdfnd@2@VNonTrackingAllocator@42@@internal@23@VNonTrackingAllocator@23@$00@internal@shdfnd@physx@@QBEPBV?$Pair@QAVPxBase@physx@@_K@34@XZ 10010490 f i CmCollection.obj
 0001:0000f4b0       ?getFoundation@shdfnd@physx@@YAAAVFoundation@12@XZ 100104b0 f i CmCollection.obj
 0001:0000f4c0       ?getIterator@?$HashMapBase@_KPAVPxBase@physx@@U?$Hash@_K@shdfnd@2@VNonTrackingAllocator@42@@internal@shdfnd@physx@@QAE?AVIter@?$HashBase@V?$Pair@$$CB_KPAVPxBase@physx@@@shdfnd@physx@@_KU?$Hash@_K@23@UGetKey@?$HashMapBase@_KPAVPxBase@physx@@U?$Hash@_K@shdfnd@2@VNonTrackingAllocator@42@@internal@23@VNonTrackingAllocator@23@$00@234@XZ 100104c0 f i CmCollection.obj
 0001:0000f4e0       ?getName@?$ReflectionAllocator@VCollection@Cm@physx@@@shdfnd@physx@@CAPBDXZ 100104e0 f i CmCollection.obj
 0001:0000f520       ?grow@?$HashBase@V?$Pair@$$CB_KPAVPxBase@physx@@@shdfnd@physx@@_KU?$Hash@_K@23@UGetKey@?$HashMapBase@_KPAVPxBase@physx@@U?$Hash@_K@shdfnd@2@VNonTrackingAllocator@42@@internal@23@VNonTrackingAllocator@23@$00@internal@shdfnd@physx@@AAEXXZ 10010520 f i CmCollection.obj
 0001:0000f5c0       ?grow@?$HashBase@V?$Pair@QAVPxBase@physx@@_K@shdfnd@physx@@PAVPxBase@3@U?$Hash@PAVPxBase@physx@@@23@UGetKey@?$HashMapBase@PAVPxBase@physx@@_KU?$Hash@PAVPxBase@physx@@@shdfnd@2@VNonTrackingAllocator@42@@internal@23@VNonTrackingAllocator@23@$00@internal@shdfnd@physx@@AAEXXZ 100105c0 f i CmCollection.obj
 0001:0000f660       ?hash@?$HashBase@V?$Pair@$$CB_KPAVPxBase@physx@@@shdfnd@physx@@_KU?$Hash@_K@23@UGetKey@?$HashMapBase@_KPAVPxBase@physx@@U?$Hash@_K@shdfnd@2@VNonTrackingAllocator@42@@internal@23@VNonTrackingAllocator@23@$00@internal@shdfnd@physx@@ABEIAB_K@Z 10010660 f i CmCollection.obj
 0001:0000f680       ?hash@?$HashBase@V?$Pair@$$CB_KPAVPxBase@physx@@@shdfnd@physx@@_KU?$Hash@_K@23@UGetKey@?$HashMapBase@_KPAVPxBase@physx@@U?$Hash@_K@shdfnd@2@VNonTrackingAllocator@42@@internal@23@VNonTrackingAllocator@23@$00@internal@shdfnd@physx@@ABEIAB_KI@Z 10010680 f i CmCollection.obj
 0001:0000f6b0       ?hash@?$HashBase@V?$Pair@QAVPxBase@physx@@_K@shdfnd@physx@@PAVPxBase@3@U?$Hash@PAVPxBase@physx@@@23@UGetKey@?$HashMapBase@PAVPxBase@physx@@_KU?$Hash@PAVPxBase@physx@@@shdfnd@2@VNonTrackingAllocator@42@@internal@23@VNonTrackingAllocator@23@$00@internal@shdfnd@physx@@ABEIABQAVPxBase@4@@Z 100106b0 f i CmCollection.obj
 0001:0000f6d0       ?hash@?$HashBase@V?$Pair@QAVPxBase@physx@@_K@shdfnd@physx@@PAVPxBase@3@U?$Hash@PAVPxBase@physx@@@23@UGetKey@?$HashMapBase@PAVPxBase@physx@@_KU?$Hash@PAVPxBase@physx@@@shdfnd@2@VNonTrackingAllocator@42@@internal@23@VNonTrackingAllocator@23@$00@internal@shdfnd@physx@@ABEIABQAVPxBase@4@I@Z 100106d0 f i CmCollection.obj
 0001:0000f700       ?hash@shdfnd@physx@@YAII@Z 10010700 f i CmCollection.obj
 0001:0000f760       ?hash@shdfnd@physx@@YAIPBX@Z 10010760 f i CmCollection.obj
 0001:0000f780       ?hash@shdfnd@physx@@YAI_K@Z 10010780 f i CmCollection.obj
 0001:0000f870       ?init@?$HashBase@V?$Pair@$$CB_KPAVPxBase@physx@@@shdfnd@physx@@_KU?$Hash@_K@23@UGetKey@?$HashMapBase@_KPAVPxBase@physx@@U?$Hash@_K@shdfnd@2@VNonTrackingAllocator@42@@internal@23@VNonTrackingAllocator@23@$00@internal@shdfnd@physx@@AAEXIM@Z 10010870 f i CmCollection.obj
 0001:0000f900       ?init@?$HashBase@V?$Pair@QAVPxBase@physx@@_K@shdfnd@physx@@PAVPxBase@3@U?$Hash@PAVPxBase@physx@@@23@UGetKey@?$HashMapBase@PAVPxBase@physx@@_KU?$Hash@PAVPxBase@physx@@@shdfnd@2@VNonTrackingAllocator@42@@internal@23@VNonTrackingAllocator@23@$00@internal@shdfnd@physx@@AAEXIM@Z 10010900 f i CmCollection.obj
 0001:0000f990       ?insert@?$HashMapBase@PAVPxBase@physx@@_KU?$Hash@PAVPxBase@physx@@@shdfnd@2@VNonTrackingAllocator@42@@internal@shdfnd@physx@@QAE_NQAVPxBase@4@_K@Z 10010990 f i CmCollection.obj
 0001:0000fa00       ?insert@?$HashMapBase@_KPAVPxBase@physx@@U?$Hash@_K@shdfnd@2@VNonTrackingAllocator@42@@internal@shdfnd@physx@@QAE_N_KQAVPxBase@4@@Z 10010a00 f i CmCollection.obj
 0001:0000fa70       ?isPowerOfTwo@shdfnd@physx@@YA_NI@Z 10010a70 f i CmCollection.obj
 0001:0000faa0       ?memCopy@intrinsics@physx@@YAPAXPAXPBXI@Z 10010aa0 f i CmCollection.obj
 0001:0000fac0       ?memSet@intrinsics@physx@@YAPAXPAXHI@Z 10010ac0 f i CmCollection.obj
 0001:0000fae0       ?name@type_info@@QBEPBDXZ  10010ae0 f i CmCollection.obj
 0001:0000fb00       ?nextPowerOfTwo@shdfnd@physx@@YAII@Z 10010b00 f i CmCollection.obj
 0001:0000fb50       ?release@Collection@Cm@physx@@UAEXXZ 10010b50 f i CmCollection.obj
 0001:0000fb90       ?replaceWithLast@?$HashBase@V?$Pair@$$CB_KPAVPxBase@physx@@@shdfnd@physx@@_KU?$Hash@_K@23@UGetKey@?$HashMapBase@_KPAVPxBase@physx@@U?$Hash@_K@shdfnd@2@VNonTrackingAllocator@42@@internal@23@VNonTrackingAllocator@23@$00@internal@shdfnd@physx@@AAEXI@Z 10010b90 f i CmCollection.obj
 0001:0000fc90       ?replaceWithLast@?$HashBase@V?$Pair@QAVPxBase@physx@@_K@shdfnd@physx@@PAVPxBase@3@U?$Hash@PAVPxBase@physx@@@23@UGetKey@?$HashMapBase@PAVPxBase@physx@@_KU?$Hash@PAVPxBase@physx@@@shdfnd@2@VNonTrackingAllocator@42@@internal@23@VNonTrackingAllocator@23@$00@internal@shdfnd@physx@@AAEXI@Z 10010c90 f i CmCollection.obj
 0001:0000fd90       ?reserve@?$HashBase@V?$Pair@$$CB_KPAVPxBase@physx@@@shdfnd@physx@@_KU?$Hash@_K@23@UGetKey@?$HashMapBase@_KPAVPxBase@physx@@U?$Hash@_K@shdfnd@2@VNonTrackingAllocator@42@@internal@23@VNonTrackingAllocator@23@$00@internal@shdfnd@physx@@QAEXI@Z 10010d90 f i CmCollection.obj
 0001:0000fdc0       ?reserve@?$HashBase@V?$Pair@QAVPxBase@physx@@_K@shdfnd@physx@@PAVPxBase@3@U?$Hash@PAVPxBase@physx@@@23@UGetKey@?$HashMapBase@PAVPxBase@physx@@_KU?$Hash@PAVPxBase@physx@@@shdfnd@2@VNonTrackingAllocator@42@@internal@23@VNonTrackingAllocator@23@$00@internal@shdfnd@physx@@QAEXI@Z 10010dc0 f i CmCollection.obj
 0001:0000fdf0       ?reserve@?$HashMapBase@PAVPxBase@physx@@_KU?$Hash@PAVPxBase@physx@@@shdfnd@2@VNonTrackingAllocator@42@@internal@shdfnd@physx@@QAEXI@Z 10010df0 f i CmCollection.obj
 0001:0000fe10       ?reserveInternal@?$HashBase@V?$Pair@$$CB_KPAVPxBase@physx@@@shdfnd@physx@@_KU?$Hash@_K@23@UGetKey@?$HashMapBase@_KPAVPxBase@physx@@U?$Hash@_K@shdfnd@2@VNonTrackingAllocator@42@@internal@23@VNonTrackingAllocator@23@$00@internal@shdfnd@physx@@AAEXI@Z 10010e10 f i CmCollection.obj
 0001:000101b0       ?reserveInternal@?$HashBase@V?$Pair@QAVPxBase@physx@@_K@shdfnd@physx@@PAVPxBase@3@U?$Hash@PAVPxBase@physx@@@23@UGetKey@?$HashMapBase@PAVPxBase@physx@@_KU?$Hash@PAVPxBase@physx@@@shdfnd@2@VNonTrackingAllocator@42@@internal@23@VNonTrackingAllocator@23@$00@internal@shdfnd@physx@@AAEXI@Z 100111b0 f i CmCollection.obj
 0001:00010550       ?size@?$HashBase@V?$Pair@$$CB_KPAVPxBase@physx@@@shdfnd@physx@@_KU?$Hash@_K@23@UGetKey@?$HashMapBase@_KPAVPxBase@physx@@U?$Hash@_K@shdfnd@2@VNonTrackingAllocator@42@@internal@23@VNonTrackingAllocator@23@$00@internal@shdfnd@physx@@QBEIXZ 10011550 f i CmCollection.obj
 0001:00010570       ?size@?$HashBase@V?$Pair@QAVPxBase@physx@@_K@shdfnd@physx@@PAVPxBase@3@U?$Hash@PAVPxBase@physx@@@23@UGetKey@?$HashMapBase@PAVPxBase@physx@@_KU?$Hash@PAVPxBase@physx@@@shdfnd@2@VNonTrackingAllocator@42@@internal@23@VNonTrackingAllocator@23@$00@internal@shdfnd@physx@@QBEIXZ 10011570 f i CmCollection.obj
 0001:00010590       ?size@?$HashMapBase@PAVPxBase@physx@@_KU?$Hash@PAVPxBase@physx@@@shdfnd@2@VNonTrackingAllocator@42@@internal@shdfnd@physx@@QBEIXZ 10011590 f i CmCollection.obj
 0001:000105b0       ?size@?$HashMapBase@_KPAVPxBase@physx@@U?$Hash@_K@shdfnd@2@VNonTrackingAllocator@42@@internal@shdfnd@physx@@QBEIXZ 100115b0 f i CmCollection.obj
 0001:000105d0       ?skip@Iter@?$HashBase@V?$Pair@$$CB_KPAVPxBase@physx@@@shdfnd@physx@@_KU?$Hash@_K@23@UGetKey@?$HashMapBase@_KPAVPxBase@physx@@U?$Hash@_K@shdfnd@2@VNonTrackingAllocator@42@@internal@23@VNonTrackingAllocator@23@$00@internal@shdfnd@physx@@AAEXXZ 100115d0 f i CmCollection.obj
 0001:00010630       ?PxTransformFromPlaneEquation@physx@@YA?AVPxTransform@1@ABVPxPlane@1@@Z 10011630 f   CmMathUtils.obj
 0001:00010830       ?PxTransformFromSegment@physx@@YA?AVPxTransform@1@ABVPxVec3@1@0PAM@Z 10011830 f   CmMathUtils.obj
 0001:00010920       ??$PX_UNUSED@W4PxIDENTITY@physx@@@@YAXABW4PxIDENTITY@physx@@@Z 10011920 f i CmMathUtils.obj
 0001:00010930       ??0PxPlane@physx@@QAE@ABV01@@Z 10011930 f i CmMathUtils.obj
 0001:00010960       ??0PxQuat@physx@@QAE@ABV01@@Z 10011960 f i CmMathUtils.obj
 0001:000109a0       ??0PxQuat@physx@@QAE@MMMM@Z 100119a0 f i CmMathUtils.obj
 0001:000109f0       ??0PxQuat@physx@@QAE@W4PxIDENTITY@1@@Z 100119f0 f i CmMathUtils.obj
 0001:00010a40       ??0PxQuat@physx@@QAE@XZ    10011a40 f i CmMathUtils.obj
 0001:00010a50       ??0PxTransform@physx@@QAE@ABVPxVec3@1@ABVPxQuat@1@@Z 10011a50 f i CmMathUtils.obj
 0001:00010aa0       ??0PxVec3@physx@@QAE@ABV01@@Z 10011aa0 f i CmMathUtils.obj
 0001:00010ae0       ??0PxVec3@physx@@QAE@MMM@Z 10011ae0 f i CmMathUtils.obj
 0001:00010b20       ??4PxQuat@physx@@QAEAAV01@ABV01@@Z 10011b20 f i CmMathUtils.obj
 0001:00010b60       ??DPxQuat@physx@@QBE?AV01@M@Z 10011b60 f i CmMathUtils.obj
 0001:00010bd0       ??DPxVec3@physx@@QBE?AV01@M@Z 10011bd0 f i CmMathUtils.obj
 0001:00010c20       ??GPxVec3@physx@@QBE?AV01@ABV01@@Z 10011c20 f i CmMathUtils.obj
 0001:00010c80       ??GPxVec3@physx@@QBE?AV01@XZ 10011c80 f i CmMathUtils.obj
 0001:00010ce0       ??HPxVec3@physx@@QBE?AV01@ABV01@@Z 10011ce0 f i CmMathUtils.obj
 0001:00010d40       ??KPxVec3@physx@@QBE?AV01@M@Z 10011d40 f i CmMathUtils.obj
 0001:00010db0       ??XPxVec3@physx@@QAEAAV01@M@Z 10011db0 f i CmMathUtils.obj
 0001:00010e00       ?PxAbs@physx@@YAMM@Z       10011e00 f i CmMathUtils.obj
 0001:00010e20       ?PxIsFinite@physx@@YA_NM@Z 10011e20 f i CmMathUtils.obj
 0001:00010e40       ?PxSqrt@physx@@YAMM@Z      10011e40 f i CmMathUtils.obj
 0001:00010e60       ?abs@intrinsics@physx@@YAMM@Z 10011e60 f i CmMathUtils.obj
 0001:00010e80       ?isFinite@PxQuat@physx@@QBE_NXZ 10011e80 f i CmMathUtils.obj
 0001:00010f20       ?isFinite@intrinsics@physx@@YA_NM@Z 10011f20 f i CmMathUtils.obj
 0001:00010f60       ?isSane@PxQuat@physx@@QBE_NXZ 10011f60 f i CmMathUtils.obj
 0001:00010fe0       ?magnitude@PxQuat@physx@@QBEMXZ 10011fe0 f i CmMathUtils.obj
 0001:00011000       ?magnitude@PxVec3@physx@@QBEMXZ 10012000 f i CmMathUtils.obj
 0001:00011020       ?magnitudeSquared@PxQuat@physx@@QBEMXZ 10012020 f i CmMathUtils.obj
 0001:00011080       ?magnitudeSquared@PxVec3@physx@@QBEMXZ 10012080 f i CmMathUtils.obj
 0001:000110d0       ?normalize@PxPlane@physx@@QAEXXZ 100120d0 f i CmMathUtils.obj
 0001:00011130       ?sqrt@intrinsics@physx@@YAMM@Z 10012130 f i CmMathUtils.obj
 0001:00011150       _fabsf                     10012150 f i CmMathUtils.obj
 0001:00011180       _sqrtf                     10012180 f i CmMathUtils.obj
 0001:000111b0       ??0PtrTable@Cm@physx@@QAE@XZ 100121b0 f   CmPtrTable.obj
 0001:000111e0       ??1PtrTable@Cm@physx@@QAE@XZ 100121e0 f   CmPtrTable.obj
 0001:000112b0       ?add@PtrTable@Cm@physx@@QAEXPAXAAVPtrTableStorageManager@23@@Z 100122b0 f   CmPtrTable.obj
 0001:00011580       ?replaceWithLast@PtrTable@Cm@physx@@QAEXIAAVPtrTableStorageManager@23@@Z 10012580 f   CmPtrTable.obj
 0001:00011840       ?clear@PtrTable@Cm@physx@@QAEXAAVPtrTableStorageManager@23@@Z 10012840 f   CmPtrTable.obj
 0001:000118b0       ?find@PtrTable@Cm@physx@@QBEIPBX@Z 100128b0 f   CmPtrTable.obj
 0001:00011910       ?exportExtraData@PtrTable@Cm@physx@@QAEXAAVPxSerializationContext@3@@Z 10012910 f   CmPtrTable.obj
 0001:00011960       ?importExtraData@PtrTable@Cm@physx@@QAEXAAVPxDeserializationContext@3@@Z 10012960 f   CmPtrTable.obj
 0001:00011990       ?getBinaryMetaData@PtrTable@Cm@physx@@SAXAAVPxOutputStream@3@@Z 10012990 f   CmPtrTable.obj
 0001:00011b90       ?realloc@PtrTable@Cm@physx@@AAEXIIAAVPtrTableStorageManager@23@@Z 10012b90 f   CmPtrTable.obj
 0001:00011cc0       ??$readExtraData@PAX$0BA@@PxDeserializationContext@physx@@QAEPAPAXI@Z 10012cc0 f i CmPtrTable.obj
 0001:00011cf0       ??$readExtraData@PAX@PxDeserializationContext@physx@@QAEPAPAXI@Z 10012cf0 f i CmPtrTable.obj
 0001:00011d20       ??0PtrTable@Cm@physx@@QAE@W4PxEMPTY@2@@Z 10012d20 f i CmPtrTable.obj
 0001:00011d70       ??4PtrTable@Cm@physx@@QAEAAU012@ABU012@@Z 10012d70 f i CmPtrTable.obj
 0001:00011d90       ?PxMemCopy@physx@@YAPAXPAXPBXI@Z 10012d90 f i CmPtrTable.obj
 0001:00011db0       ?alignExtraData@PxDeserializationContext@physx@@QAEXI@Z 10012db0 f i CmPtrTable.obj
 0001:00011df0       ?getCount@PtrTable@Cm@physx@@QBEIXZ 10012df0 f i CmPtrTable.obj
 0001:00011e10       ?getPtrs@PtrTable@Cm@physx@@QAEPAPAXXZ 10012e10 f i CmPtrTable.obj
 0001:00011e40       ?getPtrs@PtrTable@Cm@physx@@QBEPBQAXXZ 10012e40 f i CmPtrTable.obj
 0001:00011e80       ??0RadixSort@Cm@physx@@QAE@XZ 10012e80 f   CmRadixSort.obj
 0001:00011f00       ??1RadixSort@Cm@physx@@UAE@XZ 10012f00 f   CmRadixSort.obj
 0001:00011f20       ?Sort@RadixSort@Cm@physx@@QAEAAV123@PBIIW4RadixHint@23@@Z 10012f20 f   CmRadixSort.obj
 0001:00012a50       ?Sort@RadixSort@Cm@physx@@QAEAAV123@PBMI@Z 10013a50 f   CmRadixSort.obj
 0001:000134c0       ?SetBuffers@RadixSort@Cm@physx@@QAE_NPAI00PAPAI@Z 100144c0 f   CmRadixSort.obj
 0001:00013530       ??_ERadixSort@Cm@physx@@UAEPAXI@Z 10014530 f i CmRadixSort.obj
 0001:000135b0       ??_GRadixSort@Cm@physx@@UAEPAXI@Z 100145b0 f i CmRadixSort.obj
 0001:000135e0       ??_I@YGXPAXIIP6EX0@Z@Z     100145e0 f i CmRadixSort.obj
 0001:00013640       ?CheckPassValidity@@YAPBIIPBIIPBXAAE@Z 10014640 f i CmRadixSort.obj
 0001:00013680       ?GetNbHits@RadixSort@Cm@physx@@QBEIXZ 10014680 f i CmRadixSort.obj
 0001:000136a0       ?GetNbTotalCalls@RadixSort@Cm@physx@@QBEIXZ 100146a0 f i CmRadixSort.obj
 0001:000136c0       ?GetRanks@RadixSort@Cm@physx@@QBEPBIXZ 100146c0 f i CmRadixSort.obj
 0001:000136e0       ?GetRecyclable@RadixSort@Cm@physx@@QBEPAIXZ 100146e0 f i CmRadixSort.obj
 0001:00013700       ?PxMemZero@physx@@YAPAXPAXI@Z 10014700 f i CmRadixSort.obj
 0001:00013720       ?invalidateRanks@RadixSort@Cm@physx@@QAEXXZ 10014720 f i CmRadixSort.obj
 0001:00013740       ?memZero@intrinsics@physx@@YAPAXPAXI@Z 10014740 f i CmRadixSort.obj
 0001:00013760       ??0RadixSortBuffered@Cm@physx@@QAE@XZ 10014760 f   CmRadixSortBuffered.obj
 0001:00013780       ??1RadixSortBuffered@Cm@physx@@UAE@XZ 10014780 f   CmRadixSortBuffered.obj
 0001:000137b0       ?reset@RadixSortBuffered@Cm@physx@@QAEXXZ 100147b0 f   CmRadixSortBuffered.obj
 0001:00013830       ?Sort@RadixSortBuffered@Cm@physx@@QAEAAV123@PBIIW4RadixHint@23@@Z 10014830 f   CmRadixSortBuffered.obj
 0001:000138a0       ?Sort@RadixSortBuffered@Cm@physx@@QAEAAV123@PBMI@Z 100148a0 f   CmRadixSortBuffered.obj
 0001:00013910       ?Resize@RadixSortBuffered@Cm@physx@@AAE_NI@Z 10014910 f   CmRadixSortBuffered.obj
 0001:000139e0       ??_ERadixSortBuffered@Cm@physx@@UAEPAXI@Z 100149e0 f i CmRadixSortBuffered.obj
 0001:00013a60       ??_GRadixSortBuffered@Cm@physx@@UAEPAXI@Z 10014a60 f i CmRadixSortBuffered.obj
 0001:00013a90       ?CheckResize@RadixSortBuffered@Cm@physx@@AAEXI@Z 10014a90 f i CmRadixSortBuffered.obj
 0001:00013af0       ??6RenderOutput@Cm@physx@@QAEAAV012@W4Primitive@012@@Z 10014af0 f   CmRenderOutput.obj
 0001:00013b20       ??6RenderOutput@Cm@physx@@QAEAAV012@I@Z 10014b20 f   CmRenderOutput.obj
 0001:00013b40       ??6RenderOutput@Cm@physx@@QAEAAV012@ABVPxMat44@2@@Z 10014b40 f   CmRenderOutput.obj
 0001:00013b60       ??6RenderOutput@Cm@physx@@QAEAAV012@ABVPxTransform@2@@Z 10014b60 f   CmRenderOutput.obj
 0001:00013b90       ??6RenderOutput@Cm@physx@@QAEAAV012@VPxVec3@2@@Z 10014b90 f   CmRenderOutput.obj
 0001:00013db0       ??6RenderOutput@Cm@physx@@QAEAAV012@ABUDebugText@12@@Z 10014db0 f   CmRenderOutput.obj
 0001:00013f10       ?outputCapsule@RenderOutput@Cm@physx@@QAEAAV123@MMABVPxMat44@3@@Z 10014f10 f   CmRenderOutput.obj
 0001:00014510       ??0DebugText@Cm@physx@@QAA@ABVPxVec3@2@MPBDZZ 10015510 f   CmRenderOutput.obj
 0001:00014580       ??6Cm@physx@@YAAAVRenderOutput@01@AAV201@ABUDebugBox@01@@Z 10015580 f   CmRenderOutput.obj
 0001:00014cc0       ??6Cm@physx@@YAAAVRenderOutput@01@AAV201@ABUDebugArrow@01@@Z 10015cc0 f   CmRenderOutput.obj
 0001:00014ed0       ??6Cm@physx@@YAAAVRenderOutput@01@AAV201@ABUDebugBasis@01@@Z 10015ed0 f   CmRenderOutput.obj
 0001:00015040       ??6Cm@physx@@YAAAVRenderOutput@01@AAV201@ABUDebugCircle@01@@Z 10016040 f   CmRenderOutput.obj
 0001:00015170       ??6Cm@physx@@YAAAVRenderOutput@01@AAV201@ABUDebugArc@01@@Z 10016170 f   CmRenderOutput.obj
 0001:000152f0       ??$PxMax@I@physx@@YAIII@Z  100162f0 f i CmRenderOutput.obj
 0001:00015320       ??$swap@VPxVec4@physx@@@shdfnd@physx@@YAXAAVPxVec4@1@0@Z 10016320 f i CmRenderOutput.obj
 0001:00015350       ??0DebugArc@Cm@physx@@QAE@IMMM@Z 10016350 f i CmRenderOutput.obj
 0001:00015390       ??0DebugArrow@Cm@physx@@QAE@ABVPxVec3@2@0M@Z 10016390 f i CmRenderOutput.obj
 0001:000153d0       ??0DebugCircle@Cm@physx@@QAE@IM@Z 100163d0 f i CmRenderOutput.obj
 0001:00015400       ??0DebugText@Cm@physx@@QAE@$$QAU012@@Z 10016400 f i CmRenderOutput.obj
 0001:00015450       ??0DebugText@Cm@physx@@QAE@ABU012@@Z 10016450 f i CmRenderOutput.obj
 0001:000154a0       ??0PxDebugLine@physx@@QAE@ABU01@@Z 100164a0 f i CmRenderOutput.obj
 0001:000154f0       ??0PxDebugLine@physx@@QAE@ABVPxVec3@1@0ABI@Z 100164f0 f i CmRenderOutput.obj
 0001:00015540       ??0PxDebugPoint@physx@@QAE@ABU01@@Z 10016540 f i CmRenderOutput.obj
 0001:00015570       ??0PxDebugPoint@physx@@QAE@ABVPxVec3@1@ABI@Z 10016570 f i CmRenderOutput.obj
 0001:000155a0       ??0PxDebugText@physx@@QAE@ABU01@@Z 100165a0 f i CmRenderOutput.obj
 0001:000155e0       ??0PxDebugText@physx@@QAE@ABVPxVec3@1@ABMABIPBD@Z 100165e0 f i CmRenderOutput.obj
 0001:00015620       ??0PxDebugTriangle@physx@@QAE@ABU01@@Z 10016620 f i CmRenderOutput.obj
 0001:00015690       ??0PxDebugTriangle@physx@@QAE@ABVPxVec3@1@00ABI@Z 10016690 f i CmRenderOutput.obj
 0001:000156f0       ??0PxMat33@physx@@QAE@ABVPxQuat@1@@Z 100166f0 f i CmRenderOutput.obj
 0001:000158f0       ??0PxMat44@physx@@QAE@ABV01@@Z 100168f0 f i CmRenderOutput.obj
 0001:00015950       ??0PxMat44@physx@@QAE@ABVPxMat33@1@ABVPxVec3@1@@Z 10016950 f i CmRenderOutput.obj
 0001:000159d0       ??0PxMat44@physx@@QAE@ABVPxTransform@1@@Z 100169d0 f i CmRenderOutput.obj
 0001:00015a30       ??0PxMat44@physx@@QAE@W4PxIDENTITY@1@@Z 10016a30 f i CmRenderOutput.obj
 0001:00015b20       ??0PxVec3@physx@@QAE@M@Z   10016b20 f i CmRenderOutput.obj
 0001:00015b60       ??0PxVec3@physx@@QAE@XZ    10016b60 f i CmRenderOutput.obj
 0001:00015b70       ??0PxVec4@physx@@QAE@ABV01@@Z 10016b70 f i CmRenderOutput.obj
 0001:00015bb0       ??0PxVec4@physx@@QAE@ABVPxVec3@1@M@Z 10016bb0 f i CmRenderOutput.obj
 0001:00015bf0       ??0PxVec4@physx@@QAE@MMMM@Z 10016bf0 f i CmRenderOutput.obj
 0001:00015c40       ??0PxVec4@physx@@QAE@XZ    10016c40 f i CmRenderOutput.obj
 0001:00015c50       ??0RenderOutput@Cm@physx@@QAE@AAVRenderBuffer@12@@Z 10016c50 f i CmRenderOutput.obj
 0001:00015cc0       ??0RenderOutput@Cm@physx@@QAE@ABV012@@Z 10016cc0 f i CmRenderOutput.obj
 0001:00015d40       ??4DebugText@Cm@physx@@QAEAAU012@$$QAU012@@Z 10016d40 f i CmRenderOutput.obj
 0001:00015db0       ??4DebugText@Cm@physx@@QAEAAU012@ABU012@@Z 10016db0 f i CmRenderOutput.obj
 0001:00015e20       ??4PxMat44@physx@@QAEAAV01@ABV01@@Z 10016e20 f i CmRenderOutput.obj
 0001:00015e80       ??4PxVec3@physx@@QAEAAV01@ABV01@@Z 10016e80 f i CmRenderOutput.obj
 0001:00015ec0       ??4PxVec4@physx@@QAEAAV01@ABV01@@Z 10016ec0 f i CmRenderOutput.obj
 0001:00015f00       ??A?$Array@UPxDebugText@physx@@VNamedAllocator@shdfnd@2@@shdfnd@physx@@QAEAAUPxDebugText@2@I@Z 10016f00 f i CmRenderOutput.obj
 0001:00015f60       ??DPxVec4@physx@@QBE?AV01@M@Z 10016f60 f i CmRenderOutput.obj
 0001:00015fd0       ??GPxVec4@physx@@QBE?AV01@XZ 10016fd0 f i CmRenderOutput.obj
 0001:00016040       ??HPxVec4@physx@@QBE?AV01@ABV01@@Z 10017040 f i CmRenderOutput.obj
 0001:000160b0       ??YPxVec4@physx@@QAEAAV01@ABV01@@Z 100170b0 f i CmRenderOutput.obj
 0001:00016120       ??_0PxVec3@physx@@QAEAAV01@M@Z 10017120 f i CmRenderOutput.obj
 0001:00016180       ?PxCos@physx@@YAMM@Z       10017180 f i CmRenderOutput.obj
 0001:000161a0       ?PxSin@physx@@YAMM@Z       100171a0 f i CmRenderOutput.obj
 0001:000161c0       ?allocate@?$Array@DVNamedAllocator@shdfnd@physx@@@shdfnd@physx@@IAEPADI@Z 100171c0 f i CmRenderOutput.obj
 0001:00016230       ?allocate@?$Array@UPxDebugLine@physx@@VNamedAllocator@shdfnd@2@@shdfnd@physx@@IAEPAUPxDebugLine@3@I@Z 10017230 f i CmRenderOutput.obj
 0001:000162a0       ?allocate@?$Array@UPxDebugPoint@physx@@VNamedAllocator@shdfnd@2@@shdfnd@physx@@IAEPAUPxDebugPoint@3@I@Z 100172a0 f i CmRenderOutput.obj
 0001:00016310       ?allocate@?$Array@UPxDebugText@physx@@VNamedAllocator@shdfnd@2@@shdfnd@physx@@IAEPAUPxDebugText@3@I@Z 10017310 f i CmRenderOutput.obj
 0001:00016380       ?allocate@?$Array@UPxDebugTriangle@physx@@VNamedAllocator@shdfnd@2@@shdfnd@physx@@IAEPAUPxDebugTriangle@3@I@Z 10017380 f i CmRenderOutput.obj
 0001:000163f0       ?begin@?$Array@DVNamedAllocator@shdfnd@physx@@@shdfnd@physx@@QAEPADXZ 100173f0 f i CmRenderOutput.obj
 0001:00016400       ?capacity@?$Array@DVNamedAllocator@shdfnd@physx@@@shdfnd@physx@@QBEIXZ 10017400 f i CmRenderOutput.obj
 0001:00016420       ?capacity@?$Array@UPxDebugLine@physx@@VNamedAllocator@shdfnd@2@@shdfnd@physx@@QBEIXZ 10017420 f i CmRenderOutput.obj
 0001:00016440       ?capacity@?$Array@UPxDebugPoint@physx@@VNamedAllocator@shdfnd@2@@shdfnd@physx@@QBEIXZ 10017440 f i CmRenderOutput.obj
 0001:00016460       ?capacity@?$Array@UPxDebugText@physx@@VNamedAllocator@shdfnd@2@@shdfnd@physx@@QBEIXZ 10017460 f i CmRenderOutput.obj
 0001:00016480       ?capacity@?$Array@UPxDebugTriangle@physx@@VNamedAllocator@shdfnd@2@@shdfnd@physx@@QBEIXZ 10017480 f i CmRenderOutput.obj
 0001:000164a0       ?capacityIncrement@?$Array@DVNamedAllocator@shdfnd@physx@@@shdfnd@physx@@IBEIXZ 100174a0 f i CmRenderOutput.obj
 0001:000164e0       ?capacityIncrement@?$Array@UPxDebugLine@physx@@VNamedAllocator@shdfnd@2@@shdfnd@physx@@IBEIXZ 100174e0 f i CmRenderOutput.obj
 0001:00016520       ?capacityIncrement@?$Array@UPxDebugPoint@physx@@VNamedAllocator@shdfnd@2@@shdfnd@physx@@IBEIXZ 10017520 f i CmRenderOutput.obj
 0001:00016560       ?capacityIncrement@?$Array@UPxDebugText@physx@@VNamedAllocator@shdfnd@2@@shdfnd@physx@@IBEIXZ 10017560 f i CmRenderOutput.obj
 0001:000165a0       ?capacityIncrement@?$Array@UPxDebugTriangle@physx@@VNamedAllocator@shdfnd@2@@shdfnd@physx@@IBEIXZ 100175a0 f i CmRenderOutput.obj
 0001:000165e0       ?copy@?$Array@DVNamedAllocator@shdfnd@physx@@@shdfnd@physx@@KAXPAD0PBD@Z 100175e0 f i CmRenderOutput.obj
 0001:00016630       ?copy@?$Array@UPxDebugLine@physx@@VNamedAllocator@shdfnd@2@@shdfnd@physx@@KAXPAUPxDebugLine@3@0PBU43@@Z 10017630 f i CmRenderOutput.obj
 0001:00016680       ?copy@?$Array@UPxDebugPoint@physx@@VNamedAllocator@shdfnd@2@@shdfnd@physx@@KAXPAUPxDebugPoint@3@0PBU43@@Z 10017680 f i CmRenderOutput.obj
 0001:000166d0       ?copy@?$Array@UPxDebugText@physx@@VNamedAllocator@shdfnd@2@@shdfnd@physx@@KAXPAUPxDebugText@3@0PBU43@@Z 100176d0 f i CmRenderOutput.obj
 0001:00016720       ?copy@?$Array@UPxDebugTriangle@physx@@VNamedAllocator@shdfnd@2@@shdfnd@physx@@KAXPAUPxDebugTriangle@3@0PBU43@@Z 10017720 f i CmRenderOutput.obj
 0001:00016770       ?cos@intrinsics@physx@@YAMM@Z 10017770 f i CmRenderOutput.obj
 0001:00016790       ?cross@PxVec3@physx@@QBE?AV12@ABV12@@Z 10017790 f i CmRenderOutput.obj
 0001:00016830       ?deallocate@?$Array@DVNamedAllocator@shdfnd@physx@@@shdfnd@physx@@IAEXPAX@Z 10017830 f i CmRenderOutput.obj
 0001:00016850       ?deallocate@?$Array@UPxDebugLine@physx@@VNamedAllocator@shdfnd@2@@shdfnd@physx@@IAEXPAX@Z 10017850 f i CmRenderOutput.obj
 0001:00016870       ?deallocate@?$Array@UPxDebugPoint@physx@@VNamedAllocator@shdfnd@2@@shdfnd@physx@@IAEXPAX@Z 10017870 f i CmRenderOutput.obj
 0001:00016890       ?deallocate@?$Array@UPxDebugText@physx@@VNamedAllocator@shdfnd@2@@shdfnd@physx@@IAEXPAX@Z 10017890 f i CmRenderOutput.obj
 0001:000168b0       ?deallocate@?$Array@UPxDebugTriangle@physx@@VNamedAllocator@shdfnd@2@@shdfnd@physx@@IAEXPAX@Z 100178b0 f i CmRenderOutput.obj
 0001:000168d0       ?destroy@?$Array@DVNamedAllocator@shdfnd@physx@@@shdfnd@physx@@KAXPAD0@Z 100178d0 f i CmRenderOutput.obj
 0001:000168f0       ?destroy@?$Array@UPxDebugLine@physx@@VNamedAllocator@shdfnd@2@@shdfnd@physx@@KAXPAUPxDebugLine@3@0@Z 100178f0 f i CmRenderOutput.obj
 0001:00016910       ?destroy@?$Array@UPxDebugPoint@physx@@VNamedAllocator@shdfnd@2@@shdfnd@physx@@KAXPAUPxDebugPoint@3@0@Z 10017910 f i CmRenderOutput.obj
 0001:00016930       ?destroy@?$Array@UPxDebugText@physx@@VNamedAllocator@shdfnd@2@@shdfnd@physx@@KAXPAUPxDebugText@3@0@Z 10017930 f i CmRenderOutput.obj
 0001:00016950       ?destroy@?$Array@UPxDebugTriangle@physx@@VNamedAllocator@shdfnd@2@@shdfnd@physx@@KAXPAUPxDebugTriangle@3@0@Z 10017950 f i CmRenderOutput.obj
 0001:00016970       ?end@?$Array@DVNamedAllocator@shdfnd@physx@@@shdfnd@physx@@QAEPADXZ 10017970 f i CmRenderOutput.obj
 0001:00016990       ?end@?$Array@UPxDebugLine@physx@@VNamedAllocator@shdfnd@2@@shdfnd@physx@@QAEPAUPxDebugLine@3@XZ 10017990 f i CmRenderOutput.obj
 0001:000169b0       ?forceSize_Unsafe@?$Array@UPxDebugLine@physx@@VNamedAllocator@shdfnd@2@@shdfnd@physx@@QAEXI@Z 100179b0 f i CmRenderOutput.obj
 0001:00016a10       ?getXYZ@PxVec4@physx@@QBE?AVPxVec3@2@XZ 10017a10 f i CmRenderOutput.obj
 0001:00016a60       ?grow@?$Array@DVNamedAllocator@shdfnd@physx@@@shdfnd@physx@@IAEXI@Z 10017a60 f i CmRenderOutput.obj
 0001:00016ac0       ?grow@?$Array@UPxDebugLine@physx@@VNamedAllocator@shdfnd@2@@shdfnd@physx@@IAEXI@Z 10017ac0 f i CmRenderOutput.obj
 0001:00016b20       ?growAndPushBack@?$Array@DVNamedAllocator@shdfnd@physx@@@shdfnd@physx@@IAEAADABD@Z 10017b20 f i CmRenderOutput.obj
 0001:00016c40       ?growAndPushBack@?$Array@UPxDebugLine@physx@@VNamedAllocator@shdfnd@2@@shdfnd@physx@@IAEAAUPxDebugLine@3@ABU43@@Z 10017c40 f i CmRenderOutput.obj
 0001:00016d70       ?growAndPushBack@?$Array@UPxDebugPoint@physx@@VNamedAllocator@shdfnd@2@@shdfnd@physx@@IAEAAUPxDebugPoint@3@ABU43@@Z 10017d70 f i CmRenderOutput.obj
 0001:00016ea0       ?growAndPushBack@?$Array@UPxDebugText@physx@@VNamedAllocator@shdfnd@2@@shdfnd@physx@@IAEAAUPxDebugText@3@ABU43@@Z 10017ea0 f i CmRenderOutput.obj
 0001:00016fc0       ?growAndPushBack@?$Array@UPxDebugTriangle@physx@@VNamedAllocator@shdfnd@2@@shdfnd@physx@@IAEAAUPxDebugTriangle@3@ABU43@@Z 10017fc0 f i CmRenderOutput.obj
 0001:000170e0       ?isInUserMemory@?$Array@DVNamedAllocator@shdfnd@physx@@@shdfnd@physx@@QBEIXZ 100180e0 f i CmRenderOutput.obj
 0001:00017100       ?isInUserMemory@?$Array@UPxDebugLine@physx@@VNamedAllocator@shdfnd@2@@shdfnd@physx@@QBEIXZ 10018100 f i CmRenderOutput.obj
 0001:00017120       ?isInUserMemory@?$Array@UPxDebugPoint@physx@@VNamedAllocator@shdfnd@2@@shdfnd@physx@@QBEIXZ 10018120 f i CmRenderOutput.obj
 0001:00017140       ?isInUserMemory@?$Array@UPxDebugText@physx@@VNamedAllocator@shdfnd@2@@shdfnd@physx@@QBEIXZ 10018140 f i CmRenderOutput.obj
 0001:00017160       ?isInUserMemory@?$Array@UPxDebugTriangle@physx@@VNamedAllocator@shdfnd@2@@shdfnd@physx@@QBEIXZ 10018160 f i CmRenderOutput.obj
 0001:00017180       ?normalToTangents@shdfnd@physx@@YAXABVPxVec3@2@AAV32@1@Z 10018180 f i CmRenderOutput.obj
 0001:00017260       ?normalize@PxVec3@physx@@QAEMXZ 10018260 f i CmRenderOutput.obj
 0001:000172a0       ?outputSegment@RenderOutput@Cm@physx@@QAEXABVPxVec3@3@0@Z 100182a0 f i CmRenderOutput.obj
 0001:000172f0       ?pushBack@?$Array@DVNamedAllocator@shdfnd@physx@@@shdfnd@physx@@QAEAADABD@Z 100182f0 f i CmRenderOutput.obj
 0001:00017360       ?pushBack@?$Array@UPxDebugLine@physx@@VNamedAllocator@shdfnd@2@@shdfnd@physx@@QAEAAUPxDebugLine@3@ABU43@@Z 10018360 f i CmRenderOutput.obj
 0001:000173e0       ?pushBack@?$Array@UPxDebugPoint@physx@@VNamedAllocator@shdfnd@2@@shdfnd@physx@@QAEAAUPxDebugPoint@3@ABU43@@Z 100183e0 f i CmRenderOutput.obj
 0001:00017460       ?pushBack@?$Array@UPxDebugText@physx@@VNamedAllocator@shdfnd@2@@shdfnd@physx@@QAEAAUPxDebugText@3@ABU43@@Z 10018460 f i CmRenderOutput.obj
 0001:000174e0       ?pushBack@?$Array@UPxDebugTriangle@physx@@VNamedAllocator@shdfnd@2@@shdfnd@physx@@QAEAAUPxDebugTriangle@3@ABU43@@Z 100184e0 f i CmRenderOutput.obj
 0001:00017560       ?recreate@?$Array@DVNamedAllocator@shdfnd@physx@@@shdfnd@physx@@IAEXI@Z 10018560 f i CmRenderOutput.obj
 0001:00017630       ?recreate@?$Array@UPxDebugLine@physx@@VNamedAllocator@shdfnd@2@@shdfnd@physx@@IAEXI@Z 10018630 f i CmRenderOutput.obj
 0001:00017700       ?reserve@?$Array@DVNamedAllocator@shdfnd@physx@@@shdfnd@physx@@QAEXI@Z 10018700 f i CmRenderOutput.obj
 0001:00017730       ?reserve@?$Array@UPxDebugLine@physx@@VNamedAllocator@shdfnd@2@@shdfnd@physx@@QAEXI@Z 10018730 f i CmRenderOutput.obj
 0001:00017760       ?reserveSegments@RenderOutput@Cm@physx@@QAEPAUPxDebugLine@3@I@Z 10018760 f i CmRenderOutput.obj
 0001:00017790       ?rotate@PxMat44@physx@@QBE?BVPxVec3@2@ABV32@@Z 10018790 f i CmRenderOutput.obj
 0001:000177e0       ?rotate@PxMat44@physx@@QBE?BVPxVec4@2@ABV32@@Z 100187e0 f i CmRenderOutput.obj
 0001:00017860       ?sin@intrinsics@physx@@YAMM@Z 10018860 f i CmRenderOutput.obj
 0001:00017880       ?size@?$Array@DVNamedAllocator@shdfnd@physx@@@shdfnd@physx@@QBEIXZ 10018880 f i CmRenderOutput.obj
 0001:000178a0       ?size@?$Array@UPxDebugLine@physx@@VNamedAllocator@shdfnd@2@@shdfnd@physx@@QBEIXZ 100188a0 f i CmRenderOutput.obj
 0001:000178c0       ?size@?$Array@UPxDebugText@physx@@VNamedAllocator@shdfnd@2@@shdfnd@physx@@QBEIXZ 100188c0 f i CmRenderOutput.obj
 0001:000178e0       ?transform@PxMat44@physx@@QBE?BVPxVec3@2@ABV32@@Z 100188e0 f i CmRenderOutput.obj
 0001:00017930       ?transform@PxMat44@physx@@QBE?BVPxVec4@2@ABV32@@Z 10018930 f i CmRenderOutput.obj
 0001:000179e0       _cosf                      100189e0 f i CmRenderOutput.obj
 0001:00017a10       _sinf                      10018a10 f i CmRenderOutput.obj
 0001:00017b20       ?visualizeJointFrames@Cm@physx@@YAXAAVRenderOutput@12@MABVPxTransform@2@1@Z 10018b20 f   CmVisualization.obj
 0001:00017c10       ?visualizeLinearLimit@Cm@physx@@YAXAAVRenderOutput@12@MABVPxTransform@2@1M_N@Z 10018c10 f   CmVisualization.obj
 0001:00017d70       ?visualizeAngularLimit@Cm@physx@@YAXAAVRenderOutput@12@MABVPxTransform@2@MM_N@Z 10018d70 f   CmVisualization.obj
 0001:00017f60       ?visualizeLimitCone@Cm@physx@@YAXAAVRenderOutput@12@MABVPxTransform@2@MM_N@Z 10018f60 f   CmVisualization.obj
 0001:000181d0       ?visualizeDoubleCone@Cm@physx@@YAXAAVRenderOutput@12@MABVPxTransform@2@M_N@Z 100191d0 f   CmVisualization.obj
 0001:000185f0       ??$PX_UNUSED@W4PxZERO@physx@@@@YAXABW4PxZERO@physx@@@Z 100195f0 f i CmVisualization.obj
 0001:00018600       ??0DebugArrow@Cm@physx@@QAE@ABVPxVec3@2@0@Z 10019600 f i CmVisualization.obj
 0001:00018660       ??0DebugBasis@Cm@physx@@QAE@ABVPxVec3@2@III@Z 10019660 f i CmVisualization.obj
 0001:000186a0       ??0PxQuat@physx@@QAE@MABVPxVec3@1@@Z 100196a0 f i CmVisualization.obj
 0001:00018780       ??0PxTransform@physx@@QAE@W4PxIDENTITY@1@@Z 10019780 f i CmVisualization.obj
 0001:000187c0       ??0PxVec3@physx@@QAE@W4PxZERO@1@@Z 100197c0 f i CmVisualization.obj
 0001:00018800       ??DPxQuat@physx@@QBE?AV01@ABV01@@Z 10019800 f i CmVisualization.obj
 0001:00018960       ?PxTan@physx@@YAMM@Z       10019960 f i CmVisualization.obj
 0001:00018980       ?getBasisVector0@PxQuat@physx@@QBE?AVPxVec3@2@XZ 10019980 f i CmVisualization.obj
 0001:00018a40       ?rotate@PxQuat@physx@@QBE?BVPxVec3@2@ABV32@@Z 10019a40 f i CmVisualization.obj
 0001:00018bd0       _tanf                      10019bd0 f i CmVisualization.obj
 0001:00018c00       ??0CmModuleUpdateLoader@Cm@physx@@QAE@PBD@Z 10019c00 f   CmWindowsModuleUpdateLoader.obj
 0001:00018c50       ??1CmModuleUpdateLoader@Cm@physx@@QAE@XZ 10019c50 f   CmWindowsModuleUpdateLoader.obj
 0001:00018c80       ?LoadModule@CmModuleUpdateLoader@Cm@physx@@QAEPAUHINSTANCE__@@PBD0@Z 10019c80 f   CmWindowsModuleUpdateLoader.obj
 0001:00018cd0       ??4CmModuleUpdateLoader@Cm@physx@@QAEAAV012@ABV012@@Z 10019cd0 f i CmWindowsModuleUpdateLoader.obj
 0001:00018cf0       ?loadLibrary@Cm@physx@@YGPAUHINSTANCE__@@PBD@Z 10019cf0 f i CmWindowsModuleUpdateLoader.obj
 0001:00018d10       _PxSetPhysXCommonDelayLoadHook 10019d10 f   CmWindowsDelayLoadHook.obj
 0001:00018d20       ?delayHook@@YGP6GHXZIPAUDelayLoadInfo@@@Z 10019d20 f   CmWindowsDelayLoadHook.obj
 0001:00018d80       ?physXCommonDliNotePreLoadLibrary@Cm@physx@@YGP6GHXZPBDPBVPxDelayLoadHook@2@@Z 10019d80 f i CmWindowsDelayLoadHook.obj
 0001:00018df0       ?computeBounds@Gu@physx@@YAXAAVPxBounds3@2@ABVPxGeometry@2@ABVPxTransform@2@MPIBVCenterExtentsPadded@12@M@Z 10019df0 f   GuBounds.obj
 0001:00019930       ?computeBoundsWithCCDThreshold@Gu@physx@@YAMAAVVec3p@12@0ABVPxGeometry@2@ABVPxTransform@2@PIBVCenterExtentsPadded@12@@Z 1001a930 f   GuBounds.obj
 0001:00019f80       ??0ShapeData@Gu@physx@@QAE@ABVPxGeometry@2@ABVPxTransform@2@M@Z 1001af80 f   GuBounds.obj
 0001:0001b300       ??$PxMin@M@physx@@YAMMM@Z  1001c300 f i GuBounds.obj
 0001:0001b330       ??0?$PxBitAndDataT@G$0IAAA@@physx@@QAE@W4PxEMPTY@1@@Z 1001c330 f i GuBounds.obj
 0001:0001b340       ??0?$PxBitAndDataT@I$0IAAAAAAA@@physx@@QAE@W4PxEMPTY@1@@Z 1001c340 f i GuBounds.obj
 0001:0001b350       ??0?$PxFlags@W4Enum@PxBaseFlag@physx@@G@physx@@QAE@ABV01@@Z 1001c350 f i GuBounds.obj
 0001:0001b370       ??0?$PxFlags@W4Enum@PxConvexMeshGeometryFlag@physx@@E@physx@@QAE@ABV01@@Z 1001c370 f i GuBounds.obj
 0001:0001b390       ??0?$PxFlags@W4Enum@PxHeightFieldFlag@physx@@G@physx@@QAE@ABV01@@Z 1001c390 f i GuBounds.obj
 0001:0001b3b0       ??0?$PxFlags@W4Enum@PxHeightFieldFlag@physx@@G@physx@@QAE@W4PxEMPTY@1@@Z 1001c3b0 f i GuBounds.obj
 0001:0001b3c0       ??0?$PxFlags@W4Enum@PxHeightFieldFlag@physx@@G@physx@@QAE@XZ 1001c3c0 f i GuBounds.obj
 0001:0001b3e0       ??0Box@Gu@physx@@QAE@ABV012@@Z 1001c3e0 f i GuBounds.obj
 0001:0001b420       ??0Box@Gu@physx@@QAE@ABVPxVec3@2@0ABVPxMat33@2@@Z 1001c420 f i GuBounds.obj
 0001:0001b460       ??0Box@Gu@physx@@QAE@XZ    1001c460 f i GuBounds.obj
 0001:0001b490       ??0CenterExtents@Gu@physx@@QAE@ABV012@@Z 1001c490 f i GuBounds.obj
 0001:0001b4c0       ??0CenterExtents@Gu@physx@@QAE@XZ 1001c4c0 f i GuBounds.obj
 0001:0001b4f0       ??0ConvexHullData@Gu@physx@@QAE@W4PxEMPTY@2@@Z 1001c4f0 f i GuBounds.obj
 0001:0001b520       ??0ConvexMesh@Gu@physx@@QAE@V?$PxFlags@W4Enum@PxBaseFlag@physx@@G@2@@Z 1001c520 f i GuBounds.obj
 0001:0001b5a0       ??0HeightFieldData@Gu@physx@@QAE@$$QAU012@@Z 1001c5a0 f i GuBounds.obj
 0001:0001b630       ??0HeightFieldData@Gu@physx@@QAE@ABU012@@Z 1001c630 f i GuBounds.obj
 0001:0001b6c0       ??0HeightFieldData@Gu@physx@@QAE@W4PxEMPTY@2@@Z 1001c6c0 f i GuBounds.obj
 0001:0001b6f0       ??0HeightFieldData@Gu@physx@@QAE@XZ 1001c6f0 f i GuBounds.obj
 0001:0001b720       ??0PxBase@physx@@IAE@V?$PxFlags@W4Enum@PxBaseFlag@physx@@G@1@@Z 1001c720 f i GuBounds.obj
 0001:0001b750       ??0PxBounds3@physx@@QAE@XZ 1001c750 f i GuBounds.obj
 0001:0001b780       ??0PxConvexMesh@physx@@IAE@V?$PxFlags@W4Enum@PxBaseFlag@physx@@G@1@@Z 1001c780 f i GuBounds.obj
 0001:0001b7b0       ??0PxMat33@physx@@QAE@ABV01@@Z 1001c7b0 f i GuBounds.obj
 0001:0001b7f0       ??0PxMat33@physx@@QAE@ABVPxVec3@1@00@Z 1001c7f0 f i GuBounds.obj
 0001:0001b830       ??0PxMat33@physx@@QAE@W4PxIDENTITY@1@@Z 1001c830 f i GuBounds.obj
 0001:0001b8d0       ??0PxMat33@physx@@QAE@XZ   1001c8d0 f i GuBounds.obj
 0001:0001b900       ??0PxMat33Padded@Gu@physx@@QAE@ABVPxQuat@2@@Z 1001c900 f i GuBounds.obj
 0001:0001b9a0       ??0PxMeshScale@physx@@QAE@ABVPxVec3@1@ABVPxQuat@1@@Z 1001c9a0 f i GuBounds.obj
 0001:0001ba30       ??0PxPlane@physx@@QAE@ABVPxVec3@1@0@Z 1001ca30 f i GuBounds.obj
 0001:0001ba80       ??0PxQuat@physx@@QAE@ABVPxMat33@1@@Z 1001ca80 f i GuBounds.obj
 0001:0001bdd0       ??0RefCountable@Cm@physx@@QAE@W4PxEMPTY@2@@Z 1001cdd0 f i GuBounds.obj
 0001:0001be00       ??0Sphere@Gu@physx@@QAE@ABVPxVec3@2@M@Z 1001ce00 f i GuBounds.obj
 0001:0001be30       ??0Vec3p@Gu@physx@@QAE@ABVPxVec3@2@@Z 1001ce30 f i GuBounds.obj
 0001:0001be50       ??0Vec3p@Gu@physx@@QAE@XZ  1001ce50 f i GuBounds.obj
 0001:0001be70       ??1Box@Gu@physx@@QAE@XZ    1001ce70 f i GuBounds.obj
 0001:0001be80       ??1CenterExtents@Gu@physx@@QAE@XZ 1001ce80 f i GuBounds.obj
 0001:0001be90       ??1HeightFieldData@Gu@physx@@QAE@XZ 1001ce90 f i GuBounds.obj
 0001:0001beb0       ??1PxBase@physx@@MAE@XZ    1001ceb0 f i GuBounds.obj
 0001:0001bed0       ??1PxConvexMesh@physx@@MAE@XZ 1001ced0 f i GuBounds.obj
 0001:0001bef0       ??1PxHeightField@physx@@MAE@XZ 1001cef0 f i GuBounds.obj
 0001:0001bf10       ??1PxMat33Padded@Gu@physx@@QAE@XZ 1001cf10 f i GuBounds.obj
 0001:0001bf20       ??1RefCountable@Cm@physx@@UAE@XZ 1001cf20 f i GuBounds.obj
 0001:0001bf40       ??1Sphere@Gu@physx@@QAE@XZ 1001cf40 f i GuBounds.obj
 0001:0001bf50       ??1Vec3p@Gu@physx@@QAE@XZ  1001cf50 f i GuBounds.obj
 0001:0001bf60       ??4?$PxFlags@W4Enum@PxHeightFieldFlag@physx@@G@physx@@QAEAAV01@ABV01@@Z 1001cf60 f i GuBounds.obj
 0001:0001bf80       ??4Box@Gu@physx@@QAEABV012@ABV012@@Z 1001cf80 f i GuBounds.obj
 0001:0001bfc0       ??4CenterExtents@Gu@physx@@QAEAAV012@ABV012@@Z 1001cfc0 f i GuBounds.obj
 0001:0001bff0       ??4HeightFieldData@Gu@physx@@QAEAAU012@$$QAU012@@Z 1001cff0 f i GuBounds.obj
 0001:0001c080       ??4HeightFieldData@Gu@physx@@QAEAAU012@ABU012@@Z 1001d080 f i GuBounds.obj
 0001:0001c110       ??4PxMat33@physx@@QAEAAV01@ABV01@@Z 1001d110 f i GuBounds.obj
 0001:0001c150       ??4PxMat33Padded@Gu@physx@@QAEXABVPxMat33@2@@Z 1001d150 f i GuBounds.obj
 0001:0001c190       ??4Sphere@Gu@physx@@QAEAAV012@ABV012@@Z 1001d190 f i GuBounds.obj
 0001:0001c1c0       ??4Vec3p@Gu@physx@@QAEAAV012@ABV012@@Z 1001d1c0 f i GuBounds.obj
 0001:0001c1f0       ??APxMat33@physx@@QBEABVPxVec3@1@I@Z 1001d1f0 f i GuBounds.obj
 0001:0001c210       ??APxVec3@physx@@QAEAAMI@Z 1001d210 f i GuBounds.obj
 0001:0001c240       ??APxVec3@physx@@QBEABMI@Z 1001d240 f i GuBounds.obj
 0001:0001c270       ??B?$PxBitAndDataT@E$0IA@@physx@@QBEEXZ 1001d270 f i GuBounds.obj
 0001:0001c290       ??B?$PxBitAndDataT@G$0IAAA@@physx@@QBEGXZ 1001d290 f i GuBounds.obj
 0001:0001c2b0       ??B?$PxFlags@W4Enum@PxBaseFlag@physx@@G@physx@@QBE_NXZ 1001d2b0 f i GuBounds.obj
 0001:0001c2e0       ??B?$PxFlags@W4Enum@PxConvexMeshGeometryFlag@physx@@E@physx@@QBE_NXZ 1001d2e0 f i GuBounds.obj
 0001:0001c310       ??DPxMat33@physx@@QBE?BV01@ABV01@@Z 1001d310 f i GuBounds.obj
 0001:0001c370       ??DPxMat33@physx@@QBE?BVPxVec3@1@ABV21@@Z 1001d370 f i GuBounds.obj
 0001:0001c390       ??I?$PxFlags@W4Enum@PxBaseFlag@physx@@G@physx@@QBE?AV01@W4Enum@PxBaseFlag@1@@Z 1001d390 f i GuBounds.obj
 0001:0001c3d0       ??I?$PxFlags@W4Enum@PxConvexMeshGeometryFlag@physx@@E@physx@@QBE?AV01@W4Enum@PxConvexMeshGeometryFlag@1@@Z 1001d3d0 f i GuBounds.obj
 0001:0001c410       ??_EConvexMesh@Gu@physx@@UAEPAXI@Z 1001d410 f i GuBounds.obj
 0001:0001c4c3       ??_EConvexMesh@Gu@physx@@W7AEPAXI@Z 1001d4c3 f i GuBounds.obj
 0001:0001c4d0       ??_EPxConvexMesh@physx@@MAEPAXI@Z 1001d4d0 f i GuBounds.obj
 0001:0001c550       ??_EPxHeightField@physx@@MAEPAXI@Z 1001d550 f i GuBounds.obj
 0001:0001c5d0       ??_GPxBase@physx@@MAEPAXI@Z 1001d5d0 f i GuBounds.obj
 0001:0001c5d0       ??_EPxBase@physx@@MAEPAXI@Z 1001d5d0 f i GuBounds.obj
 0001:0001c600       ??_ERefCountable@Cm@physx@@UAEPAXI@Z 1001d600 f i GuBounds.obj
 0001:0001c600       ??_GRefCountable@Cm@physx@@UAEPAXI@Z 1001d600 f i GuBounds.obj
 0001:0001c630       ??_H@YGXPAXIIP6EPAX0@Z@Z   1001d630 f i GuBounds.obj
 0001:0001c680       ??_VUserAllocated@shdfnd@physx@@SAXPAX@Z 1001d680 f i GuBounds.obj
 0001:0001c6a0       ?FLoad@aos@shdfnd@physx@@YA?AT__m128@@M@Z 1001d6a0 f i GuBounds.obj
 0001:0001c6e0       ?QuatGetMat33V@aos@shdfnd@physx@@YAXABT__m128@@AAT4@11@Z 1001d6e0 f i GuBounds.obj
 0001:0001c8e0       ?V3Load@aos@shdfnd@physx@@YA?AT__m128@@M@Z 1001d8e0 f i GuBounds.obj
 0001:0001c930       ?V3LoadU@aos@shdfnd@physx@@YA?AT__m128@@PBM@Z 1001d930 f i GuBounds.obj
 0001:0001c9a0       ?V4Abs@aos@shdfnd@physx@@YA?AT__m128@@T4@@Z 1001d9a0 f i GuBounds.obj
 0001:0001c9f0       ?V4Add@aos@shdfnd@physx@@YA?AT__m128@@T4@0@Z 1001d9f0 f i GuBounds.obj
 0001:0001ca30       ?V4ClearW@aos@shdfnd@physx@@YA?AT__m128@@T4@@Z 1001da30 f i GuBounds.obj
 0001:0001ca70       ?V4GetW@aos@shdfnd@physx@@YA?AT__m128@@T4@@Z 1001da70 f i GuBounds.obj
 0001:0001cab0       ?V4GetX@aos@shdfnd@physx@@YA?AT__m128@@T4@@Z 1001dab0 f i GuBounds.obj
 0001:0001caf0       ?V4GetY@aos@shdfnd@physx@@YA?AT__m128@@T4@@Z 1001daf0 f i GuBounds.obj
 0001:0001cb30       ?V4GetZ@aos@shdfnd@physx@@YA?AT__m128@@T4@@Z 1001db30 f i GuBounds.obj
 0001:0001cb70       ?V4Load@aos@shdfnd@physx@@YA?AT__m128@@M@Z 1001db70 f i GuBounds.obj
 0001:0001cbb0       ?V4LoadU@aos@shdfnd@physx@@YA?AT__m128@@QBM@Z 1001dbb0 f i GuBounds.obj
 0001:0001cbe0       ?V4Max@aos@shdfnd@physx@@YA?AT__m128@@T4@0@Z 1001dbe0 f i GuBounds.obj
 0001:0001cc20       ?V4Min@aos@shdfnd@physx@@YA?AT__m128@@T4@0@Z 1001dc20 f i GuBounds.obj
 0001:0001cc60       ?V4Mul@aos@shdfnd@physx@@YA?AT__m128@@T4@0@Z 1001dc60 f i GuBounds.obj
 0001:0001cca0       ?V4MulAdd@aos@shdfnd@physx@@YA?AT__m128@@T4@00@Z 1001dca0 f i GuBounds.obj
 0001:0001cd00       ?V4Neg@aos@shdfnd@physx@@YA?AT__m128@@T4@@Z 1001dd00 f i GuBounds.obj
 0001:0001cd40       ?V4Scale@aos@shdfnd@physx@@YA?AT__m128@@T4@0@Z 1001dd40 f i GuBounds.obj
 0001:0001cd80       ?V4StoreA@aos@shdfnd@physx@@YAXT__m128@@PAM@Z 1001dd80 f i GuBounds.obj
 0001:0001ce00       ?V4StoreU@aos@shdfnd@physx@@YAXT__m128@@PAM@Z 1001de00 f i GuBounds.obj
 0001:0001ce30       ?V4Sub@aos@shdfnd@physx@@YA?AT__m128@@T4@0@Z 1001de30 f i GuBounds.obj
 0001:0001ce70       ?Vec3V_From_Vec4V@aos@shdfnd@physx@@YA?AT__m128@@T4@@Z 1001de70 f i GuBounds.obj
 0001:0001ceb0       ?Vec4V_From_Vec3V@aos@shdfnd@physx@@YA?AT__m128@@T4@@Z 1001deb0 f i GuBounds.obj
 0001:0001cee0       ?abs@PxVec3@physx@@QBE?AV12@XZ 1001dee0 f i GuBounds.obj
 0001:0001cf40       ?basisExtent@Cm@physx@@YA?AVPxVec3@2@ABV32@000@Z 1001df40 f i GuBounds.obj
 0001:0001d0f0       ?buildFrom@physx@@YAXAAVBox@Gu@1@ABVPxQuat@1@@Z 1001e0f0 f i GuBounds.obj
 0001:0001d1a0       ?computeAABBExtent@Box@Gu@physx@@QBE?AVPxVec3@3@XZ 1001e1a0 f i GuBounds.obj
 0001:0001d3d0       ?computeBoxPoints@Box@Gu@physx@@QBEXPIAVPxVec3@3@@Z 1001e3d0 f i GuBounds.obj
 0001:0001d410       ?dot@PxVec3@physx@@QBEMABV12@@Z 1001e410 f i GuBounds.obj
 0001:0001d460       ?fsel@intrinsics@physx@@YAMMMM@Z 1001e460 f i GuBounds.obj
 0001:0001d490       ?getCapsule@Gu@physx@@YAXAAVCapsule@12@ABVPxCapsuleGeometry@2@ABVPxTransform@2@@Z 1001e490 f i GuBounds.obj
 0001:0001d4c0       ?getCapsuleHalfHeightVector@Gu@physx@@YA?AVPxVec3@2@ABVPxTransform@2@ABVPxCapsuleGeometry@2@@Z 1001e4c0 f i GuBounds.obj
 0001:0001d500       ?getCapsuleSegment@Gu@physx@@YAXABVPxTransform@2@ABVPxCapsuleGeometry@2@AAVSegment@12@@Z 1001e500 f i GuBounds.obj
 0001:0001d560       ?getCenter@PxBounds3@physx@@QBE?AVPxVec3@2@XZ 1001e560 f i GuBounds.obj
 0001:0001d5d0       ?getConcreteTypeName@PxConvexMesh@physx@@UBEPBDXZ 1001e5d0 f i GuBounds.obj
 0001:0001d5e0       ?getConcreteTypeName@PxHeightField@physx@@UBEPBDXZ 1001e5e0 f i GuBounds.obj
 0001:0001d5f0       ?getConvexEdgeThreshold@HeightField@Gu@physx@@UBEMXZ 1001e5f0 f i GuBounds.obj
 0001:0001d610       ?getData@HeightField@Gu@physx@@QBEABUHeightFieldData@23@XZ 1001e610 f i GuBounds.obj
 0001:0001d630       ?getDimensions@PxBounds3@physx@@QBE?AVPxVec3@2@XZ 1001e630 f i GuBounds.obj
 0001:0001d680       ?getExtents@PxBounds3@physx@@QBE?AVPxVec3@2@XZ 1001e680 f i GuBounds.obj
 0001:0001d6e0       ?getFlags@HeightField@Gu@physx@@UBE?AV?$PxFlags@W4Enum@PxHeightFieldFlag@physx@@G@3@XZ 1001e6e0 f i GuBounds.obj
 0001:0001d700       ?getFormat@HeightField@Gu@physx@@UBE?AW4Enum@PxHeightFieldFormat@3@XZ 1001e700 f i GuBounds.obj
 0001:0001d720       ?getHeight@HeightField@Gu@physx@@QBEMI@Z 1001e720 f i GuBounds.obj
 0001:0001d750       ?getHeight@HeightField@Gu@physx@@UBEMMM@Z 1001e750 f i GuBounds.obj
 0001:0001d780       ?getHeightInternal2@HeightField@Gu@physx@@QBEMIMM@Z 1001e780 f i GuBounds.obj
 0001:0001d950       ?getHeightInternal@HeightField@Gu@physx@@QBEMMM@Z 1001e950 f i GuBounds.obj
 0001:0001d9b0       ?getHull@ConvexMesh@Gu@physx@@QBEABUConvexHullData@23@XZ 1001e9b0 f i GuBounds.obj
 0001:0001d9d0       ?getHullVertices@ConvexHullData@Gu@physx@@QBEPBVPxVec3@3@XZ 1001e9d0 f i GuBounds.obj
 0001:0001da00       ?getIndexBuffer@ConvexMesh@Gu@physx@@UBEPBEXZ 1001ea00 f i GuBounds.obj
 0001:0001da20       ?getMaterialIndex0@HeightField@Gu@physx@@QBEGI@Z 1001ea20 f i GuBounds.obj
 0001:0001da50       ?getMaterialIndex1@HeightField@Gu@physx@@QBEGI@Z 1001ea50 f i GuBounds.obj
 0001:0001da80       ?getNbColumns@HeightField@Gu@physx@@UBEIXZ 1001ea80 f i GuBounds.obj
 0001:0001daa0       ?getNbColumnsFast@HeightField@Gu@physx@@QBEIXZ 1001eaa0 f i GuBounds.obj
 0001:0001dac0       ?getNbPolygons@ConvexMesh@Gu@physx@@UBEIXZ 1001eac0 f i GuBounds.obj
 0001:0001dae0       ?getNbRows@HeightField@Gu@physx@@UBEIXZ 1001eae0 f i GuBounds.obj
 0001:0001db00       ?getNbVertices@ConvexMesh@Gu@physx@@UBEIXZ 1001eb00 f i GuBounds.obj
 0001:0001db20       ?getPaddedBounds@ConvexHullData@Gu@physx@@QBEABVCenterExtentsPadded@23@XZ 1001eb20 f i GuBounds.obj
 0001:0001db30       ?getPaddedBounds@HeightFieldData@Gu@physx@@QBEABVCenterExtentsPadded@23@XZ 1001eb30 f i GuBounds.obj
 0001:0001db40       ?getPaddedBounds@TriangleMesh@Gu@physx@@QBEABVCenterExtentsPadded@23@XZ 1001eb40 f i GuBounds.obj
 0001:0001db60       ?getSample@HeightField@Gu@physx@@QBEABUPxHeightFieldSample@3@I@Z 1001eb60 f i GuBounds.obj
 0001:0001dbd0       ?getSample@HeightField@Gu@physx@@UBEABUPxHeightFieldSample@3@II@Z 1001ebd0 f i GuBounds.obj
 0001:0001dc00       ?getSampleStride@HeightField@Gu@physx@@UBEIXZ 1001ec00 f i GuBounds.obj
 0001:0001dc10       ?getTimestamp@HeightField@Gu@physx@@UBEIXZ 1001ec10 f i GuBounds.obj
 0001:0001dc30       ?getTransform@Box@Gu@physx@@QBE?AVPxTransform@3@XZ 1001ec30 f i GuBounds.obj
 0001:0001dc60       ?getTranspose@PxMat33@physx@@QBE?BV12@XZ 1001ec60 f i GuBounds.obj
 0001:0001dd20       ?getTriangleMaterial@HeightField@Gu@physx@@QBEGI@Z 1001ed20 f i GuBounds.obj
 0001:0001dd70       ?getTriangleMaterialIndex@HeightField@Gu@physx@@UBEGI@Z 1001ed70 f i GuBounds.obj
 0001:0001dd90       ?getTriangleNormal@HeightField@Gu@physx@@UBE?AVPxVec3@3@I@Z 1001ed90 f i GuBounds.obj
 0001:0001ddb0       ?getTriangleNormalInternal@HeightField@Gu@physx@@QBE?AVPxVec3@3@I@Z 1001edb0 f i GuBounds.obj
 0001:0001dfa0       ?getTriangleVertexIndices@HeightField@Gu@physx@@QBEXIAAI00@Z 1001efa0 f i GuBounds.obj
 0001:0001e090       ?getType@PxGeometry@physx@@QBE?AW4Enum@PxGeometryType@2@XZ 1001f090 f i GuBounds.obj
 0001:0001e0a0       ?getVertexData8@ConvexHullData@Gu@physx@@QBEPBEXZ 1001f0a0 f i GuBounds.obj
 0001:0001e130       ?getVertices@ConvexMesh@Gu@physx@@UBEPBVPxVec3@3@XZ 1001f130 f i GuBounds.obj
 0001:0001e150       ?isAligned16@aos@shdfnd@physx@@YA_NPAX@Z 1001f150 f i GuBounds.obj
 0001:0001e180       ?isBitSet@?$PxBitAndDataT@E$0IA@@physx@@QBEEXZ 1001f180 f i GuBounds.obj
 0001:0001e1a0       ?isBitSet@?$PxBitAndDataT@G$0IAAA@@physx@@QBEGXZ 1001f1a0 f i GuBounds.obj
 0001:0001e1c0       ?isFinite@PxBounds3@physx@@QBE_NXZ 1001f1c0 f i GuBounds.obj
 0001:0001e210       ?isFinite@PxVec3@physx@@QBE_NXZ 1001f210 f i GuBounds.obj
 0001:0001e290       ?isFirstTriangle@HeightField@Gu@physx@@QBE_NI@Z 1001f290 f i GuBounds.obj
 0001:0001e2c0       ?isIdentity@PxMeshScale@physx@@QBE_NXZ 1001f2c0 f i GuBounds.obj
 0001:0001e320       ?isKindOf@PxBase@physx@@MBE_NPBD@Z 1001f320 f i GuBounds.obj
 0001:0001e360       ?isKindOf@PxConvexMesh@physx@@MBE_NPBD@Z 1001f360 f i GuBounds.obj
 0001:0001e3b0       ?isKindOf@PxHeightField@physx@@MBE_NPBD@Z 1001f3b0 f i GuBounds.obj
 0001:0001e400       ?isReleasable@PxBase@physx@@UBE_NXZ 1001f400 f i GuBounds.obj
 0001:0001e430       ?isUnit@PxQuat@physx@@QBE_NXZ 1001f430 f i GuBounds.obj
 0001:0001e4b0       ?isValid@Box@Gu@physx@@QBE_NXZ 1001f4b0 f i GuBounds.obj
 0001:0001e4f0       ?isValid@PxBounds3@physx@@QBE_NXZ 1001f4f0 f i GuBounds.obj
 0001:0001e5e0       ?isValidVertex@HeightField@Gu@physx@@QBE_NI@Z 1001f5e0 f i GuBounds.obj
 0001:0001e620       ?isZerothVertexShared@HeightField@Gu@physx@@QBE_NI@Z 1001f620 f i GuBounds.obj
 0001:0001e660       ?onRefCountZero@RefCountable@Cm@physx@@UAEXXZ 1001f660 f i GuBounds.obj
 0001:0001e6a0       ?prefetchLine@shdfnd@physx@@YAXPBXI@Z 1001f6a0 f i GuBounds.obj
 0001:0001e6c0       ?requiresObjects@ConvexMesh@Gu@physx@@UAEXAAVPxProcessPxBaseCallback@3@@Z 1001f6c0 f i GuBounds.obj
 0001:0001e6d0       ?rotate@Box@Gu@physx@@QBE?AVPxVec3@3@ABV43@@Z 1001f6d0 f i GuBounds.obj
 0001:0001e6f0       ?rotateInv@Box@Gu@physx@@QBE?AVPxVec3@3@ABV43@@Z 1001f6f0 f i GuBounds.obj
 0001:0001e710       ?selectMin@intrinsics@physx@@YAMMM@Z 1001f710 f i GuBounds.obj
 0001:0001e740       ?setAxes@Box@Gu@physx@@QAEXABVPxVec3@3@00@Z 1001f740 f i GuBounds.obj
 0001:0001e780       ?setBit@?$PxBitAndDataT@I$0IAAAAAAA@@physx@@QAEXXZ 1001f780 f i GuBounds.obj
 0001:0001e7a0       ?setEmpty@Box@Gu@physx@@QAEXXZ 1001f7a0 f i GuBounds.obj
 0001:0001e820       ?tessFlag@PxHeightFieldSample@physx@@QBEEXZ 1001f820 f i GuBounds.obj
 0001:0001e860       ?toMat33@PxMeshScale@physx@@QBE?AVPxMat33@2@XZ 1001f860 f i GuBounds.obj
 0001:0001e900       ?transform@Box@Gu@physx@@QBE?AVPxVec3@3@ABV43@@Z 1001f900 f i GuBounds.obj
 0001:0001e940       ?transform@PxMat33@physx@@QBE?BVPxVec3@2@ABV32@@Z 1001f940 f i GuBounds.obj
 0001:0001e9c0       ?transformTranspose@PxMat33@physx@@QBE?BVPxVec3@2@ABV32@@Z 1001f9c0 f i GuBounds.obj
 0001:0001ea10       ?computeOBBPoints@Gu@physx@@YAXPIAVPxVec3@2@ABV32@1111@Z 1001fa10 f   GuBox.obj
 0001:0001ec10       ?create@Box@Gu@physx@@QAEXABVCapsule@23@@Z 1001fc10 f   GuBox.obj
 0001:0001ecf0       ?getBoxEdges@Gu@physx@@YAPBEXZ 1001fcf0 f   GuBox.obj
 0001:0001ed00       ??YPxVec3@physx@@QAEAAV01@ABV01@@Z 1001fd00 f i GuBox.obj
 0001:0001ed60       ??ZPxVec3@physx@@QAEAAV01@ABV01@@Z 1001fd60 f i GuBox.obj
 0001:0001edc0       ?computeBasis@shdfnd@physx@@YAXABVPxVec3@2@AAV32@1@Z 1001fdc0 f i GuBox.obj
 0001:0001ef20       ?computeCenter@Segment@Gu@physx@@QBE?AVPxVec3@3@XZ 1001ff20 f i GuBox.obj
 0001:0001ef60       ?computeBoxAroundCapsule@Gu@physx@@YAXABVCapsule@12@AAVBox@12@@Z 1001ff60 f   GuCapsule.obj
 0001:0001f050       ?computeBasis@shdfnd@physx@@YAXABVPxVec3@2@0AAV32@11@Z 10020050 f i GuCapsule.obj
 0001:0001f0f0       ?sweepBoxTriangles_Precise@Gu@physx@@YA_NIPBVPxTriangle@2@_NABVPxBoxGeometry@2@ABVPxTransform@2@ABVPxVec3@2@MAAUPxSweepHit@2@PBIMV?$PxFlags@W4Enum@PxHitFlag@physx@@G@2@@Z 100200f0 f   GuCCTSweepTests.obj
 0001:0001f180       ?sweepCapsule_BoxGeom_Precise@@YA_NABVPxGeometry@physx@@ABVPxTransform@2@ABVPxCapsuleGeometry@2@1ABVCapsule@Gu@2@ABVPxVec3@2@MAAUPxSweepHit@2@V?$PxFlags@W4Enum@PxHitFlag@physx@@G@2@M@Z 10020180 f   GuCCTSweepTests.obj
 0001:0001f580       ?sweepBox_SphereGeom_Precise@@YA_NABVPxGeometry@physx@@ABVPxTransform@2@ABVPxBoxGeometry@2@1ABVBox@Gu@2@ABVPxVec3@2@MAAUPxSweepHit@2@V?$PxFlags@W4Enum@PxHitFlag@physx@@G@2@M@Z 10020580 f   GuCCTSweepTests.obj
 0001:0001f7b0       ?sweepBox_CapsuleGeom_Precise@@YA_NABVPxGeometry@physx@@ABVPxTransform@2@ABVPxBoxGeometry@2@1ABVBox@Gu@2@ABVPxVec3@2@MAAUPxSweepHit@2@V?$PxFlags@W4Enum@PxHitFlag@physx@@G@2@M@Z 100207b0 f   GuCCTSweepTests.obj
 0001:0001fa40       ?sweepBox_BoxGeom_Precise@@YA_NABVPxGeometry@physx@@ABVPxTransform@2@ABVPxBoxGeometry@2@1ABVBox@Gu@2@ABVPxVec3@2@MAAUPxSweepHit@2@V?$PxFlags@W4Enum@PxHitFlag@physx@@G@2@M@Z 10020a40 f   GuCCTSweepTests.obj
 0001:00020310       ?sweepBox_HeightFieldGeom_Precise@@YA_NABVPxGeometry@physx@@ABVPxTransform@2@ABVPxBoxGeometry@2@1ABVBox@Gu@2@ABVPxVec3@2@MAAUPxSweepHit@2@V?$PxFlags@W4Enum@PxHitFlag@physx@@G@2@M@Z 10021310 f   GuCCTSweepTests.obj
 0001:00020500       ??$PX_UNUSED@I@@YAXABI@Z   10021500 f i GuCCTSweepTests.obj
 0001:00020510       ??$PX_UNUSED@M@@YAXABM@Z   10021510 f i GuCCTSweepTests.obj
 0001:00020520       ??$PX_UNUSED@VPxBoxGeometry@physx@@@@YAXABVPxBoxGeometry@physx@@@Z 10021520 f i GuCCTSweepTests.obj
 0001:00020530       ??$PX_UNUSED@VPxCapsuleGeometry@physx@@@@YAXABVPxCapsuleGeometry@physx@@@Z 10021530 f i GuCCTSweepTests.obj
 0001:00020540       ??$PX_UNUSED@VPxTransform@physx@@@@YAXABVPxTransform@physx@@@Z 10021540 f i GuCCTSweepTests.obj
 0001:00020550       ??$PX_UNUSED@VPxVec3@physx@@@@YAXABVPxVec3@physx@@@Z 10021550 f i GuCCTSweepTests.obj
 0001:00020560       ??0?$EntityReport@I@Gu@physx@@QAE@XZ 10021560 f i GuCCTSweepTests.obj
 0001:00020580       ??0?$PxFlags@W4Enum@PxHitFlag@physx@@G@physx@@QAE@ABV01@@Z 10021580 f i GuCCTSweepTests.obj
 0001:000205a0       ??0?$PxFlags@W4Enum@PxHitFlag@physx@@G@physx@@QAE@G@Z 100215a0 f i GuCCTSweepTests.obj
 0001:000205c0       ??0?$PxFlags@W4Enum@PxHitFlag@physx@@G@physx@@QAE@W4Enum@PxHitFlag@1@@Z 100215c0 f i GuCCTSweepTests.obj
 0001:000205e0       ??0?$PxFlags@W4Enum@PxHitFlag@physx@@G@physx@@QAE@XZ 100215e0 f i GuCCTSweepTests.obj
 0001:00020600       ??0?$PxFlags@W4Enum@PxMeshGeometryFlag@physx@@E@physx@@QAE@ABV01@@Z 10021600 f i GuCCTSweepTests.obj
 0001:00020620       ??0Capsule@Gu@physx@@QAE@ABV012@@Z 10021620 f i GuCCTSweepTests.obj
 0001:00020650       ??0Capsule@Gu@physx@@QAE@XZ 10021650 f i GuCCTSweepTests.obj
 0001:00020670       ??0HeightFieldTraceUtil@Gu@physx@@QAE@ABVPxHeightFieldGeometry@2@@Z 10021670 f i GuCCTSweepTests.obj
 0001:00020690       ??0HeightFieldUtil@Gu@physx@@QAE@ABVPxHeightFieldGeometry@2@@Z 10021690 f i GuCCTSweepTests.obj
 0001:00020860       ??0Matrix34@Cm@physx@@QAE@ABVPxMat33@2@ABVPxVec3@2@@Z 10021860 f i GuCCTSweepTests.obj
 0001:00020890       ??0Matrix34@Cm@physx@@QAE@XZ 10021890 f i GuCCTSweepTests.obj
 0001:000208c0       ??0PxActorShape@physx@@QAE@XZ 100218c0 f i GuCCTSweepTests.obj
 0001:000208f0       ??0PxBounds3@physx@@QAE@ABVPxVec3@1@0@Z 100218f0 f i GuCCTSweepTests.obj
 0001:00020920       ??0PxLocationHit@physx@@QAE@XZ 10021920 f i GuCCTSweepTests.obj
 0001:00020980       ??0PxQueryHit@physx@@QAE@XZ 10021980 f i GuCCTSweepTests.obj
 0001:000209a0       ??0PxSweepHit@physx@@QAE@XZ 100219a0 f i GuCCTSweepTests.obj
 0001:000209c0       ??0PxTriangle@physx@@QAE@ABVPxVec3@1@00@Z 100219c0 f i GuCCTSweepTests.obj
 0001:00020a20       ??0PxTriangle@physx@@QAE@XZ 10021a20 f i GuCCTSweepTests.obj
 0001:00020a40       ??0Segment@Gu@physx@@QAE@ABV012@@Z 10021a40 f i GuCCTSweepTests.obj
 0001:00020a70       ??0Segment@Gu@physx@@QAE@XZ 10021a70 f i GuCCTSweepTests.obj
 0001:00020aa0       ??1?$EntityReport@I@Gu@physx@@UAE@XZ 10021aa0 f i GuCCTSweepTests.obj
 0001:00020ac0       ??1Capsule@Gu@physx@@QAE@XZ 10021ac0 f i GuCCTSweepTests.obj
 0001:00020b00       ??1PxTriangle@physx@@QAE@XZ 10021b00 f i GuCCTSweepTests.obj
 0001:00020b10       ??1Segment@Gu@physx@@QAE@XZ 10021b10 f i GuCCTSweepTests.obj
 0001:00020b20       ??4?$PxFlags@W4Enum@PxHitFlag@physx@@G@physx@@QAEAAV01@ABV01@@Z 10021b20 f i GuCCTSweepTests.obj
 0001:00020b40       ??4?$PxFlags@W4Enum@PxHitFlag@physx@@G@physx@@QAEAAV01@W4Enum@PxHitFlag@1@@Z 10021b40 f i GuCCTSweepTests.obj
 0001:00020b60       ??4HeightFieldTraceUtil@Gu@physx@@QAEAAV012@$$QAV012@@Z 10021b60 f i GuCCTSweepTests.obj
 0001:00020ba0       ??4HeightFieldTraceUtil@Gu@physx@@QAEAAV012@ABV012@@Z 10021ba0 f i GuCCTSweepTests.obj
 0001:00020be0       ??4HeightFieldUtil@Gu@physx@@QAEAAV012@$$QAV012@@Z 10021be0 f i GuCCTSweepTests.obj
 0001:00020c30       ??4HeightFieldUtil@Gu@physx@@QAEAAV012@ABV012@@Z 10021c30 f i GuCCTSweepTests.obj
 0001:00020c70       ??4Matrix34@Cm@physx@@QAEABV012@ABV012@@Z 10021c70 f i GuCCTSweepTests.obj
 0001:00020ca0       ??4PxLocationHit@physx@@QAEAAU01@ABU01@@Z 10021ca0 f i GuCCTSweepTests.obj
 0001:00020d10       ??4PxSweepHit@physx@@QAEAAU01@ABU01@@Z 10021d10 f i GuCCTSweepTests.obj
 0001:00020d40       ??8PxVec3@physx@@QBE_NABV01@@Z 10021d40 f i GuCCTSweepTests.obj
 0001:00020da0       ??B?$PxFlags@W4Enum@PxHeightFieldFlag@physx@@G@physx@@QBE_NXZ 10021da0 f i GuCCTSweepTests.obj
 0001:00020dd0       ??B?$PxFlags@W4Enum@PxHitFlag@physx@@G@physx@@QBEIXZ 10021dd0 f i GuCCTSweepTests.obj
 0001:00020df0       ??B?$PxFlags@W4Enum@PxHitFlag@physx@@G@physx@@QBE_NXZ 10021df0 f i GuCCTSweepTests.obj
 0001:00020e20       ??B?$PxFlags@W4Enum@PxMeshGeometryFlag@physx@@E@physx@@QBE_NXZ 10021e20 f i GuCCTSweepTests.obj
 0001:00020e50       ??I?$PxFlags@W4Enum@PxHeightFieldFlag@physx@@G@physx@@QBE?AV01@W4Enum@PxHeightFieldFlag@1@@Z 10021e50 f i GuCCTSweepTests.obj
 0001:00020e90       ??I?$PxFlags@W4Enum@PxHitFlag@physx@@G@physx@@QBE?AV01@ABV01@@Z 10021e90 f i GuCCTSweepTests.obj
 0001:00020ed0       ??I?$PxFlags@W4Enum@PxHitFlag@physx@@G@physx@@QBE?AV01@W4Enum@PxHitFlag@1@@Z 10021ed0 f i GuCCTSweepTests.obj
 0001:00020f10       ??I?$PxFlags@W4Enum@PxMeshGeometryFlag@physx@@E@physx@@QBE?AV01@W4Enum@PxMeshGeometryFlag@1@@Z 10021f10 f i GuCCTSweepTests.obj
 0001:00020f50       ??Uphysx@@YA?AV?$PxFlags@W4Enum@PxHitFlag@physx@@G@0@W4Enum@PxHitFlag@0@0@Z 10021f50 f i GuCCTSweepTests.obj
 0001:00020f80       ??_5?$PxFlags@W4Enum@PxHitFlag@physx@@G@physx@@QAEAAV01@W4Enum@PxHitFlag@1@@Z 10021f80 f i GuCCTSweepTests.obj
 0001:00020fb0       ??_G?$EntityReport@I@Gu@physx@@UAEPAXI@Z 10021fb0 f i GuCCTSweepTests.obj
 0001:00020fb0       ??_E?$EntityReport@I@Gu@physx@@UAEPAXI@Z 10021fb0 f i GuCCTSweepTests.obj
 0001:00021010       ?PxCeil@physx@@YAMM@Z      10022010 f i GuCCTSweepTests.obj
 0001:00021030       ?PxFloor@physx@@YAMM@Z     10022030 f i GuCCTSweepTests.obj
 0001:00021050       ?PxRecipSqrt@physx@@YAMM@Z 10022050 f i GuCCTSweepTests.obj
 0001:00021070       ?basisExtent@PxBounds3@physx@@SA?AV12@ABVPxVec3@2@ABVPxMat33@2@0@Z 10022070 f i GuCCTSweepTests.obj
 0001:00021250       ?buildFrom@physx@@YAXAAVBox@Gu@1@ABVPxVec3@1@1ABVPxQuat@1@@Z 10022250 f i GuCCTSweepTests.obj
 0001:00021290       ?buildMatrixFromBox@physx@@YAXAAVMatrix34@Cm@1@ABVBox@Gu@1@@Z 10022290 f i GuCCTSweepTests.obj
 0001:000212c0       ?ceilUp@HeightFieldTraceUtil@Gu@physx@@SAMM@Z 100222c0 f i GuCCTSweepTests.obj
 0001:00021310       ?computePointNormal@HeightFieldUtil@Gu@physx@@QBE?AVPxVec3@3@IABV43@ABVPxTransform@3@MMMMAAM@Z 10022310 f i GuCCTSweepTests.obj
 0001:000213e0       ?computeWorldToBoxMatrix@physx@@YAXAAVMatrix34@Cm@1@ABVBox@Gu@1@@Z 100223e0 f i GuCCTSweepTests.obj
 0001:00021420       ?cullTriangle@Gu@physx@@YA_NPIBVPxVec3@2@ABV32@MMM@Z 10022420 f i GuCCTSweepTests.obj
 0001:00021520       ?denormalizedNormal@PxTriangle@physx@@QBEXAAVPxVec3@2@@Z 10022520 f i GuCCTSweepTests.obj
 0001:00021590       ?distanceSegmentBoxSquared@Gu@physx@@YAMABVSegment@12@ABVBox@12@PAMPAVPxVec3@2@@Z 10022590 f i GuCCTSweepTests.obj
 0001:000215d0       ?floorDown@HeightFieldTraceUtil@Gu@physx@@SAMM@Z 100225d0 f i GuCCTSweepTests.obj
 0001:00021620       ?getFeatureIndex@HeightFieldUtil@Gu@physx@@SAII@Z 10022620 f i GuCCTSweepTests.obj
 0001:00021630       ?getFeatureType@HeightFieldUtil@Gu@physx@@SA?AW4Feature@123@I@Z 10022630 f i GuCCTSweepTests.obj
 0001:00021640       ?getHeightAtShapePoint@HeightFieldUtil@Gu@physx@@QBEMMM@Z 10022640 f i GuCCTSweepTests.obj
 0001:000216a0       ?getHeightField@HeightFieldUtil@Gu@physx@@QBEABVHeightField@23@XZ 100226a0 f i GuCCTSweepTests.obj
 0001:000216c0       ?getHeightFieldGeometry@HeightFieldUtil@Gu@physx@@QBEABVPxHeightFieldGeometry@3@XZ 100226c0 f i GuCCTSweepTests.obj
 0001:000216e0       ?getInverseRT@Matrix34@Cm@physx@@QBE?AV123@XZ 100226e0 f i GuCCTSweepTests.obj
 0001:00021730       ?getNbRowsFast@HeightField@Gu@physx@@QBEIXZ 10022730 f i GuCCTSweepTests.obj
 0001:00021750       ?getNormalAtShapePoint@HeightFieldUtil@Gu@physx@@QBE?AVPxVec3@3@MM@Z 10022750 f i GuCCTSweepTests.obj
 0001:000217c0       ?getNormal_2@HeightField@Gu@physx@@QBE?AVPxVec3@3@IMMMMM@Z 100227c0 f i GuCCTSweepTests.obj
 0001:00021a00       ?getNormal_@HeightField@Gu@physx@@QBE?AVPxVec3@3@MMMMM@Z 10022a00 f i GuCCTSweepTests.obj
 0001:00021a90       ?getNormalized@PxVec3@physx@@QBE?AV12@XZ 10022a90 f i GuCCTSweepTests.obj
 0001:00021b20       ?getOneOverColumnScale@HeightFieldUtil@Gu@physx@@QBEMXZ 10022b20 f i GuCCTSweepTests.obj
 0001:00021b40       ?getOneOverHeightScale@HeightFieldUtil@Gu@physx@@QBEMXZ 10022b40 f i GuCCTSweepTests.obj
 0001:00021b60       ?getOneOverRowScale@HeightFieldUtil@Gu@physx@@QBEMXZ 10022b60 f i GuCCTSweepTests.obj
 0001:00021b70       ?getTriangleIndex@physx@@YAIII@Z 10022b70 f i GuCCTSweepTests.obj
 0001:00021ba0       ?getVertexNormal@HeightFieldUtil@Gu@physx@@QBE?AVPxVec3@3@I@Z 10022ba0 f i GuCCTSweepTests.obj
 0001:00021c00       ?hf2shapen@HeightFieldUtil@Gu@physx@@QBE?AVPxVec3@3@ABV43@@Z 10022c00 f i GuCCTSweepTests.obj
 0001:00021c60       ?hf2shapep@HeightFieldUtil@Gu@physx@@QBE?AVPxVec3@3@ABV43@@Z 10022c60 f i GuCCTSweepTests.obj
 0001:00021cd0       ?hf2worldn@HeightFieldUtil@Gu@physx@@QBE?AVPxVec3@3@ABVPxTransform@3@ABV43@@Z 10022cd0 f i GuCCTSweepTests.obj
 0001:00021d10       ?hf2worldp@HeightFieldUtil@Gu@physx@@QBE?AVPxVec3@3@ABVPxTransform@3@ABV43@@Z 10022d10 f i GuCCTSweepTests.obj
 0001:00021d50       ?isCollisionVertex@HeightField@Gu@physx@@QBE_NIIIG@Z 10022d50 f i GuCCTSweepTests.obj
 0001:00021d90       ?isCollisionVertex@HeightFieldUtil@Gu@physx@@QBE_NIII@Z 10022d90 f i GuCCTSweepTests.obj
 0001:00021dc0       ?isFinite@PxTransform@physx@@QBE_NXZ 10022dc0 f i GuCCTSweepTests.obj
 0001:00021e10       ?isQueryVertex@HeightFieldUtil@Gu@physx@@QBE_NIII@Z 10022e10 f i GuCCTSweepTests.obj
 0001:00021ee0       ?isShapePointOnHeightField@HeightFieldUtil@Gu@physx@@QBE_NMM@Z 10022ee0 f i GuCCTSweepTests.obj
 0001:00021f80       ?makeFeatureCode@HeightFieldUtil@Gu@physx@@SAIIW4Feature@123@@Z 10022f80 f i GuCCTSweepTests.obj
 0001:00022090       ?poseExtent@PxBounds3@physx@@SA?AV12@ABVPxTransform@2@ABVPxVec3@2@@Z 10023090 f i GuCCTSweepTests.obj
 0001:000220d0       ?recipSqrt@intrinsics@physx@@YAMM@Z 100230d0 f i GuCCTSweepTests.obj
 0001:00022110       ?rotate@Matrix34@Cm@physx@@QBE?AVPxVec3@3@ABV43@@Z 10023110 f i GuCCTSweepTests.obj
 0001:00022130       ?rotate@PxTransform@physx@@QBE?AVPxVec3@2@ABV32@@Z 10023130 f i GuCCTSweepTests.obj
 0001:00022180       ?setInitialOverlapResults@Gu@physx@@YA_NAAUPxSweepHit@2@ABVPxVec3@2@I@Z 10023180 f i GuCCTSweepTests.obj
 0001:000221e0       ?shape2hfp@HeightFieldUtil@Gu@physx@@QBE?AVPxVec3@3@ABV43@@Z 100231e0 f i GuCCTSweepTests.obj
 0001:00022240       ?shouldFlipNormal@Gu@physx@@YA_NABVPxVec3@2@_N100@Z 10023240 f i GuCCTSweepTests.obj
 0001:000222f0       ?transform@Matrix34@Cm@physx@@QBE?AVPxVec3@3@ABV43@@Z 100232f0 f i GuCCTSweepTests.obj
 0001:00022330       ?transform@PxTransform@physx@@QBE?AVPxVec3@2@ABV32@@Z 10023330 f i GuCCTSweepTests.obj
 0001:00022390       _ceilf                     10023390 f i GuCCTSweepTests.obj
 0001:000223c0       _floorf                    100233c0 f i GuCCTSweepTests.obj
 0001:00022440       ?sweep@PxGeometryQuery@physx@@SA_NABVPxVec3@2@MABVPxGeometry@2@ABVPxTransform@2@12AAUPxSweepHit@2@V?$PxFlags@W4Enum@PxHitFlag@physx@@G@2@M@Z 10023440 f   GuGeometryQuery.obj
 0001:00022a80       ?overlap@PxGeometryQuery@physx@@SA_NABVPxGeometry@2@ABVPxTransform@2@01@Z 10023a80 f   GuGeometryQuery.obj
 0001:00022ac0       ?raycast@PxGeometryQuery@physx@@SAIABVPxVec3@2@0ABVPxGeometry@2@ABVPxTransform@2@MV?$PxFlags@W4Enum@PxHitFlag@physx@@G@2@IPIAUPxRaycastHit@2@@Z 10023ac0 f   GuGeometryQuery.obj
 0001:00022d90       ?computePenetration@PxGeometryQuery@physx@@SA_NAAVPxVec3@2@AAMABVPxGeometry@2@ABVPxTransform@2@23@Z 10023d90 f   GuGeometryQuery.obj
 0001:00022fb0       ?pointDistance@PxGeometryQuery@physx@@SAMABVPxVec3@2@ABVPxGeometry@2@ABVPxTransform@2@PAV32@@Z 10023fb0 f   GuGeometryQuery.obj
 0001:000233f0       ?getWorldBounds@PxGeometryQuery@physx@@SA?AVPxBounds3@2@ABVPxGeometry@2@ABVPxTransform@2@M@Z 100243f0 f   GuGeometryQuery.obj
 0001:000234f0       ?isValid@PxGeometryQuery@physx@@SA_NABVPxGeometry@2@@Z 100244f0 f   GuGeometryQuery.obj
 0001:00023630       ??$PxMax@M@physx@@YAMMM@Z  10024630 f i GuGeometryQuery.obj
 0001:00023660       ??0Capsule@Gu@physx@@QAE@ABVPxVec3@2@0M@Z 10024660 f i GuGeometryQuery.obj
 0001:00023690       ??0PxBounds3@physx@@QAE@$$QAV01@@Z 10024690 f i GuGeometryQuery.obj
 0001:000236c0       ??0PxCapsuleGeometry@physx@@QAE@MM@Z 100246c0 f i GuGeometryQuery.obj
 0001:00023700       ??0PxGeometry@physx@@IAE@W4Enum@PxGeometryType@1@@Z 10024700 f i GuGeometryQuery.obj
 0001:00023720       ??0SIMDGuard@shdfnd@physx@@QAE@XZ 10024720 f i GuGeometryQuery.obj
 0001:00023750       ??0Segment@Gu@physx@@QAE@ABVPxVec3@2@0@Z 10024750 f i GuGeometryQuery.obj
 0001:00023780       ??1SIMDGuard@shdfnd@physx@@QAE@XZ 10024780 f i GuGeometryQuery.obj
 0001:000237a0       ?distancePointBoxSquared@Gu@physx@@YAMABVPxVec3@2@ABVBox@12@PAV32@@Z 100247a0 f i GuGeometryQuery.obj
 0001:000237d0       ?distancePointSegmentSquared@Gu@physx@@YAMABVPxVec3@2@00PAM@Z 100247d0 f i GuGeometryQuery.obj
 0001:00023800       ?distancePointSegmentSquared@Gu@physx@@YAMABVSegment@12@ABVPxVec3@2@PAM@Z 10024800 f i GuGeometryQuery.obj
 0001:00023820       ?distancePointSegmentSquaredInternal@Gu@physx@@YAMABVPxVec3@2@00PAM@Z 10024820 f i GuGeometryQuery.obj
 0001:000238e0       ?empty@PxBounds3@physx@@SA?AV12@XZ 100248e0 f i GuGeometryQuery.obj
 0001:00023930       ?getPointAt@Segment@Gu@physx@@QBE?AVPxVec3@3@M@Z 10024930 f i GuGeometryQuery.obj
 0001:00023980       ?isValid@PxBoxGeometry@physx@@QBE_NXZ 10024980 f i GuGeometryQuery.obj
 0001:000239e0       ?isValid@PxCapsuleGeometry@physx@@QBE_NXZ 100249e0 f i GuGeometryQuery.obj
 0001:00023a60       ?isValid@PxConvexMeshGeometry@physx@@QBE_NXZ 10024a60 f i GuGeometryQuery.obj
 0001:00023ad0       ?isValid@PxSphereGeometry@physx@@QBE_NXZ 10024ad0 f i GuGeometryQuery.obj
 0001:00023b20       ?isValid@PxTransform@physx@@QBE_NXZ 10024b20 f i GuGeometryQuery.obj
 0001:00023b70       ?isValidForConvexMesh@PxMeshScale@physx@@QBE_NXZ 10024b70 f i GuGeometryQuery.obj
 0001:00023bd0       ?maxElement@PxVec3@physx@@QBEMXZ 10024bd0 f i GuGeometryQuery.obj
 0001:00023c20       ?minElement@PxVec3@physx@@QBEMXZ 10024c20 f i GuGeometryQuery.obj
 0001:00023c70       ?overlap@Gu@physx@@YA_NABVPxGeometry@2@ABVPxTransform@2@01PIAY06Q6A_N0101PAUTriggerCache@12@@Z@Z 10024c70 f i GuGeometryQuery.obj
 0001:00023e00       ?selectMax@intrinsics@physx@@YAMMM@Z 10024e00 f i GuGeometryQuery.obj
 0001:00023e30       ?set@GeometryUnion@Gu@physx@@QAEXABVPxGeometry@3@@Z 10024e30 f   GuGeometryUnion.obj
 0001:000240f0       ??$PX_UNUSED@VGeometryUnion@Gu@physx@@@@YAXABVGeometryUnion@Gu@physx@@@Z 100250f0 f i GuGeometryUnion.obj
 0001:00024100       ??$checkType@UPxConvexMeshGeometryLL@physx@@@physx@@YAXABVGeometryUnion@Gu@0@@Z 10025100 f i GuGeometryUnion.obj
 0001:00024160       ??$checkType@UPxHeightFieldGeometryLL@physx@@@physx@@YAXABVGeometryUnion@Gu@0@@Z 10025160 f i GuGeometryUnion.obj
 0001:000241c0       ??$checkType@UPxTriangleMeshGeometryLL@physx@@@physx@@YAXABVGeometryUnion@Gu@0@@Z 100251c0 f i GuGeometryUnion.obj
 0001:00024220       ??$get@UPxConvexMeshGeometryLL@physx@@@GeometryUnion@Gu@physx@@QAEAAUPxConvexMeshGeometryLL@2@XZ 10025220 f i GuGeometryUnion.obj
 0001:00024240       ??$get@UPxHeightFieldGeometryLL@physx@@@GeometryUnion@Gu@physx@@QAEAAUPxHeightFieldGeometryLL@2@XZ 10025240 f i GuGeometryUnion.obj
 0001:00024260       ??$get@UPxTriangleMeshGeometryLL@physx@@@GeometryUnion@Gu@physx@@QAEAAUPxTriangleMeshGeometryLL@2@XZ 10025260 f i GuGeometryUnion.obj
 0001:00024280       ??0GeometryUnion@Gu@physx@@QAE@ABVPxGeometry@2@@Z 10025280 f i GuGeometryUnion.obj
 0001:000242a0       ??0GeometryUnion@Gu@physx@@QAE@W4PxEMPTY@2@@Z 100252a0 f i GuGeometryUnion.obj
 0001:000242b0       ??0GeometryUnion@Gu@physx@@QAE@XZ 100252b0 f i GuGeometryUnion.obj
 0001:000242d0       ??0InvalidGeometry@Gu@physx@@QAE@XZ 100252d0 f i GuGeometryUnion.obj
 0001:000242f0       ??0MaterialIndicesStruct@physx@@QAE@W4PxEMPTY@1@@Z 100252f0 f i GuGeometryUnion.obj
 0001:00024300       ??0MaterialIndicesStruct@physx@@QAE@XZ 10025300 f i GuGeometryUnion.obj
 0001:00024320       ??1MaterialIndicesStruct@physx@@QAE@XZ 10025320 f i GuGeometryUnion.obj
 0001:00024330       ??4?$PxFlags@W4Enum@PxConvexMeshGeometryFlag@physx@@E@physx@@QAEAAV01@ABV01@@Z 10025330 f i GuGeometryUnion.obj
 0001:00024350       ??4?$PxFlags@W4Enum@PxMeshGeometryFlag@physx@@E@physx@@QAEAAV01@ABV01@@Z 10025350 f i GuGeometryUnion.obj
 0001:00024370       ??4GeometryUnion@Gu@physx@@QAEAAV012@$$QAV012@@Z 10025370 f i GuGeometryUnion.obj
 0001:000243a0       ??4GeometryUnion@Gu@physx@@QAEAAV012@ABV012@@Z 100253a0 f i GuGeometryUnion.obj
 0001:000243d0       ??4MaterialIndicesStruct@physx@@QAEAAU01@ABU01@@Z 100253d0 f i GuGeometryUnion.obj
 0001:000243f0       ??4PxBoxGeometry@physx@@QAEAAV01@ABV01@@Z 100253f0 f i GuGeometryUnion.obj
 0001:00024420       ??4PxConvexMeshGeometry@physx@@QAEAAV01@ABV01@@Z 10025420 f i GuGeometryUnion.obj
 0001:00024490       ??4PxHeightFieldGeometry@physx@@QAEAAV01@ABV01@@Z 10025490 f i GuGeometryUnion.obj
 0001:00024510       ??4PxMeshScale@physx@@QAEAAV01@ABV01@@Z 10025510 f i GuGeometryUnion.obj
 0001:00024540       ??4PxTriangleMeshGeometry@physx@@QAEAAV01@ABV01@@Z 10025540 f i GuGeometryUnion.obj
 0001:000245b0       ?allocate@MaterialIndicesStruct@physx@@QAEXG@Z 100255b0 f i GuGeometryUnion.obj
 0001:00024600       ?deallocate@MaterialIndicesStruct@physx@@QAEXXZ 10025600 f i GuGeometryUnion.obj
 0001:00024630       ?getGeometry@GeometryUnion@Gu@physx@@QBEABVPxGeometry@3@XZ 10025630 f i GuGeometryUnion.obj
 0001:00024640       ?getHull@ConvexMesh@Gu@physx@@QAEAAUConvexHullData@23@XZ 10025640 f i GuGeometryUnion.obj
 0001:00024660       ?getMaterials@TriangleMesh@Gu@physx@@QBEPBGXZ 10025660 f i GuGeometryUnion.obj
 0001:00024680       ?getType@GeometryUnion@Gu@physx@@QBE?AW4Enum@PxGeometryType@3@XZ 10025680 f i GuGeometryUnion.obj
 0001:000246f0       ?computeBoxPoints@Gu@physx@@YAXABVPxBounds3@2@PIAVPxVec3@2@@Z 100256f0 f   GuInternal.obj
 0001:00024950       ?computeBoundsAroundVertices@Gu@physx@@YAXAAVPxBounds3@2@IPIBVPxVec3@2@@Z 10025950 f   GuInternal.obj
 0001:00024ab0       ?getPlane@Gu@physx@@YA?AVPxPlane@2@ABVPxTransform@2@@Z 10025ab0 f   GuInternal.obj
 0001:00024b00       ?computeSweptBox@Gu@physx@@YAXAAVBox@12@ABVPxVec3@2@1ABVPxMat33@2@1M@Z 10025b00 f   GuInternal.obj
 0001:00024e90       ??$swap@I@shdfnd@physx@@YAXAAI0@Z 10025e90 f i GuInternal.obj
 0001:00024ec0       ??0PxPlane@physx@@QAE@ABVPxVec3@1@M@Z 10025ec0 f i GuInternal.obj
 0001:00024ef0       ??APxMat33@physx@@QAEAAVPxVec3@1@I@Z 10025ef0 f i GuInternal.obj
 0001:00024f10       ?setEmpty@PxBounds3@physx@@QAEXXZ 10025f10 f i GuInternal.obj
 0001:00024f60       ??0GuMeshFactory@physx@@QAE@XZ 10025f60 f   GuMeshFactory.obj
 0001:00025030       ??1GuMeshFactory@physx@@MAE@XZ 10026030 f   GuMeshFactory.obj
 0001:00025090       ?release@GuMeshFactory@physx@@QAEXXZ 10026090 f   GuMeshFactory.obj
 0001:00025110       ?addTriangleMesh@GuMeshFactory@physx@@QAEXPAVTriangleMesh@Gu@2@_N@Z 10026110 f   GuMeshFactory.obj
 0001:00025150       ?createTriangleMesh@GuMeshFactory@physx@@QAEPAVPxTriangleMesh@2@AAVPxInputStream@2@@Z 10026150 f   GuMeshFactory.obj
 0001:000251c0       ?createTriangleMesh@GuMeshFactory@physx@@QAEPAVPxTriangleMesh@2@PAX@Z 100261c0 f   GuMeshFactory.obj
 0001:000251e0       ?removeTriangleMesh@GuMeshFactory@physx@@QAE_NAAVPxTriangleMesh@2@@Z 100261e0 f   GuMeshFactory.obj
 0001:00025230       ?getNbTriangleMeshes@GuMeshFactory@physx@@QBEIXZ 10026230 f   GuMeshFactory.obj
 0001:00025270       ?getTriangleMeshes@GuMeshFactory@physx@@QBEIPAPAVPxTriangleMesh@2@II@Z 10026270 f   GuMeshFactory.obj
 0001:000252d0       ?addConvexMesh@GuMeshFactory@physx@@QAEXPAVConvexMesh@Gu@2@_N@Z 100262d0 f   GuMeshFactory.obj
 0001:00025310       ?createConvexMesh@GuMeshFactory@physx@@QAEPAVPxConvexMesh@2@AAVPxInputStream@2@@Z 10026310 f   GuMeshFactory.obj
 0001:000253d0       ?createConvexMesh@GuMeshFactory@physx@@QAEPAVPxConvexMesh@2@PAX@Z 100263d0 f   GuMeshFactory.obj
 0001:000253f0       ?removeConvexMesh@GuMeshFactory@physx@@QAE_NAAVPxConvexMesh@2@@Z 100263f0 f   GuMeshFactory.obj
 0001:00025440       ?getNbConvexMeshes@GuMeshFactory@physx@@QBEIXZ 10026440 f   GuMeshFactory.obj
 0001:00025480       ?getConvexMeshes@GuMeshFactory@physx@@QBEIPAPAVPxConvexMesh@2@II@Z 10026480 f   GuMeshFactory.obj
 0001:000254e0       ?addHeightField@GuMeshFactory@physx@@QAEXPAVHeightField@Gu@2@_N@Z 100264e0 f   GuMeshFactory.obj
 0001:00025520       ?createHeightField@GuMeshFactory@physx@@QAEPAVPxHeightField@2@PAX@Z 10026520 f   GuMeshFactory.obj
 0001:000255b0       ?createHeightField@GuMeshFactory@physx@@QAEPAVPxHeightField@2@AAVPxInputStream@2@@Z 100265b0 f   GuMeshFactory.obj
 0001:00025660       ?removeHeightField@GuMeshFactory@physx@@QAE_NAAVPxHeightField@2@@Z 10026660 f   GuMeshFactory.obj
 0001:000256b0       ?getNbHeightFields@GuMeshFactory@physx@@QBEIXZ 100266b0 f   GuMeshFactory.obj
 0001:000256f0       ?getHeightFields@GuMeshFactory@physx@@QBEIPAPAVPxHeightField@2@II@Z 100266f0 f   GuMeshFactory.obj
 0001:00025750       ?addBVHStructure@GuMeshFactory@physx@@QAEXPAVBVHStructure@Gu@2@_N@Z 10026750 f   GuMeshFactory.obj
 0001:000257a0       ?createBVHStructure@GuMeshFactory@physx@@QAEPAVPxBVHStructure@2@AAVPxInputStream@2@@Z 100267a0 f   GuMeshFactory.obj
 0001:00025850       ?createBVHStructure@GuMeshFactory@physx@@QAEPAVPxBVHStructure@2@PAX@Z 10026850 f   GuMeshFactory.obj
 0001:00025870       ?removeBVHStructure@GuMeshFactory@physx@@QAE_NAAVPxBVHStructure@2@@Z 10026870 f   GuMeshFactory.obj
 0001:000258c0       ?getNbBVHStructures@GuMeshFactory@physx@@QBEIXZ 100268c0 f   GuMeshFactory.obj
 0001:00025900       ?getBVHStructures@GuMeshFactory@physx@@QBEIPAPAVPxBVHStructure@2@II@Z 10026900 f   GuMeshFactory.obj
 0001:00025960       ?addFactoryListener@GuMeshFactory@physx@@QAEXAAVGuMeshFactoryListener@2@@Z 10026960 f   GuMeshFactory.obj
 0001:000259a0       ?removeFactoryListener@GuMeshFactory@physx@@QAEXAAVGuMeshFactoryListener@2@@Z 100269a0 f   GuMeshFactory.obj
 0001:00025a30       ?notifyFactoryListener@GuMeshFactory@physx@@QAEXPBVPxBase@2@G@Z 10026a30 f   GuMeshFactory.obj
 0001:00025aa0       ?createTriangleMesh@GuMeshFactory@physx@@IAEPAVPxTriangleMesh@2@AAVTriangleMeshData@Gu@2@@Z 10026aa0 f   GuMeshFactory.obj
 0001:00025bc0       ?createConvexMesh@GuMeshFactory@physx@@IAEPAVPxConvexMesh@2@AAUConvexHullData@Gu@2@@Z 10026bc0 f   GuMeshFactory.obj
 0001:00025c60       ?createBVHStructure@GuMeshFactory@physx@@IAEPAVPxBVHStructure@2@AAUBVHStructureData@Gu@2@@Z 10026c60 f   GuMeshFactory.obj
 0001:00026fd0       ??$?2V?$ReflectionAllocator@VBV32Tree@Gu@physx@@@shdfnd@physx@@@UserAllocated@shdfnd@physx@@SAPAXIV?$ReflectionAllocator@VBV32Tree@Gu@physx@@@12@PBDH@Z 10027fd0 f i GuMeshFactory.obj
 0001:00026ff0       ??$?2V?$ReflectionAllocator@VBV4TriangleData@Gu@physx@@@shdfnd@physx@@@UserAllocated@shdfnd@physx@@SAPAXIV?$ReflectionAllocator@VBV4TriangleData@Gu@physx@@@12@PBDH@Z 10027ff0 f i GuMeshFactory.obj
 0001:00027010       ??$?2V?$ReflectionAllocator@VRTreeTriangleData@Gu@physx@@@shdfnd@physx@@@UserAllocated@shdfnd@physx@@SAPAXIV?$ReflectionAllocator@VRTreeTriangleData@Gu@physx@@@12@PBDH@Z 10028010 f i GuMeshFactory.obj
 0001:00027030       ??$?_UE@@YAPAXIV?$ReflectionAllocator@E@shdfnd@physx@@PBDH@Z 10028030 f i GuMeshFactory.obj
 0001:00027050       ??$?_UG@@YAPAXIV?$ReflectionAllocator@G@shdfnd@physx@@PBDH@Z 10028050 f i GuMeshFactory.obj
 0001:00027070       ??$?_UI@@YAPAXIV?$ReflectionAllocator@I@shdfnd@physx@@PBDH@Z 10028070 f i GuMeshFactory.obj
 0001:00027090       ??$PxMax@H@physx@@YAHHH@Z  10028090 f i GuMeshFactory.obj
 0001:000270c0       ??$PxMin@I@physx@@YAIII@Z  100280c0 f i GuMeshFactory.obj
 0001:000270f0       ??$getArrayOfPointers@VPxBVHStructure@physx@@VBVHStructure@Gu@2@@Cm@physx@@YAIPIAPAVPxBVHStructure@1@IIPIBQAVBVHStructure@Gu@1@I@Z 100280f0 f i GuMeshFactory.obj
 0001:00027160       ??$getArrayOfPointers@VPxConvexMesh@physx@@VConvexMesh@Gu@2@@Cm@physx@@YAIPIAPAVPxConvexMesh@1@IIPIBQAVConvexMesh@Gu@1@I@Z 10028160 f i GuMeshFactory.obj
 0001:000271d0       ??$getArrayOfPointers@VPxHeightField@physx@@VHeightField@Gu@2@@Cm@physx@@YAIPIAPAVPxHeightField@1@IIPIBQAVHeightField@Gu@1@I@Z 100281d0 f i GuMeshFactory.obj
 0001:00027240       ??$getArrayOfPointers@VPxTriangleMesh@physx@@VTriangleMesh@Gu@2@@Cm@physx@@YAIPIAPAVPxTriangleMesh@1@IIPIBQAVTriangleMesh@Gu@1@I@Z 10028240 f i GuMeshFactory.obj
 0001:000272b0       ??0?$AlignedAllocator@$0IA@VNonTrackingAllocator@shdfnd@physx@@@shdfnd@physx@@QAE@ABVNonTrackingAllocator@12@@Z 100282b0 f i GuMeshFactory.obj
 0001:000272c0       ??0?$Array@PAVGuMeshFactoryListener@physx@@VNamedAllocator@shdfnd@2@@shdfnd@physx@@QAE@ABVNamedAllocator@12@@Z 100282c0 f i GuMeshFactory.obj
 0001:00027300       ??0?$CoalescedHashSet@PAVBVHStructure@Gu@physx@@U?$Hash@PAVBVHStructure@Gu@physx@@@shdfnd@3@VNonTrackingAllocator@53@@shdfnd@physx@@QAE@ABVNonTrackingAllocator@12@@Z 10028300 f i GuMeshFactory.obj
 0001:00027330       ??0?$CoalescedHashSet@PAVConvexMesh@Gu@physx@@U?$Hash@PAVConvexMesh@Gu@physx@@@shdfnd@3@VNonTrackingAllocator@53@@shdfnd@physx@@QAE@ABVNonTrackingAllocator@12@@Z 10028330 f i GuMeshFactory.obj
 0001:00027360       ??0?$CoalescedHashSet@PAVHeightField@Gu@physx@@U?$Hash@PAVHeightField@Gu@physx@@@shdfnd@3@VNonTrackingAllocator@53@@shdfnd@physx@@QAE@ABVNonTrackingAllocator@12@@Z 10028360 f i GuMeshFactory.obj
 0001:00027390       ??0?$CoalescedHashSet@PAVTriangleMesh@Gu@physx@@U?$Hash@PAVTriangleMesh@Gu@physx@@@shdfnd@3@VNonTrackingAllocator@53@@shdfnd@physx@@QAE@ABVNonTrackingAllocator@12@@Z 10028390 f i GuMeshFactory.obj
 0001:000273c0       ??0?$HashBase@PAVBVHStructure@Gu@physx@@PAV123@U?$Hash@PAVBVHStructure@Gu@physx@@@shdfnd@3@UGetKey@?$HashSetBase@PAVBVHStructure@Gu@physx@@U?$Hash@PAVBVHStructure@Gu@physx@@@shdfnd@3@VNonTrackingAllocator@53@$00@internal@53@VNonTrackingAllocator@53@$00@internal@shdfnd@physx@@QAE@IMABVNonTrackingAllocator@23@@Z 100283c0 f i GuMeshFactory.obj
 0001:000273f0       ??0?$HashBase@PAVConvexMesh@Gu@physx@@PAV123@U?$Hash@PAVConvexMesh@Gu@physx@@@shdfnd@3@UGetKey@?$HashSetBase@PAVConvexMesh@Gu@physx@@U?$Hash@PAVConvexMesh@Gu@physx@@@shdfnd@3@VNonTrackingAllocator@53@$00@internal@53@VNonTrackingAllocator@53@$00@internal@shdfnd@physx@@QAE@IMABVNonTrackingAllocator@23@@Z 100283f0 f i GuMeshFactory.obj
 0001:00027420       ??0?$HashBase@PAVHeightField@Gu@physx@@PAV123@U?$Hash@PAVHeightField@Gu@physx@@@shdfnd@3@UGetKey@?$HashSetBase@PAVHeightField@Gu@physx@@U?$Hash@PAVHeightField@Gu@physx@@@shdfnd@3@VNonTrackingAllocator@53@$00@internal@53@VNonTrackingAllocator@53@$00@internal@shdfnd@physx@@QAE@IMABVNonTrackingAllocator@23@@Z 10028420 f i GuMeshFactory.obj
 0001:00027450       ??0?$HashBase@PAVTriangleMesh@Gu@physx@@PAV123@U?$Hash@PAVTriangleMesh@Gu@physx@@@shdfnd@3@UGetKey@?$HashSetBase@PAVTriangleMesh@Gu@physx@@U?$Hash@PAVTriangleMesh@Gu@physx@@@shdfnd@3@VNonTrackingAllocator@53@$00@internal@53@VNonTrackingAllocator@53@$00@internal@shdfnd@physx@@QAE@IMABVNonTrackingAllocator@23@@Z 10028450 f i GuMeshFactory.obj
 0001:00027480       ??0?$HashSetBase@PAVBVHStructure@Gu@physx@@U?$Hash@PAVBVHStructure@Gu@physx@@@shdfnd@3@VNonTrackingAllocator@53@$00@internal@shdfnd@physx@@QAE@IMABVNonTrackingAllocator@23@@Z 10028480 f i GuMeshFactory.obj
 0001:000274b0       ??0?$HashSetBase@PAVConvexMesh@Gu@physx@@U?$Hash@PAVConvexMesh@Gu@physx@@@shdfnd@3@VNonTrackingAllocator@53@$00@internal@shdfnd@physx@@QAE@IMABVNonTrackingAllocator@23@@Z 100284b0 f i GuMeshFactory.obj
 0001:000274e0       ??0?$HashSetBase@PAVHeightField@Gu@physx@@U?$Hash@PAVHeightField@Gu@physx@@@shdfnd@3@VNonTrackingAllocator@53@$00@internal@shdfnd@physx@@QAE@IMABVNonTrackingAllocator@23@@Z 100284e0 f i GuMeshFactory.obj
 0001:00027510       ??0?$HashSetBase@PAVTriangleMesh@Gu@physx@@U?$Hash@PAVTriangleMesh@Gu@physx@@@shdfnd@3@VNonTrackingAllocator@53@$00@internal@shdfnd@physx@@QAE@IMABVNonTrackingAllocator@23@@Z 10028510 f i GuMeshFactory.obj
 0001:00027540       ??0?$MutexT@V?$ReflectionAllocator@VMutexImpl@shdfnd@physx@@@shdfnd@physx@@@shdfnd@physx@@QAE@ABV?$ReflectionAllocator@VMutexImpl@shdfnd@physx@@@12@@Z 10028540 f i GuMeshFactory.obj
 0001:000275a0       ??0?$ReflectionAllocator@E@shdfnd@physx@@QAE@PBD@Z 100285a0 f i GuMeshFactory.obj
 0001:000275b0       ??0?$ReflectionAllocator@G@shdfnd@physx@@QAE@PBD@Z 100285b0 f i GuMeshFactory.obj
 0001:000275c0       ??0?$ReflectionAllocator@I@shdfnd@physx@@QAE@PBD@Z 100285c0 f i GuMeshFactory.obj
 0001:000275d0       ??0?$ReflectionAllocator@VBV32Tree@Gu@physx@@@shdfnd@physx@@QAE@PBD@Z 100285d0 f i GuMeshFactory.obj
 0001:000275e0       ??0?$ReflectionAllocator@VBV4TriangleData@Gu@physx@@@shdfnd@physx@@QAE@PBD@Z 100285e0 f i GuMeshFactory.obj
 0001:000275f0       ??0?$ReflectionAllocator@VBV4TriangleMesh@Gu@physx@@@shdfnd@physx@@QAE@PBD@Z 100285f0 f i GuMeshFactory.obj
 0001:00027600       ??0?$ReflectionAllocator@VBVHStructure@Gu@physx@@@shdfnd@physx@@QAE@PBD@Z 10028600 f i GuMeshFactory.obj
 0001:00027610       ??0?$ReflectionAllocator@VConvexMesh@Gu@physx@@@shdfnd@physx@@QAE@PBD@Z 10028610 f i GuMeshFactory.obj
 0001:00027620       ??0?$ReflectionAllocator@VHeightField@Gu@physx@@@shdfnd@physx@@QAE@PBD@Z 10028620 f i GuMeshFactory.obj
 0001:00027630       ??0?$ReflectionAllocator@VMutexImpl@shdfnd@physx@@@shdfnd@physx@@QAE@ABV012@@Z 10028630 f i GuMeshFactory.obj
 0001:00027640       ??0?$ReflectionAllocator@VMutexImpl@shdfnd@physx@@@shdfnd@physx@@QAE@PBD@Z 10028640 f i GuMeshFactory.obj
 0001:00027650       ??0?$ReflectionAllocator@VRTreeTriangleData@Gu@physx@@@shdfnd@physx@@QAE@PBD@Z 10028650 f i GuMeshFactory.obj
 0001:00027660       ??0?$ReflectionAllocator@VRTreeTriangleMesh@Gu@physx@@@shdfnd@physx@@QAE@PBD@Z 10028660 f i GuMeshFactory.obj
 0001:00027670       ??0BV4TriangleData@Gu@physx@@QAE@XZ 10028670 f i GuMeshFactory.obj
 0001:000276b0       ??0MeshDataBase@Gu@physx@@QAE@XZ 100286b0 f i GuMeshFactory.obj
 0001:00027730       ??0RTree@Gu@physx@@QAE@XZ  10028730 f i GuMeshFactory.obj
 0001:000277a0       ??0RTreeTriangleData@Gu@physx@@QAE@XZ 100287a0 f i GuMeshFactory.obj
 0001:000277e0       ??0ScopedLock@?$MutexT@V?$ReflectionAllocator@VMutexImpl@shdfnd@physx@@@shdfnd@physx@@@shdfnd@physx@@QAE@AAV123@@Z 100287e0 f i GuMeshFactory.obj
 0001:00027810       ??0TriangleMeshData@Gu@physx@@QAE@XZ 10028810 f i GuMeshFactory.obj
 0001:00027870       ??1?$Array@PAVGuMeshFactoryListener@physx@@VNamedAllocator@shdfnd@2@@shdfnd@physx@@QAE@XZ 10028870 f i GuMeshFactory.obj
 0001:000278d0       ??1?$CoalescedHashSet@PAVBVHStructure@Gu@physx@@U?$Hash@PAVBVHStructure@Gu@physx@@@shdfnd@3@VNonTrackingAllocator@53@@shdfnd@physx@@QAE@XZ 100288d0 f i GuMeshFactory.obj
 0001:000278f0       ??1?$CoalescedHashSet@PAVConvexMesh@Gu@physx@@U?$Hash@PAVConvexMesh@Gu@physx@@@shdfnd@3@VNonTrackingAllocator@53@@shdfnd@physx@@QAE@XZ 100288f0 f i GuMeshFactory.obj
 0001:00027910       ??1?$CoalescedHashSet@PAVHeightField@Gu@physx@@U?$Hash@PAVHeightField@Gu@physx@@@shdfnd@3@VNonTrackingAllocator@53@@shdfnd@physx@@QAE@XZ 10028910 f i GuMeshFactory.obj
 0001:00027930       ??1?$CoalescedHashSet@PAVTriangleMesh@Gu@physx@@U?$Hash@PAVTriangleMesh@Gu@physx@@@shdfnd@3@VNonTrackingAllocator@53@@shdfnd@physx@@QAE@XZ 10028930 f i GuMeshFactory.obj
 0001:00027950       ??1?$HashBase@PAVBVHStructure@Gu@physx@@PAV123@U?$Hash@PAVBVHStructure@Gu@physx@@@shdfnd@3@UGetKey@?$HashSetBase@PAVBVHStructure@Gu@physx@@U?$Hash@PAVBVHStructure@Gu@physx@@@shdfnd@3@VNonTrackingAllocator@53@$00@internal@53@VNonTrackingAllocator@53@$00@internal@shdfnd@physx@@QAE@XZ 10028950 f i GuMeshFactory.obj
 0001:00027980       ??1?$HashBase@PAVConvexMesh@Gu@physx@@PAV123@U?$Hash@PAVConvexMesh@Gu@physx@@@shdfnd@3@UGetKey@?$HashSetBase@PAVConvexMesh@Gu@physx@@U?$Hash@PAVConvexMesh@Gu@physx@@@shdfnd@3@VNonTrackingAllocator@53@$00@internal@53@VNonTrackingAllocator@53@$00@internal@shdfnd@physx@@QAE@XZ 10028980 f i GuMeshFactory.obj
 0001:000279b0       ??1?$HashBase@PAVHeightField@Gu@physx@@PAV123@U?$Hash@PAVHeightField@Gu@physx@@@shdfnd@3@UGetKey@?$HashSetBase@PAVHeightField@Gu@physx@@U?$Hash@PAVHeightField@Gu@physx@@@shdfnd@3@VNonTrackingAllocator@53@$00@internal@53@VNonTrackingAllocator@53@$00@internal@shdfnd@physx@@QAE@XZ 100289b0 f i GuMeshFactory.obj
 0001:000279e0       ??1?$HashBase@PAVTriangleMesh@Gu@physx@@PAV123@U?$Hash@PAVTriangleMesh@Gu@physx@@@shdfnd@3@UGetKey@?$HashSetBase@PAVTriangleMesh@Gu@physx@@U?$Hash@PAVTriangleMesh@Gu@physx@@@shdfnd@3@VNonTrackingAllocator@53@$00@internal@53@VNonTrackingAllocator@53@$00@internal@shdfnd@physx@@QAE@XZ 100289e0 f i GuMeshFactory.obj
 0001:00027a10       ??1?$HashSetBase@PAVBVHStructure@Gu@physx@@U?$Hash@PAVBVHStructure@Gu@physx@@@shdfnd@3@VNonTrackingAllocator@53@$00@internal@shdfnd@physx@@QAE@XZ 10028a10 f i GuMeshFactory.obj
 0001:00027a30       ??1?$HashSetBase@PAVConvexMesh@Gu@physx@@U?$Hash@PAVConvexMesh@Gu@physx@@@shdfnd@3@VNonTrackingAllocator@53@$00@internal@shdfnd@physx@@QAE@XZ 10028a30 f i GuMeshFactory.obj
 0001:00027a50       ??1?$HashSetBase@PAVHeightField@Gu@physx@@U?$Hash@PAVHeightField@Gu@physx@@@shdfnd@3@VNonTrackingAllocator@53@$00@internal@shdfnd@physx@@QAE@XZ 10028a50 f i GuMeshFactory.obj
 0001:00027a70       ??1?$HashSetBase@PAVTriangleMesh@Gu@physx@@U?$Hash@PAVTriangleMesh@Gu@physx@@@shdfnd@3@VNonTrackingAllocator@53@$00@internal@shdfnd@physx@@QAE@XZ 10028a70 f i GuMeshFactory.obj
 0001:00027a90       ??1?$MutexT@V?$ReflectionAllocator@VMutexImpl@shdfnd@physx@@@shdfnd@physx@@@shdfnd@physx@@QAE@XZ 10028a90 f i GuMeshFactory.obj
 0001:00027ac0       ??1BV4TriangleData@Gu@physx@@UAE@XZ 10028ac0 f i GuMeshFactory.obj
 0001:00027b00       ??1MeshDataBase@Gu@physx@@UAE@XZ 10028b00 f i GuMeshFactory.obj
 0001:00027c10       ??1RTree@Gu@physx@@QAE@XZ  10028c10 f i GuMeshFactory.obj
 0001:00027c30       ??1RTreeTriangleData@Gu@physx@@UAE@XZ 10028c30 f i GuMeshFactory.obj
 0001:00027c60       ??1ScopedLock@?$MutexT@V?$ReflectionAllocator@VMutexImpl@shdfnd@physx@@@shdfnd@physx@@@shdfnd@physx@@QAE@XZ 10028c60 f i GuMeshFactory.obj
 0001:00027c80       ??1TriangleMeshData@Gu@physx@@UAE@XZ 10028c80 f i GuMeshFactory.obj
 0001:00027d60       ??2UserAllocated@shdfnd@physx@@SAPAXIPAX@Z 10028d60 f i GuMeshFactory.obj
 0001:00027d70       ??A?$Array@PAVGuMeshFactoryListener@physx@@VNamedAllocator@shdfnd@2@@shdfnd@physx@@QAEAAPAVGuMeshFactoryListener@2@I@Z 10028d70 f i GuMeshFactory.obj
 0001:00027dd0       ??R?$Hash@PAVBVHStructure@Gu@physx@@@shdfnd@physx@@QBEIABQAVBVHStructure@Gu@2@@Z 10028dd0 f i GuMeshFactory.obj
 0001:00027df0       ??R?$Hash@PAVConvexMesh@Gu@physx@@@shdfnd@physx@@QBEIABQAVConvexMesh@Gu@2@@Z 10028df0 f i GuMeshFactory.obj
 0001:00027e10       ??R?$Hash@PAVHeightField@Gu@physx@@@shdfnd@physx@@QBEIABQAVHeightField@Gu@2@@Z 10028e10 f i GuMeshFactory.obj
 0001:00027e30       ??R?$Hash@PAVTriangleMesh@Gu@physx@@@shdfnd@physx@@QBEIABQAVTriangleMesh@Gu@2@@Z 10028e30 f i GuMeshFactory.obj
 0001:00027e50       ??RGetKey@?$HashSetBase@PAVBVHStructure@Gu@physx@@U?$Hash@PAVBVHStructure@Gu@physx@@@shdfnd@3@VNonTrackingAllocator@53@$00@internal@shdfnd@physx@@QAEABQAVBVHStructure@Gu@4@ABQAV564@@Z 10028e50 f i GuMeshFactory.obj
 0001:00027e60       ??RGetKey@?$HashSetBase@PAVConvexMesh@Gu@physx@@U?$Hash@PAVConvexMesh@Gu@physx@@@shdfnd@3@VNonTrackingAllocator@53@$00@internal@shdfnd@physx@@QAEABQAVConvexMesh@Gu@4@ABQAV564@@Z 10028e60 f i GuMeshFactory.obj
 0001:00027e70       ??RGetKey@?$HashSetBase@PAVHeightField@Gu@physx@@U?$Hash@PAVHeightField@Gu@physx@@@shdfnd@3@VNonTrackingAllocator@53@$00@internal@shdfnd@physx@@QAEABQAVHeightField@Gu@4@ABQAV564@@Z 10028e70 f i GuMeshFactory.obj
 0001:00027e80       ??RGetKey@?$HashSetBase@PAVTriangleMesh@Gu@physx@@U?$Hash@PAVTriangleMesh@Gu@physx@@@shdfnd@3@VNonTrackingAllocator@53@$00@internal@shdfnd@physx@@QAEABQAVTriangleMesh@Gu@4@ABQAV564@@Z 10028e80 f i GuMeshFactory.obj
 0001:00027e90       ??_EGuMeshFactory@physx@@MAEPAXI@Z 10028e90 f i GuMeshFactory.obj
 0001:00027f50       ??_GBV32Tree@Gu@physx@@QAEPAXI@Z 10028f50 f i GuMeshFactory.obj
 0001:00027fa0       ??_GBV4TriangleData@Gu@physx@@UAEPAXI@Z 10028fa0 f i GuMeshFactory.obj
 0001:00027fa0       ??_EBV4TriangleData@Gu@physx@@UAEPAXI@Z 10028fa0 f i GuMeshFactory.obj
 0001:00027ff0       ??_GGuMeshFactory@physx@@MAEPAXI@Z 10028ff0 f i GuMeshFactory.obj
 0001:00028040       ??_EMeshDataBase@Gu@physx@@UAEPAXI@Z 10029040 f i GuMeshFactory.obj
 0001:00028040       ??_GMeshDataBase@Gu@physx@@UAEPAXI@Z 10029040 f i GuMeshFactory.obj
 0001:00028090       ??_GMutexImpl@shdfnd@physx@@QAEPAXI@Z 10029090 f i GuMeshFactory.obj
 0001:000280c0       ??_ERTreeTriangleData@Gu@physx@@UAEPAXI@Z 100290c0 f i GuMeshFactory.obj
 0001:000280c0       ??_GRTreeTriangleData@Gu@physx@@UAEPAXI@Z 100290c0 f i GuMeshFactory.obj
 0001:00028110       ??_GTriangleMeshData@Gu@physx@@UAEPAXI@Z 10029110 f i GuMeshFactory.obj
 0001:00028110       ??_ETriangleMeshData@Gu@physx@@UAEPAXI@Z 10029110 f i GuMeshFactory.obj
 0001:00028160       ?__global_array_delete@@YAXPAX@Z 10029160 f i GuMeshFactory.obj
 0001:00028180       ?__global_array_delete@@YAXPAXI@Z 10029180 f i GuMeshFactory.obj
 0001:000281a0       ?__global_delete@@YAXPAX@Z 100291a0 f i GuMeshFactory.obj
 0001:000281c0       ?__global_delete@@YAXPAXI@Z 100291c0 f i GuMeshFactory.obj
 0001:000281e0       ?allocate@?$Array@PAVGuMeshFactoryListener@physx@@VNamedAllocator@shdfnd@2@@shdfnd@physx@@IAEPAPAVGuMeshFactoryListener@3@I@Z 100291e0 f i GuMeshFactory.obj
 0001:00028250       ?allocate@?$ReflectionAllocator@E@shdfnd@physx@@QAEPAXIPBDH@Z 10029250 f i GuMeshFactory.obj
 0001:000282a0       ?allocate@?$ReflectionAllocator@G@shdfnd@physx@@QAEPAXIPBDH@Z 100292a0 f i GuMeshFactory.obj
 0001:000282f0       ?allocate@?$ReflectionAllocator@I@shdfnd@physx@@QAEPAXIPBDH@Z 100292f0 f i GuMeshFactory.obj
 0001:00028340       ?allocate@?$ReflectionAllocator@VBV32Tree@Gu@physx@@@shdfnd@physx@@QAEPAXIPBDH@Z 10029340 f i GuMeshFactory.obj
 0001:00028390       ?allocate@?$ReflectionAllocator@VBV4TriangleData@Gu@physx@@@shdfnd@physx@@QAEPAXIPBDH@Z 10029390 f i GuMeshFactory.obj
 0001:000283e0       ?allocate@?$ReflectionAllocator@VBV4TriangleMesh@Gu@physx@@@shdfnd@physx@@QAEPAXIPBDH@Z 100293e0 f i GuMeshFactory.obj
 0001:00028430       ?allocate@?$ReflectionAllocator@VBVHStructure@Gu@physx@@@shdfnd@physx@@QAEPAXIPBDH@Z 10029430 f i GuMeshFactory.obj
 0001:00028480       ?allocate@?$ReflectionAllocator@VConvexMesh@Gu@physx@@@shdfnd@physx@@QAEPAXIPBDH@Z 10029480 f i GuMeshFactory.obj
 0001:000284d0       ?allocate@?$ReflectionAllocator@VHeightField@Gu@physx@@@shdfnd@physx@@QAEPAXIPBDH@Z 100294d0 f i GuMeshFactory.obj
 0001:00028520       ?allocate@?$ReflectionAllocator@VMutexImpl@shdfnd@physx@@@shdfnd@physx@@QAEPAXIPBDH@Z 10029520 f i GuMeshFactory.obj
 0001:00028570       ?allocate@?$ReflectionAllocator@VRTreeTriangleData@Gu@physx@@@shdfnd@physx@@QAEPAXIPBDH@Z 10029570 f i GuMeshFactory.obj
 0001:000285c0       ?allocate@?$ReflectionAllocator@VRTreeTriangleMesh@Gu@physx@@@shdfnd@physx@@QAEPAXIPBDH@Z 100295c0 f i GuMeshFactory.obj
 0001:00028610       ?allocateAdjacencies@TriangleMeshData@Gu@physx@@QAEPAIXZ 10029610 f i GuMeshFactory.obj
 0001:00028700       ?allocateExtraTrigData@TriangleMeshData@Gu@physx@@QAEPAEXZ 10029700 f i GuMeshFactory.obj
 0001:000287d0       ?allocateFaceRemap@TriangleMeshData@Gu@physx@@QAEPAIXZ 100297d0 f i GuMeshFactory.obj
 0001:000288b0       ?allocateMaterials@TriangleMeshData@Gu@physx@@QAEPAGXZ 100298b0 f i GuMeshFactory.obj
 0001:00028990       ?allocateTriangles@TriangleMeshData@Gu@physx@@QAEPAXI_NI@Z 10029990 f i GuMeshFactory.obj
 0001:00028b20       ?allocateVertices@MeshDataBase@Gu@physx@@QAEPAVPxVec3@3@I@Z 10029b20 f i GuMeshFactory.obj
 0001:00028bc0       ?capacity@?$Array@PAVGuMeshFactoryListener@physx@@VNamedAllocator@shdfnd@2@@shdfnd@physx@@QBEIXZ 10029bc0 f i GuMeshFactory.obj
 0001:00028be0       ?capacityIncrement@?$Array@PAVGuMeshFactoryListener@physx@@VNamedAllocator@shdfnd@2@@shdfnd@physx@@IBEIXZ 10029be0 f i GuMeshFactory.obj
 0001:00028c20       ?copy@?$Array@PAVGuMeshFactoryListener@physx@@VNamedAllocator@shdfnd@2@@shdfnd@physx@@KAXPAPAVGuMeshFactoryListener@3@0PBQAV43@@Z 10029c20 f i GuMeshFactory.obj
 0001:00028c70       ?create@?$HashBase@PAVBVHStructure@Gu@physx@@PAV123@U?$Hash@PAVBVHStructure@Gu@physx@@@shdfnd@3@UGetKey@?$HashSetBase@PAVBVHStructure@Gu@physx@@U?$Hash@PAVBVHStructure@Gu@physx@@@shdfnd@3@VNonTrackingAllocator@53@$00@internal@53@VNonTrackingAllocator@53@$00@internal@shdfnd@physx@@QAEPAPAVBVHStructure@Gu@4@ABQAV564@AA_N@Z 10029c70 f i GuMeshFactory.obj
 0001:00028dc0       ?create@?$HashBase@PAVConvexMesh@Gu@physx@@PAV123@U?$Hash@PAVConvexMesh@Gu@physx@@@shdfnd@3@UGetKey@?$HashSetBase@PAVConvexMesh@Gu@physx@@U?$Hash@PAVConvexMesh@Gu@physx@@@shdfnd@3@VNonTrackingAllocator@53@$00@internal@53@VNonTrackingAllocator@53@$00@internal@shdfnd@physx@@QAEPAPAVConvexMesh@Gu@4@ABQAV564@AA_N@Z 10029dc0 f i GuMeshFactory.obj
 0001:00028f10       ?create@?$HashBase@PAVHeightField@Gu@physx@@PAV123@U?$Hash@PAVHeightField@Gu@physx@@@shdfnd@3@UGetKey@?$HashSetBase@PAVHeightField@Gu@physx@@U?$Hash@PAVHeightField@Gu@physx@@@shdfnd@3@VNonTrackingAllocator@53@$00@internal@53@VNonTrackingAllocator@53@$00@internal@shdfnd@physx@@QAEPAPAVHeightField@Gu@4@ABQAV564@AA_N@Z 10029f10 f i GuMeshFactory.obj
 0001:00029060       ?create@?$HashBase@PAVTriangleMesh@Gu@physx@@PAV123@U?$Hash@PAVTriangleMesh@Gu@physx@@@shdfnd@3@UGetKey@?$HashSetBase@PAVTriangleMesh@Gu@physx@@U?$Hash@PAVTriangleMesh@Gu@physx@@@shdfnd@3@VNonTrackingAllocator@53@$00@internal@53@VNonTrackingAllocator@53@$00@internal@shdfnd@physx@@QAEPAPAVTriangleMesh@Gu@4@ABQAV564@AA_N@Z 1002a060 f i GuMeshFactory.obj
 0001:000291b0       ?deallocate@?$AlignedAllocator@$0IA@VNonTrackingAllocator@shdfnd@physx@@@shdfnd@physx@@QAEXPAX@Z 1002a1b0 f i GuMeshFactory.obj
 0001:000291f0       ?deallocate@?$Array@PAVGuMeshFactoryListener@physx@@VNamedAllocator@shdfnd@2@@shdfnd@physx@@IAEXPAX@Z 1002a1f0 f i GuMeshFactory.obj
 0001:00029210       ?deallocate@?$ReflectionAllocator@VMutexImpl@shdfnd@physx@@@shdfnd@physx@@QAEXPAX@Z 1002a210 f i GuMeshFactory.obj
 0001:00029240       ?decRefCount@RefCountable@Cm@physx@@QAEXXZ 1002a240 f i GuMeshFactory.obj
 0001:000292b0       ?destroy@?$Array@PAVGuMeshFactoryListener@physx@@VNamedAllocator@shdfnd@2@@shdfnd@physx@@KAXPAPAVGuMeshFactoryListener@3@0@Z 1002a2b0 f i GuMeshFactory.obj
 0001:000292d0       ?destroy@?$HashBase@PAVBVHStructure@Gu@physx@@PAV123@U?$Hash@PAVBVHStructure@Gu@physx@@@shdfnd@3@UGetKey@?$HashSetBase@PAVBVHStructure@Gu@physx@@U?$Hash@PAVBVHStructure@Gu@physx@@@shdfnd@3@VNonTrackingAllocator@53@$00@internal@53@VNonTrackingAllocator@53@$00@internal@shdfnd@physx@@AAEXXZ 1002a2d0 f i GuMeshFactory.obj
 0001:00029330       ?destroy@?$HashBase@PAVConvexMesh@Gu@physx@@PAV123@U?$Hash@PAVConvexMesh@Gu@physx@@@shdfnd@3@UGetKey@?$HashSetBase@PAVConvexMesh@Gu@physx@@U?$Hash@PAVConvexMesh@Gu@physx@@@shdfnd@3@VNonTrackingAllocator@53@$00@internal@53@VNonTrackingAllocator@53@$00@internal@shdfnd@physx@@AAEXXZ 1002a330 f i GuMeshFactory.obj
 0001:00029390       ?destroy@?$HashBase@PAVHeightField@Gu@physx@@PAV123@U?$Hash@PAVHeightField@Gu@physx@@@shdfnd@3@UGetKey@?$HashSetBase@PAVHeightField@Gu@physx@@U?$Hash@PAVHeightField@Gu@physx@@@shdfnd@3@VNonTrackingAllocator@53@$00@internal@53@VNonTrackingAllocator@53@$00@internal@shdfnd@physx@@AAEXXZ 1002a390 f i GuMeshFactory.obj
 0001:000293f0       ?destroy@?$HashBase@PAVTriangleMesh@Gu@physx@@PAV123@U?$Hash@PAVTriangleMesh@Gu@physx@@@shdfnd@3@UGetKey@?$HashSetBase@PAVTriangleMesh@Gu@physx@@U?$Hash@PAVTriangleMesh@Gu@physx@@@shdfnd@3@VNonTrackingAllocator@53@$00@internal@53@VNonTrackingAllocator@53@$00@internal@shdfnd@physx@@AAEXXZ 1002a3f0 f i GuMeshFactory.obj
 0001:00029450       ?equal@?$Hash@PAVBVHStructure@Gu@physx@@@shdfnd@physx@@QBE_NABQAVBVHStructure@Gu@3@0@Z 1002a450 f i GuMeshFactory.obj
 0001:00029480       ?equal@?$Hash@PAVConvexMesh@Gu@physx@@@shdfnd@physx@@QBE_NABQAVConvexMesh@Gu@3@0@Z 1002a480 f i GuMeshFactory.obj
 0001:000294b0       ?equal@?$Hash@PAVHeightField@Gu@physx@@@shdfnd@physx@@QBE_NABQAVHeightField@Gu@3@0@Z 1002a4b0 f i GuMeshFactory.obj
 0001:000294e0       ?equal@?$Hash@PAVTriangleMesh@Gu@physx@@@shdfnd@physx@@QBE_NABQAVTriangleMesh@Gu@3@0@Z 1002a4e0 f i GuMeshFactory.obj
 0001:00029510       ?erase@?$HashBase@PAVBVHStructure@Gu@physx@@PAV123@U?$Hash@PAVBVHStructure@Gu@physx@@@shdfnd@3@UGetKey@?$HashSetBase@PAVBVHStructure@Gu@physx@@U?$Hash@PAVBVHStructure@Gu@physx@@@shdfnd@3@VNonTrackingAllocator@53@$00@internal@53@VNonTrackingAllocator@53@$00@internal@shdfnd@physx@@QAE_NABQAVBVHStructure@Gu@4@@Z 1002a510 f i GuMeshFactory.obj
 0001:000295b0       ?erase@?$HashBase@PAVConvexMesh@Gu@physx@@PAV123@U?$Hash@PAVConvexMesh@Gu@physx@@@shdfnd@3@UGetKey@?$HashSetBase@PAVConvexMesh@Gu@physx@@U?$Hash@PAVConvexMesh@Gu@physx@@@shdfnd@3@VNonTrackingAllocator@53@$00@internal@53@VNonTrackingAllocator@53@$00@internal@shdfnd@physx@@QAE_NABQAVConvexMesh@Gu@4@@Z 1002a5b0 f i GuMeshFactory.obj
 0001:00029650       ?erase@?$HashBase@PAVHeightField@Gu@physx@@PAV123@U?$Hash@PAVHeightField@Gu@physx@@@shdfnd@3@UGetKey@?$HashSetBase@PAVHeightField@Gu@physx@@U?$Hash@PAVHeightField@Gu@physx@@@shdfnd@3@VNonTrackingAllocator@53@$00@internal@53@VNonTrackingAllocator@53@$00@internal@shdfnd@physx@@QAE_NABQAVHeightField@Gu@4@@Z 1002a650 f i GuMeshFactory.obj
 0001:000296f0       ?erase@?$HashBase@PAVTriangleMesh@Gu@physx@@PAV123@U?$Hash@PAVTriangleMesh@Gu@physx@@@shdfnd@3@UGetKey@?$HashSetBase@PAVTriangleMesh@Gu@physx@@U?$Hash@PAVTriangleMesh@Gu@physx@@@shdfnd@3@VNonTrackingAllocator@53@$00@internal@53@VNonTrackingAllocator@53@$00@internal@shdfnd@physx@@QAE_NABQAVTriangleMesh@Gu@4@@Z 1002a6f0 f i GuMeshFactory.obj
 0001:00029790       ?erase@?$HashSetBase@PAVBVHStructure@Gu@physx@@U?$Hash@PAVBVHStructure@Gu@physx@@@shdfnd@3@VNonTrackingAllocator@53@$00@internal@shdfnd@physx@@QAE_NABQAVBVHStructure@Gu@4@@Z 1002a790 f i GuMeshFactory.obj
 0001:000297b0       ?erase@?$HashSetBase@PAVConvexMesh@Gu@physx@@U?$Hash@PAVConvexMesh@Gu@physx@@@shdfnd@3@VNonTrackingAllocator@53@$00@internal@shdfnd@physx@@QAE_NABQAVConvexMesh@Gu@4@@Z 1002a7b0 f i GuMeshFactory.obj
 0001:000297d0       ?erase@?$HashSetBase@PAVHeightField@Gu@physx@@U?$Hash@PAVHeightField@Gu@physx@@@shdfnd@3@VNonTrackingAllocator@53@$00@internal@shdfnd@physx@@QAE_NABQAVHeightField@Gu@4@@Z 1002a7d0 f i GuMeshFactory.obj
 0001:000297f0       ?erase@?$HashSetBase@PAVTriangleMesh@Gu@physx@@U?$Hash@PAVTriangleMesh@Gu@physx@@@shdfnd@3@VNonTrackingAllocator@53@$00@internal@shdfnd@physx@@QAE_NABQAVTriangleMesh@Gu@4@@Z 1002a7f0 f i GuMeshFactory.obj
 0001:00029810       ?eraseInternal@?$HashBase@PAVBVHStructure@Gu@physx@@PAV123@U?$Hash@PAVBVHStructure@Gu@physx@@@shdfnd@3@UGetKey@?$HashSetBase@PAVBVHStructure@Gu@physx@@U?$Hash@PAVBVHStructure@Gu@physx@@@shdfnd@3@VNonTrackingAllocator@53@$00@internal@53@VNonTrackingAllocator@53@$00@internal@shdfnd@physx@@AAE_NPAI@Z 1002a810 f i GuMeshFactory.obj
 0001:00029890       ?eraseInternal@?$HashBase@PAVConvexMesh@Gu@physx@@PAV123@U?$Hash@PAVConvexMesh@Gu@physx@@@shdfnd@3@UGetKey@?$HashSetBase@PAVConvexMesh@Gu@physx@@U?$Hash@PAVConvexMesh@Gu@physx@@@shdfnd@3@VNonTrackingAllocator@53@$00@internal@53@VNonTrackingAllocator@53@$00@internal@shdfnd@physx@@AAE_NPAI@Z 1002a890 f i GuMeshFactory.obj
 0001:00029910       ?eraseInternal@?$HashBase@PAVHeightField@Gu@physx@@PAV123@U?$Hash@PAVHeightField@Gu@physx@@@shdfnd@3@UGetKey@?$HashSetBase@PAVHeightField@Gu@physx@@U?$Hash@PAVHeightField@Gu@physx@@@shdfnd@3@VNonTrackingAllocator@53@$00@internal@53@VNonTrackingAllocator@53@$00@internal@shdfnd@physx@@AAE_NPAI@Z 1002a910 f i GuMeshFactory.obj
 0001:00029990       ?eraseInternal@?$HashBase@PAVTriangleMesh@Gu@physx@@PAV123@U?$Hash@PAVTriangleMesh@Gu@physx@@@shdfnd@3@UGetKey@?$HashSetBase@PAVTriangleMesh@Gu@physx@@U?$Hash@PAVTriangleMesh@Gu@physx@@@shdfnd@3@VNonTrackingAllocator@53@$00@internal@53@VNonTrackingAllocator@53@$00@internal@shdfnd@physx@@AAE_NPAI@Z 1002a990 f i GuMeshFactory.obj
 0001:00029a10       ?flip@physx@@YAXAAG@Z      1002aa10 f i GuMeshFactory.obj
 0001:00029a60       ?flip@physx@@YAXAAI@Z      1002aa60 f i GuMeshFactory.obj
 0001:00029af0       ?flip@physx@@YAXAAM@Z      1002aaf0 f i GuMeshFactory.obj
 0001:00029b80       ?freeListAdd@?$HashBase@PAVBVHStructure@Gu@physx@@PAV123@U?$Hash@PAVBVHStructure@Gu@physx@@@shdfnd@3@UGetKey@?$HashSetBase@PAVBVHStructure@Gu@physx@@U?$Hash@PAVBVHStructure@Gu@physx@@@shdfnd@3@VNonTrackingAllocator@53@$00@internal@53@VNonTrackingAllocator@53@$00@internal@shdfnd@physx@@AAEXI@Z 1002ab80 f i GuMeshFactory.obj
 0001:00029c10       ?freeListAdd@?$HashBase@PAVBVHStructure@Gu@physx@@PAV123@U?$Hash@PAVBVHStructure@Gu@physx@@@shdfnd@3@UGetKey@?$HashSetBase@PAVBVHStructure@Gu@physx@@U?$Hash@PAVBVHStructure@Gu@physx@@@shdfnd@3@VNonTrackingAllocator@53@$00@internal@53@VNonTrackingAllocator@53@$00@internal@shdfnd@physx@@AAEXII@Z 1002ac10 f i GuMeshFactory.obj
 0001:00029cd0       ?freeListAdd@?$HashBase@PAVConvexMesh@Gu@physx@@PAV123@U?$Hash@PAVConvexMesh@Gu@physx@@@shdfnd@3@UGetKey@?$HashSetBase@PAVConvexMesh@Gu@physx@@U?$Hash@PAVConvexMesh@Gu@physx@@@shdfnd@3@VNonTrackingAllocator@53@$00@internal@53@VNonTrackingAllocator@53@$00@internal@shdfnd@physx@@AAEXI@Z 1002acd0 f i GuMeshFactory.obj
 0001:00029d60       ?freeListAdd@?$HashBase@PAVConvexMesh@Gu@physx@@PAV123@U?$Hash@PAVConvexMesh@Gu@physx@@@shdfnd@3@UGetKey@?$HashSetBase@PAVConvexMesh@Gu@physx@@U?$Hash@PAVConvexMesh@Gu@physx@@@shdfnd@3@VNonTrackingAllocator@53@$00@internal@53@VNonTrackingAllocator@53@$00@internal@shdfnd@physx@@AAEXII@Z 1002ad60 f i GuMeshFactory.obj
 0001:00029e20       ?freeListAdd@?$HashBase@PAVHeightField@Gu@physx@@PAV123@U?$Hash@PAVHeightField@Gu@physx@@@shdfnd@3@UGetKey@?$HashSetBase@PAVHeightField@Gu@physx@@U?$Hash@PAVHeightField@Gu@physx@@@shdfnd@3@VNonTrackingAllocator@53@$00@internal@53@VNonTrackingAllocator@53@$00@internal@shdfnd@physx@@AAEXI@Z 1002ae20 f i GuMeshFactory.obj
 0001:00029eb0       ?freeListAdd@?$HashBase@PAVHeightField@Gu@physx@@PAV123@U?$Hash@PAVHeightField@Gu@physx@@@shdfnd@3@UGetKey@?$HashSetBase@PAVHeightField@Gu@physx@@U?$Hash@PAVHeightField@Gu@physx@@@shdfnd@3@VNonTrackingAllocator@53@$00@internal@53@VNonTrackingAllocator@53@$00@internal@shdfnd@physx@@AAEXII@Z 1002aeb0 f i GuMeshFactory.obj
 0001:00029f70       ?freeListAdd@?$HashBase@PAVTriangleMesh@Gu@physx@@PAV123@U?$Hash@PAVTriangleMesh@Gu@physx@@@shdfnd@3@UGetKey@?$HashSetBase@PAVTriangleMesh@Gu@physx@@U?$Hash@PAVTriangleMesh@Gu@physx@@@shdfnd@3@VNonTrackingAllocator@53@$00@internal@53@VNonTrackingAllocator@53@$00@internal@shdfnd@physx@@AAEXI@Z 1002af70 f i GuMeshFactory.obj
 0001:0002a000       ?freeListAdd@?$HashBase@PAVTriangleMesh@Gu@physx@@PAV123@U?$Hash@PAVTriangleMesh@Gu@physx@@@shdfnd@3@UGetKey@?$HashSetBase@PAVTriangleMesh@Gu@physx@@U?$Hash@PAVTriangleMesh@Gu@physx@@@shdfnd@3@VNonTrackingAllocator@53@$00@internal@53@VNonTrackingAllocator@53@$00@internal@shdfnd@physx@@AAEXII@Z 1002b000 f i GuMeshFactory.obj
 0001:0002a0c0       ?freeListEmpty@?$HashBase@PAVBVHStructure@Gu@physx@@PAV123@U?$Hash@PAVBVHStructure@Gu@physx@@@shdfnd@3@UGetKey@?$HashSetBase@PAVBVHStructure@Gu@physx@@U?$Hash@PAVBVHStructure@Gu@physx@@@shdfnd@3@VNonTrackingAllocator@53@$00@internal@53@VNonTrackingAllocator@53@$00@internal@shdfnd@physx@@ABE_NXZ 1002b0c0 f i GuMeshFactory.obj
 0001:0002a120       ?freeListEmpty@?$HashBase@PAVConvexMesh@Gu@physx@@PAV123@U?$Hash@PAVConvexMesh@Gu@physx@@@shdfnd@3@UGetKey@?$HashSetBase@PAVConvexMesh@Gu@physx@@U?$Hash@PAVConvexMesh@Gu@physx@@@shdfnd@3@VNonTrackingAllocator@53@$00@internal@53@VNonTrackingAllocator@53@$00@internal@shdfnd@physx@@ABE_NXZ 1002b120 f i GuMeshFactory.obj
 0001:0002a180       ?freeListEmpty@?$HashBase@PAVHeightField@Gu@physx@@PAV123@U?$Hash@PAVHeightField@Gu@physx@@@shdfnd@3@UGetKey@?$HashSetBase@PAVHeightField@Gu@physx@@U?$Hash@PAVHeightField@Gu@physx@@@shdfnd@3@VNonTrackingAllocator@53@$00@internal@53@VNonTrackingAllocator@53@$00@internal@shdfnd@physx@@ABE_NXZ 1002b180 f i GuMeshFactory.obj
 0001:0002a1e0       ?freeListEmpty@?$HashBase@PAVTriangleMesh@Gu@physx@@PAV123@U?$Hash@PAVTriangleMesh@Gu@physx@@@shdfnd@3@UGetKey@?$HashSetBase@PAVTriangleMesh@Gu@physx@@U?$Hash@PAVTriangleMesh@Gu@physx@@@shdfnd@3@VNonTrackingAllocator@53@$00@internal@53@VNonTrackingAllocator@53@$00@internal@shdfnd@physx@@ABE_NXZ 1002b1e0 f i GuMeshFactory.obj
 0001:0002a240       ?freeListGetNext@?$HashBase@PAVBVHStructure@Gu@physx@@PAV123@U?$Hash@PAVBVHStructure@Gu@physx@@@shdfnd@3@UGetKey@?$HashSetBase@PAVBVHStructure@Gu@physx@@U?$Hash@PAVBVHStructure@Gu@physx@@@shdfnd@3@VNonTrackingAllocator@53@$00@internal@53@VNonTrackingAllocator@53@$00@internal@shdfnd@physx@@AAEIXZ 1002b240 f i GuMeshFactory.obj
 0001:0002a320       ?freeListGetNext@?$HashBase@PAVConvexMesh@Gu@physx@@PAV123@U?$Hash@PAVConvexMesh@Gu@physx@@@shdfnd@3@UGetKey@?$HashSetBase@PAVConvexMesh@Gu@physx@@U?$Hash@PAVConvexMesh@Gu@physx@@@shdfnd@3@VNonTrackingAllocator@53@$00@internal@53@VNonTrackingAllocator@53@$00@internal@shdfnd@physx@@AAEIXZ 1002b320 f i GuMeshFactory.obj
 0001:0002a400       ?freeListGetNext@?$HashBase@PAVHeightField@Gu@physx@@PAV123@U?$Hash@PAVHeightField@Gu@physx@@@shdfnd@3@UGetKey@?$HashSetBase@PAVHeightField@Gu@physx@@U?$Hash@PAVHeightField@Gu@physx@@@shdfnd@3@VNonTrackingAllocator@53@$00@internal@53@VNonTrackingAllocator@53@$00@internal@shdfnd@physx@@AAEIXZ 1002b400 f i GuMeshFactory.obj
 0001:0002a4e0       ?freeListGetNext@?$HashBase@PAVTriangleMesh@Gu@physx@@PAV123@U?$Hash@PAVTriangleMesh@Gu@physx@@@shdfnd@3@UGetKey@?$HashSetBase@PAVTriangleMesh@Gu@physx@@U?$Hash@PAVTriangleMesh@Gu@physx@@@shdfnd@3@VNonTrackingAllocator@53@$00@internal@53@VNonTrackingAllocator@53@$00@internal@shdfnd@physx@@AAEIXZ 1002b4e0 f i GuMeshFactory.obj
 0001:0002a5c0       ?getEntries@?$CoalescedHashSet@PAVBVHStructure@Gu@physx@@U?$Hash@PAVBVHStructure@Gu@physx@@@shdfnd@3@VNonTrackingAllocator@53@@shdfnd@physx@@QBEPBQAVBVHStructure@Gu@3@XZ 1002b5c0 f i GuMeshFactory.obj
 0001:0002a5e0       ?getEntries@?$CoalescedHashSet@PAVConvexMesh@Gu@physx@@U?$Hash@PAVConvexMesh@Gu@physx@@@shdfnd@3@VNonTrackingAllocator@53@@shdfnd@physx@@QBEPBQAVConvexMesh@Gu@3@XZ 1002b5e0 f i GuMeshFactory.obj
 0001:0002a600       ?getEntries@?$CoalescedHashSet@PAVHeightField@Gu@physx@@U?$Hash@PAVHeightField@Gu@physx@@@shdfnd@3@VNonTrackingAllocator@53@@shdfnd@physx@@QBEPBQAVHeightField@Gu@3@XZ 1002b600 f i GuMeshFactory.obj
 0001:0002a620       ?getEntries@?$CoalescedHashSet@PAVTriangleMesh@Gu@physx@@U?$Hash@PAVTriangleMesh@Gu@physx@@@shdfnd@3@VNonTrackingAllocator@53@@shdfnd@physx@@QBEPBQAVTriangleMesh@Gu@3@XZ 1002b620 f i GuMeshFactory.obj
 0001:0002a640       ?getEntries@?$HashBase@PAVBVHStructure@Gu@physx@@PAV123@U?$Hash@PAVBVHStructure@Gu@physx@@@shdfnd@3@UGetKey@?$HashSetBase@PAVBVHStructure@Gu@physx@@U?$Hash@PAVBVHStructure@Gu@physx@@@shdfnd@3@VNonTrackingAllocator@53@$00@internal@53@VNonTrackingAllocator@53@$00@internal@shdfnd@physx@@QBEPBQAVBVHStructure@Gu@4@XZ 1002b640 f i GuMeshFactory.obj
 0001:0002a660       ?getEntries@?$HashBase@PAVConvexMesh@Gu@physx@@PAV123@U?$Hash@PAVConvexMesh@Gu@physx@@@shdfnd@3@UGetKey@?$HashSetBase@PAVConvexMesh@Gu@physx@@U?$Hash@PAVConvexMesh@Gu@physx@@@shdfnd@3@VNonTrackingAllocator@53@$00@internal@53@VNonTrackingAllocator@53@$00@internal@shdfnd@physx@@QBEPBQAVConvexMesh@Gu@4@XZ 1002b660 f i GuMeshFactory.obj
 0001:0002a680       ?getEntries@?$HashBase@PAVHeightField@Gu@physx@@PAV123@U?$Hash@PAVHeightField@Gu@physx@@@shdfnd@3@UGetKey@?$HashSetBase@PAVHeightField@Gu@physx@@U?$Hash@PAVHeightField@Gu@physx@@@shdfnd@3@VNonTrackingAllocator@53@$00@internal@53@VNonTrackingAllocator@53@$00@internal@shdfnd@physx@@QBEPBQAVHeightField@Gu@4@XZ 1002b680 f i GuMeshFactory.obj
 0001:0002a6a0       ?getEntries@?$HashBase@PAVTriangleMesh@Gu@physx@@PAV123@U?$Hash@PAVTriangleMesh@Gu@physx@@@shdfnd@3@UGetKey@?$HashSetBase@PAVTriangleMesh@Gu@physx@@U?$Hash@PAVTriangleMesh@Gu@physx@@@shdfnd@3@VNonTrackingAllocator@53@$00@internal@53@VNonTrackingAllocator@53@$00@internal@shdfnd@physx@@QBEPBQAVTriangleMesh@Gu@4@XZ 1002b6a0 f i GuMeshFactory.obj
 0001:0002a6c0       ?getName@?$ReflectionAllocator@E@shdfnd@physx@@CAPBDXZ 1002b6c0 f i GuMeshFactory.obj
 0001:0002a700       ?getName@?$ReflectionAllocator@G@shdfnd@physx@@CAPBDXZ 1002b700 f i GuMeshFactory.obj
 0001:0002a740       ?getName@?$ReflectionAllocator@I@shdfnd@physx@@CAPBDXZ 1002b740 f i GuMeshFactory.obj
 0001:0002a780       ?getName@?$ReflectionAllocator@VBV32Tree@Gu@physx@@@shdfnd@physx@@CAPBDXZ 1002b780 f i GuMeshFactory.obj
 0001:0002a7c0       ?getName@?$ReflectionAllocator@VBV4TriangleData@Gu@physx@@@shdfnd@physx@@CAPBDXZ 1002b7c0 f i GuMeshFactory.obj
 0001:0002a800       ?getName@?$ReflectionAllocator@VBV4TriangleMesh@Gu@physx@@@shdfnd@physx@@CAPBDXZ 1002b800 f i GuMeshFactory.obj
 0001:0002a840       ?getName@?$ReflectionAllocator@VBVHStructure@Gu@physx@@@shdfnd@physx@@CAPBDXZ 1002b840 f i GuMeshFactory.obj
 0001:0002a880       ?getName@?$ReflectionAllocator@VConvexMesh@Gu@physx@@@shdfnd@physx@@CAPBDXZ 1002b880 f i GuMeshFactory.obj
 0001:0002a8c0       ?getName@?$ReflectionAllocator@VHeightField@Gu@physx@@@shdfnd@physx@@CAPBDXZ 1002b8c0 f i GuMeshFactory.obj
 0001:0002a900       ?getName@?$ReflectionAllocator@VMutexImpl@shdfnd@physx@@@shdfnd@physx@@CAPBDXZ 1002b900 f i GuMeshFactory.obj
 0001:0002a940       ?getName@?$ReflectionAllocator@VRTreeTriangleData@Gu@physx@@@shdfnd@physx@@CAPBDXZ 1002b940 f i GuMeshFactory.obj
 0001:0002a980       ?getName@?$ReflectionAllocator@VRTreeTriangleMesh@Gu@physx@@@shdfnd@physx@@CAPBDXZ 1002b980 f i GuMeshFactory.obj
 0001:0002a9c0       ?getRefCount@RefCountable@Cm@physx@@QBEIXZ 1002b9c0 f i GuMeshFactory.obj
 0001:0002a9e0       ?grow@?$HashBase@PAVBVHStructure@Gu@physx@@PAV123@U?$Hash@PAVBVHStructure@Gu@physx@@@shdfnd@3@UGetKey@?$HashSetBase@PAVBVHStructure@Gu@physx@@U?$Hash@PAVBVHStructure@Gu@physx@@@shdfnd@3@VNonTrackingAllocator@53@$00@internal@53@VNonTrackingAllocator@53@$00@internal@shdfnd@physx@@AAEXXZ 1002b9e0 f i GuMeshFactory.obj
 0001:0002aa80       ?grow@?$HashBase@PAVConvexMesh@Gu@physx@@PAV123@U?$Hash@PAVConvexMesh@Gu@physx@@@shdfnd@3@UGetKey@?$HashSetBase@PAVConvexMesh@Gu@physx@@U?$Hash@PAVConvexMesh@Gu@physx@@@shdfnd@3@VNonTrackingAllocator@53@$00@internal@53@VNonTrackingAllocator@53@$00@internal@shdfnd@physx@@AAEXXZ 1002ba80 f i GuMeshFactory.obj
 0001:0002ab20       ?grow@?$HashBase@PAVHeightField@Gu@physx@@PAV123@U?$Hash@PAVHeightField@Gu@physx@@@shdfnd@3@UGetKey@?$HashSetBase@PAVHeightField@Gu@physx@@U?$Hash@PAVHeightField@Gu@physx@@@shdfnd@3@VNonTrackingAllocator@53@$00@internal@53@VNonTrackingAllocator@53@$00@internal@shdfnd@physx@@AAEXXZ 1002bb20 f i GuMeshFactory.obj
 0001:0002abc0       ?grow@?$HashBase@PAVTriangleMesh@Gu@physx@@PAV123@U?$Hash@PAVTriangleMesh@Gu@physx@@@shdfnd@3@UGetKey@?$HashSetBase@PAVTriangleMesh@Gu@physx@@U?$Hash@PAVTriangleMesh@Gu@physx@@@shdfnd@3@VNonTrackingAllocator@53@$00@internal@53@VNonTrackingAllocator@53@$00@internal@shdfnd@physx@@AAEXXZ 1002bbc0 f i GuMeshFactory.obj
 0001:0002ac60       ?growAndPushBack@?$Array@PAVGuMeshFactoryListener@physx@@VNamedAllocator@shdfnd@2@@shdfnd@physx@@IAEAAPAVGuMeshFactoryListener@3@ABQAV43@@Z 1002bc60 f i GuMeshFactory.obj
 0001:0002ad90       ?has16BitIndices@MeshDataBase@Gu@physx@@QBE_NXZ 1002bd90 f i GuMeshFactory.obj
 0001:0002adc0       ?hash@?$HashBase@PAVBVHStructure@Gu@physx@@PAV123@U?$Hash@PAVBVHStructure@Gu@physx@@@shdfnd@3@UGetKey@?$HashSetBase@PAVBVHStructure@Gu@physx@@U?$Hash@PAVBVHStructure@Gu@physx@@@shdfnd@3@VNonTrackingAllocator@53@$00@internal@53@VNonTrackingAllocator@53@$00@internal@shdfnd@physx@@ABEIABQAVBVHStructure@Gu@4@@Z 1002bdc0 f i GuMeshFactory.obj
 0001:0002ade0       ?hash@?$HashBase@PAVBVHStructure@Gu@physx@@PAV123@U?$Hash@PAVBVHStructure@Gu@physx@@@shdfnd@3@UGetKey@?$HashSetBase@PAVBVHStructure@Gu@physx@@U?$Hash@PAVBVHStructure@Gu@physx@@@shdfnd@3@VNonTrackingAllocator@53@$00@internal@53@VNonTrackingAllocator@53@$00@internal@shdfnd@physx@@ABEIABQAVBVHStructure@Gu@4@I@Z 1002bde0 f i GuMeshFactory.obj
 0001:0002ae10       ?hash@?$HashBase@PAVConvexMesh@Gu@physx@@PAV123@U?$Hash@PAVConvexMesh@Gu@physx@@@shdfnd@3@UGetKey@?$HashSetBase@PAVConvexMesh@Gu@physx@@U?$Hash@PAVConvexMesh@Gu@physx@@@shdfnd@3@VNonTrackingAllocator@53@$00@internal@53@VNonTrackingAllocator@53@$00@internal@shdfnd@physx@@ABEIABQAVConvexMesh@Gu@4@@Z 1002be10 f i GuMeshFactory.obj
 0001:0002ae30       ?hash@?$HashBase@PAVConvexMesh@Gu@physx@@PAV123@U?$Hash@PAVConvexMesh@Gu@physx@@@shdfnd@3@UGetKey@?$HashSetBase@PAVConvexMesh@Gu@physx@@U?$Hash@PAVConvexMesh@Gu@physx@@@shdfnd@3@VNonTrackingAllocator@53@$00@internal@53@VNonTrackingAllocator@53@$00@internal@shdfnd@physx@@ABEIABQAVConvexMesh@Gu@4@I@Z 1002be30 f i GuMeshFactory.obj
 0001:0002ae60       ?hash@?$HashBase@PAVHeightField@Gu@physx@@PAV123@U?$Hash@PAVHeightField@Gu@physx@@@shdfnd@3@UGetKey@?$HashSetBase@PAVHeightField@Gu@physx@@U?$Hash@PAVHeightField@Gu@physx@@@shdfnd@3@VNonTrackingAllocator@53@$00@internal@53@VNonTrackingAllocator@53@$00@internal@shdfnd@physx@@ABEIABQAVHeightField@Gu@4@@Z 1002be60 f i GuMeshFactory.obj
 0001:0002ae80       ?hash@?$HashBase@PAVHeightField@Gu@physx@@PAV123@U?$Hash@PAVHeightField@Gu@physx@@@shdfnd@3@UGetKey@?$HashSetBase@PAVHeightField@Gu@physx@@U?$Hash@PAVHeightField@Gu@physx@@@shdfnd@3@VNonTrackingAllocator@53@$00@internal@53@VNonTrackingAllocator@53@$00@internal@shdfnd@physx@@ABEIABQAVHeightField@Gu@4@I@Z 1002be80 f i GuMeshFactory.obj
 0001:0002aeb0       ?hash@?$HashBase@PAVTriangleMesh@Gu@physx@@PAV123@U?$Hash@PAVTriangleMesh@Gu@physx@@@shdfnd@3@UGetKey@?$HashSetBase@PAVTriangleMesh@Gu@physx@@U?$Hash@PAVTriangleMesh@Gu@physx@@@shdfnd@3@VNonTrackingAllocator@53@$00@internal@53@VNonTrackingAllocator@53@$00@internal@shdfnd@physx@@ABEIABQAVTriangleMesh@Gu@4@@Z 1002beb0 f i GuMeshFactory.obj
 0001:0002aed0       ?hash@?$HashBase@PAVTriangleMesh@Gu@physx@@PAV123@U?$Hash@PAVTriangleMesh@Gu@physx@@@shdfnd@3@UGetKey@?$HashSetBase@PAVTriangleMesh@Gu@physx@@U?$Hash@PAVTriangleMesh@Gu@physx@@@shdfnd@3@VNonTrackingAllocator@53@$00@internal@53@VNonTrackingAllocator@53@$00@internal@shdfnd@physx@@ABEIABQAVTriangleMesh@Gu@4@I@Z 1002bed0 f i GuMeshFactory.obj
 0001:0002af00       ?init@?$HashBase@PAVBVHStructure@Gu@physx@@PAV123@U?$Hash@PAVBVHStructure@Gu@physx@@@shdfnd@3@UGetKey@?$HashSetBase@PAVBVHStructure@Gu@physx@@U?$Hash@PAVBVHStructure@Gu@physx@@@shdfnd@3@VNonTrackingAllocator@53@$00@internal@53@VNonTrackingAllocator@53@$00@internal@shdfnd@physx@@AAEXIM@Z 1002bf00 f i GuMeshFactory.obj
 0001:0002af90       ?init@?$HashBase@PAVConvexMesh@Gu@physx@@PAV123@U?$Hash@PAVConvexMesh@Gu@physx@@@shdfnd@3@UGetKey@?$HashSetBase@PAVConvexMesh@Gu@physx@@U?$Hash@PAVConvexMesh@Gu@physx@@@shdfnd@3@VNonTrackingAllocator@53@$00@internal@53@VNonTrackingAllocator@53@$00@internal@shdfnd@physx@@AAEXIM@Z 1002bf90 f i GuMeshFactory.obj
 0001:0002b020       ?init@?$HashBase@PAVHeightField@Gu@physx@@PAV123@U?$Hash@PAVHeightField@Gu@physx@@@shdfnd@3@UGetKey@?$HashSetBase@PAVHeightField@Gu@physx@@U?$Hash@PAVHeightField@Gu@physx@@@shdfnd@3@VNonTrackingAllocator@53@$00@internal@53@VNonTrackingAllocator@53@$00@internal@shdfnd@physx@@AAEXIM@Z 1002c020 f i GuMeshFactory.obj
 0001:0002b0b0       ?init@?$HashBase@PAVTriangleMesh@Gu@physx@@PAV123@U?$Hash@PAVTriangleMesh@Gu@physx@@@shdfnd@3@UGetKey@?$HashSetBase@PAVTriangleMesh@Gu@physx@@U?$Hash@PAVTriangleMesh@Gu@physx@@@shdfnd@3@VNonTrackingAllocator@53@$00@internal@53@VNonTrackingAllocator@53@$00@internal@shdfnd@physx@@AAEXIM@Z 1002c0b0 f i GuMeshFactory.obj
 0001:0002b140       ?insert@?$HashSetBase@PAVBVHStructure@Gu@physx@@U?$Hash@PAVBVHStructure@Gu@physx@@@shdfnd@3@VNonTrackingAllocator@53@$00@internal@shdfnd@physx@@QAE_NABQAVBVHStructure@Gu@4@@Z 1002c140 f i GuMeshFactory.obj
 0001:0002b1a0       ?insert@?$HashSetBase@PAVConvexMesh@Gu@physx@@U?$Hash@PAVConvexMesh@Gu@physx@@@shdfnd@3@VNonTrackingAllocator@53@$00@internal@shdfnd@physx@@QAE_NABQAVConvexMesh@Gu@4@@Z 1002c1a0 f i GuMeshFactory.obj
 0001:0002b200       ?insert@?$HashSetBase@PAVHeightField@Gu@physx@@U?$Hash@PAVHeightField@Gu@physx@@@shdfnd@3@VNonTrackingAllocator@53@$00@internal@shdfnd@physx@@QAE_NABQAVHeightField@Gu@4@@Z 1002c200 f i GuMeshFactory.obj
 0001:0002b260       ?insert@?$HashSetBase@PAVTriangleMesh@Gu@physx@@U?$Hash@PAVTriangleMesh@Gu@physx@@@shdfnd@3@VNonTrackingAllocator@53@$00@internal@shdfnd@physx@@QAE_NABQAVTriangleMesh@Gu@4@@Z 1002c260 f i GuMeshFactory.obj
 0001:0002b2c0       ?isInUserMemory@?$Array@PAVGuMeshFactoryListener@physx@@VNamedAllocator@shdfnd@2@@shdfnd@physx@@QBEIXZ 1002c2c0 f i GuMeshFactory.obj
 0001:0002b2e0       ?lock@?$MutexT@V?$ReflectionAllocator@VMutexImpl@shdfnd@physx@@@shdfnd@physx@@@shdfnd@physx@@QBEXXZ 1002c2e0 f i GuMeshFactory.obj
 0001:0002b300       ?markSerializedMem@Cm@physx@@YAXPAXI@Z 1002c300 f i GuMeshFactory.obj
 0001:0002b330       ?pushBack@?$Array@PAVGuMeshFactoryListener@physx@@VNamedAllocator@shdfnd@2@@shdfnd@physx@@QAEAAPAVGuMeshFactoryListener@3@ABQAV43@@Z 1002c330 f i GuMeshFactory.obj
 0001:0002b3b0       ?release@RTree@Gu@physx@@QAEXXZ 1002c3b0 f i GuMeshFactory.obj
 0001:0002b400       ?replaceWithLast@?$Array@PAVGuMeshFactoryListener@physx@@VNamedAllocator@shdfnd@2@@shdfnd@physx@@QAEXI@Z 1002c400 f i GuMeshFactory.obj
 0001:0002b480       ?replaceWithLast@?$HashBase@PAVBVHStructure@Gu@physx@@PAV123@U?$Hash@PAVBVHStructure@Gu@physx@@@shdfnd@3@UGetKey@?$HashSetBase@PAVBVHStructure@Gu@physx@@U?$Hash@PAVBVHStructure@Gu@physx@@@shdfnd@3@VNonTrackingAllocator@53@$00@internal@53@VNonTrackingAllocator@53@$00@internal@shdfnd@physx@@AAEXI@Z 1002c480 f i GuMeshFactory.obj
 0001:0002b580       ?replaceWithLast@?$HashBase@PAVConvexMesh@Gu@physx@@PAV123@U?$Hash@PAVConvexMesh@Gu@physx@@@shdfnd@3@UGetKey@?$HashSetBase@PAVConvexMesh@Gu@physx@@U?$Hash@PAVConvexMesh@Gu@physx@@@shdfnd@3@VNonTrackingAllocator@53@$00@internal@53@VNonTrackingAllocator@53@$00@internal@shdfnd@physx@@AAEXI@Z 1002c580 f i GuMeshFactory.obj
 0001:0002b680       ?replaceWithLast@?$HashBase@PAVHeightField@Gu@physx@@PAV123@U?$Hash@PAVHeightField@Gu@physx@@@shdfnd@3@UGetKey@?$HashSetBase@PAVHeightField@Gu@physx@@U?$Hash@PAVHeightField@Gu@physx@@@shdfnd@3@VNonTrackingAllocator@53@$00@internal@53@VNonTrackingAllocator@53@$00@internal@shdfnd@physx@@AAEXI@Z 1002c680 f i GuMeshFactory.obj
 0001:0002b780       ?replaceWithLast@?$HashBase@PAVTriangleMesh@Gu@physx@@PAV123@U?$Hash@PAVTriangleMesh@Gu@physx@@@shdfnd@3@UGetKey@?$HashSetBase@PAVTriangleMesh@Gu@physx@@U?$Hash@PAVTriangleMesh@Gu@physx@@@shdfnd@3@VNonTrackingAllocator@53@$00@internal@53@VNonTrackingAllocator@53@$00@internal@shdfnd@physx@@AAEXI@Z 1002c780 f i GuMeshFactory.obj
 0001:0002b880       ?reserve@?$HashBase@PAVBVHStructure@Gu@physx@@PAV123@U?$Hash@PAVBVHStructure@Gu@physx@@@shdfnd@3@UGetKey@?$HashSetBase@PAVBVHStructure@Gu@physx@@U?$Hash@PAVBVHStructure@Gu@physx@@@shdfnd@3@VNonTrackingAllocator@53@$00@internal@53@VNonTrackingAllocator@53@$00@internal@shdfnd@physx@@QAEXI@Z 1002c880 f i GuMeshFactory.obj
 0001:0002b8b0       ?reserve@?$HashBase@PAVConvexMesh@Gu@physx@@PAV123@U?$Hash@PAVConvexMesh@Gu@physx@@@shdfnd@3@UGetKey@?$HashSetBase@PAVConvexMesh@Gu@physx@@U?$Hash@PAVConvexMesh@Gu@physx@@@shdfnd@3@VNonTrackingAllocator@53@$00@internal@53@VNonTrackingAllocator@53@$00@internal@shdfnd@physx@@QAEXI@Z 1002c8b0 f i GuMeshFactory.obj
 0001:0002b8e0       ?reserve@?$HashBase@PAVHeightField@Gu@physx@@PAV123@U?$Hash@PAVHeightField@Gu@physx@@@shdfnd@3@UGetKey@?$HashSetBase@PAVHeightField@Gu@physx@@U?$Hash@PAVHeightField@Gu@physx@@@shdfnd@3@VNonTrackingAllocator@53@$00@internal@53@VNonTrackingAllocator@53@$00@internal@shdfnd@physx@@QAEXI@Z 1002c8e0 f i GuMeshFactory.obj
 0001:0002b910       ?reserve@?$HashBase@PAVTriangleMesh@Gu@physx@@PAV123@U?$Hash@PAVTriangleMesh@Gu@physx@@@shdfnd@3@UGetKey@?$HashSetBase@PAVTriangleMesh@Gu@physx@@U?$Hash@PAVTriangleMesh@Gu@physx@@@shdfnd@3@VNonTrackingAllocator@53@$00@internal@53@VNonTrackingAllocator@53@$00@internal@shdfnd@physx@@QAEXI@Z 1002c910 f i GuMeshFactory.obj
 0001:0002b940       ?reserveInternal@?$HashBase@PAVBVHStructure@Gu@physx@@PAV123@U?$Hash@PAVBVHStructure@Gu@physx@@@shdfnd@3@UGetKey@?$HashSetBase@PAVBVHStructure@Gu@physx@@U?$Hash@PAVBVHStructure@Gu@physx@@@shdfnd@3@VNonTrackingAllocator@53@$00@internal@53@VNonTrackingAllocator@53@$00@internal@shdfnd@physx@@AAEXI@Z 1002c940 f i GuMeshFactory.obj
 0001:0002bcd0       ?reserveInternal@?$HashBase@PAVConvexMesh@Gu@physx@@PAV123@U?$Hash@PAVConvexMesh@Gu@physx@@@shdfnd@3@UGetKey@?$HashSetBase@PAVConvexMesh@Gu@physx@@U?$Hash@PAVConvexMesh@Gu@physx@@@shdfnd@3@VNonTrackingAllocator@53@$00@internal@53@VNonTrackingAllocator@53@$00@internal@shdfnd@physx@@AAEXI@Z 1002ccd0 f i GuMeshFactory.obj
 0001:0002c060       ?reserveInternal@?$HashBase@PAVHeightField@Gu@physx@@PAV123@U?$Hash@PAVHeightField@Gu@physx@@@shdfnd@3@UGetKey@?$HashSetBase@PAVHeightField@Gu@physx@@U?$Hash@PAVHeightField@Gu@physx@@@shdfnd@3@VNonTrackingAllocator@53@$00@internal@53@VNonTrackingAllocator@53@$00@internal@shdfnd@physx@@AAEXI@Z 1002d060 f i GuMeshFactory.obj
 0001:0002c3f0       ?reserveInternal@?$HashBase@PAVTriangleMesh@Gu@physx@@PAV123@U?$Hash@PAVTriangleMesh@Gu@physx@@@shdfnd@3@UGetKey@?$HashSetBase@PAVTriangleMesh@Gu@physx@@U?$Hash@PAVTriangleMesh@Gu@physx@@@shdfnd@3@VNonTrackingAllocator@53@$00@internal@53@VNonTrackingAllocator@53@$00@internal@shdfnd@physx@@AAEXI@Z 1002d3f0 f i GuMeshFactory.obj
 0001:0002c780       ?setMeshFactory@ConvexMesh@Gu@physx@@QAEXPAVGuMeshFactory@3@@Z 1002d780 f i GuMeshFactory.obj
 0001:0002c7a0       ?setNbTriangles@SourceMesh@Gu@physx@@QAEXI@Z 1002d7a0 f i GuMeshFactory.obj
 0001:0002c7c0       ?setNbVertices@SourceMeshBase@Gu@physx@@QAEXI@Z 1002d7c0 f i GuMeshFactory.obj
 0001:0002c7e0       ?setPointers@SourceMesh@Gu@physx@@QAEXPAVIndTri32@23@PAVIndTri16@23@PBVPxVec3@3@@Z 1002d7e0 f i GuMeshFactory.obj
 0001:0002c810       ?size@?$Array@PAVGuMeshFactoryListener@physx@@VNamedAllocator@shdfnd@2@@shdfnd@physx@@QBEIXZ 1002d810 f i GuMeshFactory.obj
 0001:0002c830       ?size@?$HashBase@PAVBVHStructure@Gu@physx@@PAV123@U?$Hash@PAVBVHStructure@Gu@physx@@@shdfnd@3@UGetKey@?$HashSetBase@PAVBVHStructure@Gu@physx@@U?$Hash@PAVBVHStructure@Gu@physx@@@shdfnd@3@VNonTrackingAllocator@53@$00@internal@53@VNonTrackingAllocator@53@$00@internal@shdfnd@physx@@QBEIXZ 1002d830 f i GuMeshFactory.obj
 0001:0002c850       ?size@?$HashBase@PAVConvexMesh@Gu@physx@@PAV123@U?$Hash@PAVConvexMesh@Gu@physx@@@shdfnd@3@UGetKey@?$HashSetBase@PAVConvexMesh@Gu@physx@@U?$Hash@PAVConvexMesh@Gu@physx@@@shdfnd@3@VNonTrackingAllocator@53@$00@internal@53@VNonTrackingAllocator@53@$00@internal@shdfnd@physx@@QBEIXZ 1002d850 f i GuMeshFactory.obj
 0001:0002c870       ?size@?$HashBase@PAVHeightField@Gu@physx@@PAV123@U?$Hash@PAVHeightField@Gu@physx@@@shdfnd@3@UGetKey@?$HashSetBase@PAVHeightField@Gu@physx@@U?$Hash@PAVHeightField@Gu@physx@@@shdfnd@3@VNonTrackingAllocator@53@$00@internal@53@VNonTrackingAllocator@53@$00@internal@shdfnd@physx@@QBEIXZ 1002d870 f i GuMeshFactory.obj
 0001:0002c890       ?size@?$HashBase@PAVTriangleMesh@Gu@physx@@PAV123@U?$Hash@PAVTriangleMesh@Gu@physx@@@shdfnd@3@UGetKey@?$HashSetBase@PAVTriangleMesh@Gu@physx@@U?$Hash@PAVTriangleMesh@Gu@physx@@@shdfnd@3@VNonTrackingAllocator@53@$00@internal@53@VNonTrackingAllocator@53@$00@internal@shdfnd@physx@@QBEIXZ 1002d890 f i GuMeshFactory.obj
 0001:0002c8b0       ?size@?$HashSetBase@PAVBVHStructure@Gu@physx@@U?$Hash@PAVBVHStructure@Gu@physx@@@shdfnd@3@VNonTrackingAllocator@53@$00@internal@shdfnd@physx@@QBEIXZ 1002d8b0 f i GuMeshFactory.obj
 0001:0002c8d0       ?size@?$HashSetBase@PAVConvexMesh@Gu@physx@@U?$Hash@PAVConvexMesh@Gu@physx@@@shdfnd@3@VNonTrackingAllocator@53@$00@internal@shdfnd@physx@@QBEIXZ 1002d8d0 f i GuMeshFactory.obj
 0001:0002c8f0       ?size@?$HashSetBase@PAVHeightField@Gu@physx@@U?$Hash@PAVHeightField@Gu@physx@@@shdfnd@3@VNonTrackingAllocator@53@$00@internal@shdfnd@physx@@QBEIXZ 1002d8f0 f i GuMeshFactory.obj
 0001:0002c910       ?size@?$HashSetBase@PAVTriangleMesh@Gu@physx@@U?$Hash@PAVTriangleMesh@Gu@physx@@@shdfnd@3@VNonTrackingAllocator@53@$00@internal@shdfnd@physx@@QBEIXZ 1002d910 f i GuMeshFactory.obj
 0001:0002c930       ?to16@shdfnd@physx@@YAGI@Z 1002d930 f i GuMeshFactory.obj
 0001:0002c980       ?unlock@?$MutexT@V?$ReflectionAllocator@VMutexImpl@shdfnd@physx@@@shdfnd@physx@@@shdfnd@physx@@QBEXXZ 1002d980 f i GuMeshFactory.obj
 0001:0002c9a0       ?getBinaryMetaData@HeightField@Gu@physx@@SAXAAVPxOutputStream@3@@Z 1002d9a0 f   GuMetaData.obj
 0001:0002ce70       ?getBinaryMetaData@BigConvexData@physx@@SAXAAVPxOutputStream@2@@Z 1002de70 f   GuMetaData.obj
 0001:0002d1f0       ?getBinaryMetaData@ConvexMesh@Gu@physx@@SAXAAVPxOutputStream@3@@Z 1002e1f0 f   GuMetaData.obj
 0001:0002d9a0       ?getBinaryMetaData@RTree@Gu@physx@@SAXAAVPxOutputStream@3@@Z 1002e9a0 f   GuMetaData.obj
 0001:0002de70       ?getBinaryMetaData@SourceMesh@Gu@physx@@SAXAAVPxOutputStream@3@@Z 1002ee70 f   GuMetaData.obj
 0001:0002e0e0       ?getBinaryMetaData@BV4Tree@Gu@physx@@SAXAAVPxOutputStream@3@@Z 1002f0e0 f   GuMetaData.obj
 0001:0002e620       ?getBinaryMetaData@TriangleMesh@Gu@physx@@SAXAAVPxOutputStream@3@@Z 1002f620 f   GuMetaData.obj
 0001:0002f2c0       ?getBinaryMetaData@BV4TriangleMesh@Gu@physx@@SAXAAVPxOutputStream@3@@Z 100302c0 f   GuMetaData.obj
 0001:0002f430       ?getBinaryMetaData@RTreeTriangleMesh@Gu@physx@@SAXAAVPxOutputStream@3@@Z 10030430 f   GuMetaData.obj
 0001:0002f540       ?getBinaryMetaData@MaterialIndicesStruct@physx@@SAXAAVPxOutputStream@2@@Z 10030540 f   GuMetaData.obj
 0001:0002f6e0       ?getBinaryMetaData@GeometryUnion@Gu@physx@@SAXAAVPxOutputStream@3@@Z 100306e0 f   GuMetaData.obj
 0001:00031460       ??0BigConvexData@physx@@QAE@W4PxEMPTY@1@@Z 10032460 f i GuMetaData.obj
 0001:00031470       ??4BigConvexData@physx@@QAEAAV01@ABV01@@Z 10032470 f i GuMetaData.obj
 0001:000314a0       ?GetAdjacentVerts@BigConvexData@physx@@QBEPBEXZ 100324a0 f i GuMetaData.obj
 0001:000314c0       ?GetNbNeighbors@BigConvexData@physx@@QBEGI@Z 100324c0 f i GuMetaData.obj
 0001:000314e0       ?GetNbSamples@BigConvexData@physx@@QBEIXZ 100324e0 f i GuMetaData.obj
 0001:00031500       ?GetNbVerts@BigConvexData@physx@@QBEIXZ 10032500 f i GuMetaData.obj
 0001:00031520       ?GetNeighbors@BigConvexData@physx@@QBEPBEI@Z 10032520 f i GuMetaData.obj
 0001:00031550       ?GetOffset@BigConvexData@physx@@QBEGI@Z 10032550 f i GuMetaData.obj
 0001:00031570       ?GetSubdiv@BigConvexData@physx@@QBEIXZ 10032570 f i GuMetaData.obj
 0001:00031590       ?GetValencies@BigConvexData@physx@@QBEPBUValency@Gu@2@XZ 10032590 f i GuMetaData.obj
 0001:000315b0       ?GetValency@BigConvexData@physx@@QBEGI@Z 100325b0 f i GuMetaData.obj
 0001:000336c0       ?pointConvexDistance@@YA_NAAVPxVec3@physx@@0AAMABV12@PBVConvexMesh@Gu@2@ABVPxMeshScale@2@ABVPxTransform@2@@Z 100346c0 f   GuMTD.obj
 0001:00036bb0       ??$PX_UNUSED@PAVMeshPersistentContact@Gu@physx@@@@YAXABQAVMeshPersistentContact@Gu@physx@@@Z 10037bb0 f i GuMTD.obj
 0001:00036bc0       ??$PX_UNUSED@VPxGeometry@physx@@@@YAXABVPxGeometry@physx@@@Z 10037bc0 f i GuMTD.obj
 0001:00036bd0       ??$getConvex@VCapsuleV@Gu@physx@@@GjkConvexBase@Gu@physx@@QBEABVCapsuleV@12@XZ 10037bd0 f i GuMTD.obj
 0001:00036bf0       ??$getConvex@VConvexHullV@Gu@physx@@@GjkConvexBase@Gu@physx@@QBEABVConvexHullV@12@XZ 10037bf0 f i GuMTD.obj
 0001:00036c10       ??$gjk@U?$LocalConvex@VCapsuleV@Gu@physx@@@Gu@physx@@U?$LocalConvex@VConvexHullV@Gu@physx@@@23@@Gu@physx@@YA?AW4GjkStatus@01@ABU?$LocalConvex@VCapsuleV@Gu@physx@@@01@ABU?$LocalConvex@VConvexHullV@Gu@physx@@@01@ABT__m128@@2AAT5@333@Z 10037c10 f i GuMTD.obj
 0001:000375a0       ??$swap@M@shdfnd@physx@@YAXAAM0@Z 100385a0 f i GuMTD.obj
 0001:000375d0       ??0?$LocalConvex@VCapsuleV@Gu@physx@@@Gu@physx@@QAE@ABVCapsuleV@12@@Z 100385d0 f i GuMTD.obj
 0001:00037600       ??0?$LocalConvex@VConvexHullV@Gu@physx@@@Gu@physx@@QAE@ABVConvexHullV@12@@Z 10038600 f i GuMTD.obj
 0001:00037630       ??0?$SupportLocalImpl@VBoxV@Gu@physx@@@Gu@physx@@QAE@ABVBoxV@12@ABVPsTransformV@aos@shdfnd@2@ABUMat33V@562@2_N@Z 10038630 f i GuMTD.obj
 0001:00037670       ??0?$SupportLocalImpl@VConvexHullNoScaleV@Gu@physx@@@Gu@physx@@QAE@ABVConvexHullNoScaleV@12@ABVPsTransformV@aos@shdfnd@2@ABUMat33V@562@2_N@Z 10038670 f i GuMTD.obj
 0001:000376b0       ??0?$SupportLocalImpl@VConvexHullV@Gu@physx@@@Gu@physx@@QAE@ABVConvexHullV@12@ABVPsTransformV@aos@shdfnd@2@ABUMat33V@562@2_N@Z 100386b0 f i GuMTD.obj
 0001:000376f0       ??0BoxV@Gu@physx@@QAE@ABT__m128@@0@Z 100386f0 f i GuMTD.obj
 0001:00037760       ??0Cache@Gu@physx@@QAE@XZ  10038760 f i GuMTD.obj
 0001:00037780       ??0CapsuleV@Gu@physx@@QAE@ABT__m128@@00@Z 10038780 f i GuMTD.obj
 0001:00037850       ??0CapsuleV@Gu@physx@@QAE@ABT__m128@@0@Z 10038850 f i GuMTD.obj
 0001:000378f0       ??0ContactBuffer@Gu@physx@@QAE@XZ 100388f0 f i GuMTD.obj
 0001:00037910       ??0ContactPoint@Gu@physx@@QAE@XZ 10038910 f i GuMTD.obj
 0001:00037940       ??0ConvexHullV@Gu@physx@@QAE@PBUConvexHullData@12@ABT__m128@@11_N@Z 10038940 f i GuMTD.obj
 0001:00037a10       ??0ConvexV@Gu@physx@@QAE@W4Type@ConvexType@12@@Z 10038a10 f i GuMTD.obj
 0001:00037a80       ??0ConvexV@Gu@physx@@QAE@W4Type@ConvexType@12@ABT__m128@@@Z 10038a80 f i GuMTD.obj
 0001:00037ad0       ??0GjkConvex@Gu@physx@@QAE@ABVConvexV@12@@Z 10038ad0 f i GuMTD.obj
 0001:00037b00       ??0GjkConvexBase@Gu@physx@@QAE@ABVConvexV@12@@Z 10038b00 f i GuMTD.obj
 0001:00037b30       ??0HullPolygonData@Gu@physx@@QAE@ABU012@@Z 10038b30 f i GuMTD.obj
 0001:00037b80       ??0Mat33V@aos@shdfnd@physx@@QAE@ABT__m128@@00@Z 10038b80 f i GuMTD.obj
 0001:00037bc0       ??0Mat33V@aos@shdfnd@physx@@QAE@XZ 10038bc0 f i GuMTD.obj
 0001:00037bd0       ??0MeshPersistentContact@Gu@physx@@QAE@XZ 10038bd0 f i GuMTD.obj
 0001:00037bf0       ??0MultiplePersistentContactManifold@Gu@physx@@QAE@XZ 10038bf0 f i GuMTD.obj
 0001:00037c70       ??0NarrowPhaseParams@Gu@physx@@QAE@MMM@Z 10038c70 f i GuMTD.obj
 0001:00037cb0       ??0PersistentContact@Gu@physx@@QAE@XZ 10038cb0 f i GuMTD.obj
 0001:00037cc0       ??0PolygonalBox@Gu@physx@@QAE@ABV012@@Z 10038cc0 f i GuMTD.obj
 0001:00037d20       ??0PolygonalData@Gu@physx@@QAE@XZ 10038d20 f i GuMTD.obj
 0001:00037d40       ??0PsMatTransformV@aos@shdfnd@physx@@QAE@ABVPsTransformV@123@@Z 10038d40 f i GuMTD.obj
 0001:00037d90       ??0PsTransformV@aos@shdfnd@physx@@QAE@ABT__m128@@0@Z 10038d90 f i GuMTD.obj
 0001:00037e00       ??0PsTransformV@aos@shdfnd@physx@@QAE@ABVPxTransform@3@@Z 10038e00 f i GuMTD.obj
 0001:00037ea0       ??0PxBoxGeometry@physx@@QAE@VPxVec3@1@@Z 10038ea0 f i GuMTD.obj
 0001:00037ed0       ??0PxCache@physx@@QAE@XZ   10038ed0 f i GuMTD.obj
 0001:00037f00       ??0PxSphereGeometry@physx@@QAE@M@Z 10038f00 f i GuMTD.obj
 0001:00037f30       ??0PxTransform@physx@@QAE@ABVPxVec3@1@@Z 10038f30 f i GuMTD.obj
 0001:00037f60       ??0SeparatingAxes@Gu@physx@@QAE@$$QAV012@@Z 10038f60 f i GuMTD.obj
 0001:00037fa0       ??0SeparatingAxes@Gu@physx@@QAE@ABV012@@Z 10038fa0 f i GuMTD.obj
 0001:00037fe0       ??0SeparatingAxes@Gu@physx@@QAE@XZ 10038fe0 f i GuMTD.obj
 0001:00038010       ??0SinglePersistentContactManifold@Gu@physx@@QAE@XZ 10039010 f i GuMTD.obj
 0001:00038040       ??0SupportLocal@Gu@physx@@QAE@ABVPsTransformV@aos@shdfnd@2@ABUMat33V@452@1_N@Z 10039040 f i GuMTD.obj
 0001:00038080       ??1?$LocalConvex@VCapsuleV@Gu@physx@@@Gu@physx@@UAE@XZ 10039080 f i GuMTD.obj
 0001:000380a0       ??1?$LocalConvex@VConvexHullV@Gu@physx@@@Gu@physx@@UAE@XZ 100390a0 f i GuMTD.obj
 0001:000380c0       ??1?$SupportLocalImpl@VBoxV@Gu@physx@@@Gu@physx@@UAE@XZ 100390c0 f i GuMTD.obj
 0001:000380e0       ??1?$SupportLocalImpl@VConvexHullNoScaleV@Gu@physx@@@Gu@physx@@UAE@XZ 100390e0 f i GuMTD.obj
 0001:00038100       ??1?$SupportLocalImpl@VConvexHullV@Gu@physx@@@Gu@physx@@UAE@XZ 10039100 f i GuMTD.obj
 0001:00038120       ??1BoxV@Gu@physx@@QAE@XZ   10039120 f i GuMTD.obj
 0001:00038140       ??1CapsuleV@Gu@physx@@QAE@XZ 10039140 f i GuMTD.obj
 0001:00038160       ??1ConvexHullV@Gu@physx@@QAE@XZ 10039160 f i GuMTD.obj
 0001:00038180       ??1ConvexV@Gu@physx@@IAE@XZ 10039180 f i GuMTD.obj
 0001:00038190       ??1GjkConvex@Gu@physx@@UAE@XZ 10039190 f i GuMTD.obj
 0001:000381b0       ??1GjkConvexBase@Gu@physx@@UAE@XZ 100391b0 f i GuMTD.obj
 0001:000381d0       ??1SupportLocal@Gu@physx@@UAE@XZ 100391d0 f i GuMTD.obj
 0001:000381f0       ??4MultiplePersistentContactManifold@Gu@physx@@QAEAAV012@$$QAV012@@Z 100391f0 f i GuMTD.obj
 0001:000382d0       ??4MultiplePersistentContactManifold@Gu@physx@@QAEAAV012@ABV012@@Z 100392d0 f i GuMTD.obj
 0001:00038300       ??4SeparatingAxes@Gu@physx@@QAEAAV012@$$QAV012@@Z 10039300 f i GuMTD.obj
 0001:00038360       ??4SeparatingAxes@Gu@physx@@QAEAAV012@ABV012@@Z 10039360 f i GuMTD.obj
 0001:000383c0       ??_E?$LocalConvex@VCapsuleV@Gu@physx@@@Gu@physx@@UAEPAXI@Z 100393c0 f i GuMTD.obj
 0001:000383c0       ??_G?$LocalConvex@VCapsuleV@Gu@physx@@@Gu@physx@@UAEPAXI@Z 100393c0 f i GuMTD.obj
 0001:000383f0       ??_E?$LocalConvex@VConvexHullV@Gu@physx@@@Gu@physx@@UAEPAXI@Z 100393f0 f i GuMTD.obj
 0001:000383f0       ??_G?$LocalConvex@VConvexHullV@Gu@physx@@@Gu@physx@@UAEPAXI@Z 100393f0 f i GuMTD.obj
 0001:00038420       ??_E?$SupportLocalImpl@VBoxV@Gu@physx@@@Gu@physx@@UAEPAXI@Z 10039420 f i GuMTD.obj
 0001:00038420       ??_G?$SupportLocalImpl@VBoxV@Gu@physx@@@Gu@physx@@UAEPAXI@Z 10039420 f i GuMTD.obj
 0001:00038450       ??_E?$SupportLocalImpl@VConvexHullNoScaleV@Gu@physx@@@Gu@physx@@UAEPAXI@Z 10039450 f i GuMTD.obj
 0001:00038450       ??_G?$SupportLocalImpl@VConvexHullNoScaleV@Gu@physx@@@Gu@physx@@UAEPAXI@Z 10039450 f i GuMTD.obj
 0001:00038480       ??_E?$SupportLocalImpl@VConvexHullV@Gu@physx@@@Gu@physx@@UAEPAXI@Z 10039480 f i GuMTD.obj
 0001:00038480       ??_G?$SupportLocalImpl@VConvexHullV@Gu@physx@@@Gu@physx@@UAEPAXI@Z 10039480 f i GuMTD.obj
 0001:000384b0       ??_GGjkConvex@Gu@physx@@UAEPAXI@Z 100394b0 f i GuMTD.obj
 0001:000384b0       ??_EGjkConvex@Gu@physx@@UAEPAXI@Z 100394b0 f i GuMTD.obj
 0001:000384e0       ??_EGjkConvexBase@Gu@physx@@UAEPAXI@Z 100394e0 f i GuMTD.obj
 0001:000384e0       ??_GGjkConvexBase@Gu@physx@@UAEPAXI@Z 100394e0 f i GuMTD.obj
 0001:00038510       ??_GSupportLocal@Gu@physx@@UAEPAXI@Z 10039510 f i GuMTD.obj
 0001:00038510       ??_ESupportLocal@Gu@physx@@UAEPAXI@Z 10039510 f i GuMTD.obj
 0001:00038540       ??__G@YGXPAX0IIP6EPAX00@Z@Z 10039540 f i GuMTD.obj
 0001:000385a0       ?BAllEqTTTT@aos@shdfnd@physx@@YAIT__m128@@@Z 100395a0 f i GuMTD.obj
 0001:000385f0       ?BAllTrue3_R@internalWindowsSimd@aos@shdfnd@physx@@YAIT__m128@@@Z 100395f0 f i GuMTD.obj
 0001:00038640       ?BAllTrue4_R@internalWindowsSimd@aos@shdfnd@physx@@YAIT__m128@@@Z 10039640 f i GuMTD.obj
 0001:00038690       ?BAnd@aos@shdfnd@physx@@YA?AT__m128@@T4@0@Z 10039690 f i GuMTD.obj
 0001:000386d0       ?BFFFF@aos@shdfnd@physx@@YA?AT__m128@@XZ 100396d0 f i GuMTD.obj
 0001:00038700       ?BLoad@aos@shdfnd@physx@@YA?AT__m128@@_N@Z 10039700 f i GuMTD.obj
 0001:00038740       ?BOr@aos@shdfnd@physx@@YA?AT__m128@@T4@0@Z 10039740 f i GuMTD.obj
 0001:00038780       ?BTTTF@aos@shdfnd@physx@@YA?AT__m128@@XZ 10039780 f i GuMTD.obj
 0001:000387c0       ?BTTTT@aos@shdfnd@physx@@YA?AT__m128@@XZ 100397c0 f i GuMTD.obj
 0001:00038800       ?CalculateBoxMargin@Gu@physx@@YAXABT__m128@@AAM11MM@Z 10039800 f i GuMTD.obj
 0001:00038880       ?CalculateConvexMargin@Gu@physx@@YAXPBUConvexHullData@12@AAM11ABT__m128@@@Z 10039880 f i GuMTD.obj
 0001:00038930       ?ComputeCubemapNearestOffset@physx@@YAIABVPxVec3@1@I@Z 10039930 f i GuMTD.obj
 0001:00038a10       ?ConstructSkewMatrix@Gu@physx@@YAXABT__m128@@0AAUMat33V@aos@shdfnd@2@1AAT3@_N@Z 10039a10 f i GuMTD.obj
 0001:00038d40       ?CubemapLookup@physx@@YA?AW4CubeIndex@1@ABVPxVec3@1@AAM1@Z 10039d40 f i GuMTD.obj
 0001:00038e90       ?FAbs@aos@shdfnd@physx@@YA?AT__m128@@T4@@Z 10039e90 f i GuMTD.obj
 0001:00038f20       ?FAdd@aos@shdfnd@physx@@YA?AT__m128@@T4@0@Z 10039f20 f i GuMTD.obj
 0001:00038ff0       ?FAllEq@aos@shdfnd@physx@@YAIT__m128@@0@Z 10039ff0 f i GuMTD.obj
 0001:000390c0       ?FAllGrtr@aos@shdfnd@physx@@YAIT__m128@@0@Z 1003a0c0 f i GuMTD.obj
 0001:00039180       ?FAllGrtrOrEq@aos@shdfnd@physx@@YAIT__m128@@0@Z 1003a180 f i GuMTD.obj
 0001:00039240       ?FClamp@aos@shdfnd@physx@@YA?AT__m128@@T4@00@Z 1003a240 f i GuMTD.obj
 0001:00039320       ?FDiv@aos@shdfnd@physx@@YA?AT__m128@@T4@0@Z 1003a320 f i GuMTD.obj
 0001:000393f0       ?FEps@aos@shdfnd@physx@@YA?AT__m128@@XZ 1003a3f0 f i GuMTD.obj
 0001:00039430       ?FIsGrtr@aos@shdfnd@physx@@YA?AT__m128@@T4@0@Z 1003a430 f i GuMTD.obj
 0001:00039500       ?FIsGrtrOrEq@aos@shdfnd@physx@@YA?AT__m128@@T4@0@Z 1003a500 f i GuMTD.obj
 0001:000395d0       ?FMax@aos@shdfnd@physx@@YA?AT__m128@@T4@0@Z 1003a5d0 f i GuMTD.obj
 0001:000396a0       ?FMax@aos@shdfnd@physx@@YA?AT__m128@@XZ 1003a6a0 f i GuMTD.obj
 0001:000396e0       ?FMin@aos@shdfnd@physx@@YA?AT__m128@@T4@0@Z 1003a6e0 f i GuMTD.obj
 0001:000397b0       ?FMul@aos@shdfnd@physx@@YA?AT__m128@@T4@0@Z 1003a7b0 f i GuMTD.obj
 0001:00039880       ?FNeg@aos@shdfnd@physx@@YA?AT__m128@@T4@@Z 1003a880 f i GuMTD.obj
 0001:00039900       ?FOne@aos@shdfnd@physx@@YA?AT__m128@@XZ 1003a900 f i GuMTD.obj
 0001:00039940       ?FRecip@aos@shdfnd@physx@@YA?AT__m128@@T4@@Z 1003a940 f i GuMTD.obj
 0001:000399d0       ?FScaleAdd@aos@shdfnd@physx@@YA?AT__m128@@T4@00@Z 1003a9d0 f i GuMTD.obj
 0001:00039b00       ?FSel@aos@shdfnd@physx@@YA?AT__m128@@T4@00@Z 1003ab00 f i GuMTD.obj
 0001:00039c50       ?FStore@aos@shdfnd@physx@@YAXT__m128@@PIAM@Z 1003ac50 f i GuMTD.obj
 0001:00039cd0       ?FSub@aos@shdfnd@physx@@YA?AT__m128@@T4@0@Z 1003acd0 f i GuMTD.obj
 0001:00039da0       ?FZero@aos@shdfnd@physx@@YA?AT__m128@@XZ 1003ada0 f i GuMTD.obj
 0001:00039dd0       ?GJKCPairDoSimplex@Gu@physx@@YA?AT__m128@@PIAT3@00ABT3@AAI@Z 1003add0 f i GuMTD.obj
 0001:00039ed0       ?I4Load@aos@shdfnd@physx@@YA?AT__m128@@H@Z 1003aed0 f i GuMTD.obj
 0001:00039f10       ?Invalidate@PsTransformV@aos@shdfnd@physx@@QAEXXZ 1003af10 f i GuMTD.obj
 0001:00039f70       ?M33Diagonal@aos@shdfnd@physx@@YA?AUMat33V@123@ABT__m128@@@Z 1003af70 f i GuMTD.obj
 0001:0003a020       ?M33Identity@aos@shdfnd@physx@@YA?AUMat33V@123@XZ 1003b020 f i GuMTD.obj
 0001:0003a080       ?M33MulM33@aos@shdfnd@physx@@YA?AUMat33V@123@ABU4123@0@Z 1003b080 f i GuMTD.obj
 0001:0003a100       ?M33MulV3@aos@shdfnd@physx@@YA?AT__m128@@ABUMat33V@123@T4@@Z 1003b100 f i GuMTD.obj
 0001:0003a220       ?M33Trnsps@aos@shdfnd@physx@@YA?AUMat33V@123@ABU4123@@Z 1003b220 f i GuMTD.obj
 0001:0003a290       ?M33TrnspsMulV3@aos@shdfnd@physx@@YA?AT__m128@@ABUMat33V@123@T4@@Z 1003b290 f i GuMTD.obj
 0001:0003a350       ?PxI32_From_VecI32V@aos@shdfnd@physx@@YAXABT__m128@@PAH@Z 1003b350 f i GuMTD.obj
 0001:0003a370       ?QuatConjugate@aos@shdfnd@physx@@YA?AT__m128@@T4@@Z 1003b370 f i GuMTD.obj
 0001:0003a3d0       ?QuatDot@aos@shdfnd@physx@@YA?AT__m128@@T4@0@Z 1003b3d0 f i GuMTD.obj
 0001:0003a410       ?QuatIdentity@aos@shdfnd@physx@@YA?AT__m128@@XZ 1003b410 f i GuMTD.obj
 0001:0003a460       ?QuatLength@aos@shdfnd@physx@@YA?AT__m128@@T4@@Z 1003b460 f i GuMTD.obj
 0001:0003a4a0       ?QuatMul@aos@shdfnd@physx@@YA?AT__m128@@T4@0@Z 1003b4a0 f i GuMTD.obj
 0001:0003a660       ?QuatRotate@aos@shdfnd@physx@@YA?AT__m128@@T4@0@Z 1003b660 f i GuMTD.obj
 0001:0003a7e0       ?QuatVLoadU@aos@shdfnd@physx@@YA?AT__m128@@PBM@Z 1003b7e0 f i GuMTD.obj
 0001:0003a820       ?QuatVLoadXYZW@aos@shdfnd@physx@@YA?AT__m128@@MMMM@Z 1003b820 f i GuMTD.obj
 0001:0003a860       ?V3Abs@aos@shdfnd@physx@@YA?AT__m128@@T4@@Z 1003b860 f i GuMTD.obj
 0001:0003a8f0       ?V3Add@aos@shdfnd@physx@@YA?AT__m128@@T4@0@Z 1003b8f0 f i GuMTD.obj
 0001:0003a9c0       ?V3AllEq@aos@shdfnd@physx@@YAIT__m128@@0@Z 1003b9c0 f i GuMTD.obj
 0001:0003aa90       ?V3Cross@aos@shdfnd@physx@@YA?AT__m128@@ABUVecCrossV@123@0@Z 1003ba90 f i GuMTD.obj
 0001:0003aaf0       ?V3Cross@aos@shdfnd@physx@@YA?AT__m128@@T4@0@Z 1003baf0 f i GuMTD.obj
 0001:0003ac50       ?V3Dot@aos@shdfnd@physx@@YA?AT__m128@@T4@0@Z 1003bc50 f i GuMTD.obj
 0001:0003ad80       ?V3ExtractMin@aos@shdfnd@physx@@YA?AT__m128@@T4@@Z 1003bd80 f i GuMTD.obj
 0001:0003ae60       ?V3GetX@aos@shdfnd@physx@@YA?AT__m128@@T4@@Z 1003be60 f i GuMTD.obj
 0001:0003aee0       ?V3GetY@aos@shdfnd@physx@@YA?AT__m128@@T4@@Z 1003bee0 f i GuMTD.obj
 0001:0003af60       ?V3GetZ@aos@shdfnd@physx@@YA?AT__m128@@T4@@Z 1003bf60 f i GuMTD.obj
 0001:0003afe0       ?V3IsGrtr@aos@shdfnd@physx@@YA?AT__m128@@T4@0@Z 1003bfe0 f i GuMTD.obj
 0001:0003b0b0       ?V3Length@aos@shdfnd@physx@@YA?AT__m128@@T4@@Z 1003c0b0 f i GuMTD.obj
 0001:0003b140       ?V3LoadU@aos@shdfnd@physx@@YA?AT__m128@@ABVPxVec3@3@@Z 1003c140 f i GuMTD.obj
 0001:0003b190       ?V3LoadU_SafeReadW@aos@shdfnd@physx@@YA?AT__m128@@ABVPxVec3@3@@Z 1003c190 f i GuMTD.obj
 0001:0003b1e0       ?V3Max@aos@shdfnd@physx@@YA?AT__m128@@T4@0@Z 1003c1e0 f i GuMTD.obj
 0001:0003b2b0       ?V3Mul@aos@shdfnd@physx@@YA?AT__m128@@T4@0@Z 1003c2b0 f i GuMTD.obj
 0001:0003b380       ?V3Neg@aos@shdfnd@physx@@YA?AT__m128@@T4@@Z 1003c380 f i GuMTD.obj
 0001:0003b400       ?V3NegScaleSub@aos@shdfnd@physx@@YA?AT__m128@@T4@00@Z 1003c400 f i GuMTD.obj
 0001:0003b530       ?V3Normalize@aos@shdfnd@physx@@YA?AT__m128@@T4@@Z 1003c530 f i GuMTD.obj
 0001:0003b5d0       ?V3One@aos@shdfnd@physx@@YA?AT__m128@@XZ 1003c5d0 f i GuMTD.obj
 0001:0003b610       ?V3PrepareCross@aos@shdfnd@physx@@YA?AUVecCrossV@123@T__m128@@@Z 1003c610 f i GuMTD.obj
 0001:0003b6c0       ?V3Recip@aos@shdfnd@physx@@YA?AT__m128@@T4@@Z 1003c6c0 f i GuMTD.obj
 0001:0003b790       ?V3Scale@aos@shdfnd@physx@@YA?AT__m128@@T4@0@Z 1003c790 f i GuMTD.obj
 0001:0003b860       ?V3ScaleAdd@aos@shdfnd@physx@@YA?AT__m128@@T4@00@Z 1003c860 f i GuMTD.obj
 0001:0003b990       ?V3ScaleInv@aos@shdfnd@physx@@YA?AT__m128@@T4@0@Z 1003c990 f i GuMTD.obj
 0001:0003ba60       ?V3Sel@aos@shdfnd@physx@@YA?AT__m128@@T4@00@Z 1003ca60 f i GuMTD.obj
 0001:0003bb30       ?V3Splat@aos@shdfnd@physx@@YA?AT__m128@@T4@@Z 1003cb30 f i GuMTD.obj
 0001:0003bbe0       ?V3StoreU@aos@shdfnd@physx@@YAXT__m128@@AAVPxVec3@3@@Z 1003cbe0 f i GuMTD.obj
 0001:0003bc60       ?V3Sub@aos@shdfnd@physx@@YA?AT__m128@@T4@0@Z 1003cc60 f i GuMTD.obj
 0001:0003bd30       ?V3Transpose@aos@shdfnd@physx@@YAXAAT__m128@@00@Z 1003cd30 f i GuMTD.obj
 0001:0003bf10       ?V3UnitX@aos@shdfnd@physx@@YA?AT__m128@@XZ 1003cf10 f i GuMTD.obj
 0001:0003bf70       ?V3UnitY@aos@shdfnd@physx@@YA?AT__m128@@XZ 1003cf70 f i GuMTD.obj
 0001:0003bfe0       ?V3UnitZ@aos@shdfnd@physx@@YA?AT__m128@@XZ 1003cfe0 f i GuMTD.obj
 0001:0003c040       ?V3Zero@aos@shdfnd@physx@@YA?AT__m128@@XZ 1003d040 f i GuMTD.obj
 0001:0003c070       ?V4Dot@aos@shdfnd@physx@@YA?AT__m128@@T4@0@Z 1003d070 f i GuMTD.obj
 0001:0003c140       ?V4ExtractMax@aos@shdfnd@physx@@YA?AT__m128@@T4@@Z 1003d140 f i GuMTD.obj
 0001:0003c1e0       ?V4IsEq@aos@shdfnd@physx@@YA?AT__m128@@T4@0@Z 1003d1e0 f i GuMTD.obj
 0001:0003c220       ?V4Length@aos@shdfnd@physx@@YA?AT__m128@@T4@@Z 1003d220 f i GuMTD.obj
 0001:0003c270       ?V4LoadXYZW@aos@shdfnd@physx@@YA?AT__m128@@ABM000@Z 1003d270 f i GuMTD.obj
 0001:0003c2c0       ?V4ReadW@aos@shdfnd@physx@@YAMABT__m128@@@Z 1003d2c0 f i GuMTD.obj
 0001:0003c2d0       ?V4ReadX@aos@shdfnd@physx@@YAMABT__m128@@@Z 1003d2d0 f i GuMTD.obj
 0001:0003c2e0       ?V4ReadY@aos@shdfnd@physx@@YAMABT__m128@@@Z 1003d2e0 f i GuMTD.obj
 0001:0003c2f0       ?V4ReadZ@aos@shdfnd@physx@@YAMABT__m128@@@Z 1003d2f0 f i GuMTD.obj
 0001:0003c300       ?V4Sel@aos@shdfnd@physx@@YA?AT__m128@@T4@00@Z 1003d300 f i GuMTD.obj
 0001:0003c360       ?V4SetW@aos@shdfnd@physx@@YA?AT__m128@@T4@0@Z 1003d360 f i GuMTD.obj
 0001:0003c3f0       ?V4Zero@aos@shdfnd@physx@@YA?AT__m128@@XZ 1003d3f0 f i GuMTD.obj
 0001:0003c420       ?VecI32V_And@aos@shdfnd@physx@@YA?AT__m128@@ABT4@0@Z 1003d420 f i GuMTD.obj
 0001:0003c460       ?VecI32V_From_BoolV@aos@shdfnd@physx@@YA?AT__m128@@ABT4@@Z 1003d460 f i GuMTD.obj
 0001:0003c470       ?VecI32V_IsEq@aos@shdfnd@physx@@YA?AT__m128@@ABT4@0@Z 1003d470 f i GuMTD.obj
 0001:0003c4d0       ?VecI32V_One@aos@shdfnd@physx@@YA?AT__m128@@XZ 1003d4d0 f i GuMTD.obj
 0001:0003c510       ?allElementsEqualBoolV@_VecMathTests@aos@shdfnd@physx@@YA_NT__m128@@0@Z 1003d510 f i GuMTD.obj
 0001:0003c570       ?bruteForceSearch@ConvexHullV@Gu@physx@@QBEIABT__m128@@@Z 1003d570 f i GuMTD.obj
 0001:0003c620       ?bruteForceSearchMinMax@ConvexHullNoScaleV@Gu@physx@@QBEXABT__m128@@AAT4@1@Z 1003d620 f i GuMTD.obj
 0001:0003c770       ?bruteForceSearchMinMax@ConvexHullV@Gu@physx@@QBEXABT__m128@@AAT4@1@Z 1003d770 f i GuMTD.obj
 0001:0003c8a0       ?clearManifold@MultiplePersistentContactManifold@Gu@physx@@QAEXXZ 1003d8a0 f i GuMTD.obj
 0001:0003c900       ?clearManifold@SinglePersistentContactManifold@Gu@physx@@QAEXXZ 1003d900 f i GuMTD.obj
 0001:0003c920       ?closestPtPointSegment@Gu@physx@@YA?AT__m128@@PIAT3@AAI@Z 1003d920 f i GuMTD.obj
 0001:0003cad0       ?closestPtPointTriangle@Gu@physx@@YA?AT__m128@@PIAT3@PAT3@1AAI@Z 1003dad0 f i GuMTD.obj
 0001:0003cd90       ?closestPtPointTriangleBaryCentric@Gu@physx@@YA?AT__m128@@ABT3@00PIAIAAIAAT3@@Z 1003dd90 f i GuMTD.obj
 0001:0003dab0       ?computeDirection@Segment@Gu@physx@@QBE?AVPxVec3@3@XZ 1003eab0 f i GuMTD.obj
 0001:0003dae0       ?distance@PxPlane@physx@@QBEMABVPxVec3@2@@Z 1003eae0 f i GuMTD.obj
 0001:0003db20       ?distanceSegmentSegmentSquared@Gu@physx@@YAMABVSegment@12@0PAM1@Z 1003eb20 f i GuMTD.obj
 0001:0003db60       ?doSupport@?$SupportLocalImpl@VBoxV@Gu@physx@@@Gu@physx@@UBE?AT__m128@@ABT4@@Z 1003eb60 f i GuMTD.obj
 0001:0003db90       ?doSupport@?$SupportLocalImpl@VBoxV@Gu@physx@@@Gu@physx@@UBEXABT__m128@@AAT4@1@Z 1003eb90 f i GuMTD.obj
 0001:0003dbc0       ?doSupport@?$SupportLocalImpl@VConvexHullNoScaleV@Gu@physx@@@Gu@physx@@UBE?AT__m128@@ABT4@@Z 1003ebc0 f i GuMTD.obj
 0001:0003dbf0       ?doSupport@?$SupportLocalImpl@VConvexHullNoScaleV@Gu@physx@@@Gu@physx@@UBEXABT__m128@@AAT4@1@Z 1003ebf0 f i GuMTD.obj
 0001:0003dc20       ?doSupport@?$SupportLocalImpl@VConvexHullV@Gu@physx@@@Gu@physx@@UBE?AT__m128@@ABT4@@Z 1003ec20 f i GuMTD.obj
 0001:0003dc50       ?doSupport@?$SupportLocalImpl@VConvexHullV@Gu@physx@@@Gu@physx@@UBEXABT__m128@@AAT4@1@Z 1003ec50 f i GuMTD.obj
 0001:0003dc80       ?doVirtualGetSweepMargin@GjkConvex@Gu@physx@@ABE?AT__m128@@XZ 1003ec80 f i GuMTD.obj
 0001:0003dcb0       ?doVirtualSupport@GjkConvex@Gu@physx@@ABE?AT__m128@@ABT4@@Z 1003ecb0 f i GuMTD.obj
 0001:0003dce0       ?doVirtualSupport@GjkConvex@Gu@physx@@ABE?AT__m128@@ABT4@AAH@Z 1003ece0 f i GuMTD.obj
 0001:0003dd10       ?doVirtualSupportPoint@GjkConvex@Gu@physx@@ABE?AT__m128@@H@Z 1003ed10 f i GuMTD.obj
 0001:0003dd40       ?getAxes@SeparatingAxes@Gu@physx@@QBEPBVPxVec3@3@XZ 1003ed40 f i GuMTD.obj
 0001:0003dd60       ?getCenter@?$LocalConvex@VCapsuleV@Gu@physx@@@Gu@physx@@UBE?AT__m128@@XZ 1003ed60 f i GuMTD.obj
 0001:0003dd90       ?getCenter@?$LocalConvex@VConvexHullV@Gu@physx@@@Gu@physx@@UBE?AT__m128@@XZ 1003ed90 f i GuMTD.obj
 0001:0003ddc0       ?getCenter@ConvexV@Gu@physx@@QBE?AT__m128@@XZ 1003edc0 f i GuMTD.obj
 0001:0003dde0       ?getClosestPoint@Gu@physx@@YAXPIBT__m128@@00ABT3@AAT3@2I@Z 1003ede0 f i GuMTD.obj
 0001:0003e130       ?getConjugate@PxQuat@physx@@QBE?AV12@XZ 1003f130 f i GuMTD.obj
 0001:0003e1a0       ?getEmptyManifold@MultiplePersistentContactManifold@Gu@physx@@QAEPAVSinglePersistentContactManifold@23@XZ 1003f1a0 f i GuMTD.obj
 0001:0003e1e0       ?getIndex@CapsuleV@Gu@physx@@QBEXT__m128@@AAH@Z 1003f1e0 f i GuMTD.obj
 0001:0003e260       ?getManifold@MultiplePersistentContactManifold@Gu@physx@@QAEPAVSinglePersistentContactManifold@23@I@Z 1003f260 f i GuMTD.obj
 0001:0003e2d0       ?getMargin@ConvexV@Gu@physx@@QBE?AT__m128@@XZ 1003f2d0 f i GuMTD.obj
 0001:0003e320       ?getMargin@GjkConvexBase@Gu@physx@@QBE?AT__m128@@XZ 1003f320 f i GuMTD.obj
 0001:0003e340       ?getMinMargin@ConvexV@Gu@physx@@QBE?AT__m128@@XZ 1003f340 f i GuMTD.obj
 0001:0003e390       ?getMinMargin@GjkConvexBase@Gu@physx@@QBE?AT__m128@@XZ 1003f390 f i GuMTD.obj
 0001:0003e3b0       ?getNbPolygonsFast@ConvexMesh@Gu@physx@@QBEIXZ 1003f3b0 f i GuMTD.obj
 0001:0003e3d0       ?getNbVerts@ConvexMesh@Gu@physx@@QBEIXZ 1003f3d0 f i GuMTD.obj
 0001:0003e3f0       ?getNumAxes@SeparatingAxes@Gu@physx@@QBEIXZ 1003f3f0 f i GuMTD.obj
 0001:0003e400       ?getPolygons@ConvexMesh@Gu@physx@@QBEPBUHullPolygonData@23@XZ 1003f400 f i GuMTD.obj
 0001:0003e420       ?getSweepMargin@?$LocalConvex@VCapsuleV@Gu@physx@@@Gu@physx@@UBE?AT__m128@@XZ 1003f420 f i GuMTD.obj
 0001:0003e450       ?getSweepMargin@?$LocalConvex@VConvexHullV@Gu@physx@@@Gu@physx@@UBE?AT__m128@@XZ 1003f450 f i GuMTD.obj
 0001:0003e480       ?getSweepMargin@CapsuleV@Gu@physx@@QBE?AT__m128@@XZ 1003f480 f i GuMTD.obj
 0001:0003e4c0       ?getSweepMargin@ConvexV@Gu@physx@@QBE?AT__m128@@XZ 1003f4c0 f i GuMTD.obj
 0001:0003e510       ?getSweepMargin@GjkConvex@Gu@physx@@UBE?AT__m128@@XZ 1003f510 f i GuMTD.obj
 0001:0003e530       ?getVerts@ConvexMesh@Gu@physx@@QBEPBVPxVec3@3@XZ 1003f530 f i GuMTD.obj
 0001:0003e550       ?hillClimbing@ConvexHullV@Gu@physx@@QBEIABT__m128@@@Z 1003f550 f i GuMTD.obj
 0001:0003e780       ?initialize@MultiplePersistentContactManifold@Gu@physx@@QAEXXZ 1003f780 f i GuMTD.obj
 0001:0003e7f0       ?initialize@SinglePersistentContactManifold@Gu@physx@@QAEXXZ 1003f7f0 f i GuMTD.obj
 0001:0003e810       ?invalidate@MultiplePersistentContactManifold@Gu@physx@@QAEIABVPsTransformV@aos@shdfnd@3@ABT__m128@@1@Z 1003f810 f i GuMTD.obj
 0001:0003e910       ?invalidate@MultiplePersistentContactManifold@Gu@physx@@QAEIABVPsTransformV@aos@shdfnd@3@ABT__m128@@@Z 1003f910 f i GuMTD.obj
 0001:0003e970       ?isAlmostZero@shdfnd@physx@@YA_NABVPxVec3@2@@Z 1003f970 f i GuMTD.obj
 0001:0003ea00       ?isEmpty@SinglePersistentContactManifold@Gu@physx@@QAE_NXZ 1003fa00 f i GuMTD.obj
 0001:0003ea30       ?isFinite@PsTransformV@aos@shdfnd@physx@@QBE_NXZ 1003fa30 f i GuMTD.obj
 0001:0003ea60       ?isFiniteQuatV@aos@shdfnd@physx@@YA_NT__m128@@@Z 1003fa60 f i GuMTD.obj
 0001:0003ea90       ?isFiniteVec3V@aos@shdfnd@physx@@YA_NT__m128@@@Z 1003fa90 f i GuMTD.obj
 0001:0003eb40       ?isFiniteVec4V@aos@shdfnd@physx@@YA_NT__m128@@@Z 1003fb40 f i GuMTD.obj
 0001:0003ec20       ?isMarginEqRadius@ConvexV@Gu@physx@@QBE?AT__m128@@XZ 1003fc20 f i GuMTD.obj
 0001:0003ec70       ?isMarginEqRadius@GjkConvexBase@Gu@physx@@QBE?AT__m128@@XZ 1003fc70 f i GuMTD.obj
 0001:0003ec90       ?isSane@PsTransformV@aos@shdfnd@physx@@QBE_NXZ 1003fc90 f i GuMTD.obj
 0001:0003ecc0       ?isSane@PxTransform@physx@@QBE_NXZ 1003fcc0 f i GuMTD.obj
 0001:0003ed00       ?isSaneQuatV@aos@shdfnd@physx@@YA_NT__m128@@@Z 1003fd00 f i GuMTD.obj
 0001:0003ede0       ?isValidFloatV@aos@shdfnd@physx@@YA_NT__m128@@@Z 1003fde0 f i GuMTD.obj
 0001:0003ef60       ?isValidVec3V@aos@shdfnd@physx@@YA_NT__m128@@@Z 1003ff60 f i GuMTD.obj
 0001:0003efd0       ?length@Segment@Gu@physx@@QBEMXZ 1003ffd0 f i GuMTD.obj
 0001:0003f000       ?m128_F2I@internalWindowsSimd@aos@shdfnd@physx@@YA?AT__m128i@@T__m128@@@Z 10040000 f i GuMTD.obj
 0001:0003f030       ?m128_I2F@internalWindowsSimd@aos@shdfnd@physx@@YA?AT__m128@@T__m128i@@@Z 10040030 f i GuMTD.obj
 0001:0003f060       ?maxTransformPositionDelta@MultiplePersistentContactManifold@Gu@physx@@QAE?AT__m128@@ABT4@@Z 10040060 f i GuMTD.obj
 0001:0003f0e0       ?maxTransformQuatDelta@MultiplePersistentContactManifold@Gu@physx@@QAE?AT__m128@@ABT4@@Z 100400e0 f i GuMTD.obj
 0001:0003f160       ?maximum@PxVec3@physx@@QBE?AV12@ABV12@@Z 10040160 f i GuMTD.obj
 0001:0003f1f0       ?minimum@PxVec3@physx@@QBE?AV12@ABV12@@Z 100401f0 f i GuMTD.obj
 0001:0003f280       ?populateVerts@?$SupportLocalImpl@VBoxV@Gu@physx@@@Gu@physx@@UBEXPBEIPBVPxVec3@3@PAT__m128@@@Z 10040280 f i GuMTD.obj
 0001:0003f2b0       ?populateVerts@?$SupportLocalImpl@VConvexHullNoScaleV@Gu@physx@@@Gu@physx@@UBEXPBEIPBVPxVec3@3@PAT__m128@@@Z 100402b0 f i GuMTD.obj
 0001:0003f2e0       ?populateVerts@?$SupportLocalImpl@VConvexHullV@Gu@physx@@@Gu@physx@@UBEXPBEIPBVPxVec3@3@PAT__m128@@@Z 100402e0 f i GuMTD.obj
 0001:0003f310       ?populateVerts@BoxV@Gu@physx@@QBEXPBEIPBVPxVec3@3@PAT__m128@@@Z 10040310 f i GuMTD.obj
 0001:0003f380       ?populateVerts@ConvexHullNoScaleV@Gu@physx@@QBEXPBEIPBVPxVec3@3@PAT__m128@@@Z 10040380 f i GuMTD.obj
 0001:0003f3f0       ?populateVerts@ConvexHullV@Gu@physx@@QBEXPBEIPBVPxVec3@3@PAT__m128@@@Z 100403f0 f i GuMTD.obj
 0001:0003f480       ?reduceManifoldContactsInDifferentPatches@MultiplePersistentContactManifold@Gu@physx@@QAEIPAPAUPCMContactPatch@23@IPAVMeshPersistentContact@23@IABT__m128@@@Z 10040480 f i GuMTD.obj
 0001:0003f600       ?refineContactPatchConnective@MultiplePersistentContactManifold@Gu@physx@@QAEXPAPAUPCMContactPatch@23@IPAVMeshPersistentContact@23@ABT__m128@@@Z 10040600 f i GuMTD.obj
 0001:0003f730       ?refreshManifold@MultiplePersistentContactManifold@Gu@physx@@QAEXABVPsMatTransformV@aos@shdfnd@3@ABT__m128@@1@Z 10040730 f i GuMTD.obj
 0001:0003f900       ?reset@ContactBuffer@Gu@physx@@QAEXXZ 10040900 f i GuMTD.obj
 0001:0003f920       ?reset@SeparatingAxes@Gu@physx@@QAEXXZ 10040920 f i GuMTD.obj
 0001:0003f940       ?rotate@PsMatTransformV@aos@shdfnd@physx@@QBE?AT__m128@@ABT5@@Z 10040940 f i GuMTD.obj
 0001:0003f990       ?rotateInv@PxQuat@physx@@QBE?BVPxVec3@2@ABV32@@Z 10040990 f i GuMTD.obj
 0001:0003fb20       ?rotateInv@PxTransform@physx@@QBE?AVPxVec3@2@ABV32@@Z 10040b20 f i GuMTD.obj
 0001:0003fb70       ?setRelativeTransform@MultiplePersistentContactManifold@Gu@physx@@QAEXABVPsTransformV@aos@shdfnd@3@@Z 10040b70 f i GuMTD.obj
 0001:0003fb90       ?support@?$LocalConvex@VCapsuleV@Gu@physx@@@Gu@physx@@UBE?AT__m128@@ABT4@@Z 10040b90 f i GuMTD.obj
 0001:0003fbc0       ?support@?$LocalConvex@VCapsuleV@Gu@physx@@@Gu@physx@@UBE?AT__m128@@ABT4@AAH@Z 10040bc0 f i GuMTD.obj
 0001:0003fbf0       ?support@?$LocalConvex@VConvexHullV@Gu@physx@@@Gu@physx@@UBE?AT__m128@@ABT4@@Z 10040bf0 f i GuMTD.obj
 0001:0003fc20       ?support@?$LocalConvex@VConvexHullV@Gu@physx@@@Gu@physx@@UBE?AT__m128@@ABT4@AAH@Z 10040c20 f i GuMTD.obj
 0001:0003fc50       ?support@GjkConvex@Gu@physx@@UBE?AT__m128@@ABT4@@Z 10040c50 f i GuMTD.obj
 0001:0003fc70       ?support@GjkConvex@Gu@physx@@UBE?AT__m128@@ABT4@AAH@Z 10040c70 f i GuMTD.obj
 0001:0003fca0       ?supportLocal@BoxV@Gu@physx@@QBE?AT__m128@@ABT4@@Z 10040ca0 f i GuMTD.obj
 0001:0003fd20       ?supportLocal@BoxV@Gu@physx@@QBEXABT__m128@@AAT4@1@Z 10040d20 f i GuMTD.obj
 0001:0003fdd0       ?supportLocal@CapsuleV@Gu@physx@@QBE?AT__m128@@ABT4@@Z 10040dd0 f i GuMTD.obj
 0001:0003fe70       ?supportLocal@CapsuleV@Gu@physx@@QBE?AT__m128@@ABT4@AAH@Z 10040e70 f i GuMTD.obj
 0001:0003ff30       ?supportLocal@ConvexHullNoScaleV@Gu@physx@@QBE?AT__m128@@ABT4@@Z 10040f30 f i GuMTD.obj
 0001:0003ff90       ?supportLocal@ConvexHullNoScaleV@Gu@physx@@QBEXABT__m128@@AAT4@1@Z 10040f90 f i GuMTD.obj
 0001:0003ffc0       ?supportLocal@ConvexHullV@Gu@physx@@QBE?AT__m128@@ABT4@@Z 10040fc0 f i GuMTD.obj
 0001:00040060       ?supportLocal@ConvexHullV@Gu@physx@@QBE?AT__m128@@ABT4@AAH@Z 10041060 f i GuMTD.obj
 0001:00040100       ?supportLocal@ConvexHullV@Gu@physx@@QBEXABT__m128@@AAT4@1@Z 10041100 f i GuMTD.obj
 0001:00040130       ?supportPoint@?$LocalConvex@VCapsuleV@Gu@physx@@@Gu@physx@@UBE?AT__m128@@H@Z 10041130 f i GuMTD.obj
 0001:00040160       ?supportPoint@?$LocalConvex@VConvexHullV@Gu@physx@@@Gu@physx@@UBE?AT__m128@@H@Z 10041160 f i GuMTD.obj
 0001:00040190       ?supportPoint@CapsuleV@Gu@physx@@QBE?AT__m128@@H@Z 10041190 f i GuMTD.obj
 0001:000401c0       ?supportPoint@ConvexHullV@Gu@physx@@QBE?AT__m128@@H@Z 100411c0 f i GuMTD.obj
 0001:00040230       ?supportPoint@GjkConvex@Gu@physx@@UBE?AT__m128@@H@Z 10041230 f i GuMTD.obj
 0001:00040250       ?supportVertexIndex@ConvexHullV@Gu@physx@@QBEIABT__m128@@@Z 10041250 f i GuMTD.obj
 0001:00040290       ?supportVertexMinMax@ConvexHullNoScaleV@Gu@physx@@QBEXABT__m128@@AAT4@1@Z 10041290 f i GuMTD.obj
 0001:00040390       ?supportVertexMinMax@ConvexHullV@Gu@physx@@QBEXABT__m128@@AAT4@1@Z 10041390 f i GuMTD.obj
 0001:000404f0       ?toBuffer@MultiplePersistentContactManifold@Gu@physx@@QAEXPIAE@Z 100414f0 f i GuMTD.obj
 0001:00040730       ?transformInv@PsTransformV@aos@shdfnd@physx@@QBE?AV1234@ABV1234@@Z 10041730 f i GuMTD.obj
 0001:00040860       ?transformInv@PxTransform@physx@@QBE?AV12@ABV12@@Z 10041860 f i GuMTD.obj
 0001:00040910       ?transformInv@PxTransform@physx@@QBE?AVPxVec3@2@ABV32@@Z 10041910 f i GuMTD.obj
 0001:000409c0       ?getOverlapFuncTable@Gu@physx@@YAPAY06Q6A_NABVPxGeometry@2@ABVPxTransform@2@01PAUTriggerCache@12@@ZXZ 100419c0 f   GuOverlapTests.obj
 0001:000409d0       ?registerHeightFields@Gu@physx@@YAXXZ 100419d0 f   GuOverlapTests.obj
 0001:00042870       ??$PX_UNUSED@PAUTriggerCache@Gu@physx@@@@YAXABQAUTriggerCache@Gu@physx@@@Z 10043870 f i GuOverlapTests.obj
 0001:00042880       ??$getConvex@VBoxV@Gu@physx@@@GjkConvexBase@Gu@physx@@QBEABVBoxV@12@XZ 10043880 f i GuOverlapTests.obj
 0001:000428a0       ??$gjk@U?$RelativeConvex@VBoxV@Gu@physx@@@Gu@physx@@U?$LocalConvex@VConvexHullV@Gu@physx@@@23@@Gu@physx@@YA?AW4GjkStatus@01@ABU?$RelativeConvex@VBoxV@Gu@physx@@@01@ABU?$LocalConvex@VConvexHullV@Gu@physx@@@01@ABT__m128@@2AAT5@333@Z 100438a0 f i GuOverlapTests.obj
 0001:00043230       ??$gjk@U?$RelativeConvex@VConvexHullV@Gu@physx@@@Gu@physx@@U?$LocalConvex@VConvexHullV@Gu@physx@@@23@@Gu@physx@@YA?AW4GjkStatus@01@ABU?$RelativeConvex@VConvexHullV@Gu@physx@@@01@ABU?$LocalConvex@VConvexHullV@Gu@physx@@@01@ABT__m128@@2AAT5@333@Z 10044230 f i GuOverlapTests.obj
 0001:00043bc0       ??0?$RelativeConvex@VBoxV@Gu@physx@@@Gu@physx@@QAE@ABVBoxV@12@ABVPsMatTransformV@aos@shdfnd@2@@Z 10044bc0 f i GuOverlapTests.obj
 0001:00043c20       ??0?$RelativeConvex@VConvexHullV@Gu@physx@@@Gu@physx@@QAE@ABVConvexHullV@12@ABVPsMatTransformV@aos@shdfnd@2@@Z 10044c20 f i GuOverlapTests.obj
 0001:00043c80       ??0Matrix34@Cm@physx@@QAE@ABVPxTransform@2@@Z 10044c80 f i GuOverlapTests.obj
 0001:00043cb0       ??1?$RelativeConvex@VBoxV@Gu@physx@@@Gu@physx@@UAE@XZ 10044cb0 f i GuOverlapTests.obj
 0001:00043cd0       ??1?$RelativeConvex@VConvexHullV@Gu@physx@@@Gu@physx@@UAE@XZ 10044cd0 f i GuOverlapTests.obj
 0001:00043cf0       ??_G?$RelativeConvex@VBoxV@Gu@physx@@@Gu@physx@@UAEPAXI@Z 10044cf0 f i GuOverlapTests.obj
 0001:00043cf0       ??_E?$RelativeConvex@VBoxV@Gu@physx@@@Gu@physx@@UAEPAXI@Z 10044cf0 f i GuOverlapTests.obj
 0001:00043d20       ??_E?$RelativeConvex@VConvexHullV@Gu@physx@@@Gu@physx@@UAEPAXI@Z 10044d20 f i GuOverlapTests.obj
 0001:00043d20       ??_G?$RelativeConvex@VConvexHullV@Gu@physx@@@Gu@physx@@UAEPAXI@Z 10044d20 f i GuOverlapTests.obj
 0001:00043d50       ?BGetBitMask@aos@shdfnd@physx@@YAIT__m128@@@Z 10044d50 f i GuOverlapTests.obj
 0001:00043d80       ?getCenter@?$RelativeConvex@VBoxV@Gu@physx@@@Gu@physx@@UBE?AT__m128@@XZ 10044d80 f i GuOverlapTests.obj
 0001:00043dd0       ?getCenter@?$RelativeConvex@VConvexHullV@Gu@physx@@@Gu@physx@@UBE?AT__m128@@XZ 10044dd0 f i GuOverlapTests.obj
 0001:00043e20       ?getIndex@BoxV@Gu@physx@@QBEXT__m128@@AAH@Z 10044e20 f i GuOverlapTests.obj
 0001:00043e60       ?getInverse@PxTransform@physx@@QBE?AV12@XZ 10044e60 f i GuOverlapTests.obj
 0001:00043ed0       ?getSamples2@BigConvexRawData@Gu@physx@@QBEPBEXZ 10044ed0 f i GuOverlapTests.obj
 0001:00043ef0       ?getSweepMargin@?$RelativeConvex@VBoxV@Gu@physx@@@Gu@physx@@UBE?AT__m128@@XZ 10044ef0 f i GuOverlapTests.obj
 0001:00043f20       ?getSweepMargin@?$RelativeConvex@VConvexHullV@Gu@physx@@@Gu@physx@@UBE?AT__m128@@XZ 10044f20 f i GuOverlapTests.obj
 0001:00043f50       ?isNormalized@PxVec3@physx@@QBE_NXZ 10044f50 f i GuOverlapTests.obj
 0001:00043fd0       ?multiply@PxVec3@physx@@QBE?AV12@ABV12@@Z 10044fd0 f i GuOverlapTests.obj
 0001:00044030       ?support@?$RelativeConvex@VBoxV@Gu@physx@@@Gu@physx@@UBE?AT__m128@@ABT4@@Z 10045030 f i GuOverlapTests.obj
 0001:00044070       ?support@?$RelativeConvex@VBoxV@Gu@physx@@@Gu@physx@@UBE?AT__m128@@ABT4@AAH@Z 10045070 f i GuOverlapTests.obj
 0001:000440b0       ?support@?$RelativeConvex@VConvexHullV@Gu@physx@@@Gu@physx@@UBE?AT__m128@@ABT4@@Z 100450b0 f i GuOverlapTests.obj
 0001:000440f0       ?support@?$RelativeConvex@VConvexHullV@Gu@physx@@@Gu@physx@@UBE?AT__m128@@ABT4@AAH@Z 100450f0 f i GuOverlapTests.obj
 0001:00044130       ?supportLocal@BoxV@Gu@physx@@QBE?AT__m128@@ABT4@AAH@Z 10045130 f i GuOverlapTests.obj
 0001:000441c0       ?supportPoint@?$RelativeConvex@VBoxV@Gu@physx@@@Gu@physx@@UBE?AT__m128@@H@Z 100451c0 f i GuOverlapTests.obj
 0001:00044210       ?supportPoint@?$RelativeConvex@VConvexHullV@Gu@physx@@@Gu@physx@@UBE?AT__m128@@H@Z 10045210 f i GuOverlapTests.obj
 0001:00044260       ?supportPoint@BoxV@Gu@physx@@QBE?AT__m128@@H@Z 10045260 f i GuOverlapTests.obj
 0001:000442d0       ?supportRelative@BoxV@Gu@physx@@QBE?AT__m128@@ABT4@ABVPsMatTransformV@aos@shdfnd@3@1@Z 100452d0 f i GuOverlapTests.obj
 0001:00044330       ?supportRelative@BoxV@Gu@physx@@QBE?AT__m128@@ABT4@ABVPsMatTransformV@aos@shdfnd@3@1AAH@Z 10045330 f i GuOverlapTests.obj
 0001:00044390       ?supportRelative@ConvexHullV@Gu@physx@@QBE?AT__m128@@ABT4@ABVPsMatTransformV@aos@shdfnd@3@1@Z 10045390 f i GuOverlapTests.obj
 0001:000443f0       ?supportRelative@ConvexHullV@Gu@physx@@QBE?AT__m128@@ABT4@ABVPsMatTransformV@aos@shdfnd@3@1AAH@Z 100453f0 f i GuOverlapTests.obj
 0001:00044450       ?transform@PsMatTransformV@aos@shdfnd@physx@@QBE?AT__m128@@ABT5@@Z 10045450 f i GuOverlapTests.obj
 0001:000444b0       ?transform@PxTransform@physx@@QBE?AV12@ABV12@@Z 100454b0 f i GuOverlapTests.obj
 0001:000445a0       ?getRaycastFuncTable@Gu@physx@@YAAAY06Q6AIABVPxGeometry@2@ABVPxTransform@2@ABVPxVec3@2@2MV?$PxFlags@W4Enum@PxHitFlag@physx@@G@2@IPIAUPxRaycastHit@2@@ZXZ 100455a0 f   GuRaycastTests.obj
 0001:00044640       ?raycast_box@@YAIABVPxGeometry@physx@@ABVPxTransform@2@ABVPxVec3@2@2MV?$PxFlags@W4Enum@PxHitFlag@physx@@G@2@IPIAUPxRaycastHit@2@@Z 10045640 f   GuRaycastTests.obj
 0001:00044930       ?raycast_sphere@@YAIABVPxGeometry@physx@@ABVPxTransform@2@ABVPxVec3@2@2MV?$PxFlags@W4Enum@PxHitFlag@physx@@G@2@IPIAUPxRaycastHit@2@@Z 10045930 f   GuRaycastTests.obj
 0001:00044b00       ?raycast_capsule@@YAIABVPxGeometry@physx@@ABVPxTransform@2@ABVPxVec3@2@2MV?$PxFlags@W4Enum@PxHitFlag@physx@@G@2@IPIAUPxRaycastHit@2@@Z 10045b00 f   GuRaycastTests.obj
 0001:00044da0       ?raycast_plane@@YAIABVPxGeometry@physx@@ABVPxTransform@2@ABVPxVec3@2@2MV?$PxFlags@W4Enum@PxHitFlag@physx@@G@2@IPIAUPxRaycastHit@2@@Z 10045da0 f   GuRaycastTests.obj
 0001:00044f30       ?raycast_convexMesh@@YAIABVPxGeometry@physx@@ABVPxTransform@2@ABVPxVec3@2@2MV?$PxFlags@W4Enum@PxHitFlag@physx@@G@2@IPIAUPxRaycastHit@2@@Z 10045f30 f   GuRaycastTests.obj
 0001:000453f0       ?raycast_triangleMesh@@YAIABVPxGeometry@physx@@ABVPxTransform@2@ABVPxVec3@2@2MV?$PxFlags@W4Enum@PxHitFlag@physx@@G@2@IPIAUPxRaycastHit@2@@Z 100463f0 f   GuRaycastTests.obj
 0001:00045500       ?raycast_heightField@@YAIABVPxGeometry@physx@@ABVPxTransform@2@ABVPxVec3@2@2MV?$PxFlags@W4Enum@PxHitFlag@physx@@G@2@IPIAUPxRaycastHit@2@@Z 10046500 f   GuRaycastTests.obj
 0001:00045940       ?registerHeightFields_Raycasts@@YAXXZ 10046940 f   GuRaycastTests.obj
 0001:00045960       ??$PX_UNUSED@PIAUPxRaycastHit@physx@@@@YAXABQIAUPxRaycastHit@physx@@@Z 10046960 f i GuRaycastTests.obj
 0001:00045970       ??$PX_UNUSED@V?$PxFlags@W4Enum@PxHitFlag@physx@@G@physx@@@@YAXABV?$PxFlags@W4Enum@PxHitFlag@physx@@G@physx@@@Z 10046970 f i GuRaycastTests.obj
 0001:00045980       ??$PxMin@H@physx@@YAHHH@Z  10046980 f i GuRaycastTests.obj
 0001:00047620       ??Dphysx@@YA?AVMatrix34@Cm@0@ABVPxMeshScale@0@ABVPxTransform@0@@Z 10048620 f i GuRaycastTests.obj
 0001:00047680       ?PxSign@physx@@YAMM@Z      10048680 f i GuRaycastTests.obj
 0001:00047700       ?ceil@shdfnd@physx@@YAMM@Z 10048700 f i GuRaycastTests.obj
 0001:00047720       ?computePoint@Segment@Gu@physx@@QBEXAAVPxVec3@3@M@Z 10048720 f i GuRaycastTests.obj
 0001:00047a40       ?floatFloor@shdfnd@physx@@YAMM@Z 10048a40 f i GuRaycastTests.obj
 0001:00047a60       ?floor@shdfnd@physx@@YAMM@Z 10048a60 f i GuRaycastTests.obj
 0001:00047a80       ?getConcreteType@PxBase@physx@@QBEGXZ 10048a80 f i GuRaycastTests.obj
 0001:00047aa0       ?getInverse@PxMeshScale@physx@@QBE?AV12@XZ 10048aa0 f i GuRaycastTests.obj
 0001:00047b10       ?getMax@HeightField@Gu@physx@@QBEIMI@Z 10048b10 f i GuRaycastTests.obj
 0001:00047b90       ?getMaxColumn@HeightField@Gu@physx@@QBEIM@Z 10048b90 f i GuRaycastTests.obj
 0001:00047bc0       ?getMaxRow@HeightField@Gu@physx@@QBEIM@Z 10048bc0 f i GuRaycastTests.obj
 0001:00047bf0       ?getMin@HeightField@Gu@physx@@QBEIMI@Z 10048bf0 f i GuRaycastTests.obj
 0001:00047c70       ?getMinColumn@HeightField@Gu@physx@@QBEIM@Z 10048c70 f i GuRaycastTests.obj
 0001:00047ca0       ?getMinRow@HeightField@Gu@physx@@QBEIM@Z 10048ca0 f i GuRaycastTests.obj
 0001:00047dc0       ?intersectRayCapsule@Gu@physx@@YA_NABVPxVec3@2@000MAAM@Z 10048dc0 f i GuRaycastTests.obj
 0001:00047f40       ?intersectRayCapsule@Gu@physx@@YA_NABVPxVec3@2@0ABVCapsule@12@AAM@Z 10048f40 f i GuRaycastTests.obj
 0001:00047f80       ?intersectRayPlane@Gu@physx@@YA_NABVPxVec3@2@0ABVPxPlane@2@AAMPAV32@@Z 10048f80 f i GuRaycastTests.obj
 0001:00048020       ?intersectRayTriangle@Gu@physx@@YA_NABVPxVec3@2@0000AAM11_NM@Z 10049020 f i GuRaycastTests.obj
 0001:00048330       ?isSet@?$PxFlags@W4Enum@PxHitFlag@physx@@G@physx@@QBE_NW4Enum@PxHitFlag@2@@Z 10049330 f i GuRaycastTests.obj
 0001:00048370       ?isSet@?$PxFlags@W4Enum@PxMeshGeometryFlag@physx@@E@physx@@QBE_NW4Enum@PxMeshGeometryFlag@2@@Z 10049370 f i GuRaycastTests.obj
 0001:000483b0       ?normalizeSafe@PxVec3@physx@@QAEMXZ 100493b0 f i GuRaycastTests.obj
 0001:000486f0       ?raycastTriangleMesh@Midphase@Gu@physx@@YAIPBVTriangleMesh@23@ABVPxTriangleMeshGeometry@3@ABVPxTransform@3@ABVPxVec3@3@3MV?$PxFlags@W4Enum@PxHitFlag@physx@@G@3@IPIAUPxRaycastHit@3@@Z 100496f0 f i GuRaycastTests.obj
 0001:000487a0       ?rotateTranspose@Matrix34@Cm@physx@@QBE?AVPxVec3@3@ABV43@@Z 100497a0 f i GuRaycastTests.obj
 0001:000487c0       ?sign@intrinsics@physx@@YAMM@Z 100497c0 f i GuRaycastTests.obj
 0001:00048c60       ?readChunk@physx@@YAXAAC000AAVPxInputStream@1@@Z 10049c60 f   GuSerialize.obj
 0001:00048cb0       ?readWord@physx@@YAG_NAAVPxInputStream@1@@Z 10049cb0 f   GuSerialize.obj
 0001:00048cf0       ?readDword@physx@@YAI_NAAVPxInputStream@1@@Z 10049cf0 f   GuSerialize.obj
 0001:00048d30       ?readFloat@physx@@YAM_NAAVPxInputStream@1@@Z 10049d30 f   GuSerialize.obj
 0001:00048d70       ?writeWord@physx@@YAXG_NAAVPxOutputStream@1@@Z 10049d70 f   GuSerialize.obj
 0001:00048da0       ?writeDword@physx@@YAXI_NAAVPxOutputStream@1@@Z 10049da0 f   GuSerialize.obj
 0001:00048dd0       ?writeFloat@physx@@YAXM_NAAVPxOutputStream@1@@Z 10049dd0 f   GuSerialize.obj
 0001:00048e00       ?readFloatBuffer@physx@@YA_NPAMI_NAAVPxInputStream@1@@Z 10049e00 f   GuSerialize.obj
 0001:00048e60       ?writeFloatBuffer@physx@@YAXPBMI_NAAVPxOutputStream@1@@Z 10049e60 f   GuSerialize.obj
 0001:00048ee0       ?writeWordBuffer@physx@@YAXPBGI_NAAVPxOutputStream@1@@Z 10049ee0 f   GuSerialize.obj
 0001:00048f60       ?readWordBuffer@physx@@YAXPAGI_NAAVPxInputStream@1@@Z 10049f60 f   GuSerialize.obj
 0001:00048fc0       ?writeHeader@physx@@YA_NCCCCI_NAAVPxOutputStream@1@@Z 10049fc0 f   GuSerialize.obj
 0001:00049030       ?readHeader@physx@@YA_NCCCCAAIAA_NAAVPxInputStream@1@@Z 1004a030 f   GuSerialize.obj
 0001:00049120       ?computeMaxIndex@physx@@YAIPBII@Z 1004a120 f   GuSerialize.obj
 0001:00049170       ?computeMaxIndex@physx@@YAGPBGI@Z 1004a170 f   GuSerialize.obj
 0001:000491d0       ?storeIndices@physx@@YAXIIPBIAAVPxOutputStream@1@_N@Z 1004a1d0 f   GuSerialize.obj
 0001:00049290       ?readIndices@physx@@YAXIIPAIAAVPxInputStream@1@_N@Z 1004a290 f   GuSerialize.obj
 0001:00049340       ?WriteHeader@Gu@physx@@YA_NEEEEI_NAAVPxOutputStream@2@@Z 1004a340 f   GuSerialize.obj
 0001:000493b0       ?ReadHeader@Gu@physx@@YA_NEEEEAAIAA_NAAVPxInputStream@2@@Z 1004a3b0 f   GuSerialize.obj
 0001:000494a0       ?StoreIndices@Gu@physx@@YAXIIPBIAAVPxOutputStream@2@_N@Z 1004a4a0 f   GuSerialize.obj
 0001:00049580       ?ReadIndices@Gu@physx@@YAXIIPAIAAVPxInputStream@2@_N@Z 1004a580 f   GuSerialize.obj
 0001:00049670       ?StoreIndices@Gu@physx@@YAXGIPBGAAVPxOutputStream@2@_N@Z 1004a670 f   GuSerialize.obj
 0001:00049700       ?ReadIndices@Gu@physx@@YAXGIPAGAAVPxInputStream@2@_N@Z 1004a700 f   GuSerialize.obj
 0001:00049790       ?ReadDwordBuffer@physx@@YA_NPAII_NAAVPxInputStream@1@@Z 1004a790 f i GuSerialize.obj
 0001:000497b0       ?littleEndian@shdfnd@physx@@YADXZ 1004a7b0 f i GuSerialize.obj
 0001:000497d0       ?readIntBuffer@physx@@YA_NPAII_NAAVPxInputStream@1@@Z 1004a7d0 f i GuSerialize.obj
 0001:000497f0       ?writeChunk@physx@@YAXCCCCAAVPxOutputStream@1@@Z 1004a7f0 f i GuSerialize.obj
 0001:00049840       ?writeIntBuffer@physx@@YAXPBII_NAAVPxOutputStream@1@@Z 1004a840 f i GuSerialize.obj
 0001:00049940       ?computeCapsule_TriangleMeshMTD@Gu@physx@@YA_NABVPxTriangleMeshGeometry@2@ABVPxTransform@2@AAVCapsuleV@12@M_NAAUPxSweepHit@2@@Z 1004a940 f   GuSweepMTD.obj
 0001:00049fd0       ?computeCapsule_HeightFieldMTD@Gu@physx@@YA_NABVPxHeightFieldGeometry@2@ABVPxTransform@2@AAVCapsuleV@12@M_NIAAUPxSweepHit@2@@Z 1004afd0 f   GuSweepMTD.obj
 0001:0004a640       ?computeBox_TriangleMeshMTD@Gu@physx@@YA_NABVPxTriangleMeshGeometry@2@ABVPxTransform@2@ABVBox@12@1M_NAAUPxSweepHit@2@@Z 1004b640 f   GuSweepMTD.obj
 0001:0004af20       ?computeBox_HeightFieldMTD@Gu@physx@@YA_NABVPxHeightFieldGeometry@2@ABVPxTransform@2@ABVBox@12@1M_NIAAUPxSweepHit@2@@Z 1004bf20 f   GuSweepMTD.obj
 0001:0004b810       ?computeConvex_TriangleMeshMTD@Gu@physx@@YA_NABVPxTriangleMeshGeometry@2@ABVPxTransform@2@ABVPxConvexMeshGeometry@2@1M_NAAUPxSweepHit@2@@Z 1004c810 f   GuSweepMTD.obj
 0001:0004c220       ?computeConvex_HeightFieldMTD@Gu@physx@@YA_NABVPxHeightFieldGeometry@2@ABVPxTransform@2@ABVPxConvexMeshGeometry@2@1M_NIAAUPxSweepHit@2@@Z 1004d220 f   GuSweepMTD.obj
 0001:0004cc30       ?computeSphere_SphereMTD@Gu@physx@@YA_NABVSphere@12@0AAUPxSweepHit@2@@Z 1004dc30 f   GuSweepMTD.obj
 0001:0004cce0       ?computeSphere_CapsuleMTD@Gu@physx@@YA_NABVSphere@12@ABVCapsule@12@AAUPxSweepHit@2@@Z 1004dce0 f   GuSweepMTD.obj
 0001:0004cdc0       ?computeCapsule_CapsuleMTD@Gu@physx@@YA_NABVCapsule@12@0AAUPxSweepHit@2@@Z 1004ddc0 f   GuSweepMTD.obj
 0001:0004ceb0       ?computePlane_CapsuleMTD@Gu@physx@@YA_NABVPxPlane@2@ABVCapsule@12@AAUPxSweepHit@2@@Z 1004deb0 f   GuSweepMTD.obj
 0001:0004cf80       ?computePlane_BoxMTD@Gu@physx@@YA_NABVPxPlane@2@ABVBox@12@AAUPxSweepHit@2@@Z 1004df80 f   GuSweepMTD.obj
 0001:0004d080       ?computePlane_ConvexMTD@Gu@physx@@YA_NABVPxPlane@2@ABVPxConvexMeshGeometry@2@ABVPxTransform@2@AAUPxSweepHit@2@@Z 1004e080 f   GuSweepMTD.obj
 0001:0004d7f0       ??0?$Array@IVNamedAllocator@shdfnd@physx@@@shdfnd@physx@@QAE@ABVNamedAllocator@12@@Z 1004e7f0 f i GuSweepMTD.obj
 0001:0004d830       ??0?$MeshHitCallback@UPxRaycastHit@physx@@@Gu@physx@@QAE@W4Enum@CallbackMode@12@@Z 1004e830 f i GuSweepMTD.obj
 0001:0004d860       ??0FastVertex2ShapeScaling@Cm@physx@@QAE@ABVPxMeshScale@2@@Z 1004e860 f i GuSweepMTD.obj
 0001:0004d890       ??0FastVertex2ShapeScaling@Cm@physx@@QAE@XZ 1004e890 f i GuSweepMTD.obj
 0001:0004d8f0       ??0MTDTriangle@@QAE@XZ     1004e8f0 f i GuSweepMTD.obj
 0001:0004d910       ??0MeshMTDGenerationCallback@@QAE@AAV?$Array@IVNamedAllocator@shdfnd@physx@@@shdfnd@physx@@@Z 1004e910 f i GuSweepMTD.obj
 0001:0004d940       ??0MidPhaseQueryLocalReport@@QAE@AAV?$Array@IVNamedAllocator@shdfnd@physx@@@shdfnd@physx@@@Z 1004e940 f i GuSweepMTD.obj
 0001:0004d970       ??0PsMatTransformV@aos@shdfnd@physx@@QAE@ABT__m128@@ABUMat33V@123@@Z 1004e970 f i GuSweepMTD.obj
 0001:0004d9b0       ??0PxTransform@physx@@QAE@ABV01@@Z 1004e9b0 f i GuSweepMTD.obj
 0001:0004d9e0       ??0TriangleV@Gu@physx@@QAE@XZ 1004e9e0 f i GuSweepMTD.obj
 0001:0004da30       ??1?$Array@IVNamedAllocator@shdfnd@physx@@@shdfnd@physx@@QAE@XZ 1004ea30 f i GuSweepMTD.obj
 0001:0004da90       ??1?$MeshHitCallback@UPxRaycastHit@physx@@@Gu@physx@@UAE@XZ 1004ea90 f i GuSweepMTD.obj
 0001:0004dab0       ??1MTDTriangle@@QAE@XZ     1004eab0 f i GuSweepMTD.obj
 0001:0004dad0       ??1MeshMTDGenerationCallback@@UAE@XZ 1004ead0 f i GuSweepMTD.obj
 0001:0004daf0       ??1MidPhaseQueryLocalReport@@UAE@XZ 1004eaf0 f i GuSweepMTD.obj
 0001:0004db10       ??1TriangleV@Gu@physx@@QAE@XZ 1004eb10 f i GuSweepMTD.obj
 0001:0004db30       ??A?$Array@IVNamedAllocator@shdfnd@physx@@@shdfnd@physx@@QAEAAII@Z 1004eb30 f i GuSweepMTD.obj
 0001:0004db90       ??DFastVertex2ShapeScaling@Cm@physx@@QBE?AVPxVec3@2@ABV32@@Z 1004eb90 f i GuSweepMTD.obj
 0001:0004dbb0       ??DMatrix34@Cm@physx@@QBE?AV012@ABV012@@Z 1004ebb0 f i GuSweepMTD.obj
 0001:0004dc10       ??Dphysx@@YA?AVMatrix34@Cm@0@ABVPxTransform@0@ABVPxMeshScale@0@@Z 1004ec10 f i GuSweepMTD.obj
 0001:0004dc60       ??_E?$MeshHitCallback@UPxRaycastHit@physx@@@Gu@physx@@UAEPAXI@Z 1004ec60 f i GuSweepMTD.obj
 0001:0004dc60       ??_G?$MeshHitCallback@UPxRaycastHit@physx@@@Gu@physx@@UAEPAXI@Z 1004ec60 f i GuSweepMTD.obj
 0001:0004dc90       ??_GMeshMTDGenerationCallback@@UAEPAXI@Z 1004ec90 f i GuSweepMTD.obj
 0001:0004dc90       ??_EMeshMTDGenerationCallback@@UAEPAXI@Z 1004ec90 f i GuSweepMTD.obj
 0001:0004dcc0       ??_EMidPhaseQueryLocalReport@@UAEPAXI@Z 1004ecc0 f i GuSweepMTD.obj
 0001:0004dcc0       ??_GMidPhaseQueryLocalReport@@UAEPAXI@Z 1004ecc0 f i GuSweepMTD.obj
 0001:0004dcf0       ?CalculateMTDBoxMargin@Gu@physx@@YA?AT__m128@@ABT3@@Z 1004ecf0 f i GuSweepMTD.obj
 0001:0004dd60       ?CalculateMTDConvexMargin@Gu@physx@@YA?AT__m128@@PBUConvexHullData@12@ABT3@@Z 1004ed60 f i GuSweepMTD.obj
 0001:0004de00       ?QuatTransform@aos@shdfnd@physx@@YA?AT__m128@@T4@00@Z 1004ee00 f i GuSweepMTD.obj
 0001:0004dfa0       ?allocate@?$Array@IVNamedAllocator@shdfnd@physx@@@shdfnd@physx@@IAEPAII@Z 1004efa0 f i GuSweepMTD.obj
 0001:0004e010       ?begin@?$Array@IVNamedAllocator@shdfnd@physx@@@shdfnd@physx@@QAEPAIXZ 1004f010 f i GuSweepMTD.obj
 0001:0004e020       ?capacity@?$Array@IVNamedAllocator@shdfnd@physx@@@shdfnd@physx@@QBEIXZ 1004f020 f i GuSweepMTD.obj
 0001:0004e040       ?capacityIncrement@?$Array@IVNamedAllocator@shdfnd@physx@@@shdfnd@physx@@IBEIXZ 1004f040 f i GuSweepMTD.obj
 0001:0004e080       ?computeWorldTriangle@TriangleMesh@Gu@physx@@QBEXAAVPxTriangle@3@IABVMatrix34@Cm@3@_NPIAI3@Z 1004f080 f i GuSweepMTD.obj
 0001:0004e2f0       ?copy@?$Array@IVNamedAllocator@shdfnd@physx@@@shdfnd@physx@@KAXPAI0PBI@Z 1004f2f0 f i GuSweepMTD.obj
 0001:0004e340       ?createDiagonal@PxMat33@physx@@SA?BV12@ABVPxVec3@2@@Z 1004f340 f i GuSweepMTD.obj
 0001:0004e3d0       ?deallocate@?$Array@IVNamedAllocator@shdfnd@physx@@@shdfnd@physx@@IAEXPAX@Z 1004f3d0 f i GuSweepMTD.obj
 0001:0004e3f0       ?destroy@?$Array@IVNamedAllocator@shdfnd@physx@@@shdfnd@physx@@KAXPAI0@Z 1004f3f0 f i GuSweepMTD.obj
 0001:0004e410       ?empty@?$Array@IVNamedAllocator@shdfnd@physx@@@shdfnd@physx@@QBE_NXZ 1004f410 f i GuSweepMTD.obj
 0001:0004e440       ?forceSize_Unsafe@?$Array@IVNamedAllocator@shdfnd@physx@@@shdfnd@physx@@QAEXI@Z 1004f440 f i GuSweepMTD.obj
 0001:0004e4a0       ?getAdjacencies@TriangleMesh@Gu@physx@@QBEPBIXZ 1004f4a0 f i GuSweepMTD.obj
 0001:0004e4c0       ?getConvexEdgeFlags@Gu@physx@@YAEPBEI@Z 1004f4c0 f i GuSweepMTD.obj
 0001:0004e4f0       ?getDeterminant@PxMat33@physx@@QBEMXZ 1004f4f0 f i GuSweepMTD.obj
 0001:0004e520       ?getExtraTrigData@TriangleMesh@Gu@physx@@QBEPBEXZ 1004f520 f i GuSweepMTD.obj
 0001:0004e540       ?getInverse@PxMat33@physx@@QBE?BV12@XZ 1004f540 f i GuSweepMTD.obj
 0001:0004e760       ?getLocalTriangle@TriangleMesh@Gu@physx@@QBEXAAVPxTriangle@3@I_N@Z 1004f760 f i GuSweepMTD.obj
 0001:0004e880       ?getTrianglesFast@TriangleMesh@Gu@physx@@QBEPBXXZ 1004f880 f i GuSweepMTD.obj
 0001:0004e8a0       ?getVerticesFast@TriangleMesh@Gu@physx@@QBEPBVPxVec3@3@XZ 1004f8a0 f i GuSweepMTD.obj
 0001:0004e8c0       ?grow@?$Array@IVNamedAllocator@shdfnd@physx@@@shdfnd@physx@@IAEXI@Z 1004f8c0 f i GuSweepMTD.obj
 0001:0004e920       ?growAndPushBack@?$Array@IVNamedAllocator@shdfnd@physx@@@shdfnd@physx@@IAEAAIABI@Z 1004f920 f i GuSweepMTD.obj
 0001:0004ea50       ?has16BitIndices@TriangleMesh@Gu@physx@@QBE_NXZ 1004fa50 f i GuSweepMTD.obj
 0001:0004ea80       ?hasNegativeDeterminant@PxMeshScale@physx@@QBE_NXZ 1004fa80 f i GuSweepMTD.obj
 0001:0004eac0       ?init@FastVertex2ShapeScaling@Cm@physx@@QAEXABVPxMeshScale@3@@Z 1004fac0 f i GuSweepMTD.obj
 0001:0004eae0       ?init@FastVertex2ShapeScaling@Cm@physx@@QAEXABVPxVec3@3@ABVPxQuat@3@@Z 1004fae0 f i GuSweepMTD.obj
 0001:0004ebb0       ?intersectOBB@Midphase@Gu@physx@@YAXPBVTriangleMesh@23@ABVBox@23@AAU?$MeshHitCallback@UPxRaycastHit@physx@@@23@_N3@Z 1004fbb0 f i GuSweepMTD.obj
 0001:0004ebf0       ?isInUserMemory@?$Array@IVNamedAllocator@shdfnd@physx@@@shdfnd@physx@@QBEIXZ 1004fbf0 f i GuSweepMTD.obj
 0001:0004ec10       ?normal@TriangleV@Gu@physx@@QBE?AT__m128@@XZ 1004fc10 f i GuSweepMTD.obj
 0001:0004ecd0       ?onEvent@MidPhaseQueryLocalReport@@UAE_NIPAI@Z 1004fcd0 f i GuSweepMTD.obj
 0001:0004ed20       ?processHit@MeshMTDGenerationCallback@@UAE_NABUPxRaycastHit@physx@@ABVPxVec3@3@11AAMPBI@Z 1004fd20 f i GuSweepMTD.obj
 0001:0004ed50       ?pushBack@?$Array@IVNamedAllocator@shdfnd@physx@@@shdfnd@physx@@QAEAAIABI@Z 1004fd50 f i GuSweepMTD.obj
 0001:0004edd0       ?recreate@?$Array@IVNamedAllocator@shdfnd@physx@@@shdfnd@physx@@IAEXI@Z 1004fdd0 f i GuSweepMTD.obj
 0001:0004eea0       ?reserve@?$Array@IVNamedAllocator@shdfnd@physx@@@shdfnd@physx@@QAEXI@Z 1004fea0 f i GuSweepMTD.obj
 0001:0004eed0       ?rotate@PsTransformV@aos@shdfnd@physx@@QBE?AT__m128@@ABT5@@Z 1004fed0 f i GuSweepMTD.obj
 0001:0004ef60       ?setCenter@CapsuleV@Gu@physx@@QAEXABT__m128@@@Z 1004ff60 f i GuSweepMTD.obj
 0001:0004eff0       ?setShapeSpaceCenterofMass@SupportLocal@Gu@physx@@QAEXABT__m128@@@Z 1004fff0 f i GuSweepMTD.obj
 0001:0004f010       ?size@?$Array@IVNamedAllocator@shdfnd@physx@@@shdfnd@physx@@QBEIXZ 10050010 f i GuSweepMTD.obj
 0001:0004f030       ?transform@PsTransformV@aos@shdfnd@physx@@QBE?AT__m128@@ABT5@@Z 10050030 f i GuSweepMTD.obj
 0001:0004f110       ?sweepCapsuleTriangles@Gu@physx@@YA_NIPBVPxTriangle@2@_NABVPxCapsuleGeometry@2@ABVPxTransform@2@ABVPxVec3@2@MAAUPxSweepHit@2@PBIMV?$PxFlags@W4Enum@PxHitFlag@physx@@G@2@@Z 10050110 f   GuSweepSharedTests.obj
 0001:0004f630       ?sweepCapsule_SphereGeom@@YA_NABVPxGeometry@physx@@ABVPxTransform@2@ABVPxCapsuleGeometry@2@1ABVCapsule@Gu@2@ABVPxVec3@2@MAAUPxSweepHit@2@V?$PxFlags@W4Enum@PxHitFlag@physx@@G@2@M@Z 10050630 f   GuSweepSharedTests.obj
 0001:0004f850       ?sweepCapsule_PlaneGeom@@YA_NABVPxGeometry@physx@@ABVPxTransform@2@ABVPxCapsuleGeometry@2@1ABVCapsule@Gu@2@ABVPxVec3@2@MAAUPxSweepHit@2@V?$PxFlags@W4Enum@PxHitFlag@physx@@G@2@M@Z 10050850 f   GuSweepSharedTests.obj
 0001:0004fb10       ?sweepCapsule_CapsuleGeom@@YA_NABVPxGeometry@physx@@ABVPxTransform@2@ABVPxCapsuleGeometry@2@1ABVCapsule@Gu@2@ABVPxVec3@2@MAAUPxSweepHit@2@V?$PxFlags@W4Enum@PxHitFlag@physx@@G@2@M@Z 10050b10 f   GuSweepSharedTests.obj
 0001:0004fca0       ?sweepCapsule_ConvexGeom@@YA_NABVPxGeometry@physx@@ABVPxTransform@2@ABVPxCapsuleGeometry@2@1ABVCapsule@Gu@2@ABVPxVec3@2@MAAUPxSweepHit@2@V?$PxFlags@W4Enum@PxHitFlag@physx@@G@2@M@Z 10050ca0 f   GuSweepSharedTests.obj
 0001:00050240       ?sweepBox_PlaneGeom@@YA_NABVPxGeometry@physx@@ABVPxTransform@2@ABVPxBoxGeometry@2@1ABVBox@Gu@2@ABVPxVec3@2@MAAUPxSweepHit@2@V?$PxFlags@W4Enum@PxHitFlag@physx@@G@2@M@Z 10051240 f   GuSweepSharedTests.obj
 0001:000504c0       ?sweepBox_ConvexGeom@@YA_NABVPxGeometry@physx@@ABVPxTransform@2@ABVPxBoxGeometry@2@1ABVBox@Gu@2@ABVPxVec3@2@MAAUPxSweepHit@2@V?$PxFlags@W4Enum@PxHitFlag@physx@@G@2@M@Z 100514c0 f   GuSweepSharedTests.obj
 0001:00050970       ?sweepConvex_SphereGeom@@YA_NABVPxGeometry@physx@@ABVPxTransform@2@ABVPxConvexMeshGeometry@2@1ABVPxVec3@2@MAAUPxSweepHit@2@V?$PxFlags@W4Enum@PxHitFlag@physx@@G@2@M@Z 10051970 f   GuSweepSharedTests.obj
 0001:00050e30       ?sweepConvex_PlaneGeom@@YA_NABVPxGeometry@physx@@ABVPxTransform@2@ABVPxConvexMeshGeometry@2@1ABVPxVec3@2@MAAUPxSweepHit@2@V?$PxFlags@W4Enum@PxHitFlag@physx@@G@2@M@Z 10051e30 f   GuSweepSharedTests.obj
 0001:000510b0       ?sweepConvex_CapsuleGeom@@YA_NABVPxGeometry@physx@@ABVPxTransform@2@ABVPxConvexMeshGeometry@2@1ABVPxVec3@2@MAAUPxSweepHit@2@V?$PxFlags@W4Enum@PxHitFlag@physx@@G@2@M@Z 100520b0 f   GuSweepSharedTests.obj
 0001:00051230       ?sweepConvex_BoxGeom@@YA_NABVPxGeometry@physx@@ABVPxTransform@2@ABVPxConvexMeshGeometry@2@1ABVPxVec3@2@MAAUPxSweepHit@2@V?$PxFlags@W4Enum@PxHitFlag@physx@@G@2@M@Z 10052230 f   GuSweepSharedTests.obj
 0001:000513b0       ?sweepConvex_ConvexGeom@@YA_NABVPxGeometry@physx@@ABVPxTransform@2@ABVPxConvexMeshGeometry@2@1ABVPxVec3@2@MAAUPxSweepHit@2@V?$PxFlags@W4Enum@PxHitFlag@physx@@G@2@M@Z 100523b0 f   GuSweepSharedTests.obj
 0001:00051890       ??$PX_UNUSED@T__m128@@@@YAXABT__m128@@@Z 10052890 f i GuSweepSharedTests.obj
 0001:000518a0       ??$gjkPenetration@U?$LocalConvex@VCapsuleV@Gu@physx@@@Gu@physx@@U?$LocalConvex@VConvexHullV@Gu@physx@@@23@@Gu@physx@@YA?AW4GjkStatus@01@ABU?$LocalConvex@VCapsuleV@Gu@physx@@@01@ABU?$LocalConvex@VConvexHullV@Gu@physx@@@01@ABT__m128@@2_NPIAE4AAEAAUGjkOutput@01@@Z 100528a0 f i GuSweepSharedTests.obj
 0001:00052370       ??$gjkPenetration@U?$RelativeConvex@VBoxV@Gu@physx@@@Gu@physx@@U?$LocalConvex@VConvexHullV@Gu@physx@@@23@@Gu@physx@@YA?AW4GjkStatus@01@ABU?$RelativeConvex@VBoxV@Gu@physx@@@01@ABU?$LocalConvex@VConvexHullV@Gu@physx@@@01@ABT__m128@@2_NPIAE4AAEAAUGjkOutput@01@@Z 10053370 f i GuSweepSharedTests.obj
 0001:00052e40       ??$gjkPenetration@U?$RelativeConvex@VConvexHullV@Gu@physx@@@Gu@physx@@U?$LocalConvex@VConvexHullV@Gu@physx@@@23@@Gu@physx@@YA?AW4GjkStatus@01@ABU?$RelativeConvex@VConvexHullV@Gu@physx@@@01@ABU?$LocalConvex@VConvexHullV@Gu@physx@@@01@ABT__m128@@2_NPIAE4AAEAAUGjkOutput@01@@Z 10053e40 f i GuSweepSharedTests.obj
 0001:00053910       ??$gjkRaycast@U?$LocalConvex@VCapsuleV@Gu@physx@@@Gu@physx@@U?$LocalConvex@VConvexHullV@Gu@physx@@@23@@Gu@physx@@YA_NABU?$LocalConvex@VCapsuleV@Gu@physx@@@01@ABU?$LocalConvex@VConvexHullV@Gu@physx@@@01@ABT__m128@@222AAT4@33M@Z 10054910 f i GuSweepSharedTests.obj
 0001:00054510       ??$gjkRaycast@U?$RelativeConvex@VBoxV@Gu@physx@@@Gu@physx@@U?$LocalConvex@VConvexHullV@Gu@physx@@@23@@Gu@physx@@YA_NABU?$RelativeConvex@VBoxV@Gu@physx@@@01@ABU?$LocalConvex@VConvexHullV@Gu@physx@@@01@ABT__m128@@222AAT4@33M@Z 10055510 f i GuSweepSharedTests.obj
 0001:00055110       ??$gjkRaycast@U?$RelativeConvex@VConvexHullV@Gu@physx@@@Gu@physx@@U?$LocalConvex@VConvexHullV@Gu@physx@@@23@@Gu@physx@@YA_NABU?$RelativeConvex@VConvexHullV@Gu@physx@@@01@ABU?$LocalConvex@VConvexHullV@Gu@physx@@@01@ABT__m128@@222AAT4@33M@Z 10056110 f i GuSweepSharedTests.obj
 0001:00055d10       ??$gjkRaycastPenetration@U?$LocalConvex@VCapsuleV@Gu@physx@@@Gu@physx@@U?$LocalConvex@VConvexHullV@Gu@physx@@@23@@Gu@physx@@YA_NABU?$LocalConvex@VCapsuleV@Gu@physx@@@01@ABU?$LocalConvex@VConvexHullV@Gu@physx@@@01@ABT__m128@@222AAT4@33M_N@Z 10056d10 f i GuSweepSharedTests.obj
 0001:00055fc0       ??$gjkRaycastPenetration@U?$RelativeConvex@VBoxV@Gu@physx@@@Gu@physx@@U?$LocalConvex@VConvexHullV@Gu@physx@@@23@@Gu@physx@@YA_NABU?$RelativeConvex@VBoxV@Gu@physx@@@01@ABU?$LocalConvex@VConvexHullV@Gu@physx@@@01@ABT__m128@@222AAT4@33M_N@Z 10056fc0 f i GuSweepSharedTests.obj
 0001:00056280       ??$gjkRaycastPenetration@U?$RelativeConvex@VConvexHullV@Gu@physx@@@Gu@physx@@U?$LocalConvex@VConvexHullV@Gu@physx@@@23@@Gu@physx@@YA_NABU?$RelativeConvex@VConvexHullV@Gu@physx@@@01@ABU?$LocalConvex@VConvexHullV@Gu@physx@@@01@ABT__m128@@222AAT4@33M_N@Z 10057280 f i GuSweepSharedTests.obj
 0001:00056540       ??0BoxPadded@Gu@physx@@QAE@XZ 10057540 f i GuSweepSharedTests.obj
 0001:00056560       ??0GjkOutput@Gu@physx@@QAE@XZ 10057560 f i GuSweepSharedTests.obj
 0001:000565d0       ??0PxPlane@physx@@QAE@XZ   100575d0 f i GuSweepSharedTests.obj
 0001:000565f0       ??1BoxPadded@Gu@physx@@QAE@XZ 100575f0 f i GuSweepSharedTests.obj
 0001:00056610       ??S?$PxFlags@W4Enum@PxHitFlag@physx@@G@physx@@QBE?AV01@XZ 10057610 f i GuSweepSharedTests.obj
 0001:00056650       ??Sphysx@@YA?AV?$PxFlags@W4Enum@PxHitFlag@physx@@G@0@W4Enum@PxHitFlag@0@@Z 10057650 f i GuSweepSharedTests.obj
 0001:00056680       ??_4?$PxFlags@W4Enum@PxHitFlag@physx@@G@physx@@QAEAAV01@ABV01@@Z 10057680 f i GuSweepSharedTests.obj
 0001:000566b0       ?BAllEqFFFF@aos@shdfnd@physx@@YAIT__m128@@@Z 100576b0 f i GuSweepSharedTests.obj
 0001:00056700       ?GJKCPairDoSimplex@Gu@physx@@YA?AT__m128@@PIAT3@00PIAH1ABT3@AAI@Z 10057700 f i GuSweepSharedTests.obj
 0001:00056810       ?QuatRotateInv@aos@shdfnd@physx@@YA?AT__m128@@T4@0@Z 10057810 f i GuSweepSharedTests.obj
 0001:00056990       ?V3NormalizeSafe@aos@shdfnd@physx@@YA?AT__m128@@T4@0@Z 10057990 f i GuSweepSharedTests.obj
 0001:00056a80       ?assignWarmStartValue@Gu@physx@@YAXPIAE0AAEPIAH2I@Z 10057a80 f i GuSweepSharedTests.obj
 0001:00056b30       ?closestPtPointTriangle@Gu@physx@@YA?AT__m128@@PIAT3@PAT3@1PIAH2AAI@Z 10057b30 f i GuSweepSharedTests.obj
 0001:00056e90       ?getGjkConvex@?$LocalConvex@VCapsuleV@Gu@physx@@@Gu@physx@@QBE?AU123@XZ 10057e90 f i GuSweepSharedTests.obj
 0001:00056eb0       ?getGjkConvex@?$LocalConvex@VConvexHullV@Gu@physx@@@Gu@physx@@QBE?AU123@XZ 10057eb0 f i GuSweepSharedTests.obj
 0001:00056ed0       ?getGjkConvex@?$RelativeConvex@VBoxV@Gu@physx@@@Gu@physx@@QBE?AU123@XZ 10057ed0 f i GuSweepSharedTests.obj
 0001:00056f00       ?getGjkConvex@?$RelativeConvex@VConvexHullV@Gu@physx@@@Gu@physx@@QBE?AU123@XZ 10057f00 f i GuSweepSharedTests.obj
 0001:00056f30       ?getSweepContactEps@Gu@physx@@YA?AT__m128@@ABT3@0@Z 10057f30 f i GuSweepSharedTests.obj
 0001:00056fb0       ?loadTransformU@aos@shdfnd@physx@@YA?AVPsTransformV@123@ABVPxTransform@3@@Z 10057fb0 f i GuSweepSharedTests.obj
 0001:00057020       ?rotateInv@PsTransformV@aos@shdfnd@physx@@QBE?AT__m128@@ABT5@@Z 10058020 f i GuSweepSharedTests.obj
 0001:000570b0       ?to8@shdfnd@physx@@YAEH@Z  100580b0 f i GuSweepSharedTests.obj
 0001:00057130       ?to8@shdfnd@physx@@YAEI@Z  10058130 f i GuSweepSharedTests.obj
 0001:00057180       ?transformPlaneToShapeSpace@FastVertex2ShapeScaling@Cm@physx@@QBEXABVPxVec3@3@MAAV43@AAM@Z 10058180 f i GuSweepSharedTests.obj
 0001:000571f0       ?getSweepFuncTable@Gu@physx@@YAABUGeomSweepFuncs@12@XZ 100581f0 f   GuSweepTests.obj
 0001:00057200       ?sweepBoxTriangles@Gu@physx@@YA_NIPBVPxTriangle@2@_NABVPxBoxGeometry@2@ABVPxTransform@2@ABVPxVec3@2@MAAUPxSweepHit@2@PBIMV?$PxFlags@W4Enum@PxHitFlag@physx@@G@2@@Z 10058200 f   GuSweepTests.obj
 0001:00057c80       ?sweepCapsule_BoxGeom@@YA_NABVPxGeometry@physx@@ABVPxTransform@2@ABVPxCapsuleGeometry@2@1ABVCapsule@Gu@2@ABVPxVec3@2@MAAUPxSweepHit@2@V?$PxFlags@W4Enum@PxHitFlag@physx@@G@2@M@Z 10058c80 f   GuSweepTests.obj
 0001:00058210       ?sweepBox_SphereGeom@@YA_NABVPxGeometry@physx@@ABVPxTransform@2@ABVPxBoxGeometry@2@1ABVBox@Gu@2@ABVPxVec3@2@MAAUPxSweepHit@2@V?$PxFlags@W4Enum@PxHitFlag@physx@@G@2@M@Z 10059210 f   GuSweepTests.obj
 0001:000586f0       ?sweepBox_CapsuleGeom@@YA_NABVPxGeometry@physx@@ABVPxTransform@2@ABVPxBoxGeometry@2@1ABVBox@Gu@2@ABVPxVec3@2@MAAUPxSweepHit@2@V?$PxFlags@W4Enum@PxHitFlag@physx@@G@2@M@Z 100596f0 f   GuSweepTests.obj
 0001:00058c60       ?sweepBox_BoxGeom@@YA_NABVPxGeometry@physx@@ABVPxTransform@2@ABVPxBoxGeometry@2@1ABVBox@Gu@2@ABVPxVec3@2@MAAUPxSweepHit@2@V?$PxFlags@W4Enum@PxHitFlag@physx@@G@2@M@Z 10059c60 f   GuSweepTests.obj
 0001:000592f0       ?registerHeightFields_Sweeps@@YAXXZ 1005a2f0 f   GuSweepTests.obj
 0001:00059350       ??$PX_UNUSED@UPxSweepHit@physx@@@@YAXABUPxSweepHit@physx@@@Z 1005a350 f i GuSweepTests.obj
 0001:00059360       ??$PX_UNUSED@VBox@Gu@physx@@@@YAXABVBox@Gu@physx@@@Z 1005a360 f i GuSweepTests.obj
 0001:00059370       ??$PX_UNUSED@VCapsule@Gu@physx@@@@YAXABVCapsule@Gu@physx@@@Z 1005a370 f i GuSweepTests.obj
 0001:00059380       ??$PX_UNUSED@VPxConvexMeshGeometry@physx@@@@YAXABVPxConvexMeshGeometry@physx@@@Z 1005a380 f i GuSweepTests.obj
 0001:00059390       ??$getConvex@VTriangleV@Gu@physx@@@GjkConvexBase@Gu@physx@@QBEABVTriangleV@12@XZ 1005a390 f i GuSweepTests.obj
 0001:000593b0       ??$gjkPenetration@U?$LocalConvex@VCapsuleV@Gu@physx@@@Gu@physx@@U?$LocalConvex@VBoxV@Gu@physx@@@23@@Gu@physx@@YA?AW4GjkStatus@01@ABU?$LocalConvex@VCapsuleV@Gu@physx@@@01@ABU?$LocalConvex@VBoxV@Gu@physx@@@01@ABT__m128@@2_NPIAE4AAEAAUGjkOutput@01@@Z 1005a3b0 f i GuSweepTests.obj
 0001:00059e80       ??$gjkPenetration@U?$LocalConvex@VTriangleV@Gu@physx@@@Gu@physx@@U?$LocalConvex@VBoxV@Gu@physx@@@23@@Gu@physx@@YA?AW4GjkStatus@01@ABU?$LocalConvex@VTriangleV@Gu@physx@@@01@ABU?$LocalConvex@VBoxV@Gu@physx@@@01@ABT__m128@@2_NPIAE4AAEAAUGjkOutput@01@@Z 1005ae80 f i GuSweepTests.obj
 0001:0005a950       ??$gjkPenetration@U?$RelativeConvex@VBoxV@Gu@physx@@@Gu@physx@@U?$LocalConvex@VBoxV@Gu@physx@@@23@@Gu@physx@@YA?AW4GjkStatus@01@ABU?$RelativeConvex@VBoxV@Gu@physx@@@01@ABU?$LocalConvex@VBoxV@Gu@physx@@@01@ABT__m128@@2_NPIAE4AAEAAUGjkOutput@01@@Z 1005b950 f i GuSweepTests.obj
 0001:0005b420       ??$gjkRaycast@U?$LocalConvex@VCapsuleV@Gu@physx@@@Gu@physx@@U?$LocalConvex@VBoxV@Gu@physx@@@23@@Gu@physx@@YA_NABU?$LocalConvex@VCapsuleV@Gu@physx@@@01@ABU?$LocalConvex@VBoxV@Gu@physx@@@01@ABT__m128@@222AAT4@33M@Z 1005c420 f i GuSweepTests.obj
 0001:0005c020       ??$gjkRaycast@U?$LocalConvex@VTriangleV@Gu@physx@@@Gu@physx@@U?$LocalConvex@VBoxV@Gu@physx@@@23@@Gu@physx@@YA_NABU?$LocalConvex@VTriangleV@Gu@physx@@@01@ABU?$LocalConvex@VBoxV@Gu@physx@@@01@ABT__m128@@222AAT4@33M@Z 1005d020 f i GuSweepTests.obj
 0001:0005cc20       ??$gjkRaycast@U?$RelativeConvex@VBoxV@Gu@physx@@@Gu@physx@@U?$LocalConvex@VBoxV@Gu@physx@@@23@@Gu@physx@@YA_NABU?$RelativeConvex@VBoxV@Gu@physx@@@01@ABU?$LocalConvex@VBoxV@Gu@physx@@@01@ABT__m128@@222AAT4@33M@Z 1005dc20 f i GuSweepTests.obj
 0001:0005d820       ??$gjkRaycastPenetration@U?$LocalConvex@VCapsuleV@Gu@physx@@@Gu@physx@@U?$LocalConvex@VBoxV@Gu@physx@@@23@@Gu@physx@@YA_NABU?$LocalConvex@VCapsuleV@Gu@physx@@@01@ABU?$LocalConvex@VBoxV@Gu@physx@@@01@ABT__m128@@222AAT4@33M_N@Z 1005e820 f i GuSweepTests.obj
 0001:0005dad0       ??$gjkRaycastPenetration@U?$LocalConvex@VTriangleV@Gu@physx@@@Gu@physx@@U?$LocalConvex@VBoxV@Gu@physx@@@23@@Gu@physx@@YA_NABU?$LocalConvex@VTriangleV@Gu@physx@@@01@ABU?$LocalConvex@VBoxV@Gu@physx@@@01@ABT__m128@@222AAT4@33M_N@Z 1005ead0 f i GuSweepTests.obj
 0001:0005dd80       ??$gjkRaycastPenetration@U?$RelativeConvex@VBoxV@Gu@physx@@@Gu@physx@@U?$LocalConvex@VBoxV@Gu@physx@@@23@@Gu@physx@@YA_NABU?$RelativeConvex@VBoxV@Gu@physx@@@01@ABU?$LocalConvex@VBoxV@Gu@physx@@@01@ABT__m128@@222AAT4@33M_N@Z 1005ed80 f i GuSweepTests.obj
 0001:0005e040       ??0?$LocalConvex@VBoxV@Gu@physx@@@Gu@physx@@QAE@ABVBoxV@12@@Z 1005f040 f i GuSweepTests.obj
 0001:0005e070       ??0?$LocalConvex@VTriangleV@Gu@physx@@@Gu@physx@@QAE@ABVTriangleV@12@@Z 1005f070 f i GuSweepTests.obj
 0001:0005e0a0       ??0TriangleV@Gu@physx@@QAE@ABT__m128@@00@Z 1005f0a0 f i GuSweepTests.obj
 0001:0005e1b0       ??1?$LocalConvex@VBoxV@Gu@physx@@@Gu@physx@@UAE@XZ 1005f1b0 f i GuSweepTests.obj
 0001:0005e1d0       ??1?$LocalConvex@VTriangleV@Gu@physx@@@Gu@physx@@UAE@XZ 1005f1d0 f i GuSweepTests.obj
 0001:0005e1f0       ??_E?$LocalConvex@VBoxV@Gu@physx@@@Gu@physx@@UAEPAXI@Z 1005f1f0 f i GuSweepTests.obj
 0001:0005e1f0       ??_G?$LocalConvex@VBoxV@Gu@physx@@@Gu@physx@@UAEPAXI@Z 1005f1f0 f i GuSweepTests.obj
 0001:0005e220       ??_E?$LocalConvex@VTriangleV@Gu@physx@@@Gu@physx@@UAEPAXI@Z 1005f220 f i GuSweepTests.obj
 0001:0005e220       ??_G?$LocalConvex@VTriangleV@Gu@physx@@@Gu@physx@@UAEPAXI@Z 1005f220 f i GuSweepTests.obj
 0001:0005e250       ?V3Merge@aos@shdfnd@physx@@YA?AT__m128@@ABT4@00@Z 1005f250 f i GuSweepTests.obj
 0001:0005e3a0       ?VecI32V_Sel@aos@shdfnd@physx@@YA?AT__m128@@T4@ABT4@1@Z 1005f3a0 f i GuSweepTests.obj
 0001:0005e460       ?VecI32V_Two@aos@shdfnd@physx@@YA?AT__m128@@XZ 1005f460 f i GuSweepTests.obj
 0001:0005e4a0       ?VecI32V_Zero@aos@shdfnd@physx@@YA?AT__m128@@XZ 1005f4a0 f i GuSweepTests.obj
 0001:0005e4d0       ?getCenter@?$LocalConvex@VBoxV@Gu@physx@@@Gu@physx@@UBE?AT__m128@@XZ 1005f4d0 f i GuSweepTests.obj
 0001:0005e500       ?getCenter@?$LocalConvex@VTriangleV@Gu@physx@@@Gu@physx@@UBE?AT__m128@@XZ 1005f500 f i GuSweepTests.obj
 0001:0005e530       ?getGjkConvex@?$LocalConvex@VBoxV@Gu@physx@@@Gu@physx@@QBE?AU123@XZ 1005f530 f i GuSweepTests.obj
 0001:0005e550       ?getGjkConvex@?$LocalConvex@VTriangleV@Gu@physx@@@Gu@physx@@QBE?AU123@XZ 1005f550 f i GuSweepTests.obj
 0001:0005e570       ?getSweepMargin@?$LocalConvex@VBoxV@Gu@physx@@@Gu@physx@@UBE?AT__m128@@XZ 1005f570 f i GuSweepTests.obj
 0001:0005e5a0       ?getSweepMargin@?$LocalConvex@VTriangleV@Gu@physx@@@Gu@physx@@UBE?AT__m128@@XZ 1005f5a0 f i GuSweepTests.obj
 0001:0005e5d0       ?getSweepMargin@TriangleV@Gu@physx@@QBE?AT__m128@@XZ 1005f5d0 f i GuSweepTests.obj
 0001:0005e610       ?support@?$LocalConvex@VBoxV@Gu@physx@@@Gu@physx@@UBE?AT__m128@@ABT4@@Z 1005f610 f i GuSweepTests.obj
 0001:0005e640       ?support@?$LocalConvex@VBoxV@Gu@physx@@@Gu@physx@@UBE?AT__m128@@ABT4@AAH@Z 1005f640 f i GuSweepTests.obj
 0001:0005e670       ?support@?$LocalConvex@VTriangleV@Gu@physx@@@Gu@physx@@UBE?AT__m128@@ABT4@@Z 1005f670 f i GuSweepTests.obj
 0001:0005e6a0       ?support@?$LocalConvex@VTriangleV@Gu@physx@@@Gu@physx@@UBE?AT__m128@@ABT4@AAH@Z 1005f6a0 f i GuSweepTests.obj
 0001:0005e6d0       ?supportLocal@TriangleV@Gu@physx@@QBE?AT__m128@@ABT4@@Z 1005f6d0 f i GuSweepTests.obj
 0001:0005e850       ?supportLocal@TriangleV@Gu@physx@@QBE?AT__m128@@ABT4@AAH@Z 1005f850 f i GuSweepTests.obj
 0001:0005ea80       ?supportPoint@?$LocalConvex@VBoxV@Gu@physx@@@Gu@physx@@UBE?AT__m128@@H@Z 1005fa80 f i GuSweepTests.obj
 0001:0005eab0       ?supportPoint@?$LocalConvex@VTriangleV@Gu@physx@@@Gu@physx@@UBE?AT__m128@@H@Z 1005fab0 f i GuSweepTests.obj
 0001:0005eae0       ?supportPoint@TriangleV@Gu@physx@@QBE?AT__m128@@H@Z 1005fae0 f i GuSweepTests.obj
 0001:0005eb10       ?subdivide@AABBTreeBuildNode@Gu@physx@@QAEXABVAABBTreeBuildParams@23@AAUBuildStats@23@AAVNodeAllocator@23@QAI@Z 1005fb10 f   GuAABBTreeBuild.obj
 0001:0005f160       ?_buildHierarchy@AABBTreeBuildNode@Gu@physx@@QAEXAAVAABBTreeBuildParams@23@AAUBuildStats@23@AAVNodeAllocator@23@QAI@Z 10060160 f   GuAABBTreeBuild.obj
 0001:0005f230       ??0NodeAllocator@Gu@physx@@QAE@XZ 10060230 f   GuAABBTreeBuild.obj
 0001:0005f280       ??1NodeAllocator@Gu@physx@@QAE@XZ 10060280 f   GuAABBTreeBuild.obj
 0001:0005f2a0       ?release@NodeAllocator@Gu@physx@@QAEXXZ 100602a0 f   GuAABBTreeBuild.obj
 0001:0005f340       ?init@NodeAllocator@Gu@physx@@QAEXII@Z 10060340 f   GuAABBTreeBuild.obj
 0001:0005f470       ?getBiNode@NodeAllocator@Gu@physx@@QAEPAVAABBTreeBuildNode@23@XZ 10060470 f   GuAABBTreeBuild.obj
 0001:0005f590       ?initAABBTreeBuild@Gu@physx@@YA_NAAVAABBTreeBuildParams@12@AAVNodeAllocator@12@AAUBuildStats@12@AAPAI@Z 10060590 f   GuAABBTreeBuild.obj
 0001:0005f780       ?buildAABBTree@Gu@physx@@YA_NAAVAABBTreeBuildParams@12@AAVNodeAllocator@12@AAUBuildStats@12@AAPAI@Z 10060780 f   GuAABBTreeBuild.obj
 0001:0005f900       ??$?4VNamedAllocator@shdfnd@physx@@@?$Array@USlab@NodeAllocator@Gu@physx@@VNamedAllocator@shdfnd@4@@shdfnd@physx@@QAEAAV012@ABV012@@Z 10060900 f i GuAABBTreeBuild.obj
 0001:0005f970       ??$?_UV?$ReflectionAllocator@VAABBTreeBuildNode@Gu@physx@@@shdfnd@physx@@@UserAllocated@shdfnd@physx@@SAPAXIV?$ReflectionAllocator@VAABBTreeBuildNode@Gu@physx@@@12@PBDH@Z 10060970 f i GuAABBTreeBuild.obj
 0001:0005f990       ??$copy@VNamedAllocator@shdfnd@physx@@@?$Array@USlab@NodeAllocator@Gu@physx@@VNamedAllocator@shdfnd@4@@shdfnd@physx@@IAEXABV012@@Z 10060990 f i GuAABBTreeBuild.obj
 0001:0005fa20       ??0?$Array@USlab@NodeAllocator@Gu@physx@@VNamedAllocator@shdfnd@4@@shdfnd@physx@@QAE@ABV012@ABVNamedAllocator@12@@Z 10060a20 f i GuAABBTreeBuild.obj
 0001:0005fa50       ??0?$Array@USlab@NodeAllocator@Gu@physx@@VNamedAllocator@shdfnd@4@@shdfnd@physx@@QAE@ABVNamedAllocator@12@@Z 10060a50 f i GuAABBTreeBuild.obj
 0001:0005fa90       ??0?$ReflectionAllocator@VAABBTreeBuildNode@Gu@physx@@@shdfnd@physx@@QAE@PBD@Z 10060a90 f i GuAABBTreeBuild.obj
 0001:0005faa0       ??0AABBTreeBuildNode@Gu@physx@@QAE@ABV012@@Z 10060aa0 f i GuAABBTreeBuild.obj
 0001:0005fae0       ??0AABBTreeBuildNode@Gu@physx@@QAE@XZ 10060ae0 f i GuAABBTreeBuild.obj
 0001:0005fb00       ??0AABBTreeBuildParams@Gu@physx@@QAE@IIPBVPxBounds3@2@@Z 10060b00 f i GuAABBTreeBuild.obj
 0001:0005fb40       ??0BuildStats@Gu@physx@@QAE@XZ 10060b40 f i GuAABBTreeBuild.obj
 0001:0005fb70       ??0NodeAllocator@Gu@physx@@QAE@ABV012@@Z 10060b70 f i GuAABBTreeBuild.obj
 0001:0005fbd0       ??0PxBounds3@physx@@QAE@ABV01@@Z 10060bd0 f i GuAABBTreeBuild.obj
 0001:0005fc00       ??0Slab@NodeAllocator@Gu@physx@@QAE@PAVAABBTreeBuildNode@23@II@Z 10060c00 f i GuAABBTreeBuild.obj
 0001:0005fc30       ??0Slab@NodeAllocator@Gu@physx@@QAE@XZ 10060c30 f i GuAABBTreeBuild.obj
 0001:0005fc40       ??1?$Array@USlab@NodeAllocator@Gu@physx@@VNamedAllocator@shdfnd@4@@shdfnd@physx@@QAE@XZ 10060c40 f i GuAABBTreeBuild.obj
 0001:0005fca0       ??1AABBTreeBuildNode@Gu@physx@@QAE@XZ 10060ca0 f i GuAABBTreeBuild.obj
 0001:0005fcb0       ??1AABBTreeBuildParams@Gu@physx@@QAE@XZ 10060cb0 f i GuAABBTreeBuild.obj
 0001:0005fcd0       ??4?$Array@USlab@NodeAllocator@Gu@physx@@VNamedAllocator@shdfnd@4@@shdfnd@physx@@QAEAAV012@ABV012@@Z 10060cd0 f i GuAABBTreeBuild.obj
 0001:0005fcf0       ??4AABBTreeBuildNode@Gu@physx@@QAEAAV012@ABV012@@Z 10060cf0 f i GuAABBTreeBuild.obj
 0001:0005fd30       ??4AABBTreeBuildParams@Gu@physx@@QAEAAV012@ABV012@@Z 10060d30 f i GuAABBTreeBuild.obj
 0001:0005fd60       ??4BuildStats@Gu@physx@@QAEAAU012@$$QAU012@@Z 10060d60 f i GuAABBTreeBuild.obj
 0001:0005fd90       ??4BuildStats@Gu@physx@@QAEAAU012@ABU012@@Z 10060d90 f i GuAABBTreeBuild.obj
 0001:0005fdb0       ??4NodeAllocator@Gu@physx@@QAEAAV012@ABV012@@Z 10060db0 f i GuAABBTreeBuild.obj
 0001:0005fe00       ??4PxBounds3@physx@@QAEAAV01@ABV01@@Z 10060e00 f i GuAABBTreeBuild.obj
 0001:0005fe30       ??A?$Array@USlab@NodeAllocator@Gu@physx@@VNamedAllocator@shdfnd@4@@shdfnd@physx@@QAEAAUSlab@NodeAllocator@Gu@2@I@Z 10060e30 f i GuAABBTreeBuild.obj
 0001:0005fe90       ??_EAABBTreeBuildNode@Gu@physx@@QAEPAXI@Z 10060e90 f i GuAABBTreeBuild.obj
 0001:0005ff40       ??_FAABBTreeBuildParams@Gu@physx@@QAEXXZ 10060f40 f i GuAABBTreeBuild.obj
 0001:0005ff60       ?allocate@?$Array@USlab@NodeAllocator@Gu@physx@@VNamedAllocator@shdfnd@4@@shdfnd@physx@@IAEPAUSlab@NodeAllocator@Gu@3@I@Z 10060f60 f i GuAABBTreeBuild.obj
 0001:0005ffd0       ?allocate@?$ReflectionAllocator@VAABBTreeBuildNode@Gu@physx@@@shdfnd@physx@@QAEPAXIPBDH@Z 10060fd0 f i GuAABBTreeBuild.obj
 0001:00060020       ?begin@?$Array@USlab@NodeAllocator@Gu@physx@@VNamedAllocator@shdfnd@4@@shdfnd@physx@@QBEPBUSlab@NodeAllocator@Gu@3@XZ 10061020 f i GuAABBTreeBuild.obj
 0001:00060030       ?capacity@?$Array@USlab@NodeAllocator@Gu@physx@@VNamedAllocator@shdfnd@4@@shdfnd@physx@@QBEIXZ 10061030 f i GuAABBTreeBuild.obj
 0001:00060050       ?capacityIncrement@?$Array@USlab@NodeAllocator@Gu@physx@@VNamedAllocator@shdfnd@4@@shdfnd@physx@@IBEIXZ 10061050 f i GuAABBTreeBuild.obj
 0001:00060090       ?clear@?$Array@USlab@NodeAllocator@Gu@physx@@VNamedAllocator@shdfnd@4@@shdfnd@physx@@QAEXXZ 10061090 f i GuAABBTreeBuild.obj
 0001:000600c0       ?copy@?$Array@USlab@NodeAllocator@Gu@physx@@VNamedAllocator@shdfnd@4@@shdfnd@physx@@KAXPAUSlab@NodeAllocator@Gu@3@0PBU4563@@Z 100610c0 f i GuAABBTreeBuild.obj
 0001:00060120       ?create@?$Array@USlab@NodeAllocator@Gu@physx@@VNamedAllocator@shdfnd@4@@shdfnd@physx@@KAXPAUSlab@NodeAllocator@Gu@3@0ABU4563@@Z 10061120 f i GuAABBTreeBuild.obj
 0001:00060170       ?deallocate@?$Array@USlab@NodeAllocator@Gu@physx@@VNamedAllocator@shdfnd@4@@shdfnd@physx@@IAEXPAX@Z 10061170 f i GuAABBTreeBuild.obj
 0001:00060190       ?destroy@?$Array@USlab@NodeAllocator@Gu@physx@@VNamedAllocator@shdfnd@4@@shdfnd@physx@@KAXPAUSlab@NodeAllocator@Gu@3@0@Z 10061190 f i GuAABBTreeBuild.obj
 0001:000601b0       ?empty@?$Array@USlab@NodeAllocator@Gu@physx@@VNamedAllocator@shdfnd@4@@shdfnd@physx@@QBE_NXZ 100611b0 f i GuAABBTreeBuild.obj
 0001:000601e0       ?getAABB@AABBTreeBuildNode@Gu@physx@@QBEABVPxBounds3@3@XZ 100611e0 f i GuAABBTreeBuild.obj
 0001:000601f0       ?getCenter@PxBounds3@physx@@QBEMI@Z 100611f0 f i GuAABBTreeBuild.obj
 0001:00060260       ?getCount@BuildStats@Gu@physx@@QBEIXZ 10061260 f i GuAABBTreeBuild.obj
 0001:00060270       ?getName@?$ReflectionAllocator@VAABBTreeBuildNode@Gu@physx@@@shdfnd@physx@@CAPBDXZ 10061270 f i GuAABBTreeBuild.obj
 0001:000602b0       ?getNbPrimitives@AABBTreeBuildNode@Gu@physx@@QBEIXZ 100612b0 f i GuAABBTreeBuild.obj
 0001:000602d0       ?getNbRuntimePrimitives@AABBTreeBuildNode@Gu@physx@@QBEIXZ 100612d0 f i GuAABBTreeBuild.obj
 0001:000602f0       ?getNeg@AABBTreeBuildNode@Gu@physx@@QBEPBV123@XZ 100612f0 f i GuAABBTreeBuild.obj
 0001:00060330       ?getPos@AABBTreeBuildNode@Gu@physx@@QBEPBV123@XZ 10061330 f i GuAABBTreeBuild.obj
 0001:00060350       ?getPrimitives@AABBTreeBuildNode@Gu@physx@@QAEPAIPAI@Z 10061350 f i GuAABBTreeBuild.obj
 0001:00060370       ?getPrimitives@AABBTreeBuildNode@Gu@physx@@QBEPBIPBI@Z 10061370 f i GuAABBTreeBuild.obj
 0001:00060390       ?grow@?$Array@USlab@NodeAllocator@Gu@physx@@VNamedAllocator@shdfnd@4@@shdfnd@physx@@IAEXI@Z 10061390 f i GuAABBTreeBuild.obj
 0001:000603f0       ?growAndPushBack@?$Array@USlab@NodeAllocator@Gu@physx@@VNamedAllocator@shdfnd@4@@shdfnd@physx@@IAEAAUSlab@NodeAllocator@Gu@3@ABU4563@@Z 100613f0 f i GuAABBTreeBuild.obj
 0001:00060520       ?increaseCount@BuildStats@Gu@physx@@QAEXI@Z 10061520 f i GuAABBTreeBuild.obj
 0001:00060540       ?isInUserMemory@?$Array@USlab@NodeAllocator@Gu@physx@@VNamedAllocator@shdfnd@4@@shdfnd@physx@@QBEIXZ 10061540 f i GuAABBTreeBuild.obj
 0001:00060560       ?isLeaf@AABBTreeBuildNode@Gu@physx@@QBE_NXZ 10061560 f i GuAABBTreeBuild.obj
 0001:00060590       ?largestAxis@shdfnd@physx@@YAIABVPxVec3@2@@Z 10061590 f i GuAABBTreeBuild.obj
 0001:000605f0       ?pushBack@?$Array@USlab@NodeAllocator@Gu@physx@@VNamedAllocator@shdfnd@4@@shdfnd@physx@@QAEAAUSlab@NodeAllocator@Gu@3@ABU4563@@Z 100615f0 f i GuAABBTreeBuild.obj
 0001:00060670       ?recreate@?$Array@USlab@NodeAllocator@Gu@physx@@VNamedAllocator@shdfnd@4@@shdfnd@physx@@IAEXI@Z 10061670 f i GuAABBTreeBuild.obj
 0001:00060740       ?reserve@?$Array@USlab@NodeAllocator@Gu@physx@@VNamedAllocator@shdfnd@4@@shdfnd@physx@@QAEXI@Z 10061740 f i GuAABBTreeBuild.obj
 0001:00060770       ?reset@?$Array@USlab@NodeAllocator@Gu@physx@@VNamedAllocator@shdfnd@4@@shdfnd@physx@@QAEXXZ 10061770 f i GuAABBTreeBuild.obj
 0001:000607a0       ?reset@AABBTreeBuildParams@Gu@physx@@QAEXXZ 100617a0 f i GuAABBTreeBuild.obj
 0001:000607f0       ?reset@BuildStats@Gu@physx@@QAEXXZ 100617f0 f i GuAABBTreeBuild.obj
 0001:00060810       ?resize@?$Array@USlab@NodeAllocator@Gu@physx@@VNamedAllocator@shdfnd@4@@shdfnd@physx@@QAEXIABUSlab@NodeAllocator@Gu@3@@Z 10061810 f i GuAABBTreeBuild.obj
 0001:00060880       ?setCount@BuildStats@Gu@physx@@QAEXI@Z 10061880 f i GuAABBTreeBuild.obj
 0001:000608a0       ?setNbRunTimePrimitives@AABBTreeBuildNode@Gu@physx@@QAEXI@Z 100618a0 f i GuAABBTreeBuild.obj
 0001:000608c0       ?shrink@?$Array@USlab@NodeAllocator@Gu@physx@@VNamedAllocator@shdfnd@4@@shdfnd@physx@@QAEXXZ 100618c0 f i GuAABBTreeBuild.obj
 0001:000608e0       ?size@?$Array@USlab@NodeAllocator@Gu@physx@@VNamedAllocator@shdfnd@4@@shdfnd@physx@@QBEIXZ 100618e0 f i GuAABBTreeBuild.obj
 0001:00060900       ??0BVHStructure@Gu@physx@@QAE@PAVGuMeshFactory@2@@Z 10061900 f   GuBVHStructure.obj
 0001:00060990       ??0BVHStructure@Gu@physx@@QAE@PAVGuMeshFactory@2@AAUBVHStructureData@12@@Z 10061990 f   GuBVHStructure.obj
 0001:00060a30       ??1BVHStructure@Gu@physx@@UAE@XZ 10061a30 f   GuBVHStructure.obj
 0001:00060a70       ?load@BVHStructure@Gu@physx@@QAE_NAAVPxInputStream@3@@Z 10061a70 f   GuBVHStructure.obj
 0001:00060c20       ?release@BVHStructure@Gu@physx@@UAEXXZ 10061c20 f   GuBVHStructure.obj
 0001:00060c40       ?raycast@BVHStructure@Gu@physx@@UBEIABVPxVec3@3@0MIPIAI@Z 10061c40 f   GuBVHStructure.obj
 0001:00060cc0       ?sweep@BVHStructure@Gu@physx@@UBEIABVPxBounds3@3@ABVPxVec3@3@MIPIAI@Z 10061cc0 f   GuBVHStructure.obj
 0001:00060d50       ?overlap@BVHStructure@Gu@physx@@UBEIABVPxBounds3@3@IPIAI@Z 10061d50 f   GuBVHStructure.obj
 0001:00060de0       ?onRefCountZero@BVHStructure@Gu@physx@@UAEXXZ 10061de0 f   GuBVHStructure.obj
 0001:00060f00       ?createVolumes@BVHStructure@Gu@physx@@ABEXXZ 10061f00 f   GuBVHStructure.obj
 0001:00061280       ??$check@$00@RayAABBTest@Gu@physx@@QBEIT__m128@@0@Z 10062280 f i GuBVHStructure.obj
 0001:00061500       ??$check@$0A@@RayAABBTest@Gu@physx@@QBEIT__m128@@0@Z 10062500 f i GuBVHStructure.obj
 0001:00061780       ??$deletePxBase@VBVHStructure@Gu@physx@@@Cm@physx@@YAXPAVBVHStructure@Gu@1@@Z 10062780 f i GuBVHStructure.obj
 0001:000617f0       ??0?$Array@PBUBVHNode@Gu@physx@@V?$InlineAllocator@$0EAA@VNamedAllocator@shdfnd@physx@@@shdfnd@3@@shdfnd@physx@@QAE@ABV?$InlineAllocator@$0EAA@VNamedAllocator@shdfnd@physx@@@12@@Z 100627f0 f i GuBVHStructure.obj
 0001:00061840       ??0?$InlineAllocator@$0EAA@VNamedAllocator@shdfnd@physx@@@shdfnd@physx@@QAE@ABV012@@Z 10062840 f i GuBVHStructure.obj
 0001:00061870       ??0?$InlineAllocator@$0EAA@VNamedAllocator@shdfnd@physx@@@shdfnd@physx@@QAE@ABVNamedAllocator@12@@Z 10062870 f i GuBVHStructure.obj
 0001:000618a0       ??0?$InlineArray@PBUBVHNode@Gu@physx@@$0BAA@VNamedAllocator@shdfnd@3@@shdfnd@physx@@QAE@ABVNamedAllocator@12@@Z 100628a0 f i GuBVHStructure.obj
 0001:00061910       ??0?$PxFlags@W4Enum@PxBaseFlag@physx@@G@physx@@QAE@W4Enum@PxBaseFlag@1@@Z 10062910 f i GuBVHStructure.obj
 0001:00061930       ??0AABBAABBTest@Gu@physx@@QAE@ABVPxBounds3@2@@Z 10062930 f i GuBVHStructure.obj
 0001:000619a0       ??0BVHCallback@Gu@physx@@QAE@PAII@Z 100629a0 f i GuBVHStructure.obj
 0001:000619d0       ??0BVHTree@Gu@physx@@QAE@PBUBVHNode@12@PBI@Z 100629d0 f i GuBVHStructure.obj
 0001:00061a00       ??0PxBVHStructure@physx@@IAE@GV?$PxFlags@W4Enum@PxBaseFlag@physx@@G@1@@Z 10062a00 f i GuBVHStructure.obj
 0001:00061a40       ??0PxBase@physx@@IAE@GV?$PxFlags@W4Enum@PxBaseFlag@physx@@G@1@@Z 10062a40 f i GuBVHStructure.obj
 0001:00061a80       ??0RayAABBTest@Gu@physx@@QAE@ABVPxVec3@2@0M0@Z 10062a80 f i GuBVHStructure.obj
 0001:00061d40       ??0RefCountable@Cm@physx@@QAE@I@Z 10062d40 f i GuBVHStructure.obj
 0001:00061da0       ??1?$Array@PBUBVHNode@Gu@physx@@V?$InlineAllocator@$0EAA@VNamedAllocator@shdfnd@physx@@@shdfnd@3@@shdfnd@physx@@QAE@XZ 10062da0 f i GuBVHStructure.obj
 0001:00061e10       ??1?$InlineAllocator@$0EAA@VNamedAllocator@shdfnd@physx@@@shdfnd@physx@@QAE@XZ 10062e10 f i GuBVHStructure.obj
 0001:00061e30       ??1?$InlineArray@PBUBVHNode@Gu@physx@@$0BAA@VNamedAllocator@shdfnd@3@@shdfnd@physx@@QAE@XZ 10062e30 f i GuBVHStructure.obj
 0001:00061e50       ??1PxBVHStructure@physx@@MAE@XZ 10062e50 f i GuBVHStructure.obj
 0001:00061e70       ??A?$Array@PBUBVHNode@Gu@physx@@V?$InlineAllocator@$0EAA@VNamedAllocator@shdfnd@physx@@@shdfnd@3@@shdfnd@physx@@QAEAAPBUBVHNode@Gu@2@I@Z 10062e70 f i GuBVHStructure.obj
 0001:00061ee0       ??R?$AABBTreeOverlap@UAABBAABBTest@Gu@physx@@UBVHTree@23@UBVHNode@23@IUBVHCallback@23@@Gu@physx@@QAE_NPBIPBVPxBounds3@2@ABUBVHTree@12@ABUAABBAABBTest@12@AAUBVHCallback@12@@Z 10062ee0 f i GuBVHStructure.obj
 0001:000621e0       ??R?$AABBTreeRaycast@$00UBVHTree@Gu@physx@@UBVHNode@23@IUBVHCallback@23@@Gu@physx@@QAE_NPBIPBVPxBounds3@2@ABUBVHTree@12@ABVPxVec3@2@3AAM3AAUBVHCallback@12@@Z 100631e0 f i GuBVHStructure.obj
 0001:00062520       ??R?$AABBTreeRaycast@$0A@UBVHTree@Gu@physx@@UBVHNode@23@IUBVHCallback@23@@Gu@physx@@QAE_NPBIPBVPxBounds3@2@ABUBVHTree@12@ABVPxVec3@2@3AAM3AAUBVHCallback@12@@Z 10063520 f i GuBVHStructure.obj
 0001:00062860       ??RAABBAABBTest@Gu@physx@@QBEHT__m128@@0@Z 10063860 f i GuBVHStructure.obj
 0001:000628d0       ??Uphysx@@YA?AV?$PxFlags@W4Enum@PxBaseFlag@physx@@G@0@W4Enum@PxBaseFlag@0@0@Z 100638d0 f i GuBVHStructure.obj
 0001:00062900       ??_5?$PxFlags@W4Enum@PxBaseFlag@physx@@G@physx@@QAEAAV01@W4Enum@PxBaseFlag@1@@Z 10063900 f i GuBVHStructure.obj
 0001:00062922       ??_EBVHStructure@Gu@physx@@W7AEPAXI@Z 10063922 f i GuBVHStructure.obj
 0001:00062930       ??_GBVHStructure@Gu@physx@@UAEPAXI@Z 10063930 f i GuBVHStructure.obj
 0001:00062930       ??_EBVHStructure@Gu@physx@@UAEPAXI@Z 10063930 f i GuBVHStructure.obj
 0001:00062980       ??_GPxBVHStructure@physx@@MAEPAXI@Z 10063980 f i GuBVHStructure.obj
 0001:00062980       ??_EPxBVHStructure@physx@@MAEPAXI@Z 10063980 f i GuBVHStructure.obj
 0001:000629b0       ?V3AllGrtrOrEq@aos@shdfnd@physx@@YAIT__m128@@0@Z 100639b0 f i GuBVHStructure.obj
 0001:00062a80       ?V3IsGrtrOrEq@aos@shdfnd@physx@@YA?AT__m128@@T4@0@Z 10063a80 f i GuBVHStructure.obj
 0001:00062b50       ?V3Min@aos@shdfnd@physx@@YA?AT__m128@@T4@0@Z 10063b50 f i GuBVHStructure.obj
 0001:00062c20       ?V3MulAdd@aos@shdfnd@physx@@YA?AT__m128@@T4@00@Z 10063c20 f i GuBVHStructure.obj
 0001:00062d50       ?V3NegMulSub@aos@shdfnd@physx@@YA?AT__m128@@T4@00@Z 10063d50 f i GuBVHStructure.obj
 0001:00062e80       ?V3PermYZX@aos@shdfnd@physx@@YA?AT__m128@@T4@@Z 10063e80 f i GuBVHStructure.obj
 0001:00062f00       ?V4IsGrtrOrEq@aos@shdfnd@physx@@YA?AT__m128@@T4@0@Z 10063f00 f i GuBVHStructure.obj
 0001:00062f40       ?allocate@?$Array@PBUBVHNode@Gu@physx@@V?$InlineAllocator@$0EAA@VNamedAllocator@shdfnd@physx@@@shdfnd@3@@shdfnd@physx@@IAEPAPBUBVHNode@Gu@3@I@Z 10063f40 f i GuBVHStructure.obj
 0001:00062fb0       ?allocate@?$InlineAllocator@$0EAA@VNamedAllocator@shdfnd@physx@@@shdfnd@physx@@QAEPAXIPBDH@Z 10063fb0 f i GuBVHStructure.obj
 0001:00063000       ?capacity@?$Array@PBUBVHNode@Gu@physx@@V?$InlineAllocator@$0EAA@VNamedAllocator@shdfnd@physx@@@shdfnd@3@@shdfnd@physx@@QBEIXZ 10064000 f i GuBVHStructure.obj
 0001:00063020       ?copy@?$Array@PBUBVHNode@Gu@physx@@V?$InlineAllocator@$0EAA@VNamedAllocator@shdfnd@physx@@@shdfnd@3@@shdfnd@physx@@KAXPAPBUBVHNode@Gu@3@0PBQBU453@@Z 10064020 f i GuBVHStructure.obj
 0001:00063070       ?deallocate@?$Array@PBUBVHNode@Gu@physx@@V?$InlineAllocator@$0EAA@VNamedAllocator@shdfnd@physx@@@shdfnd@3@@shdfnd@physx@@IAEXPAX@Z 10064070 f i GuBVHStructure.obj
 0001:00063090       ?deallocate@?$InlineAllocator@$0EAA@VNamedAllocator@shdfnd@physx@@@shdfnd@physx@@QAEXPAX@Z 10064090 f i GuBVHStructure.obj
 0001:000630c0       ?destroy@?$Array@PBUBVHNode@Gu@physx@@V?$InlineAllocator@$0EAA@VNamedAllocator@shdfnd@physx@@@shdfnd@3@@shdfnd@physx@@KAXPAPBUBVHNode@Gu@3@0@Z 100640c0 f i GuBVHStructure.obj
 0001:000630e0       ?forceSize_Unsafe@?$Array@PBUBVHNode@Gu@physx@@V?$InlineAllocator@$0EAA@VNamedAllocator@shdfnd@physx@@@shdfnd@3@@shdfnd@physx@@QAEXI@Z 100640e0 f i GuBVHStructure.obj
 0001:00063140       ?getAABBCenterExtentsV2@BVHNode@Gu@physx@@QBEXPAT__m128@@0@Z 10064140 f i GuBVHStructure.obj
 0001:00063200       ?getAABBCenterExtentsV@BVHNode@Gu@physx@@QBEXPAT__m128@@0@Z 10064200 f i GuBVHStructure.obj
 0001:00063320       ?getBaseFlags@PxBase@physx@@QBE?AV?$PxFlags@W4Enum@PxBaseFlag@physx@@G@2@XZ 10064320 f i GuBVHStructure.obj
 0001:00063340       ?getBounds@BVHStructure@Gu@physx@@UBEPBVPxBounds3@3@XZ 10064340 f i GuBVHStructure.obj
 0001:00063360       ?getConcreteTypeName@PxBVHStructure@physx@@UBEPBDXZ 10064360 f i GuBVHStructure.obj
 0001:00063370       ?getIndices@BVHTree@Gu@physx@@QBEPBIXZ 10064370 f i GuBVHStructure.obj
 0001:00063390       ?getNbBounds@BVHStructure@Gu@physx@@UBEIXZ 10064390 f i GuBVHStructure.obj
 0001:000633b0       ?getNbPrimitives@BVHNode@Gu@physx@@QBEIXZ 100643b0 f i GuBVHStructure.obj
 0001:000633d0       ?getNodes@BVHTree@Gu@physx@@QBEPBUBVHNode@23@XZ 100643d0 f i GuBVHStructure.obj
 0001:000633e0       ?getPos@BVHNode@Gu@physx@@QBEPBU123@PBU123@@Z 100643e0 f i GuBVHStructure.obj
 0001:00063400       ?getPrimitives@BVHNode@Gu@physx@@QBEPBIPBI@Z 10064400 f i GuBVHStructure.obj
 0001:00063420       ?grow@?$Array@PBUBVHNode@Gu@physx@@V?$InlineAllocator@$0EAA@VNamedAllocator@shdfnd@physx@@@shdfnd@3@@shdfnd@physx@@IAEXI@Z 10064420 f i GuBVHStructure.obj
 0001:00063480       ?invoke@BVHCallback@Gu@physx@@QAE_NAAMI@Z 10064480 f i GuBVHStructure.obj
 0001:000634d0       ?isInUserMemory@?$Array@PBUBVHNode@Gu@physx@@V?$InlineAllocator@$0EAA@VNamedAllocator@shdfnd@physx@@@shdfnd@3@@shdfnd@physx@@QBEIXZ 100644d0 f i GuBVHStructure.obj
 0001:000634f0       ?isKindOf@PxBVHStructure@physx@@MBE_NPBD@Z 100644f0 f i GuBVHStructure.obj
 0001:00063540       ?isLeaf@BVHNode@Gu@physx@@QBEIXZ 10064540 f i GuBVHStructure.obj
 0001:00063560       ?recreate@?$Array@PBUBVHNode@Gu@physx@@V?$InlineAllocator@$0EAA@VNamedAllocator@shdfnd@physx@@@shdfnd@3@@shdfnd@physx@@IAEXI@Z 10064560 f i GuBVHStructure.obj
 0001:00063660       ?reserve@?$Array@PBUBVHNode@Gu@physx@@V?$InlineAllocator@$0EAA@VNamedAllocator@shdfnd@physx@@@shdfnd@3@@shdfnd@physx@@QAEXI@Z 10064660 f i GuBVHStructure.obj
 0001:00063690       ?resizeUninitialized@?$Array@PBUBVHNode@Gu@physx@@V?$InlineAllocator@$0EAA@VNamedAllocator@shdfnd@physx@@@shdfnd@3@@shdfnd@physx@@QAEXI@Z 10064690 f i GuBVHStructure.obj
 0001:000636c0       ?setDistance@RayAABBTest@Gu@physx@@QAEXM@Z 100646c0 f i GuBVHStructure.obj
 0001:00063760       ?SweepEstimateAnyShapeHeightfield@Gu@physx@@YAMABUCCDShape@12@0ABVPxTransform@2@111MM@Z 10064760 f   GuCCDSweepConvexMesh.obj
 0001:00063b60       ?SweepEstimateAnyShapeMesh@Gu@physx@@YAMABUCCDShape@12@0ABVPxTransform@2@111MM@Z 10064b60 f   GuCCDSweepConvexMesh.obj
 0001:000641f0       ?SweepAnyShapeHeightfield@Gu@physx@@YAMABUCCDShape@12@0ABVPxTransform@2@111MAAVPxVec3@2@2MAAIM@Z 100651f0 f   GuCCDSweepConvexMesh.obj
 0001:00064cd0       ?SweepAnyShapeMesh@Gu@physx@@YAMABUCCDShape@12@0ABVPxTransform@2@111MAAVPxVec3@2@2MAAIM@Z 10065cd0 f   GuCCDSweepConvexMesh.obj
 0001:00065820       ??$checkType@$$CBUPxHeightFieldGeometryLL@physx@@@physx@@YAXABVGeometryUnion@Gu@0@@Z 10066820 f i GuCCDSweepConvexMesh.obj
 0001:00065880       ??$checkType@$$CBUPxTriangleMeshGeometryLL@physx@@@physx@@YAXABVGeometryUnion@Gu@0@@Z 10066880 f i GuCCDSweepConvexMesh.obj
 0001:000658e0       ??$get@$$CBUPxHeightFieldGeometryLL@physx@@@GeometryUnion@Gu@physx@@QBEABUPxHeightFieldGeometryLL@2@XZ 100668e0 f i GuCCDSweepConvexMesh.obj
 0001:00065900       ??$get@$$CBUPxTriangleMeshGeometryLL@physx@@@GeometryUnion@Gu@physx@@QBEABUPxTriangleMeshGeometryLL@2@XZ 10066900 f i GuCCDSweepConvexMesh.obj
 0001:00065920       ??0?$Array@IV?$InlineAllocator@$0BAA@VNamedAllocator@shdfnd@physx@@@shdfnd@physx@@@shdfnd@physx@@QAE@ABV?$InlineAllocator@$0BAA@VNamedAllocator@shdfnd@physx@@@12@@Z 10066920 f i GuCCDSweepConvexMesh.obj
 0001:00065970       ??0?$Array@IVNamedAllocator@shdfnd@physx@@@shdfnd@physx@@QAE@IABIABVNamedAllocator@12@@Z 10066970 f i GuCCDSweepConvexMesh.obj
 0001:000659c0       ??0?$InlineAllocator@$0BAA@VNamedAllocator@shdfnd@physx@@@shdfnd@physx@@QAE@ABV012@@Z 100669c0 f i GuCCDSweepConvexMesh.obj
 0001:000659f0       ??0?$InlineAllocator@$0BAA@VNamedAllocator@shdfnd@physx@@@shdfnd@physx@@QAE@ABVNamedAllocator@12@@Z 100669f0 f i GuCCDSweepConvexMesh.obj
 0001:00065a20       ??0?$InlineArray@I$0EA@VNamedAllocator@shdfnd@physx@@@shdfnd@physx@@QAE@ABVNamedAllocator@12@@Z 10066a20 f i GuCCDSweepConvexMesh.obj
 0001:00065b80       ??0HullPolygonData@Gu@physx@@QAE@XZ 10066b80 f i GuCCDSweepConvexMesh.obj
 0001:00065ba0       ??1?$Array@IV?$InlineAllocator@$0BAA@VNamedAllocator@shdfnd@physx@@@shdfnd@physx@@@shdfnd@physx@@QAE@XZ 10066ba0 f i GuCCDSweepConvexMesh.obj
 0001:00065c10       ??1?$InlineAllocator@$0BAA@VNamedAllocator@shdfnd@physx@@@shdfnd@physx@@QAE@XZ 10066c10 f i GuCCDSweepConvexMesh.obj
 0001:00065c30       ??1?$InlineArray@I$0EA@VNamedAllocator@shdfnd@physx@@@shdfnd@physx@@QAE@XZ 10066c30 f i GuCCDSweepConvexMesh.obj
 0001:00065d40       ?allocate@?$Array@IV?$InlineAllocator@$0BAA@VNamedAllocator@shdfnd@physx@@@shdfnd@physx@@@shdfnd@physx@@IAEPAII@Z 10066d40 f i GuCCDSweepConvexMesh.obj
 0001:00065db0       ?allocate@?$InlineAllocator@$0BAA@VNamedAllocator@shdfnd@physx@@@shdfnd@physx@@QAEPAXIPBDH@Z 10066db0 f i GuCCDSweepConvexMesh.obj
 0001:00065e00       ?begin@?$Array@IV?$InlineAllocator@$0BAA@VNamedAllocator@shdfnd@physx@@@shdfnd@physx@@@shdfnd@physx@@QAEPAIXZ 10066e00 f i GuCCDSweepConvexMesh.obj
 0001:00065e20       ?capacity@?$Array@IV?$InlineAllocator@$0BAA@VNamedAllocator@shdfnd@physx@@@shdfnd@physx@@@shdfnd@physx@@QBEIXZ 10066e20 f i GuCCDSweepConvexMesh.obj
 0001:00065e40       ?capacityIncrement@?$Array@IV?$InlineAllocator@$0BAA@VNamedAllocator@shdfnd@physx@@@shdfnd@physx@@@shdfnd@physx@@IBEIXZ 10066e40 f i GuCCDSweepConvexMesh.obj
 0001:00065e80       ?copy@?$Array@IV?$InlineAllocator@$0BAA@VNamedAllocator@shdfnd@physx@@@shdfnd@physx@@@shdfnd@physx@@KAXPAI0PBI@Z 10066e80 f i GuCCDSweepConvexMesh.obj
 0001:00065ed0       ?create@?$Array@IV?$InlineAllocator@$0BAA@VNamedAllocator@shdfnd@physx@@@shdfnd@physx@@@shdfnd@physx@@KAXPAI0ABI@Z 10066ed0 f i GuCCDSweepConvexMesh.obj
 0001:00065f10       ?create@?$Array@IVNamedAllocator@shdfnd@physx@@@shdfnd@physx@@KAXPAI0ABI@Z 10066f10 f i GuCCDSweepConvexMesh.obj
 0001:00065f50       ?deallocate@?$Array@IV?$InlineAllocator@$0BAA@VNamedAllocator@shdfnd@physx@@@shdfnd@physx@@@shdfnd@physx@@IAEXPAX@Z 10066f50 f i GuCCDSweepConvexMesh.obj
 0001:00065f70       ?deallocate@?$InlineAllocator@$0BAA@VNamedAllocator@shdfnd@physx@@@shdfnd@physx@@QAEXPAX@Z 10066f70 f i GuCCDSweepConvexMesh.obj
 0001:00065fa0       ?destroy@?$Array@IV?$InlineAllocator@$0BAA@VNamedAllocator@shdfnd@physx@@@shdfnd@physx@@@shdfnd@physx@@KAXPAI0@Z 10066fa0 f i GuCCDSweepConvexMesh.obj
 0001:00065fc0       ?distancePointTriangleSquared@Gu@physx@@YAMABVPxVec3@2@000PAM1@Z 10066fc0 f i GuCCDSweepConvexMesh.obj
 0001:00066050       ?flipsNormal@FastVertex2ShapeScaling@Cm@physx@@QBE_NXZ 10067050 f i GuCCDSweepConvexMesh.obj
 0001:00066070       ?forceSize_Unsafe@?$Array@IV?$InlineAllocator@$0BAA@VNamedAllocator@shdfnd@physx@@@shdfnd@physx@@@shdfnd@physx@@QAEXI@Z 10067070 f i GuCCDSweepConvexMesh.obj
 0001:000660f0       ?getTriangleVerts@TriangleVertexPointers@Gu@physx@@SAXPBVTriangleMesh@23@IAAVPxVec3@3@11@Z 100670f0 f i GuCCDSweepConvexMesh.obj
 0001:000661f0       ?grow@?$Array@IV?$InlineAllocator@$0BAA@VNamedAllocator@shdfnd@physx@@@shdfnd@physx@@@shdfnd@physx@@IAEXI@Z 100671f0 f i GuCCDSweepConvexMesh.obj
 0001:00066250       ?growAndPushBack@?$Array@IV?$InlineAllocator@$0BAA@VNamedAllocator@shdfnd@physx@@@shdfnd@physx@@@shdfnd@physx@@IAEAAIABI@Z 10067250 f i GuCCDSweepConvexMesh.obj
 0001:000663b0       ?include@PxBounds3@physx@@QAEXABVPxVec3@2@@Z 100673b0 f i GuCCDSweepConvexMesh.obj
 0001:00066420       ?isEmpty@PxBounds3@physx@@QBE_NXZ 10067420 f i GuCCDSweepConvexMesh.obj
 0001:00066480       ?isInUserMemory@?$Array@IV?$InlineAllocator@$0BAA@VNamedAllocator@shdfnd@physx@@@shdfnd@physx@@@shdfnd@physx@@QBEIXZ 10067480 f i GuCCDSweepConvexMesh.obj
 0001:000664a0       ?isZero@PxVec3@physx@@QBE_NXZ 100674a0 f i GuCCDSweepConvexMesh.obj
 0001:00066740       ?pushBack@?$Array@IV?$InlineAllocator@$0BAA@VNamedAllocator@shdfnd@physx@@@shdfnd@physx@@@shdfnd@physx@@QAEAAIABI@Z 10067740 f i GuCCDSweepConvexMesh.obj
 0001:000667d0       ?recreate@?$Array@IV?$InlineAllocator@$0BAA@VNamedAllocator@shdfnd@physx@@@shdfnd@physx@@@shdfnd@physx@@IAEXI@Z 100677d0 f i GuCCDSweepConvexMesh.obj
 0001:000668d0       ?reserve@?$Array@IV?$InlineAllocator@$0BAA@VNamedAllocator@shdfnd@physx@@@shdfnd@physx@@@shdfnd@physx@@QAEXI@Z 100678d0 f i GuCCDSweepConvexMesh.obj
 0001:00066900       ?resize@?$Array@IV?$InlineAllocator@$0BAA@VNamedAllocator@shdfnd@physx@@@shdfnd@physx@@@shdfnd@physx@@QAEXIABI@Z 10067900 f i GuCCDSweepConvexMesh.obj
 0001:00066990       ?resize@?$Array@IVNamedAllocator@shdfnd@physx@@@shdfnd@physx@@QAEXIABI@Z 10067990 f i GuCCDSweepConvexMesh.obj
 0001:00066a00       ?size@?$Array@IV?$InlineAllocator@$0BAA@VNamedAllocator@shdfnd@physx@@@shdfnd@physx@@@shdfnd@physx@@QBEIXZ 10067a00 f i GuCCDSweepConvexMesh.obj
 0001:00066a20       ?sweepAABBAABB@Gu@physx@@YAMABVPxVec3@2@00000@Z 10067a20 f i GuCCDSweepConvexMesh.obj
 0001:00066e40       ?transformBoxOrthonormal@physx@@YA?AVBox@Gu@1@ABV231@ABVPxTransform@1@@Z 10067e40 f i GuCCDSweepConvexMesh.obj
 0001:00066f00       ?SweepShapeShape@Gu@physx@@YAMABUCCDShape@12@0ABVPxTransform@2@111MAAVPxVec3@2@2MAAIM@Z 10067f00 f   GuCCDSweepPrimitives.obj
 0001:00066f80       ?UnimplementedSweep@Gu@physx@@YAMABUCCDShape@12@0ABVPxTransform@2@111MAAVPxVec3@2@2MAAIM@Z 10067f80 f   GuCCDSweepPrimitives.obj
 0001:00066f90       ?UnimplementedTriangleSweep@Gu@physx@@YAMABVGeometryUnion@12@0ABVPxTransform@2@111MAAVPxVec3@2@2ABVFastVertex2ShapeScaling@Cm@2@AAVTriangleV@12@M@Z 10067f90 f   GuCCDSweepPrimitives.obj
 0001:00067030       ?SweepShapeTriangle@Gu@physx@@YAMABVGeometryUnion@12@0ABVPxTransform@2@111MAAVPxVec3@2@2ABVFastVertex2ShapeScaling@Cm@2@AAVTriangleV@12@M@Z 10068030 f   GuCCDSweepPrimitives.obj
 0001:00068f00       ??$SweepGeomGeom@VCapsuleV@Gu@physx@@V123@@Gu@physx@@YAMABUCCDShape@01@0ABVPxTransform@1@111MAAVPxVec3@1@2MAAIM@Z 10069f00 f i GuCCDSweepPrimitives.obj
 0001:00069020       ??$SweepGeomGeom@VCapsuleV@Gu@physx@@VBoxV@23@@Gu@physx@@YAMABUCCDShape@01@0ABVPxTransform@1@111MAAVPxVec3@1@2MAAIM@Z 1006a020 f i GuCCDSweepPrimitives.obj
 0001:00069130       ??$SweepGeomGeom@VCapsuleV@Gu@physx@@VConvexHullV@23@@Gu@physx@@YAMABUCCDShape@01@0ABVPxTransform@1@111MAAVPxVec3@1@2MAAIM@Z 1006a130 f i GuCCDSweepPrimitives.obj
 0001:00069250       ??$SweepGeomGeom@VBoxV@Gu@physx@@V123@@Gu@physx@@YAMABUCCDShape@01@0ABVPxTransform@1@111MAAVPxVec3@1@2MAAIM@Z 1006a250 f i GuCCDSweepPrimitives.obj
 0001:00069360       ??$SweepGeomGeom@VBoxV@Gu@physx@@VConvexHullV@23@@Gu@physx@@YAMABUCCDShape@01@0ABVPxTransform@1@111MAAVPxVec3@1@2MAAIM@Z 1006a360 f i GuCCDSweepPrimitives.obj
 0001:00069470       ??$SweepGeomGeom@VConvexHullV@Gu@physx@@V123@@Gu@physx@@YAMABUCCDShape@01@0ABVPxTransform@1@111MAAVPxVec3@1@2MAAIM@Z 1006a470 f i GuCCDSweepPrimitives.obj
 0001:00069590       ??$SweepGeomTriangles@VCapsuleV@Gu@physx@@@Gu@physx@@YAMABVGeometryUnion@01@0ABVPxTransform@1@111MAAVPxVec3@1@2ABVFastVertex2ShapeScaling@Cm@1@AAVTriangleV@01@M@Z 1006a590 f i GuCCDSweepPrimitives.obj
 0001:00069660       ??$SweepGeomTriangles@VBoxV@Gu@physx@@@Gu@physx@@YAMABVGeometryUnion@01@0ABVPxTransform@1@111MAAVPxVec3@1@2ABVFastVertex2ShapeScaling@Cm@1@AAVTriangleV@01@M@Z 1006a660 f i GuCCDSweepPrimitives.obj
 0001:00069720       ??$SweepGeomTriangles@VConvexHullV@Gu@physx@@@Gu@physx@@YAMABVGeometryUnion@01@0ABVPxTransform@1@111MAAVPxVec3@1@2ABVFastVertex2ShapeScaling@Cm@1@AAVTriangleV@01@M@Z 1006a720 f i GuCCDSweepPrimitives.obj
 0001:000697f0       ??$PX_UNUSED@VFastVertex2ShapeScaling@Cm@physx@@@@YAXABVFastVertex2ShapeScaling@Cm@physx@@@Z 1006a7f0 f i GuCCDSweepPrimitives.obj
 0001:00069800       ??$PX_UNUSED@VTriangleV@Gu@physx@@@@YAXABVTriangleV@Gu@physx@@@Z 1006a800 f i GuCCDSweepPrimitives.obj
 0001:00069810       ??$getRadius@VBoxV@Gu@physx@@@Gu@physx@@YAMABVPxGeometry@1@@Z 1006a810 f i GuCCDSweepPrimitives.obj
 0001:00069820       ??$getRadius@VCapsuleV@Gu@physx@@@Gu@physx@@YAMABVPxGeometry@1@@Z 1006a820 f i GuCCDSweepPrimitives.obj
 0001:00069880       ??$getRadius@VConvexHullV@Gu@physx@@@Gu@physx@@YAMABVPxGeometry@1@@Z 1006a880 f i GuCCDSweepPrimitives.obj
 0001:00069890       ??$gjkPenetration@U?$RelativeConvex@VCapsuleV@Gu@physx@@@Gu@physx@@U?$LocalConvex@VBoxV@Gu@physx@@@23@@Gu@physx@@YA?AW4GjkStatus@01@ABU?$RelativeConvex@VCapsuleV@Gu@physx@@@01@ABU?$LocalConvex@VBoxV@Gu@physx@@@01@ABT__m128@@2_NPIAE4AAEAAUGjkOutput@01@@Z 1006a890 f i GuCCDSweepPrimitives.obj
 0001:0006a360       ??$gjkPenetration@U?$RelativeConvex@VCapsuleV@Gu@physx@@@Gu@physx@@U?$LocalConvex@VCapsuleV@Gu@physx@@@23@@Gu@physx@@YA?AW4GjkStatus@01@ABU?$RelativeConvex@VCapsuleV@Gu@physx@@@01@ABU?$LocalConvex@VCapsuleV@Gu@physx@@@01@ABT__m128@@2_NPIAE4AAEAAUGjkOutput@01@@Z 1006b360 f i GuCCDSweepPrimitives.obj
 0001:0006ae30       ??$gjkPenetration@U?$RelativeConvex@VCapsuleV@Gu@physx@@@Gu@physx@@U?$LocalConvex@VConvexHullV@Gu@physx@@@23@@Gu@physx@@YA?AW4GjkStatus@01@ABU?$RelativeConvex@VCapsuleV@Gu@physx@@@01@ABU?$LocalConvex@VConvexHullV@Gu@physx@@@01@ABT__m128@@2_NPIAE4AAEAAUGjkOutput@01@@Z 1006be30 f i GuCCDSweepPrimitives.obj
 0001:0006b900       ??$gjkPenetration@U?$RelativeConvex@VTriangleV@Gu@physx@@@Gu@physx@@U?$LocalConvex@VBoxV@Gu@physx@@@23@@Gu@physx@@YA?AW4GjkStatus@01@ABU?$RelativeConvex@VTriangleV@Gu@physx@@@01@ABU?$LocalConvex@VBoxV@Gu@physx@@@01@ABT__m128@@2_NPIAE4AAEAAUGjkOutput@01@@Z 1006c900 f i GuCCDSweepPrimitives.obj
 0001:0006c3d0       ??$gjkPenetration@U?$RelativeConvex@VTriangleV@Gu@physx@@@Gu@physx@@U?$LocalConvex@VCapsuleV@Gu@physx@@@23@@Gu@physx@@YA?AW4GjkStatus@01@ABU?$RelativeConvex@VTriangleV@Gu@physx@@@01@ABU?$LocalConvex@VCapsuleV@Gu@physx@@@01@ABT__m128@@2_NPIAE4AAEAAUGjkOutput@01@@Z 1006d3d0 f i GuCCDSweepPrimitives.obj
 0001:0006cea0       ??$gjkPenetration@U?$RelativeConvex@VTriangleV@Gu@physx@@@Gu@physx@@U?$LocalConvex@VConvexHullV@Gu@physx@@@23@@Gu@physx@@YA?AW4GjkStatus@01@ABU?$RelativeConvex@VTriangleV@Gu@physx@@@01@ABU?$LocalConvex@VConvexHullV@Gu@physx@@@01@ABT__m128@@2_NPIAE4AAEAAUGjkOutput@01@@Z 1006dea0 f i GuCCDSweepPrimitives.obj
 0001:0006d970       ??$gjkRaycast@U?$RelativeConvex@VCapsuleV@Gu@physx@@@Gu@physx@@U?$LocalConvex@VBoxV@Gu@physx@@@23@@Gu@physx@@YA_NABU?$RelativeConvex@VCapsuleV@Gu@physx@@@01@ABU?$LocalConvex@VBoxV@Gu@physx@@@01@ABT__m128@@222AAT4@33M@Z 1006e970 f i GuCCDSweepPrimitives.obj
 0001:0006e570       ??$gjkRaycast@U?$RelativeConvex@VCapsuleV@Gu@physx@@@Gu@physx@@U?$LocalConvex@VCapsuleV@Gu@physx@@@23@@Gu@physx@@YA_NABU?$RelativeConvex@VCapsuleV@Gu@physx@@@01@ABU?$LocalConvex@VCapsuleV@Gu@physx@@@01@ABT__m128@@222AAT4@33M@Z 1006f570 f i GuCCDSweepPrimitives.obj
 0001:0006f170       ??$gjkRaycast@U?$RelativeConvex@VCapsuleV@Gu@physx@@@Gu@physx@@U?$LocalConvex@VConvexHullV@Gu@physx@@@23@@Gu@physx@@YA_NABU?$RelativeConvex@VCapsuleV@Gu@physx@@@01@ABU?$LocalConvex@VConvexHullV@Gu@physx@@@01@ABT__m128@@222AAT4@33M@Z 10070170 f i GuCCDSweepPrimitives.obj
 0001:0006fd70       ??$gjkRaycast@U?$RelativeConvex@VTriangleV@Gu@physx@@@Gu@physx@@U?$LocalConvex@VBoxV@Gu@physx@@@23@@Gu@physx@@YA_NABU?$RelativeConvex@VTriangleV@Gu@physx@@@01@ABU?$LocalConvex@VBoxV@Gu@physx@@@01@ABT__m128@@222AAT4@33M@Z 10070d70 f i GuCCDSweepPrimitives.obj
 0001:00070970       ??$gjkRaycast@U?$RelativeConvex@VTriangleV@Gu@physx@@@Gu@physx@@U?$LocalConvex@VCapsuleV@Gu@physx@@@23@@Gu@physx@@YA_NABU?$RelativeConvex@VTriangleV@Gu@physx@@@01@ABU?$LocalConvex@VCapsuleV@Gu@physx@@@01@ABT__m128@@222AAT4@33M@Z 10071970 f i GuCCDSweepPrimitives.obj
 0001:00071570       ??$gjkRaycast@U?$RelativeConvex@VTriangleV@Gu@physx@@@Gu@physx@@U?$LocalConvex@VConvexHullV@Gu@physx@@@23@@Gu@physx@@YA_NABU?$RelativeConvex@VTriangleV@Gu@physx@@@01@ABU?$LocalConvex@VConvexHullV@Gu@physx@@@01@ABT__m128@@222AAT4@33M@Z 10072570 f i GuCCDSweepPrimitives.obj
 0001:00072170       ??$gjkRaycastPenetration@U?$RelativeConvex@VCapsuleV@Gu@physx@@@Gu@physx@@U?$LocalConvex@VBoxV@Gu@physx@@@23@@Gu@physx@@YA_NABU?$RelativeConvex@VCapsuleV@Gu@physx@@@01@ABU?$LocalConvex@VBoxV@Gu@physx@@@01@ABT__m128@@222AAT4@33M_N@Z 10073170 f i GuCCDSweepPrimitives.obj
 0001:00072430       ??$gjkRaycastPenetration@U?$RelativeConvex@VCapsuleV@Gu@physx@@@Gu@physx@@U?$LocalConvex@VCapsuleV@Gu@physx@@@23@@Gu@physx@@YA_NABU?$RelativeConvex@VCapsuleV@Gu@physx@@@01@ABU?$LocalConvex@VCapsuleV@Gu@physx@@@01@ABT__m128@@222AAT4@33M_N@Z 10073430 f i GuCCDSweepPrimitives.obj
 0001:000726f0       ??$gjkRaycastPenetration@U?$RelativeConvex@VCapsuleV@Gu@physx@@@Gu@physx@@U?$LocalConvex@VConvexHullV@Gu@physx@@@23@@Gu@physx@@YA_NABU?$RelativeConvex@VCapsuleV@Gu@physx@@@01@ABU?$LocalConvex@VConvexHullV@Gu@physx@@@01@ABT__m128@@222AAT4@33M_N@Z 100736f0 f i GuCCDSweepPrimitives.obj
 0001:000729b0       ??$gjkRaycastPenetration@U?$RelativeConvex@VTriangleV@Gu@physx@@@Gu@physx@@U?$LocalConvex@VBoxV@Gu@physx@@@23@@Gu@physx@@YA_NABU?$RelativeConvex@VTriangleV@Gu@physx@@@01@ABU?$LocalConvex@VBoxV@Gu@physx@@@01@ABT__m128@@222AAT4@33M_N@Z 100739b0 f i GuCCDSweepPrimitives.obj
 0001:00072c70       ??$gjkRaycastPenetration@U?$RelativeConvex@VTriangleV@Gu@physx@@@Gu@physx@@U?$LocalConvex@VCapsuleV@Gu@physx@@@23@@Gu@physx@@YA_NABU?$RelativeConvex@VTriangleV@Gu@physx@@@01@ABU?$LocalConvex@VCapsuleV@Gu@physx@@@01@ABT__m128@@222AAT4@33M_N@Z 10073c70 f i GuCCDSweepPrimitives.obj
 0001:00072f30       ??$gjkRaycastPenetration@U?$RelativeConvex@VTriangleV@Gu@physx@@@Gu@physx@@U?$LocalConvex@VConvexHullV@Gu@physx@@@23@@Gu@physx@@YA_NABU?$RelativeConvex@VTriangleV@Gu@physx@@@01@ABU?$LocalConvex@VConvexHullV@Gu@physx@@@01@ABT__m128@@222AAT4@33M_N@Z 10073f30 f i GuCCDSweepPrimitives.obj
 0001:000731f0       ??0?$RelativeConvex@VCapsuleV@Gu@physx@@@Gu@physx@@QAE@ABVCapsuleV@12@ABVPsMatTransformV@aos@shdfnd@2@@Z 100741f0 f i GuCCDSweepPrimitives.obj
 0001:00073250       ??0?$RelativeConvex@VTriangleV@Gu@physx@@@Gu@physx@@QAE@ABVTriangleV@12@ABVPsMatTransformV@aos@shdfnd@2@@Z 10074250 f i GuCCDSweepPrimitives.obj
 0001:000732b0       ??0BoxV@Gu@physx@@QAE@ABVPxGeometry@2@@Z 100742b0 f i GuCCDSweepPrimitives.obj
 0001:00073360       ??0CapsuleV@Gu@physx@@QAE@ABVPxGeometry@2@@Z 10074360 f i GuCCDSweepPrimitives.obj
 0001:00073490       ??0ConvexHullV@Gu@physx@@QAE@ABVPxGeometry@2@@Z 10074490 f i GuCCDSweepPrimitives.obj
 0001:000735d0       ??1?$RelativeConvex@VCapsuleV@Gu@physx@@@Gu@physx@@UAE@XZ 100745d0 f i GuCCDSweepPrimitives.obj
 0001:000735f0       ??1?$RelativeConvex@VTriangleV@Gu@physx@@@Gu@physx@@UAE@XZ 100745f0 f i GuCCDSweepPrimitives.obj
 0001:00073610       ??_E?$RelativeConvex@VCapsuleV@Gu@physx@@@Gu@physx@@UAEPAXI@Z 10074610 f i GuCCDSweepPrimitives.obj
 0001:00073610       ??_G?$RelativeConvex@VCapsuleV@Gu@physx@@@Gu@physx@@UAEPAXI@Z 10074610 f i GuCCDSweepPrimitives.obj
 0001:00073640       ??_G?$RelativeConvex@VTriangleV@Gu@physx@@@Gu@physx@@UAEPAXI@Z 10074640 f i GuCCDSweepPrimitives.obj
 0001:00073640       ??_E?$RelativeConvex@VTriangleV@Gu@physx@@@Gu@physx@@UAEPAXI@Z 10074640 f i GuCCDSweepPrimitives.obj
 0001:00073670       ?QuatVLoadA@aos@shdfnd@physx@@YA?AT__m128@@PBM@Z 10074670 f i GuCCDSweepPrimitives.obj
 0001:000736b0       ?V3LoadA@aos@shdfnd@physx@@YA?AT__m128@@PBM@Z 100746b0 f i GuCCDSweepPrimitives.obj
 0001:00073740       ?V4LoadA@aos@shdfnd@physx@@YA?AT__m128@@QBM@Z 10074740 f i GuCCDSweepPrimitives.obj
 0001:000737c0       ?getCenter@?$RelativeConvex@VCapsuleV@Gu@physx@@@Gu@physx@@UBE?AT__m128@@XZ 100747c0 f i GuCCDSweepPrimitives.obj
 0001:00073810       ?getCenter@?$RelativeConvex@VTriangleV@Gu@physx@@@Gu@physx@@UBE?AT__m128@@XZ 10074810 f i GuCCDSweepPrimitives.obj
 0001:00073860       ?getGjkConvex@?$RelativeConvex@VCapsuleV@Gu@physx@@@Gu@physx@@QBE?AU123@XZ 10074860 f i GuCCDSweepPrimitives.obj
 0001:00073890       ?getGjkConvex@?$RelativeConvex@VTriangleV@Gu@physx@@@Gu@physx@@QBE?AU123@XZ 10074890 f i GuCCDSweepPrimitives.obj
 0001:000738c0       ?getSweepMargin@?$RelativeConvex@VCapsuleV@Gu@physx@@@Gu@physx@@UBE?AT__m128@@XZ 100748c0 f i GuCCDSweepPrimitives.obj
 0001:000738f0       ?getSweepMargin@?$RelativeConvex@VTriangleV@Gu@physx@@@Gu@physx@@UBE?AT__m128@@XZ 100748f0 f i GuCCDSweepPrimitives.obj
 0001:00073920       ?support@?$RelativeConvex@VCapsuleV@Gu@physx@@@Gu@physx@@UBE?AT__m128@@ABT4@@Z 10074920 f i GuCCDSweepPrimitives.obj
 0001:00073960       ?support@?$RelativeConvex@VCapsuleV@Gu@physx@@@Gu@physx@@UBE?AT__m128@@ABT4@AAH@Z 10074960 f i GuCCDSweepPrimitives.obj
 0001:000739a0       ?support@?$RelativeConvex@VTriangleV@Gu@physx@@@Gu@physx@@UBE?AT__m128@@ABT4@@Z 100749a0 f i GuCCDSweepPrimitives.obj
 0001:000739e0       ?support@?$RelativeConvex@VTriangleV@Gu@physx@@@Gu@physx@@UBE?AT__m128@@ABT4@AAH@Z 100749e0 f i GuCCDSweepPrimitives.obj
 0001:00073a20       ?supportPoint@?$RelativeConvex@VCapsuleV@Gu@physx@@@Gu@physx@@UBE?AT__m128@@H@Z 10074a20 f i GuCCDSweepPrimitives.obj
 0001:00073a70       ?supportPoint@?$RelativeConvex@VTriangleV@Gu@physx@@@Gu@physx@@UBE?AT__m128@@H@Z 10074a70 f i GuCCDSweepPrimitives.obj
 0001:00073ac0       ?supportRelative@CapsuleV@Gu@physx@@QBE?AT__m128@@ABT4@ABVPsMatTransformV@aos@shdfnd@3@1@Z 10074ac0 f i GuCCDSweepPrimitives.obj
 0001:00073b20       ?supportRelative@CapsuleV@Gu@physx@@QBE?AT__m128@@ABT4@ABVPsMatTransformV@aos@shdfnd@3@1AAH@Z 10074b20 f i GuCCDSweepPrimitives.obj
 0001:00073b80       ?supportRelative@TriangleV@Gu@physx@@QBE?AT__m128@@ABT4@ABVPsMatTransformV@aos@shdfnd@3@1@Z 10074b80 f i GuCCDSweepPrimitives.obj
 0001:00073be0       ?supportRelative@TriangleV@Gu@physx@@QBE?AT__m128@@ABT4@ABVPsMatTransformV@aos@shdfnd@3@1AAH@Z 10074be0 f i GuCCDSweepPrimitives.obj
 0001:00073c40       ?barycentricCoordinates@Gu@physx@@YAXABT__m128@@00AAT3@@Z 10074c40 f   GuBarycentricCoordinates.obj
 0001:00073da0       ?barycentricCoordinates@Gu@physx@@YAXABT__m128@@000AAT3@1@Z 10074da0 f   GuBarycentricCoordinates.obj
 0001:000740f0       ?barycentricCoordinates@Gu@physx@@YAXABT__m128@@00AAT3@1@Z 100750f0 f   GuBarycentricCoordinates.obj
 0001:000742f0       ?FIsEq@aos@shdfnd@physx@@YA?AT__m128@@T4@0@Z 100752f0 f i GuBarycentricCoordinates.obj
 0001:000743c0       ?addAxis@SeparatingAxes@Gu@physx@@QAE_NABVPxVec3@3@@Z 100753c0 f   GuSeparatingAxes.obj
 0001:000744c0       ?contactBoxBox@Gu@physx@@YA_NABVGeometryUnion@12@0ABVPxTransform@2@1ABUNarrowPhaseParams@12@AAUCache@12@AAVContactBuffer@12@PAVRenderOutput@Cm@2@@Z 100754c0 f   GuContactBoxBox.obj
 0001:00077470       ??$PX_UNUSED@PAVRenderOutput@Cm@physx@@@@YAXABQAVRenderOutput@Cm@physx@@@Z 10078470 f i GuContactBoxBox.obj
 0001:00077480       ??$checkType@$$CBVPxBoxGeometry@physx@@@physx@@YAXABVGeometryUnion@Gu@0@@Z 10078480 f i GuContactBoxBox.obj
 0001:000774e0       ??$get@$$CBVPxBoxGeometry@physx@@@GeometryUnion@Gu@physx@@QBEABVPxBoxGeometry@2@XZ 100784e0 f i GuContactBoxBox.obj
 0001:00077500       ??0VertexInfo@@QAE@XZ      10078500 f i GuContactBoxBox.obj
 0001:00077520       ?contact@ContactBuffer@Gu@physx@@QAE_NABVPxVec3@3@0MI@Z 10078520 f i GuContactBoxBox.obj
 0001:00077660       ?contactCapsuleBox@Gu@physx@@YA_NABVGeometryUnion@12@0ABVPxTransform@2@1ABUNarrowPhaseParams@12@AAUCache@12@AAVContactBuffer@12@PAVRenderOutput@Cm@2@@Z 10078660 f   GuContactCapsuleBox.obj
 0001:00078660       ??$PX_UNUSED@UCache@Gu@physx@@@@YAXABUCache@Gu@physx@@@Z 10079660 f i GuContactCapsuleBox.obj
 0001:00078670       ??$checkType@$$CBVPxCapsuleGeometry@physx@@@physx@@YAXABVGeometryUnion@Gu@0@@Z 10079670 f i GuContactCapsuleBox.obj
 0001:000786e0       ??$get@$$CBVPxCapsuleGeometry@physx@@@GeometryUnion@Gu@physx@@QBEABVPxCapsuleGeometry@2@XZ 100796e0 f i GuContactCapsuleBox.obj
 0001:00078700       ?closestAxis@shdfnd@physx@@YAIABVPxVec3@2@AAI1@Z 10079700 f i GuContactCapsuleBox.obj
 0001:000787d0       ?makeFatEdge@shdfnd@physx@@YAXAAVPxVec3@2@0M@Z 100797d0 f i GuContactCapsuleBox.obj
 0001:00078890       ?contactCapsuleCapsule@Gu@physx@@YA_NABVGeometryUnion@12@0ABVPxTransform@2@1ABUNarrowPhaseParams@12@AAUCache@12@AAVContactBuffer@12@PAVRenderOutput@Cm@2@@Z 10079890 f   GuContactCapsuleCapsule.obj
 0001:00079190       ?contactCapsuleConvex@Gu@physx@@YA_NABVGeometryUnion@12@0ABVPxTransform@2@1ABUNarrowPhaseParams@12@AAUCache@12@AAVContactBuffer@12@PAVRenderOutput@Cm@2@@Z 1007a190 f   GuContactCapsuleConvex.obj
 0001:0007a6c0       ??$checkType@$$CBUPxConvexMeshGeometryLL@physx@@@physx@@YAXABVGeometryUnion@Gu@0@@Z 1007b6c0 f i GuContactCapsuleConvex.obj
 0001:0007a720       ??$get@$$CBUPxConvexMeshGeometryLL@physx@@@GeometryUnion@Gu@physx@@QBEABUPxConvexMeshGeometryLL@2@XZ 1007b720 f i GuContactCapsuleConvex.obj
 0001:0007a740       ??0ConvexEdge@Gu@physx@@QAE@XZ 1007b740 f i GuContactCapsuleConvex.obj
 0001:0007a7b0       ?contactCapsuleMesh@Gu@physx@@YA_NABVGeometryUnion@12@0ABVPxTransform@2@1ABUNarrowPhaseParams@12@AAUCache@12@AAVContactBuffer@12@PAVRenderOutput@Cm@2@@Z 1007b7b0 f   GuContactCapsuleMesh.obj
 0001:0007a9b0       ?contactCapsuleHeightfield@Gu@physx@@YA_NABVGeometryUnion@12@0ABVPxTransform@2@1ABUNarrowPhaseParams@12@AAUCache@12@AAVContactBuffer@12@PAVRenderOutput@Cm@2@@Z 1007b9b0 f   GuContactCapsuleMesh.obj
 0001:0007b4b0       ??0Capsule@Gu@physx@@QAE@ABVSegment@12@M@Z 1007c4b0 f i GuContactCapsuleMesh.obj
 0001:0007b860       ??0TrianglePadded@Gu@physx@@QAE@XZ 1007c860 f i GuContactCapsuleMesh.obj
 0001:0007b910       ??1TrianglePadded@Gu@physx@@QAE@XZ 1007c910 f i GuContactCapsuleMesh.obj
 0001:0007b930       ??4PxBounds3@physx@@QAEAAV01@$$QAV01@@Z 1007c930 f i GuContactCapsuleMesh.obj
 0001:0007b9f0       ?computeBarycentricPoint@shdfnd@physx@@YA?AVPxVec3@2@ABV32@00MM@Z 1007c9f0 f i GuContactCapsuleMesh.obj
 0001:0007bac0       ?distanceSegmentTriangleSquared@Gu@physx@@YAMABVSegment@12@ABVPxVec3@2@11PAM22@Z 1007cac0 f i GuContactCapsuleMesh.obj
 0001:0007bb00       ?getNextIndex3@shdfnd@physx@@YAII@Z 1007cb00 f i GuContactCapsuleMesh.obj
 0001:0007bb20       ?getScaledVertices@Cm@physx@@YAXPAVPxVec3@2@ABV32@11_NABVFastVertex2ShapeScaling@12@@Z 1007cb20 f i GuContactCapsuleMesh.obj
 0001:0007bc00       ?intersectRayTriangleCulling@Gu@physx@@YA_NABVPxVec3@2@0000AAM11M@Z 1007cc00 f i GuContactCapsuleMesh.obj
 0001:0007bc40       ?normal@PxTriangle@physx@@QBEXAAVPxVec3@2@@Z 1007cc40 f i GuContactCapsuleMesh.obj
 0001:0007c320       ?transformFast@PxBounds3@physx@@SA?AV12@ABVPxTransform@2@ABV12@@Z 1007d320 f i GuContactCapsuleMesh.obj
 0001:0007c3a0       ?transformQueryBounds@FastVertex2ShapeScaling@Cm@physx@@QBEXAAVPxVec3@3@0AAVPxMat33@3@@Z 1007d3a0 f i GuContactCapsuleMesh.obj
 0001:0007c490       ?contactBoxConvex@Gu@physx@@YA_NABVGeometryUnion@12@0ABVPxTransform@2@1ABUNarrowPhaseParams@12@AAUCache@12@AAVContactBuffer@12@PAVRenderOutput@Cm@2@@Z 1007d490 f   GuContactConvexConvex.obj
 0001:0007c5a0       ?contactConvexConvex@Gu@physx@@YA_NABVGeometryUnion@12@0ABVPxTransform@2@1ABUNarrowPhaseParams@12@AAUCache@12@AAVContactBuffer@12@PAVRenderOutput@Cm@2@@Z 1007d5a0 f   GuContactConvexConvex.obj
 0001:0007e790       ??0Matrix34@Cm@physx@@QAE@ABVPxVec3@2@000@Z 1007f790 f i GuContactConvexConvex.obj
 0001:0007e7d0       ??4PxPlane@physx@@QAEAAV01@$$QAV01@@Z 1007f7d0 f i GuContactConvexConvex.obj
 0001:0007e800       ??4PxTransform@physx@@QAEAAV01@$$QAV01@@Z 1007f800 f i GuContactConvexConvex.obj
 0001:0007e830       ??LFastVertex2ShapeScaling@Cm@physx@@QBE?AVPxVec3@2@ABV32@@Z 1007f830 f i GuContactConvexConvex.obj
 0001:0007e860       ?BoxSupport@@YAXQBMABVPxVec3@physx@@QAM@Z 1007f860 f i GuContactConvexConvex.obj
 0001:0007e910       ?PxcMultiplyAdd3x4@@YAMIABVPxVec3@physx@@0ABVMatrix34@Cm@2@@Z 1007f910 f i GuContactConvexConvex.obj
 0001:0007e9f0       ?PxcMultiplySub3x4@@YAMIABVPxVec3@physx@@0ABVMatrix34@Cm@2@@Z 1007f9f0 f i GuContactConvexConvex.obj
 0001:0007eaa0       ?getMax@HullPolygonData@Gu@physx@@QBEMXZ 1007faa0 f i GuContactConvexConvex.obj
 0001:0007ead0       ?getMin@HullPolygonData@Gu@physx@@QBEMPIBVPxVec3@3@@Z 1007fad0 f i GuContactConvexConvex.obj
 0001:0007eb00       ?getPolygonVertexRefs@PolygonalData@Gu@physx@@QBEPBEABUHullPolygonData@23@@Z 1007fb00 f i GuContactConvexConvex.obj
 0001:0007eb20       ?set@Matrix34@Cm@physx@@QAEXABVPxQuat@3@@Z 1007fb20 f i GuContactConvexConvex.obj
 0001:0007eb60       ?contactBoxMesh@Gu@physx@@YA_NABVGeometryUnion@12@0ABVPxTransform@2@1ABUNarrowPhaseParams@12@AAUCache@12@AAVContactBuffer@12@PAVRenderOutput@Cm@2@@Z 1007fb60 f   GuContactConvexMesh.obj
 0001:0007ec60       ?contactConvexMesh@Gu@physx@@YA_NABVGeometryUnion@12@0ABVPxTransform@2@1ABUNarrowPhaseParams@12@AAUCache@12@AAVContactBuffer@12@PAVRenderOutput@Cm@2@@Z 1007fc60 f   GuContactConvexMesh.obj
 0001:0007ed40       ?contactBoxHeightfield@Gu@physx@@YA_NABVGeometryUnion@12@0ABVPxTransform@2@1ABUNarrowPhaseParams@12@AAUCache@12@AAVContactBuffer@12@PAVRenderOutput@Cm@2@@Z 1007fd40 f   GuContactConvexMesh.obj
 0001:0007ee30       ?contactConvexHeightfield@Gu@physx@@YA_NABVGeometryUnion@12@0ABVPxTransform@2@1ABUNarrowPhaseParams@12@AAUCache@12@AAVContactBuffer@12@PAVRenderOutput@Cm@2@@Z 1007fe30 f   GuContactConvexMesh.obj
 0001:00081750       ??0?$Array@IV?$InlineAllocator@$0BBAA@VNamedAllocator@shdfnd@physx@@@shdfnd@physx@@@shdfnd@physx@@QAE@ABV?$InlineAllocator@$0BBAA@VNamedAllocator@shdfnd@physx@@@12@@Z 10082750 f i GuContactConvexMesh.obj
 0001:000817a0       ??0?$CacheMap@UCachedEdge@Gu@physx@@$0IA@@Gu@physx@@QAE@XZ 100827a0 f i GuContactConvexMesh.obj
 0001:00081800       ??0?$CacheMap@UCachedVertex@Gu@physx@@$0IA@@Gu@physx@@QAE@XZ 10082800 f i GuContactConvexMesh.obj
 0001:00081860       ??0?$InlineAllocator@$0BBAA@VNamedAllocator@shdfnd@physx@@@shdfnd@physx@@QAE@ABV012@@Z 10082860 f i GuContactConvexMesh.obj
 0001:00081890       ??0?$InlineAllocator@$0BBAA@VNamedAllocator@shdfnd@physx@@@shdfnd@physx@@QAE@ABVNamedAllocator@12@@Z 10082890 f i GuContactConvexMesh.obj
 0001:000818c0       ??0?$InlineArray@I$0EEA@VNamedAllocator@shdfnd@physx@@@shdfnd@physx@@QAE@ABVNamedAllocator@12@@Z 100828c0 f i GuContactConvexMesh.obj
 0001:00081930       ??0CachedEdge@Gu@physx@@QAE@II@Z 10082930 f i GuContactConvexMesh.obj
 0001:00081970       ??0CachedEdge@Gu@physx@@QAE@XZ 10082970 f i GuContactConvexMesh.obj
 0001:00081980       ??0CachedVertex@Gu@physx@@QAE@I@Z 10082980 f i GuContactConvexMesh.obj
 0001:000819a0       ??0CachedVertex@Gu@physx@@QAE@XZ 100829a0 f i GuContactConvexMesh.obj
 0001:000819b0       ??0ConvexMeshContactGenerationCallback@@QAE@AAV?$InlineArray@I$0EEA@VNamedAllocator@shdfnd@physx@@@shdfnd@physx@@ABVPxTransform@3@1ABUPolygonalData@Gu@3@ABVMatrix34@Cm@3@3PBVTriangleMesh@63@PIBEABVFastVertex2ShapeScaling@83@6MM_N7M11AAVContactBuffer@63@ABVBoxPadded@63@@Z 100829b0 f i GuContactConvexMesh.obj
 0001:00081b00       ??0Matrix34@Cm@physx@@QAE@ABV012@@Z 10082b00 f i GuContactConvexMesh.obj
 0001:00081b30       ??0PxPlane@physx@@QAE@ABVPxVec3@1@00@Z 10082b30 f i GuContactConvexMesh.obj
 0001:00081bb0       ??1?$Array@IV?$InlineAllocator@$0BBAA@VNamedAllocator@shdfnd@physx@@@shdfnd@physx@@@shdfnd@physx@@QAE@XZ 10082bb0 f i GuContactConvexMesh.obj
 0001:00081c20       ??1?$InlineAllocator@$0BBAA@VNamedAllocator@shdfnd@physx@@@shdfnd@physx@@QAE@XZ 10082c20 f i GuContactConvexMesh.obj
 0001:00081c40       ??1?$InlineArray@I$0EEA@VNamedAllocator@shdfnd@physx@@@shdfnd@physx@@QAE@XZ 10082c40 f i GuContactConvexMesh.obj
 0001:00081c60       ??1ConvexMeshContactGenerationCallback@@UAE@XZ 10082c60 f i GuContactConvexMesh.obj
 0001:00081ca0       ??8CachedEdge@Gu@physx@@QBE_NABU012@@Z 10082ca0 f i GuContactConvexMesh.obj
 0001:00081ce0       ??8CachedVertex@Gu@physx@@QBE_NABU012@@Z 10082ce0 f i GuContactConvexMesh.obj
 0001:00081d10       ??_EConvexMeshContactGenerationCallback@@UAEPAXI@Z 10082d10 f i GuContactConvexMesh.obj
 0001:00081d10       ??_GConvexMeshContactGenerationCallback@@UAEPAXI@Z 10082d10 f i GuContactConvexMesh.obj
 0001:00081d90       ?addData@?$CacheMap@UCachedEdge@Gu@physx@@$0IA@@Gu@physx@@QAE_NABUCachedEdge@23@@Z 10082d90 f i GuContactConvexMesh.obj
 0001:00081ed0       ?addData@?$CacheMap@UCachedVertex@Gu@physx@@$0IA@@Gu@physx@@QAE_NABUCachedVertex@23@@Z 10082ed0 f i GuContactConvexMesh.obj
 0001:00082000       ?allocate@?$Array@IV?$InlineAllocator@$0BBAA@VNamedAllocator@shdfnd@physx@@@shdfnd@physx@@@shdfnd@physx@@IAEPAII@Z 10083000 f i GuContactConvexMesh.obj
 0001:00082070       ?allocate@?$InlineAllocator@$0BBAA@VNamedAllocator@shdfnd@physx@@@shdfnd@physx@@QAEPAXIPBDH@Z 10083070 f i GuContactConvexMesh.obj
 0001:000820c0       ?begin@?$Array@IV?$InlineAllocator@$0BBAA@VNamedAllocator@shdfnd@physx@@@shdfnd@physx@@@shdfnd@physx@@QAEPAIXZ 100830c0 f i GuContactConvexMesh.obj
 0001:000820e0       ?capacity@?$Array@IV?$InlineAllocator@$0BBAA@VNamedAllocator@shdfnd@physx@@@shdfnd@physx@@@shdfnd@physx@@QBEIXZ 100830e0 f i GuContactConvexMesh.obj
 0001:00082100       ?contains@?$CacheMap@UCachedEdge@Gu@physx@@$0IA@@Gu@physx@@QBE_NABUCachedEdge@23@@Z 10083100 f i GuContactConvexMesh.obj
 0001:00082180       ?contains@?$CacheMap@UCachedVertex@Gu@physx@@$0IA@@Gu@physx@@QBE_NABUCachedVertex@23@@Z 10083180 f i GuContactConvexMesh.obj
 0001:00082200       ?copy@?$Array@IV?$InlineAllocator@$0BBAA@VNamedAllocator@shdfnd@physx@@@shdfnd@physx@@@shdfnd@physx@@KAXPAI0PBI@Z 10083200 f i GuContactConvexMesh.obj
 0001:00082250       ?deallocate@?$Array@IV?$InlineAllocator@$0BBAA@VNamedAllocator@shdfnd@physx@@@shdfnd@physx@@@shdfnd@physx@@IAEXPAX@Z 10083250 f i GuContactConvexMesh.obj
 0001:00082270       ?deallocate@?$InlineAllocator@$0BBAA@VNamedAllocator@shdfnd@physx@@@shdfnd@physx@@QAEXPAX@Z 10083270 f i GuContactConvexMesh.obj
 0001:000822a0       ?destroy@?$Array@IV?$InlineAllocator@$0BBAA@VNamedAllocator@shdfnd@physx@@@shdfnd@physx@@@shdfnd@physx@@KAXPAI0@Z 100832a0 f i GuContactConvexMesh.obj
 0001:000822c0       ?end@?$Array@IV?$InlineAllocator@$0BBAA@VNamedAllocator@shdfnd@physx@@@shdfnd@physx@@@shdfnd@physx@@QAEPAIXZ 100832c0 f i GuContactConvexMesh.obj
 0001:000822e0       ?forceSize_Unsafe@?$Array@IV?$InlineAllocator@$0BBAA@VNamedAllocator@shdfnd@physx@@@shdfnd@physx@@@shdfnd@physx@@QAEXI@Z 100832e0 f i GuContactConvexMesh.obj
 0001:00082340       ?getHashCode@CachedEdge@Gu@physx@@QBEIXZ 10083340 f i GuContactConvexMesh.obj
 0001:00082370       ?getHashCode@CachedVertex@Gu@physx@@QBEIXZ 10083370 f i GuContactConvexMesh.obj
 0001:00082380       ?grow@?$Array@IV?$InlineAllocator@$0BBAA@VNamedAllocator@shdfnd@physx@@@shdfnd@physx@@@shdfnd@physx@@IAEXI@Z 10083380 f i GuContactConvexMesh.obj
 0001:000823e0       ?isInUserMemory@?$Array@IV?$InlineAllocator@$0BBAA@VNamedAllocator@shdfnd@physx@@@shdfnd@physx@@@shdfnd@physx@@QBEIXZ 100833e0 f i GuContactConvexMesh.obj
 0001:000825f0       ?processHit@ConvexMeshContactGenerationCallback@@UAE_NABUPxRaycastHit@physx@@ABVPxVec3@3@11AAMPBI@Z 100835f0 f i GuContactConvexMesh.obj
 0001:000826b0       ?recreate@?$Array@IV?$InlineAllocator@$0BBAA@VNamedAllocator@shdfnd@physx@@@shdfnd@physx@@@shdfnd@physx@@IAEXI@Z 100836b0 f i GuContactConvexMesh.obj
 0001:000827b0       ?reserve@?$Array@IV?$InlineAllocator@$0BBAA@VNamedAllocator@shdfnd@physx@@@shdfnd@physx@@@shdfnd@physx@@QAEXI@Z 100837b0 f i GuContactConvexMesh.obj
 0001:000827e0       ?size@?$Array@IV?$InlineAllocator@$0BBAA@VNamedAllocator@shdfnd@physx@@@shdfnd@physx@@@shdfnd@physx@@QBEIXZ 100837e0 f i GuContactConvexMesh.obj
 0001:00082800       ?contactPlaneBox@Gu@physx@@YA_NABVGeometryUnion@12@0ABVPxTransform@2@1ABUNarrowPhaseParams@12@AAUCache@12@AAVContactBuffer@12@PAVRenderOutput@Cm@2@@Z 10083800 f   GuContactPlaneBox.obj
 0001:00082ee0       ??$PxUnionCast@PAIPAM@physx@@YAPAIPAM@Z 10083ee0 f i GuContactPlaneBox.obj
 0001:00082f00       ??0AB@?1???$PxUnionCast@PAIPAM@physx@@YAPAIPAM@Z@QAE@0@Z 10083f00 f i GuContactPlaneBox.obj
 0001:00082f20       ?contactPlaneCapsule@Gu@physx@@YA_NABVGeometryUnion@12@0ABVPxTransform@2@1ABUNarrowPhaseParams@12@AAUCache@12@AAVContactBuffer@12@PAVRenderOutput@Cm@2@@Z 10083f20 f   GuContactPlaneCapsule.obj
 0001:000830d0       ?contactPlaneConvex@Gu@physx@@YA_NABVGeometryUnion@12@0ABVPxTransform@2@1ABUNarrowPhaseParams@12@AAUCache@12@AAVContactBuffer@12@PAVRenderOutput@Cm@2@@Z 100840d0 f   GuContactPlaneConvex.obj
 0001:000832b0       ??AMatrix34@Cm@physx@@QAEAAVPxVec3@2@H@Z 100842b0 f i GuContactPlaneConvex.obj
 0001:000832d0       ?contact@ContactBuffer@Gu@physx@@QAEPAUContactPoint@23@XZ 100842d0 f i GuContactPlaneConvex.obj
 0001:00083320       ?getVertex2ShapeSkew@FastVertex2ShapeScaling@Cm@physx@@QBEABVPxMat33@3@XZ 10084320 f i GuContactPlaneConvex.obj
 0001:00083380       ?findRotationMatrixFromZ@Gu@physx@@YA?AVPxMat33@2@ABVPxVec3@2@@Z 10084380 f   GuContactPolygonPolygon.obj
 0001:000839b0       ?contactPolygonPolygonExt@Gu@physx@@YA_NIPBVPxVec3@2@PBEABVMatrix34@Cm@2@ABVPxPlane@2@ABVPxMat33@2@I01234ABV32@22IIAAVContactBuffer@12@_N5M@Z 100849b0 f   GuContactPolygonPolygon.obj
 0001:000851a0       ??4ContactPoint@Gu@physx@@QAEAAU012@ABU012@@Z 100861a0 f i GuContactPolygonPolygon.obj
 0001:00085250       ??RPxMat33@physx@@QAEAAMII@Z 10086250 f i GuContactPolygonPolygon.obj
 0001:00085280       ?EdgeEdgeContactSpecial@@YA_NABVPxVec3@physx@@ABVPxPlane@2@00000AAMAAV12@IIM@Z 10086280 f i GuContactPolygonPolygon.obj
 0001:00085480       ?cross001@shdfnd@physx@@YA?AVPxVec3@2@ABV32@@Z 10086480 f i GuContactPolygonPolygon.obj
 0001:000854c0       ?degToRad@shdfnd@physx@@YAMM@Z 100864c0 f i GuContactPolygonPolygon.obj
 0001:000854e0       ?pointInTriangle2D@@YA_NMMMMMMMM@Z 100864e0 f i GuContactPolygonPolygon.obj
 0001:00085640       ?transform2D@@YAXAAM0ABVPxVec3@physx@@ABVMatrix34@Cm@2@@Z 10086640 f i GuContactPolygonPolygon.obj
 0001:000856d0       ?transform2DT@@YAXAAM0ABVPxVec3@physx@@ABVPxMat33@2@@Z 100866d0 f i GuContactPolygonPolygon.obj
 0001:00085700       ?transformTranspose@@YA?AVMatrix34@Cm@physx@@ABVPxMat33@3@ABV123@@Z 10086700 f i GuContactPolygonPolygon.obj
 0001:00085770       ?transformZ@@YAMABVPxVec3@physx@@ABVMatrix34@Cm@2@@Z 10086770 f i GuContactPolygonPolygon.obj
 0001:000857c0       ?contactSphereBox@Gu@physx@@YA_NABVGeometryUnion@12@0ABVPxTransform@2@1ABUNarrowPhaseParams@12@AAUCache@12@AAVContactBuffer@12@PAVRenderOutput@Cm@2@@Z 100867c0 f   GuContactSphereBox.obj
 0001:00085d10       ??$checkType@$$CBVPxSphereGeometry@physx@@@physx@@YAXABVGeometryUnion@Gu@0@@Z 10086d10 f i GuContactSphereBox.obj
 0001:00085d70       ??$get@$$CBVPxSphereGeometry@physx@@@GeometryUnion@Gu@physx@@QBEABVPxSphereGeometry@2@XZ 10086d70 f i GuContactSphereBox.obj
 0001:00085de0       ?contactSphereCapsule@Gu@physx@@YA_NABVGeometryUnion@12@0ABVPxTransform@2@1ABUNarrowPhaseParams@12@AAUCache@12@AAVContactBuffer@12@PAVRenderOutput@Cm@2@@Z 10086de0 f   GuContactSphereCapsule.obj
 0001:00086030       ?contactSphereMesh@Gu@physx@@YA_NABVGeometryUnion@12@0ABVPxTransform@2@1ABUNarrowPhaseParams@12@AAUCache@12@AAVContactBuffer@12@PAVRenderOutput@Cm@2@@Z 10087030 f   GuContactSphereMesh.obj
 0001:00086240       ?contactSphereHeightfield@Gu@physx@@YA_NABVGeometryUnion@12@0ABVPxTransform@2@1ABUNarrowPhaseParams@12@AAUCache@12@AAVContactBuffer@12@PAVRenderOutput@Cm@2@@Z 10087240 f   GuContactSphereMesh.obj
 0001:00086a40       ??$median3@USortKey@@$$CBU?$Less@USortKey@@@shdfnd@physx@@@internal@shdfnd@physx@@YAXPAUSortKey@@HHABU?$Less@USortKey@@@12@@Z 10087a40 f i GuContactSphereMesh.obj
 0001:00086b30       ??$partition@USortKey@@$$CBU?$Less@USortKey@@@shdfnd@physx@@@internal@shdfnd@physx@@YAHPAUSortKey@@HHABU?$Less@USortKey@@@12@@Z 10087b30 f i GuContactSphereMesh.obj
 0001:00086ca0       ??$smallSort@USortKey@@$$CBU?$Less@USortKey@@@shdfnd@physx@@@internal@shdfnd@physx@@YAXPAUSortKey@@HHABU?$Less@USortKey@@@12@@Z 10087ca0 f i GuContactSphereMesh.obj
 0001:00086f80       ??$swap@USortKey@@@shdfnd@physx@@YAXAAUSortKey@@0@Z 10087f80 f i GuContactSphereMesh.obj
 0001:00086fc0       ??0?$ScopedPointer@HVTempAllocator@shdfnd@physx@@@shdfnd@physx@@QAE@XZ 10087fc0 f i GuContactSphereMesh.obj
 0001:000871e0       ??0TempAllocator@shdfnd@physx@@QAE@PBD@Z 100881e0 f i GuContactSphereMesh.obj
 0001:000871f0       ??0TriangleData@@QAE@XZ    100881f0 f i GuContactSphereMesh.obj
 0001:00087210       ??1?$ScopedPointer@HVTempAllocator@shdfnd@physx@@@shdfnd@physx@@QAE@XZ 10088210 f i GuContactSphereMesh.obj
 0001:000872e0       ??B?$ScopedPointer@HVTempAllocator@shdfnd@physx@@@shdfnd@physx@@QBEPAHXZ 100882e0 f i GuContactSphereMesh.obj
 0001:000872f0       ??MSortKey@@QBE_NABU0@@Z   100882f0 f i GuContactSphereMesh.obj
 0001:00087330       ??R?$Less@USortKey@@@shdfnd@physx@@QBE_NABUSortKey@@0@Z 10088330 f i GuContactSphereMesh.obj
 0001:00087f80       ?contactSpherePlane@Gu@physx@@YA_NABVGeometryUnion@12@0ABVPxTransform@2@1ABUNarrowPhaseParams@12@AAUCache@12@AAVContactBuffer@12@PAVRenderOutput@Cm@2@@Z 10088f80 f   GuContactSpherePlane.obj
 0001:00088050       ?contactSphereSphere@Gu@physx@@YA_NABVGeometryUnion@12@0ABVPxTransform@2@1ABUNarrowPhaseParams@12@AAUCache@12@AAVContactBuffer@12@PAVRenderOutput@Cm@2@@Z 10089050 f   GuContactSphereSphere.obj
 0001:000881d0       ?selectNormal@Gu@physx@@YA_NEMM@Z 100891d0 f   GuFeatureCode.obj
 0001:00088370       ??0BigConvexData@physx@@QAE@XZ 10089370 f   GuBigConvexData.obj
 0001:000883d0       ??1BigConvexData@physx@@QAE@XZ 100893d0 f   GuBigConvexData.obj
 0001:00088450       ?Load@BigConvexData@physx@@QAE_NAAVPxInputStream@2@@Z 10089450 f   GuBigConvexData.obj
 0001:00088560       ?ComputeOffset@BigConvexData@physx@@QBEIABVPxVec3@2@@Z 10089560 f   GuBigConvexData.obj
 0001:00088580       ?ComputeNearestOffset@BigConvexData@physx@@QBEIABVPxVec3@2@@Z 10089580 f   GuBigConvexData.obj
 0001:000885a0       ?exportExtraData@BigConvexData@physx@@QAEXAAVPxSerializationContext@2@@Z 100895a0 f   GuBigConvexData.obj
 0001:00088640       ?importExtraData@BigConvexData@physx@@QAEXAAVPxDeserializationContext@2@@Z 10089640 f   GuBigConvexData.obj
 0001:000886c0       ?CreateOffsets@BigConvexData@physx@@IAEXXZ 100896c0 f   GuBigConvexData.obj
 0001:00088730       ?VLoad@BigConvexData@physx@@IAE_NAAVPxInputStream@2@@Z 10089730 f   GuBigConvexData.obj
 0001:00088950       ??$readExtraData@E$0BA@@PxDeserializationContext@physx@@QAEPAEI@Z 10089950 f i GuBigConvexData.obj
 0001:00088980       ??$readExtraData@E@PxDeserializationContext@physx@@QAEPAEI@Z 10089980 f i GuBigConvexData.obj
 0001:000889b0       ??$readExtraData@UValency@Gu@physx@@@PxDeserializationContext@physx@@QAEPAUValency@Gu@1@I@Z 100899b0 f i GuBigConvexData.obj
 0001:000889e0       ?ComputeCubemapOffset@physx@@YAIABVPxVec3@1@I@Z 100899e0 f i GuBigConvexData.obj
 0001:00088ab0       ?getScaledConvex@Gu@physx@@YAXAAPAVPxVec3@2@AAPAEPAV32@PAE_NPBV32@PBEIABVFastVertex2ShapeScaling@Cm@2@@Z 10089ab0 f   GuConvexHelper.obj
 0001:00088b50       ?getConvexData@Gu@physx@@YA_NABVGeometryUnion@12@AAVFastVertex2ShapeScaling@Cm@2@AAVPxBounds3@2@AAUPolygonalData@12@@Z 10089b50 f   GuConvexHelper.obj
 0001:00088c20       ?findUniqueConvexEdges@Gu@physx@@YAIIPIAUConvexEdge@12@IPIBUHullPolygonData@12@PIBE@Z 10089c20 f   GuConvexHelper.obj
 0001:00088de0       ?isEmpty@CenterExtents@Gu@physx@@QBE_NXZ 10089de0 f i GuConvexHelper.obj
 0001:00088e00       ?isEmpty@Cm@physx@@YA_NABVPxVec3@2@0@Z 10089e00 f i GuConvexHelper.obj
 0001:00088e80       ?isValid@CenterExtents@Gu@physx@@QBE_NXZ 10089e80 f i GuConvexHelper.obj
 0001:00088ea0       ?isValid@Cm@physx@@YA_NABVPxVec3@2@0@Z 10089ea0 f i GuConvexHelper.obj
 0001:00088f50       ?reset@InternalObjectsData@Gu@physx@@QAEXXZ 10089f50 f i GuConvexHelper.obj
 0001:00088fa0       ?transformFast@CenterExtents@Gu@physx@@QBE?AVPxBounds3@3@ABVPxMat33@3@@Z 10089fa0 f i GuConvexHelper.obj
 0001:000890b0       ?exportExtraData@ConvexMesh@Gu@physx@@UAEXAAVPxSerializationContext@3@@Z 1008a0b0 f   GuConvexMesh.obj
 0001:00089140       ?importExtraData@ConvexMesh@Gu@physx@@QAEXAAVPxDeserializationContext@3@@Z 1008a140 f   GuConvexMesh.obj
 0001:000891e0       ?onRefCountZero@ConvexMesh@Gu@physx@@UAEXXZ 1008a1e0 f   GuConvexMesh.obj
 0001:00089260       ?createObject@ConvexMesh@Gu@physx@@SAPAV123@AAPAEAAVPxDeserializationContext@3@@Z 1008a260 f   GuConvexMesh.obj
 0001:000892e0       ??0ConvexMesh@Gu@physx@@QAE@XZ 1008a2e0 f   GuConvexMesh.obj
 0001:00089380       ??0ConvexMesh@Gu@physx@@QAE@AAVGuMeshFactory@2@AAUConvexHullData@12@@Z 1008a380 f   GuConvexMesh.obj
 0001:00089430       ?load@ConvexMesh@Gu@physx@@QAE_NAAVPxInputStream@3@@Z 1008a430 f   GuConvexMesh.obj
 0001:000898f0       ?release@ConvexMesh@Gu@physx@@UAEXXZ 1008a8f0 f   GuConvexMesh.obj
 0001:00089910       ?getPolygonData@ConvexMesh@Gu@physx@@UBE_NIAAUPxHullPolygon@3@@Z 1008a910 f   GuConvexMesh.obj
 0001:000899b0       ?isGpuCompatible@ConvexMesh@Gu@physx@@UBE_NXZ 1008a9b0 f   GuConvexMesh.obj
 0001:00089a10       ?getReferenceCount@ConvexMesh@Gu@physx@@UBEIXZ 1008aa10 f   GuConvexMesh.obj
 0001:00089a30       ?acquireReference@ConvexMesh@Gu@physx@@UAEXXZ 1008aa30 f   GuConvexMesh.obj
 0001:00089a50       ?getMassInformation@ConvexMesh@Gu@physx@@UBEXAAMAAVPxMat33@3@AAVPxVec3@3@@Z 1008aa50 f   GuConvexMesh.obj
 0001:00089a90       ?getLocalBounds@ConvexMesh@Gu@physx@@UBE?AVPxBounds3@3@XZ 1008aa90 f   GuConvexMesh.obj
 0001:00089b10       ??1ConvexMesh@Gu@physx@@UAE@XZ 1008ab10 f   GuConvexMesh.obj
 0001:0008a240       ??$PX_UNUSED@G@@YAXABG@Z   1008b240 f i GuConvexMesh.obj
 0001:0008a250       ??$deletePxBase@VConvexMesh@Gu@physx@@@Cm@physx@@YAXPAVConvexMesh@Gu@1@@Z 1008b250 f i GuConvexMesh.obj
 0001:0008a2c0       ??$readExtraData@VBigConvexData@physx@@$0BA@@PxDeserializationContext@physx@@QAEPAVBigConvexData@1@I@Z 1008b2c0 f i GuConvexMesh.obj
 0001:0008a2f0       ??$readExtraData@VBigConvexData@physx@@@PxDeserializationContext@physx@@QAEPAVBigConvexData@1@I@Z 1008b2f0 f i GuConvexMesh.obj
 0001:0008a320       ??0?$PxBitAndDataT@G$0IAAA@@physx@@QAE@G_N@Z 1008b320 f i GuConvexMesh.obj
 0001:0008a360       ??0?$PxBitAndDataT@G$0IAAA@@physx@@QAE@XZ 1008b360 f i GuConvexMesh.obj
 0001:0008a380       ??0?$PxBitAndDataT@I$0IAAAAAAA@@physx@@QAE@I_N@Z 1008b380 f i GuConvexMesh.obj
 0001:0008a3c0       ??0?$ReflectionAllocator@VBigConvexData@physx@@@shdfnd@physx@@QAE@PBD@Z 1008b3c0 f i GuConvexMesh.obj
 0001:0008a3d0       ??0CenterExtents@Gu@physx@@QAE@ABVPxBounds3@2@@Z 1008b3d0 f i GuConvexMesh.obj
 0001:0008a430       ??0ConvexHullData@Gu@physx@@QAE@XZ 1008b430 f i GuConvexMesh.obj
 0001:0008a460       ??0PxConvexMesh@physx@@IAE@GV?$PxFlags@W4Enum@PxBaseFlag@physx@@G@1@@Z 1008b460 f i GuConvexMesh.obj
 0001:0008a4a0       ??1ConvexHullData@Gu@physx@@QAE@XZ 1008b4a0 f i GuConvexMesh.obj
 0001:0008a4c0       ??4ConvexHullData@Gu@physx@@QAEAAU012@ABU012@@Z 1008b4c0 f i GuConvexMesh.obj
 0001:0008a550       ??B?$PxBitAndDataT@I$0IAAAAAAA@@physx@@QBEIXZ 1008b550 f i GuConvexMesh.obj
 0001:0008a570       ??_GBigConvexData@physx@@QAEPAXI@Z 1008b570 f i GuConvexMesh.obj
 0001:0008a5c0       ?allocate@?$ReflectionAllocator@VBigConvexData@physx@@@shdfnd@physx@@QAEPAXIPBDH@Z 1008b5c0 f i GuConvexMesh.obj
 0001:0008a610       ?centerExtents@PxBounds3@physx@@SA?AV12@ABVPxVec3@2@0@Z 1008b610 f i GuConvexMesh.obj
 0001:0008a650       ?computeBufferSize@Gu@physx@@YAIABUConvexHullData@12@I@Z 1008b650 f i GuConvexMesh.obj
 0001:0008a710       ?flipData@Gu@physx@@YAXAAUHullPolygonData@12@@Z 1008b710 f i GuConvexMesh.obj
 0001:0008a760       ?getBufferSize@ConvexMesh@Gu@physx@@QBEIXZ 1008b760 f i GuConvexMesh.obj
 0001:0008a790       ?getInertia@ConvexMesh@Gu@physx@@QBEABVPxMat33@3@XZ 1008b790 f i GuConvexMesh.obj
 0001:0008a7b0       ?getMass@ConvexMesh@Gu@physx@@QBEMXZ 1008b7b0 f i GuConvexMesh.obj
 0001:0008a7d0       ?getName@?$ReflectionAllocator@VBigConvexData@physx@@@shdfnd@physx@@CAPBDXZ 1008b7d0 f i GuConvexMesh.obj
 0001:0008a810       ?getNb@ConvexMesh@Gu@physx@@ABEIXZ 1008b810 f i GuConvexMesh.obj
 0001:0008a830       ?incRefCount@RefCountable@Cm@physx@@QAEXXZ 1008b830 f i GuConvexMesh.obj
 0001:0008a890       ?resolveReferences@ConvexMesh@Gu@physx@@QAEXAAVPxDeserializationContext@3@@Z 1008b890 f i GuConvexMesh.obj
 0001:0008a8a0       ?setEmpty@CenterExtents@Gu@physx@@QAEXXZ 1008b8a0 f i GuConvexMesh.obj
 0001:0008a8d0       ?BFFTF@aos@shdfnd@physx@@YA?AT__m128@@XZ 1008b8d0 f i GuConvexSupportTable.obj
 0001:0008a910       ?BFTFF@aos@shdfnd@physx@@YA?AT__m128@@XZ 1008b910 f i GuConvexSupportTable.obj
 0001:0008a950       ?BFTTF@aos@shdfnd@physx@@YA?AT__m128@@XZ 1008b950 f i GuConvexSupportTable.obj
 0001:0008a990       ?BTFFF@aos@shdfnd@physx@@YA?AT__m128@@XZ 1008b990 f i GuConvexSupportTable.obj
 0001:0008a9d0       ?BTFTF@aos@shdfnd@physx@@YA?AT__m128@@XZ 1008b9d0 f i GuConvexSupportTable.obj
 0001:0008aa10       ?BTTFF@aos@shdfnd@physx@@YA?AT__m128@@XZ 1008ba10 f i GuConvexSupportTable.obj
 0001:0008aa50       ?computeHullOBB@Gu@physx@@YAXAAVBox@12@ABVPxBounds3@2@MABVMatrix34@Cm@2@2ABVFastVertex2ShapeScaling@62@_N@Z 1008ba50 f   GuConvexUtilsInternal.obj
 0001:0008ab00       ?computeVertexSpaceOBB@Gu@physx@@YAXAAVBox@12@ABV312@ABVPxTransform@2@ABVPxMeshScale@2@@Z 1008bb00 f   GuConvexUtilsInternal.obj
 0001:0008ab70       ?computeOBBAroundConvex@Gu@physx@@YAXAAVBox@12@ABVPxConvexMeshGeometry@2@PBVPxConvexMesh@2@ABVPxTransform@2@@Z 1008bb70 f   GuConvexUtilsInternal.obj
 0001:0008ad10       ??DMatrix34@Cm@physx@@QBE?AV012@ABVPxMat33@2@@Z 1008bd10 f i GuConvexUtilsInternal.obj
 0001:0008ad50       ??Dphysx@@YA?AVMatrix34@Cm@0@ABVPxMeshScale@0@ABV120@@Z 1008bd50 f i GuConvexUtilsInternal.obj
 0001:0008ada0       ?getLocalBoundsFast@ConvexMesh@Gu@physx@@QBEABVCenterExtents@23@XZ 1008bda0 f i GuConvexUtilsInternal.obj
 0001:0008adc0       ?transform@physx@@YA?AVBox@Gu@1@ABVMatrix34@Cm@1@ABV231@@Z 1008bdc0 f i GuConvexUtilsInternal.obj
 0001:0008aed0       ?transformTranspose@Matrix34@Cm@physx@@QBE?AV123@ABV123@@Z 1008bed0 f i GuConvexUtilsInternal.obj
 0001:0008af50       ?localSearch@physx@@YAXAAIABVPxVec3@1@PBV21@PBUBigConvexRawData@Gu@1@@Z 1008bf50 f   GuHillClimbing.obj
 0001:0008b1f0       ??0PolygonalBox@Gu@physx@@QAE@ABVPxVec3@2@@Z 1008c1f0 f   GuShapeConvex.obj
 0001:0008b9e0       ?getPolygonalData@PolygonalBox@Gu@physx@@QBEXPIAUPolygonalData@23@@Z 1008c9e0 f   GuShapeConvex.obj
 0001:0008bad0       ?getPolygonalData_Convex@Gu@physx@@YAXPIAUPolygonalData@12@PIBUConvexHullData@12@ABVFastVertex2ShapeScaling@Cm@2@@Z 1008cad0 f   GuShapeConvex.obj
 0001:0008c5e0       ?getFacesByEdges8@ConvexHullData@Gu@physx@@QBEPBEXZ 1008d5e0 f i GuShapeConvex.obj
 0001:0008c620       ?distancePointBoxSquared@Gu@physx@@YAMABVPxVec3@2@00ABVPxMat33@2@PAV32@@Z 1008d620 f   GuDistancePointBox.obj
 0001:0008c820       ?closestPtPointTriangle@Gu@physx@@YA?AVPxVec3@2@ABV32@000AAM1@Z 1008d820 f   GuDistancePointTriangle.obj
 0001:0008cc70       ?distancePointTriangleSquared@Gu@physx@@YA?AT__m128@@ABT3@000AAT3@11@Z 1008dc70 f   GuDistancePointTriangle.obj
 0001:0008d930       ?distanceSegmentBoxSquared@Gu@physx@@YAMABVPxVec3@2@000ABVPxMat33@2@PAMPAV32@@Z 1008e930 f   GuDistanceSegmentBox.obj
 0001:000902f0       ?distanceSegmentSegmentSquared@Gu@physx@@YAMABVPxVec3@2@0M00MPAM1@Z 100912f0 f   GuDistanceSegmentSegment.obj
 0001:00091340       ?distanceSegmentSegmentSquared@Gu@physx@@YAMABVPxVec3@2@000PAM1@Z 10092340 f   GuDistanceSegmentSegment.obj
 0001:00091550       ?distanceSegmentSegmentSquared@Gu@physx@@YA?AT__m128@@ABT3@000AAT3@1@Z 10092550 f   GuDistanceSegmentSegment.obj
 0001:00091a60       ?distanceSegmentSegmentSquared4@Gu@physx@@YA?AT__m128@@ABT3@000000000AAT3@1@Z 10092a60 f   GuDistanceSegmentSegment.obj
 0001:00092680       ?FHalf@aos@shdfnd@physx@@YA?AT__m128@@XZ 10093680 f i GuDistanceSegmentSegment.obj
 0001:000926c0       ?V3Dot4@aos@shdfnd@physx@@YA?AT__m128@@ABT4@0000000@Z 100936c0 f i GuDistanceSegmentSegment.obj
 0001:000928e0       ?V4Clamp@aos@shdfnd@physx@@YA?AT__m128@@T4@00@Z 100938e0 f i GuDistanceSegmentSegment.obj
 0001:00092940       ?V4Div@aos@shdfnd@physx@@YA?AT__m128@@T4@0@Z 10093940 f i GuDistanceSegmentSegment.obj
 0001:00092980       ?V4Eps@aos@shdfnd@physx@@YA?AT__m128@@XZ 10093980 f i GuDistanceSegmentSegment.obj
 0001:000929c0       ?V4IsGrtr@aos@shdfnd@physx@@YA?AT__m128@@T4@0@Z 100939c0 f i GuDistanceSegmentSegment.obj
 0001:00092a00       ?V4One@aos@shdfnd@physx@@YA?AT__m128@@XZ 10093a00 f i GuDistanceSegmentSegment.obj
 0001:00092a40       ?V4Recip@aos@shdfnd@physx@@YA?AT__m128@@T4@@Z 10093a40 f i GuDistanceSegmentSegment.obj
 0001:00092a80       ?V4Splat@aos@shdfnd@physx@@YA?AT__m128@@T4@@Z 10093a80 f i GuDistanceSegmentSegment.obj
 0001:00092af0       ?V4UnpackXY@aos@shdfnd@physx@@YA?AT__m128@@ABT4@0@Z 10093af0 f i GuDistanceSegmentSegment.obj
 0001:00092b30       ?V4UnpackZW@aos@shdfnd@physx@@YA?AT__m128@@ABT4@0@Z 10093b30 f i GuDistanceSegmentSegment.obj
 0001:00092b70       ?distanceSegmentTriangleSquared@Gu@physx@@YAMABVPxVec3@2@0000PAM11@Z 10093b70 f   GuDistanceSegmentTriangle.obj
 0001:00094020       ?distanceSegmentTriangleSquared@Gu@physx@@YA?AT__m128@@ABT3@0000AAT3@1@Z 10095020 f   GuDistanceSegmentTriangle.obj
 0001:000950f0       ?isValidTriangleBarycentricCoord@Gu@physx@@YA?AT__m128@@ABT3@0@Z 100960f0 f i GuDistanceSegmentTriangle.obj
 0001:00095280       ?epaPenetration@Gu@physx@@YA?AW4GjkStatus@12@ABUGjkConvex@12@0PIBE1E_NT__m128@@AAUGjkOutput@12@@Z 10096280 f   GuEPA.obj
 0001:000953b0       ?isValid2@Facet@Gu@physx@@QAE?AT__m128@@IIIPIBT4@0ABT4@@Z 100963b0 f   GuEPA.obj
 0001:00095660       ?silhouette@Facet@Gu@physx@@QAEXABT__m128@@PIBT4@1AAVEdgeBuffer@23@AAV?$InlineDeferredIDPool@$0EA@@Cm@3@@Z 10096660 f   GuEPA.obj
 0001:000956c0       ?PenetrationDepth@EPA@Gu@physx@@QAE?AW4GjkStatus@23@ABUGjkConvex@23@0PIBT__m128@@1E_NT6@AAUGjkOutput@23@@Z 100966c0 f   GuEPA.obj
 0001:00096420       ?expandPoint@EPA@Gu@physx@@QAE_NABUGjkConvex@23@0AAHABT__m128@@@Z 10097420 f   GuEPA.obj
 0001:00096500       ?expandSegment@EPA@Gu@physx@@QAE_NABUGjkConvex@23@0AAHABT__m128@@@Z 10097500 f   GuEPA.obj
 0001:00096780       ?expandTriangle@EPA@Gu@physx@@QAE_NAAHABT__m128@@@Z 10097780 f   GuEPA.obj
 0001:00096810       ?addFacet@EPA@Gu@physx@@QAEPAVFacet@23@IIIABT__m128@@@Z 10097810 f   GuEPA.obj
 0001:00096c60       ??0?$DeferredIDPoolBase@V?$InlineFixedArray@I$0EA@@Cm@physx@@@Cm@physx@@QAE@XZ 10097c60 f i GuEPA.obj
 0001:00096c90       ??0?$IDPoolBase@V?$InlineFixedArray@I$0EA@@Cm@physx@@@Cm@physx@@QAE@XZ 10097c90 f i GuEPA.obj
 0001:00096cc0       ??0?$InlineDeferredIDPool@$0EA@@Cm@physx@@QAE@XZ 10097cc0 f i GuEPA.obj
 0001:00096ce0       ??0?$InlineFixedArray@I$0EA@@Cm@physx@@QAE@XZ 10097ce0 f i GuEPA.obj
 0001:00096d00       ??0?$InlinePriorityQueue@PAVFacet@Gu@physx@@$0EA@UFacetDistanceComparator@23@@Cm@physx@@QAE@ABUFacetDistanceComparator@Gu@2@@Z 10097d00 f i GuEPA.obj
 0001:00096d30       ??0?$PriorityQueueBase@PAVFacet@Gu@physx@@UFacetDistanceComparator@23@@Cm@physx@@QAE@ABUFacetDistanceComparator@Gu@2@PAPAVFacet@42@@Z 10097d30 f i GuEPA.obj
 0001:00096d60       ??0EPA@Gu@physx@@QAE@XZ    10097d60 f i GuEPA.obj
 0001:00096db0       ??0Edge@Gu@physx@@QAE@PIAVFacet@12@I@Z 10097db0 f i GuEPA.obj
 0001:00096de0       ??0Edge@Gu@physx@@QAE@XZ   10097de0 f i GuEPA.obj
 0001:00096df0       ??0EdgeBuffer@Gu@physx@@QAE@XZ 10097df0 f i GuEPA.obj
 0001:00096e30       ??0Facet@Gu@physx@@QAE@III@Z 10097e30 f i GuEPA.obj
 0001:00096f10       ??0Facet@Gu@physx@@QAE@XZ  10097f10 f i GuEPA.obj
 0001:00096f20       ??1?$DeferredIDPoolBase@V?$InlineFixedArray@I$0EA@@Cm@physx@@@Cm@physx@@QAE@XZ 10097f20 f i GuEPA.obj
 0001:00096f50       ??1?$IDPoolBase@V?$InlineFixedArray@I$0EA@@Cm@physx@@@Cm@physx@@QAE@XZ 10097f50 f i GuEPA.obj
 0001:00096f70       ??1?$InlineDeferredIDPool@$0EA@@Cm@physx@@QAE@XZ 10097f70 f i GuEPA.obj
 0001:00096f90       ??1?$InlineFixedArray@I$0EA@@Cm@physx@@QAE@XZ 10097f90 f i GuEPA.obj
 0001:00096fa0       ??1?$InlinePriorityQueue@PAVFacet@Gu@physx@@$0EA@UFacetDistanceComparator@23@@Cm@physx@@QAE@XZ 10097fa0 f i GuEPA.obj
 0001:00096fc0       ??1?$PriorityQueueBase@PAVFacet@Gu@physx@@UFacetDistanceComparator@23@@Cm@physx@@QAE@XZ 10097fc0 f i GuEPA.obj
 0001:00096fd0       ??1EPA@Gu@physx@@QAE@XZ    10097fd0 f i GuEPA.obj
 0001:00097000       ??4Edge@Gu@physx@@QAEAAV012@ABV012@@Z 10098000 f i GuEPA.obj
 0001:00097030       ??A?$InlineFixedArray@I$0EA@@Cm@physx@@QAEAAII@Z 10098030 f i GuEPA.obj
 0001:00097090       ??AFacet@Gu@physx@@QBEII@Z 10098090 f i GuEPA.obj
 0001:000970b0       ??MFacet@Gu@physx@@QBE_NABV012@@Z 100980b0 f i GuEPA.obj
 0001:000970f0       ??RFacetDistanceComparator@Gu@physx@@QBE_NPBVFacet@12@0@Z 100980f0 f i GuEPA.obj
 0001:00097110       ?FNegScaleSub@aos@shdfnd@physx@@YA?AT__m128@@T4@00@Z 10098110 f i GuEPA.obj
 0001:00097240       ?FRsqrt@aos@shdfnd@physx@@YA?AT__m128@@T4@@Z 10098240 f i GuEPA.obj
 0001:000972d0       ?FSqrt@aos@shdfnd@physx@@YA?AT__m128@@T4@@Z 100982d0 f i GuEPA.obj
 0001:00097350       ?Get@EdgeBuffer@Gu@physx@@QAEPAVEdge@23@I@Z 10098350 f i GuEPA.obj
 0001:000973b0       ?Insert@EdgeBuffer@Gu@physx@@QAEPAVEdge@23@PIAVFacet@23@I@Z 100983b0 f i GuEPA.obj
 0001:00097420       ?IsValid@EdgeBuffer@Gu@physx@@QAE_NXZ 10098420 f i GuEPA.obj
 0001:00097460       ?MakeEmpty@EdgeBuffer@Gu@physx@@QAEXXZ 10098460 f i GuEPA.obj
 0001:00097490       ?Size@EdgeBuffer@Gu@physx@@QAEIXZ 10098490 f i GuEPA.obj
 0001:000974b0       ?Valid@Facet@Gu@physx@@QAE_NXZ 100984b0 f i GuEPA.obj
 0001:00097530       ?clear@?$InlineFixedArray@I$0EA@@Cm@physx@@QAEXXZ 10098530 f i GuEPA.obj
 0001:00097550       ?clear@?$PriorityQueueBase@PAVFacet@Gu@physx@@UFacetDistanceComparator@23@@Cm@physx@@QAEXXZ 10098550 f i GuEPA.obj
 0001:00097570       ?compare@?$PriorityQueueBase@PAVFacet@Gu@physx@@UFacetDistanceComparator@23@@Cm@physx@@IBE_NABQAVFacet@Gu@3@0@Z 10098570 f i GuEPA.obj
 0001:000975a0       ?deferredFreeID@?$DeferredIDPoolBase@V?$InlineFixedArray@I$0EA@@Cm@physx@@@Cm@physx@@QAEXI@Z 100985a0 f i GuEPA.obj
 0001:000975c0       ?empty@?$PriorityQueueBase@PAVFacet@Gu@physx@@UFacetDistanceComparator@23@@Cm@physx@@QBE_NXZ 100985c0 f i GuEPA.obj
 0001:000975f0       ?freeID@?$IDPoolBase@V?$InlineFixedArray@I$0EA@@Cm@physx@@@Cm@physx@@QAEXI@Z 100985f0 f i GuEPA.obj
 0001:00097630       ?getClosestPoint@Facet@Gu@physx@@QAEXPIBT__m128@@0AAT4@1@Z 10098630 f i GuEPA.obj
 0001:00097b60       ?getFacet@Edge@Gu@physx@@QBEPAVFacet@23@XZ 10098b60 f i GuEPA.obj
 0001:00097b70       ?getIndex@Edge@Gu@physx@@QBEIXZ 10098b70 f i GuEPA.obj
 0001:00097b90       ?getNewID@?$IDPoolBase@V?$InlineFixedArray@I$0EA@@Cm@physx@@@Cm@physx@@QAEIXZ 10098b90 f i GuEPA.obj
 0001:00097be0       ?getNumRemainingIDs@?$InlineDeferredIDPool@$0EA@@Cm@physx@@QAEIXZ 10098be0 f i GuEPA.obj
 0001:00097c00       ?getNumUsedID@?$DeferredIDPoolBase@V?$InlineFixedArray@I$0EA@@Cm@physx@@@Cm@physx@@QBEIXZ 10098c00 f i GuEPA.obj
 0001:00097c30       ?getNumUsedID@?$IDPoolBase@V?$InlineFixedArray@I$0EA@@Cm@physx@@@Cm@physx@@QBEIXZ 10098c30 f i GuEPA.obj
 0001:00097c50       ?getPlaneDist@Facet@Gu@physx@@QBE?AT__m128@@ABT4@PIBT4@1@Z 10098c50 f i GuEPA.obj
 0001:00097d00       ?getPlaneDist@Facet@Gu@physx@@QBE?AT__m128@@XZ 10098d00 f i GuEPA.obj
 0001:00097d50       ?getPlaneNormal@Facet@Gu@physx@@QBE?AT__m128@@XZ 10098d50 f i GuEPA.obj
 0001:00097d70       ?getSource@Edge@Gu@physx@@QBEIXZ 10098d70 f i GuEPA.obj
 0001:00097dd0       ?getTarget@Edge@Gu@physx@@QBEIXZ 10098dd0 f i GuEPA.obj
 0001:00097e40       ?incMod3@Gu@physx@@YAII@Z  10098e40 f i GuEPA.obj
 0001:00097e50       ?isObsolete@Facet@Gu@physx@@QBE_NXZ 10098e50 f i GuEPA.obj
 0001:00097e70       ?left@?$PriorityQueueBase@PAVFacet@Gu@physx@@UFacetDistanceComparator@23@@Cm@physx@@KAII@Z 10098e70 f i GuEPA.obj
 0001:00097e80       ?link@Facet@Gu@physx@@QAE_NIPIAV123@I@Z 10098e80 f i GuEPA.obj
 0001:00097f30       ?parent@?$PriorityQueueBase@PAVFacet@Gu@physx@@UFacetDistanceComparator@23@@Cm@physx@@KAII@Z 10098f30 f i GuEPA.obj
 0001:00097f40       ?pop@?$PriorityQueueBase@PAVFacet@Gu@physx@@UFacetDistanceComparator@23@@Cm@physx@@QAEPAVFacet@Gu@3@XZ 10098f40 f i GuEPA.obj
 0001:000980e0       ?popBack@?$InlineFixedArray@I$0EA@@Cm@physx@@QAEIXZ 100990e0 f i GuEPA.obj
 0001:00098160       ?processDeferredIds@?$DeferredIDPoolBase@V?$InlineFixedArray@I$0EA@@Cm@physx@@@Cm@physx@@QAEXXZ 10099160 f i GuEPA.obj
 0001:000981d0       ?push@?$InlinePriorityQueue@PAVFacet@Gu@physx@@$0EA@UFacetDistanceComparator@23@@Cm@physx@@QAEXAAPAVFacet@Gu@3@@Z 100991d0 f i GuEPA.obj
 0001:00098230       ?push@?$PriorityQueueBase@PAVFacet@Gu@physx@@UFacetDistanceComparator@23@@Cm@physx@@QAEXABQAVFacet@Gu@3@@Z 10099230 f i GuEPA.obj
 0001:00098310       ?pushBack@?$InlineFixedArray@I$0EA@@Cm@physx@@QAEXABI@Z 10099310 f i GuEPA.obj
 0001:00098390       ?silhouette@Facet@Gu@physx@@QAEXIABT__m128@@PIBT4@1AAVEdgeBuffer@23@AAV?$InlineDeferredIDPool@$0EA@@Cm@3@@Z 10099390 f i GuEPA.obj
 0001:000985e0       ?size@?$InlineFixedArray@I$0EA@@Cm@physx@@QBEIXZ 100995e0 f i GuEPA.obj
 0001:00098600       ?size@?$PriorityQueueBase@PAVFacet@Gu@physx@@UFacetDistanceComparator@23@@Cm@physx@@QBEIXZ 10099600 f i GuEPA.obj
 0001:00098610       ?toI8@shdfnd@physx@@YACI@Z 10099610 f i GuEPA.obj
 0001:00098660       ?top@?$PriorityQueueBase@PAVFacet@Gu@physx@@UFacetDistanceComparator@23@@Cm@physx@@QAEPAVFacet@Gu@3@XZ 10099660 f i GuEPA.obj
 0001:00098680       ?valid@?$PriorityQueueBase@PAVFacet@Gu@physx@@UFacetDistanceComparator@23@@Cm@physx@@QBE_NXZ 10099680 f i GuEPA.obj
 0001:000986f0       ?closestPtPointTetrahedron@Gu@physx@@YA?AT__m128@@PIAT3@00AAI@Z 100996f0 f   GuGJKSimplex.obj
 0001:00098ae0       ?closestPtPointTetrahedron@Gu@physx@@YA?AT__m128@@PIAT3@00PIAH1AAI@Z 10099ae0 f   GuGJKSimplex.obj
 0001:00099470       ?BGetW@aos@shdfnd@physx@@YA?AT__m128@@T4@@Z 1009a470 f i GuGJKSimplex.obj
 0001:000994b0       ?BGetX@aos@shdfnd@physx@@YA?AT__m128@@T4@@Z 1009a4b0 f i GuGJKSimplex.obj
 0001:000994f0       ?BGetY@aos@shdfnd@physx@@YA?AT__m128@@T4@@Z 1009a4f0 f i GuGJKSimplex.obj
 0001:00099530       ?BGetZ@aos@shdfnd@physx@@YA?AT__m128@@T4@@Z 1009a530 f i GuGJKSimplex.obj
 0001:00099570       ?PointOutsideOfPlane4@Gu@physx@@YA?AT__m128@@ABT3@000@Z 1009a570 f i GuGJKSimplex.obj
 0001:000998c0       ?V4Merge@aos@shdfnd@physx@@YA?AT__m128@@ABT4@000@Z 1009a8c0 f i GuGJKSimplex.obj
 0001:00099a50       ?testGjk@Gu@physx@@YA?AW4GjkStatus@12@AAUGjkConvex@12@0ABT__m128@@1AAT5@222@Z 1009aa50 f   GuGJKTest.obj
 0001:00099a80       ?testGjkPenetration@Gu@physx@@YA?AW4GjkStatus@12@AAUGjkConvex@12@0ABT__m128@@1PAE2AAEAAUGjkOutput@12@@Z 1009aa80 f   GuGJKTest.obj
 0001:00099ab0       ?testEpaPenetration@Gu@physx@@YA?AW4GjkStatus@12@AAUGjkConvex@12@0PBE1EAAUGjkOutput@12@@Z 1009aab0 f   GuGJKTest.obj
 0001:00099b20       ?testGjkRaycast@Gu@physx@@YA_NAAUGjkConvex@12@0ABT__m128@@111AAT4@22M@Z 1009ab20 f   GuGJKTest.obj
 0001:00099b60       ??$gjk@UGjkConvex@Gu@physx@@U123@@Gu@physx@@YA?AW4GjkStatus@01@ABUGjkConvex@01@0ABT__m128@@1AAT4@222@Z 1009ab60 f i GuGJKTest.obj
 0001:0009a4f0       ??$gjkPenetration@UGjkConvex@Gu@physx@@U123@@Gu@physx@@YA?AW4GjkStatus@01@ABUGjkConvex@01@0ABT__m128@@1_NPIAE3AAEAAUGjkOutput@01@@Z 1009b4f0 f i GuGJKTest.obj
 0001:0009afc0       ??$gjkRaycast@UGjkConvex@Gu@physx@@U123@@Gu@physx@@YA_NABUGjkConvex@01@0ABT__m128@@111AAT3@22M@Z 1009bfc0 f i GuGJKTest.obj
 0001:0009bbc0       ?exportExtraData@HeightField@Gu@physx@@UAEXAAVPxSerializationContext@3@@Z 1009cbc0 f   GuHeightField.obj
 0001:0009bc10       ?importExtraData@HeightField@Gu@physx@@QAEXAAVPxDeserializationContext@3@@Z 1009cc10 f   GuHeightField.obj
 0001:0009bc40       ?createObject@HeightField@Gu@physx@@SAPAV123@AAPAEAAVPxDeserializationContext@3@@Z 1009cc40 f   GuHeightField.obj
 0001:0009bcb0       ??0HeightField@Gu@physx@@QAE@PAVGuMeshFactory@2@@Z 1009ccb0 f   GuHeightField.obj
 0001:0009bd90       ??0HeightField@Gu@physx@@QAE@AAVGuMeshFactory@2@AAUHeightFieldData@12@@Z 1009cd90 f   GuHeightField.obj
 0001:0009be40       ?release@HeightField@Gu@physx@@UAEXXZ 1009ce40 f   GuHeightField.obj
 0001:0009be60       ?saveCells@HeightField@Gu@physx@@UBEIPAXI@Z 1009ce60 f   GuHeightField.obj
 0001:0009beb0       ?modifySamples@HeightField@Gu@physx@@UAE_NHHABVPxHeightFieldDesc@3@_N@Z 1009ceb0 f   GuHeightField.obj
 0001:0009c1b0       ?acquireReference@HeightField@Gu@physx@@UAEXXZ 1009d1b0 f   GuHeightField.obj
 0001:0009c1d0       ?getReferenceCount@HeightField@Gu@physx@@UBEIXZ 1009d1d0 f   GuHeightField.obj
 0001:0009c1f0       ?onRefCountZero@HeightField@Gu@physx@@UAEXXZ 1009d1f0 f   GuHeightField.obj
 0001:0009c2a0       ?loadFromDesc@HeightField@Gu@physx@@QAE_NABVPxHeightFieldDesc@3@@Z 1009d2a0 f   GuHeightField.obj
 0001:0009c6a0       ?load@HeightField@Gu@physx@@QAE_NAAVPxInputStream@3@@Z 1009d6a0 f   GuHeightField.obj
 0001:0009c9c0       ?computeCellCoordinates@HeightField@Gu@physx@@QBEIMMAAM0@Z 1009d9c0 f   GuHeightField.obj
 0001:0009cc70       ?isSolidVertex@HeightField@Gu@physx@@QBE_NIIIGAA_N@Z 1009dc70 f   GuHeightField.obj
 0001:0009ce00       ?isCollisionVertexPreca@HeightField@Gu@physx@@QBE_NIIIG@Z 1009de00 f   GuHeightField.obj
 0001:0009cf50       ?parseTrianglesForCollisionVertices@HeightField@Gu@physx@@QAEXG@Z 1009df50 f   GuHeightField.obj
 0001:0009d220       ?releaseMemory@HeightField@Gu@physx@@QAEXXZ 1009e220 f   GuHeightField.obj
 0001:0009d280       ??1HeightField@Gu@physx@@UAE@XZ 1009e280 f   GuHeightField.obj
 0001:0009d2d0       ?getVertexEdgeIndices@physx@@YAIABVHeightField@Gu@1@IIIQAUEdgeData@1@@Z 1009e2d0 f   GuHeightField.obj
 0001:0009d6d0       ?getEdgeTriangleIndices@physx@@YAIABVHeightField@Gu@1@ABUEdgeData@1@PIAI@Z 1009e6d0 f   GuHeightField.obj
 0001:0009d960       ??$deletePxBase@VHeightField@Gu@physx@@@Cm@physx@@YAXPAVHeightField@Gu@1@@Z 1009e960 f i GuHeightField.obj
 0001:0009d9d0       ??$readExtraData@UPxHeightFieldSample@physx@@$0BA@@PxDeserializationContext@physx@@QAEPAUPxHeightFieldSample@1@I@Z 1009e9d0 f i GuHeightField.obj
 0001:0009da00       ??$readExtraData@UPxHeightFieldSample@physx@@@PxDeserializationContext@physx@@QAEPAUPxHeightFieldSample@1@I@Z 1009ea00 f i GuHeightField.obj
 0001:0009da30       ??0?$BitMapBase@VNonTrackingAllocator@shdfnd@physx@@@Cm@physx@@QAE@XZ 1009ea30 f i GuHeightField.obj
 0001:0009da60       ??0?$PxFlags@W4Enum@PxHeightFieldFlag@physx@@G@physx@@QAE@G@Z 1009ea60 f i GuHeightField.obj
 0001:0009da80       ??0HeightField@Gu@physx@@QAE@V?$PxFlags@W4Enum@PxBaseFlag@physx@@G@2@@Z 1009ea80 f i GuHeightField.obj
 0001:0009dae0       ??0PxHeightField@physx@@IAE@GV?$PxFlags@W4Enum@PxBaseFlag@physx@@G@1@@Z 1009eae0 f i GuHeightField.obj
 0001:0009db20       ??0PxHeightField@physx@@IAE@V?$PxFlags@W4Enum@PxBaseFlag@physx@@G@1@@Z 1009eb20 f i GuHeightField.obj
 0001:0009db50       ??1?$BitMapBase@VNonTrackingAllocator@shdfnd@physx@@@Cm@physx@@QAE@XZ 1009eb50 f i GuHeightField.obj
 0001:0009db90       ??9?$PxFlags@W4Enum@PxHeightFieldFlag@physx@@G@physx@@QBE_NABV01@@Z 1009eb90 f i GuHeightField.obj
 0001:0009dbd0       ??_EHeightField@Gu@physx@@UAEPAXI@Z 1009ebd0 f i GuHeightField.obj
 0001:0009dc7a       ??_EHeightField@Gu@physx@@W7AEPAXI@Z 1009ec7a f i GuHeightField.obj
 0001:0009dc90       ?PxMemSet@physx@@YAPAXPAXHI@Z 1009ec90 f i GuHeightField.obj
 0001:0009dcb0       ?anyHole@@YAIIG@Z          1009ecb0 f i GuHeightField.obj
 0001:0009dd00       ?clear@?$BitMapBase@VNonTrackingAllocator@shdfnd@physx@@@Cm@physx@@QAEXXZ 1009ed00 f i GuHeightField.obj
 0001:0009dd30       ?clearBit@?$PxBitAndDataT@E$0IA@@physx@@QAEXXZ 1009ed30 f i GuHeightField.obj
 0001:0009dd50       ?extendUninitialized@?$BitMapBase@VNonTrackingAllocator@shdfnd@physx@@@Cm@physx@@IAEXI@Z 1009ed50 f i GuHeightField.obj
 0001:0009ddd0       ?flip@physx@@YAXAAF@Z      1009edd0 f i GuHeightField.obj
 0001:0009de20       ?getMaterialIndex01@HeightField@Gu@physx@@QBEII@Z 1009ee20 f i GuHeightField.obj
 0001:0009de70       ?getMaxHeight@HeightField@Gu@physx@@QBEMXZ 1009ee70 f i GuHeightField.obj
 0001:0009de90       ?getMinHeight@HeightField@Gu@physx@@QBEMXZ 1009ee90 f i GuHeightField.obj
 0001:0009deb0       ?getWordCount@?$BitMapBase@VNonTrackingAllocator@shdfnd@physx@@@Cm@physx@@QBEIXZ 1009eeb0 f i GuHeightField.obj
 0001:0009ded0       ?isConvexVertex@HeightField@Gu@physx@@QBE_NIII@Z 1009eed0 f i GuHeightField.obj
 0001:0009e090       ?isInUserMemory@?$BitMapBase@VNonTrackingAllocator@shdfnd@physx@@@Cm@physx@@QBEIXZ 1009f090 f i GuHeightField.obj
 0001:0009e0b0       ?isValid@PxHeightFieldDesc@physx@@QBE_NXZ 1009f0b0 f i GuHeightField.obj
 0001:0009e130       ?requiresObjects@HeightField@Gu@physx@@UAEXAAVPxProcessPxBaseCallback@3@@Z 1009f130 f i GuHeightField.obj
 0001:0009e140       ?resizeAndClear@?$BitMapBase@VNonTrackingAllocator@shdfnd@physx@@@Cm@physx@@QAEXI@Z 1009f140 f i GuHeightField.obj
 0001:0009e180       ?resolveReferences@HeightField@Gu@physx@@QAEXAAVPxDeserializationContext@3@@Z 1009f180 f i GuHeightField.obj
 0001:0009e190       ?set@?$BitMapBase@VNonTrackingAllocator@shdfnd@physx@@@Cm@physx@@QAEXI@Z 1009f190 f i GuHeightField.obj
 0001:0009e210       ?setBit@?$PxBitAndDataT@E$0IA@@physx@@QAEXXZ 1009f210 f i GuHeightField.obj
 0001:0009e230       ?test@?$BitMapBase@VNonTrackingAllocator@shdfnd@physx@@@Cm@physx@@QBEHI@Z 1009f230 f i GuHeightField.obj
 0001:0009e300       ?computeLocalBounds@HeightFieldUtil@Gu@physx@@QBEXAAVPxBounds3@3@@Z 1009f300 f   GuHeightFieldUtil.obj
 0001:0009e440       ?getFaceIndexAtShapePoint@HeightFieldUtil@Gu@physx@@QBEIMM@Z 1009f440 f   GuHeightFieldUtil.obj
 0001:0009e4e0       ?getVertexNormal@HeightFieldUtil@Gu@physx@@QBE?AVPxVec3@3@III@Z 1009f4e0 f   GuHeightFieldUtil.obj
 0001:0009e6a0       ?getVertexFaceIndex@HeightFieldUtil@Gu@physx@@QBEIIII@Z 1009f6a0 f   GuHeightFieldUtil.obj
 0001:0009e7f0       ?getEdge@HeightFieldUtil@Gu@physx@@QBEXIIIIAAVPxVec3@3@0@Z 1009f7f0 f   GuHeightFieldUtil.obj
 0001:0009ee00       ?getEdgeFaceIndex@HeightFieldUtil@Gu@physx@@QBEII@Z 1009fe00 f   GuHeightFieldUtil.obj
 0001:0009eec0       ?getEdgeFaceIndex@HeightFieldUtil@Gu@physx@@QBEIIIII@Z 1009fec0 f   GuHeightFieldUtil.obj
 0001:0009ef90       ?getEdgeFaceIndex@HeightFieldUtil@Gu@physx@@QBEIIIPIBI@Z 1009ff90 f   GuHeightFieldUtil.obj
 0001:0009f050       ?findClosestPointsOnCell@HeightFieldUtil@Gu@physx@@QBEIIIVPxVec3@3@PIAV43@PIAI_N33@Z 100a0050 f   GuHeightFieldUtil.obj
 0001:0009fa20       ?findProjectionOnTriangle@HeightFieldUtil@Gu@physx@@QBE_NIIIABVPxVec3@3@AAV43@@Z 100a0a20 f   GuHeightFieldUtil.obj
 0001:000a00d0       ?findClosestPointOnEdge@HeightFieldUtil@Gu@physx@@QBEMIIIIABVPxVec3@3@AAV43@@Z 100a10d0 f   GuHeightFieldUtil.obj
 0001:000a0950       ?getTriangle@HeightFieldUtil@Gu@physx@@QBEIABVPxTransform@3@AAVPxTriangle@3@PAI2I_N3@Z 100a1950 f   GuHeightFieldUtil.obj
 0001:000a0ce0       ?overlapAABBTriangles@HeightFieldUtil@Gu@physx@@QBE_NABVPxTransform@3@ABVPxBounds3@3@IPAV?$EntityReport@I@23@@Z 100a1ce0 f   GuHeightFieldUtil.obj
 0001:000a1210       ?getEdgeTriangleIndices@HeightField@Gu@physx@@QBEIIQAI@Z 100a2210 f i GuHeightFieldUtil.obj
 0001:000a13b0       ?getEdgeTriangleIndices@HeightField@Gu@physx@@QBEIIQAIIII@Z 100a23b0 f i GuHeightFieldUtil.obj
 0001:000a1520       ?getMax@CenterExtents@Gu@physx@@QBE?AVPxVec3@3@XZ 100a2520 f i GuHeightFieldUtil.obj
 0001:000a1550       ?getMin@CenterExtents@Gu@physx@@QBE?AVPxVec3@3@XZ 100a2550 f i GuHeightFieldUtil.obj
 0001:000a1580       ?getTriangleAdjacencyIndices@HeightField@Gu@physx@@QBEXIIIIAAI00@Z 100a2580 f i GuHeightFieldUtil.obj
 0001:000a1860       ?getTriangleIndex2@HeightField@Gu@physx@@QBEIIMM@Z 100a2860 f i GuHeightFieldUtil.obj
 0001:000a18e0       ?getTriangleIndex@HeightField@Gu@physx@@QBEIMM@Z 100a28e0 f i GuHeightFieldUtil.obj
 0001:000a1940       ?getVertex@HeightField@Gu@physx@@QBE?AVPxVec3@3@I@Z 100a2940 f i GuHeightFieldUtil.obj
 0001:000a19e0       ?isValidTriangle@HeightField@Gu@physx@@QBE_NI@Z 100a29e0 f i GuHeightFieldUtil.obj
 0001:000a1a40       ?checkOverlapAABB_heightFieldGeom@Gu@physx@@YA_NABVPxGeometry@2@ABVPxTransform@2@ABVPxBounds3@2@@Z 100a2a40 f   GuOverlapTestsHF.obj
 0001:000a35c0       ?GeomOverlapCallback_SphereHeightfield@@YA_NABVPxGeometry@physx@@ABVPxTransform@2@01PAUTriggerCache@Gu@2@@Z 100a45c0 f   GuOverlapTestsHF.obj
 0001:000a36c0       ?GeomOverlapCallback_CapsuleHeightfield@@YA_NABVPxGeometry@physx@@ABVPxTransform@2@01PAUTriggerCache@Gu@2@@Z 100a46c0 f   GuOverlapTestsHF.obj
 0001:000a37a0       ?GeomOverlapCallback_BoxHeightfield@@YA_NABVPxGeometry@physx@@ABVPxTransform@2@01PAUTriggerCache@Gu@2@@Z 100a47a0 f   GuOverlapTestsHF.obj
 0001:000a38b0       ?GeomOverlapCallback_ConvexHeightfield@@YA_NABVPxGeometry@physx@@ABVPxTransform@2@01PAUTriggerCache@Gu@2@@Z 100a48b0 f   GuOverlapTestsHF.obj
 0001:000a3990       ??$traceSegment@UTriggerTraceSegmentCallback@Gu@physx@@$0A@$0A@@HeightFieldTraceUtil@Gu@physx@@QBEXABVPxVec3@2@0MPAUTriggerTraceSegmentCallback@12@ABVPxBounds3@2@_NPBV32@@Z 100a4990 f i GuOverlapTestsHF.obj
 0001:000a5510       ??0?$OverlapTraceSegment@UTriggerTraceSegmentCallback@Gu@physx@@@HeightFieldTraceUtil@Gu@physx@@QAE@ABVHeightFieldUtil@23@ABVHeightField@23@@Z 100a6510 f i GuOverlapTestsHF.obj
 0001:000a5550       ??0EdgeCache@Gu@physx@@QAE@XZ 100a6550 f i GuOverlapTestsHF.obj
 0001:000a5570       ??0Matrix34@Cm@physx@@QAE@ABVPxMat33@2@@Z 100a6570 f i GuOverlapTestsHF.obj
 0001:000a55a0       ??0OverlapHeightfieldTraceSegmentHelper@Gu@physx@@QAE@ABVHeightFieldTraceUtil@12@@Z 100a65a0 f i GuOverlapTestsHF.obj
 0001:000a55e0       ??0TriggerTraceSegmentCallback@Gu@physx@@QAE@XZ 100a65e0 f i GuOverlapTestsHF.obj
 0001:000a5600       ?V4AllGrtr@aos@shdfnd@physx@@YAIT__m128@@0@Z 100a6600 f i GuOverlapTestsHF.obj
 0001:000a5650       ?addIndex@?$OverlapTraceSegment@UTriggerTraceSegmentCallback@Gu@physx@@@HeightFieldTraceUtil@Gu@physx@@QAE_NI@Z 100a6650 f i GuOverlapTestsHF.obj
 0001:000a56b0       ?computeRectangleDifference@?$OverlapTraceSegment@UTriggerTraceSegmentCallback@Gu@physx@@@HeightFieldTraceUtil@Gu@physx@@QAEXABUOverlapRectangle@1234@0AAUOverlapLine@1234@@Z 100a66b0 f i GuOverlapTestsHF.obj
 0001:000a5770       ?faceHit@TriggerTraceSegmentCallback@Gu@physx@@QAE_NABVHeightFieldUtil@23@ABVPxVec3@3@IMM@Z 100a6770 f i GuOverlapTestsHF.obj
 0001:000a5790       ?getInverse@PsTransformV@aos@shdfnd@physx@@QBE?AV1234@XZ 100a6790 f i GuOverlapTestsHF.obj
 0001:000a5840       ?hash@EdgeCache@Gu@physx@@QBEII@Z 100a6840 f i GuOverlapTestsHF.obj
 0001:000a5860       ?init@?$OverlapTraceSegment@UTriggerTraceSegmentCallback@Gu@physx@@@HeightFieldTraceUtil@Gu@physx@@QAE_NHHHHHPAUTriggerTraceSegmentCallback@34@@Z 100a6860 f i GuOverlapTestsHF.obj
 0001:000a5940       ?initialized@?$OverlapTraceSegment@UTriggerTraceSegmentCallback@Gu@physx@@@HeightFieldTraceUtil@Gu@physx@@QBE_NXZ 100a6940 f i GuOverlapTestsHF.obj
 0001:000a5950       ?invalidate@OverlapRectangle@?$OverlapTraceSegment@UTriggerTraceSegmentCallback@Gu@physx@@@HeightFieldTraceUtil@Gu@physx@@QAEXXZ 100a6950 f i GuOverlapTestsHF.obj
 0001:000a5990       ?isDeltaHeightInsideExtent@HeightField@Gu@physx@@QBE_NMM@Z 100a6990 f i GuOverlapTestsHF.obj
 0001:000a59e0       ?isDeltaHeightOppositeExtent@HeightField@Gu@physx@@QBE_NM@Z 100a69e0 f i GuOverlapTestsHF.obj
 0001:000a5a30       ?isInCache@EdgeCache@Gu@physx@@QAE_NEE@Z 100a6a30 f i GuOverlapTestsHF.obj
 0001:000a5ad0       ?onEvent@TriggerTraceSegmentCallback@Gu@physx@@QAE_NIPAI@Z 100a6ad0 f i GuOverlapTestsHF.obj
 0001:000a5ae0       ?prepare@?$OverlapTraceSegment@UTriggerTraceSegmentCallback@Gu@physx@@@HeightFieldTraceUtil@Gu@physx@@QAEXABVPxVec3@4@00AAM1@Z 100a6ae0 f i GuOverlapTestsHF.obj
 0001:000a5dc0       ?reportOverlaps@?$OverlapTraceSegment@UTriggerTraceSegmentCallback@Gu@physx@@@HeightFieldTraceUtil@Gu@physx@@QAE_NXZ 100a6dc0 f i GuOverlapTestsHF.obj
 0001:000a5e10       ?step@?$OverlapTraceSegment@UTriggerTraceSegmentCallback@Gu@physx@@@HeightFieldTraceUtil@Gu@physx@@QAE_NHH@Z 100a6e10 f i GuOverlapTestsHF.obj
 0001:000a5ed0       ?testVertexIndex@?$OverlapTraceSegment@UTriggerTraceSegmentCallback@Gu@physx@@@HeightFieldTraceUtil@Gu@physx@@QAE_NI@Z 100a6ed0 f i GuOverlapTestsHF.obj
 0001:000a6020       ?traceSegment@OverlapHeightfieldTraceSegmentHelper@Gu@physx@@QBEXABVPxVec3@3@0PAUTriggerTraceSegmentCallback@23@@Z 100a7020 f i GuOverlapTestsHF.obj
 0001:000a6070       ?underFaceHit@TriggerTraceSegmentCallback@Gu@physx@@QAE_NABVHeightFieldUtil@23@ABVPxVec3@3@1MMMI@Z 100a7070 f i GuOverlapTestsHF.obj
 0001:000a6080       ?visitCells@?$OverlapTraceSegment@UTriggerTraceSegmentCallback@Gu@physx@@@HeightFieldTraceUtil@Gu@physx@@QAE_NABUOverlapLine@1234@@Z 100a7080 f i GuOverlapTestsHF.obj
 0001:000a61f0       ?visitCells@?$OverlapTraceSegment@UTriggerTraceSegmentCallback@Gu@physx@@@HeightFieldTraceUtil@Gu@physx@@QAE_NABUOverlapRectangle@1234@@Z 100a71f0 f i GuOverlapTestsHF.obj
 0001:000a6760       ?sweepCapsule_HeightFieldGeom@@YA_NABVPxGeometry@physx@@ABVPxTransform@2@ABVPxCapsuleGeometry@2@1ABVCapsule@Gu@2@ABVPxVec3@2@MAAUPxSweepHit@2@V?$PxFlags@W4Enum@PxHitFlag@physx@@G@2@M@Z 100a7760 f   GuSweepsHF.obj
 0001:000a6970       ?sweepConvex_HeightFieldGeom@@YA_NABVPxGeometry@physx@@ABVPxTransform@2@ABVPxConvexMeshGeometry@2@1ABVPxVec3@2@MAAUPxSweepHit@2@V?$PxFlags@W4Enum@PxHitFlag@physx@@G@2@M@Z 100a7970 f   GuSweepsHF.obj
 0001:000a6c50       ?sweepBox_HeightFieldGeom@@YA_NABVPxGeometry@physx@@ABVPxTransform@2@ABVPxBoxGeometry@2@1ABVBox@Gu@2@ABVPxVec3@2@MAAUPxSweepHit@2@V?$PxFlags@W4Enum@PxHitFlag@physx@@G@2@M@Z 100a7c50 f   GuSweepsHF.obj
 0001:000a6f50       ??$gjkPenetration@U?$LocalConvex@VTriangleV@Gu@physx@@@Gu@physx@@U?$LocalConvex@VConvexHullV@Gu@physx@@@23@@Gu@physx@@YA?AW4GjkStatus@01@ABU?$LocalConvex@VTriangleV@Gu@physx@@@01@ABU?$LocalConvex@VConvexHullV@Gu@physx@@@01@ABT__m128@@2_NPIAE4AAEAAUGjkOutput@01@@Z 100a7f50 f i GuSweepsHF.obj
 0001:000a7a20       ??$gjkRaycast@U?$LocalConvex@VTriangleV@Gu@physx@@@Gu@physx@@U?$LocalConvex@VConvexHullV@Gu@physx@@@23@@Gu@physx@@YA_NABU?$LocalConvex@VTriangleV@Gu@physx@@@01@ABU?$LocalConvex@VConvexHullV@Gu@physx@@@01@ABT__m128@@222AAT4@33M@Z 100a8a20 f i GuSweepsHF.obj
 0001:000a8620       ??$gjkRaycastPenetration@U?$LocalConvex@VTriangleV@Gu@physx@@@Gu@physx@@U?$LocalConvex@VConvexHullV@Gu@physx@@@23@@Gu@physx@@YA_NABU?$LocalConvex@VTriangleV@Gu@physx@@@01@ABU?$LocalConvex@VConvexHullV@Gu@physx@@@01@ABT__m128@@222AAT4@33M_N@Z 100a9620 f i GuSweepsHF.obj
 0001:000a88d0       ??$traceSegment@VBoxTraceSegmentReport@@$0A@$00@HeightFieldTraceUtil@Gu@physx@@QBEXABVPxVec3@2@0MPAVBoxTraceSegmentReport@@ABVPxBounds3@2@_NPBV32@@Z 100a98d0 f i GuSweepsHF.obj
 0001:000aa460       ??$traceSegment@VBoxTraceSegmentReport@@@HeightFieldTraceSegmentSweepHelper@@QBEXABVPxVec3@physx@@0MPAVBoxTraceSegmentReport@@@Z 100ab460 f i GuSweepsHF.obj
 0001:000aa4a0       ??$traceSegment@VCapsuleTraceSegmentReport@@$0A@$00@HeightFieldTraceUtil@Gu@physx@@QBEXABVPxVec3@2@0MPAVCapsuleTraceSegmentReport@@ABVPxBounds3@2@_NPBV32@@Z 100ab4a0 f i GuSweepsHF.obj
 0001:000ac030       ??$traceSegment@VCapsuleTraceSegmentReport@@@HeightFieldTraceSegmentSweepHelper@@QBEXABVPxVec3@physx@@0MPAVCapsuleTraceSegmentReport@@@Z 100ad030 f i GuSweepsHF.obj
 0001:000ac070       ??$traceSegment@VConvexTraceSegmentReport@@$0A@$00@HeightFieldTraceUtil@Gu@physx@@QBEXABVPxVec3@2@0MPAVConvexTraceSegmentReport@@ABVPxBounds3@2@_NPBV32@@Z 100ad070 f i GuSweepsHF.obj
 0001:000adc00       ??$traceSegment@VConvexTraceSegmentReport@@@HeightFieldTraceSegmentSweepHelper@@QBEXABVPxVec3@physx@@0MPAVConvexTraceSegmentReport@@@Z 100aec00 f i GuSweepsHF.obj
 0001:000adc40       ??0?$OverlapTraceSegment@VBoxTraceSegmentReport@@@HeightFieldTraceUtil@Gu@physx@@QAE@ABVHeightFieldUtil@23@ABVHeightField@23@@Z 100aec40 f i GuSweepsHF.obj
 0001:000adc80       ??0?$OverlapTraceSegment@VCapsuleTraceSegmentReport@@@HeightFieldTraceUtil@Gu@physx@@QAE@ABVHeightFieldUtil@23@ABVHeightField@23@@Z 100aec80 f i GuSweepsHF.obj
 0001:000adcc0       ??0?$OverlapTraceSegment@VConvexTraceSegmentReport@@@HeightFieldTraceUtil@Gu@physx@@QAE@ABVHeightFieldUtil@23@ABVHeightField@23@@Z 100aecc0 f i GuSweepsHF.obj
 0001:000add00       ??0BoxTraceSegmentReport@@QAE@ABVHeightFieldUtil@Gu@physx@@V?$PxFlags@W4Enum@PxHitFlag@physx@@G@3@ABVPsTransformV@aos@shdfnd@3@ABVPxTransform@3@ABVBoxV@23@ABVPxVec3@3@AAUPxSweepHit@3@M@Z 100aed00 f i GuSweepsHF.obj
 0001:000addb0       ??0CapsuleTraceSegmentReport@@QAE@ABVHeightFieldUtil@Gu@physx@@V?$PxFlags@W4Enum@PxHitFlag@physx@@G@3@ABVCapsule@23@ABVPxVec3@3@AAUPxSweepHit@3@ABVPxTransform@3@M@Z 100aedb0 f i GuSweepsHF.obj
 0001:000ade20       ??0CapsuleV@Gu@physx@@QAE@XZ 100aee20 f i GuSweepsHF.obj
 0001:000ade40       ??0ConvexHullV@Gu@physx@@QAE@XZ 100aee40 f i GuSweepsHF.obj
 0001:000ade70       ??0ConvexTraceSegmentReport@@QAE@ABVHeightFieldUtil@Gu@physx@@ABUConvexHullData@23@ABVPxMeshScale@3@ABVPxTransform@3@3ABVPxVec3@3@MV?$PxFlags@W4Enum@PxHitFlag@physx@@G@3@M@Z 100aee70 f i GuSweepsHF.obj
 0001:000ae190       ??0HeightFieldTraceSegmentReport@@QAE@ABVHeightFieldUtil@Gu@physx@@V?$PxFlags@W4Enum@PxHitFlag@physx@@G@3@@Z 100af190 f i GuSweepsHF.obj
 0001:000ae250       ??0HeightFieldTraceSegmentSweepHelper@@QAE@ABVHeightFieldTraceUtil@Gu@physx@@ABVPxVec3@3@@Z 100af250 f i GuSweepsHF.obj
 0001:000ae2d0       ??0PsMatTransformV@aos@shdfnd@physx@@QAE@XZ 100af2d0 f i GuSweepsHF.obj
 0001:000ae330       ??0PxTransform@physx@@QAE@XZ 100af330 f i GuSweepsHF.obj
 0001:000ae360       ??1BoxTraceSegmentReport@@UAE@XZ 100af360 f i GuSweepsHF.obj
 0001:000ae380       ??1CapsuleTraceSegmentReport@@UAE@XZ 100af380 f i GuSweepsHF.obj
 0001:000ae3a0       ??1ConvexTraceSegmentReport@@UAE@XZ 100af3a0 f i GuSweepsHF.obj
 0001:000ae3c0       ??1HeightFieldTraceSegmentReport@@UAE@XZ 100af3c0 f i GuSweepsHF.obj
 0001:000ae3e0       ??U?$PxFlags@W4Enum@PxHitFlag@physx@@G@physx@@QBE?AV01@W4Enum@PxHitFlag@1@@Z 100af3e0 f i GuSweepsHF.obj
 0001:000ae420       ??_EBoxTraceSegmentReport@@UAEPAXI@Z 100af420 f i GuSweepsHF.obj
 0001:000ae420       ??_GBoxTraceSegmentReport@@UAEPAXI@Z 100af420 f i GuSweepsHF.obj
 0001:000ae450       ??_ECapsuleTraceSegmentReport@@UAEPAXI@Z 100af450 f i GuSweepsHF.obj
 0001:000ae450       ??_GCapsuleTraceSegmentReport@@UAEPAXI@Z 100af450 f i GuSweepsHF.obj
 0001:000ae480       ??_GConvexTraceSegmentReport@@UAEPAXI@Z 100af480 f i GuSweepsHF.obj
 0001:000ae480       ??_EConvexTraceSegmentReport@@UAEPAXI@Z 100af480 f i GuSweepsHF.obj
 0001:000ae4c0       ??_GHeightFieldTraceSegmentReport@@UAEPAXI@Z 100af4c0 f i GuSweepsHF.obj
 0001:000ae4c0       ??_EHeightFieldTraceSegmentReport@@UAEPAXI@Z 100af4c0 f i GuSweepsHF.obj
 0001:000ae4f0       ?addIndex@?$OverlapTraceSegment@VBoxTraceSegmentReport@@@HeightFieldTraceUtil@Gu@physx@@QAE_NI@Z 100af4f0 f i GuSweepsHF.obj
 0001:000ae550       ?addIndex@?$OverlapTraceSegment@VCapsuleTraceSegmentReport@@@HeightFieldTraceUtil@Gu@physx@@QAE_NI@Z 100af550 f i GuSweepsHF.obj
 0001:000ae5b0       ?addIndex@?$OverlapTraceSegment@VConvexTraceSegmentReport@@@HeightFieldTraceUtil@Gu@physx@@QAE_NI@Z 100af5b0 f i GuSweepsHF.obj
 0001:000ae610       ?computeRectangleDifference@?$OverlapTraceSegment@VBoxTraceSegmentReport@@@HeightFieldTraceUtil@Gu@physx@@QAEXABUOverlapRectangle@1234@0AAUOverlapLine@1234@@Z 100af610 f i GuSweepsHF.obj
 0001:000ae6d0       ?computeRectangleDifference@?$OverlapTraceSegment@VCapsuleTraceSegmentReport@@@HeightFieldTraceUtil@Gu@physx@@QAEXABUOverlapRectangle@1234@0AAUOverlapLine@1234@@Z 100af6d0 f i GuSweepsHF.obj
 0001:000ae790       ?computeRectangleDifference@?$OverlapTraceSegment@VConvexTraceSegmentReport@@@HeightFieldTraceUtil@Gu@physx@@QAEXABUOverlapRectangle@1234@0AAUOverlapLine@1234@@Z 100af790 f i GuSweepsHF.obj
 0001:000ae850       ?faceHit@HeightFieldTraceSegmentReport@@QAE_NABVHeightFieldUtil@Gu@physx@@ABVPxVec3@4@IMM@Z 100af850 f i GuSweepsHF.obj
 0001:000ae860       ?finalizeHit@BoxTraceSegmentReport@@QAE_NAAUPxSweepHit@physx@@ABVPxHeightFieldGeometry@3@ABVPxTransform@3@2ABVBox@Gu@3@ABVPxVec3@3@MM@Z 100af860 f i GuSweepsHF.obj
 0001:000aea30       ?finalizeHit@CapsuleTraceSegmentReport@@QAE_NAAUPxSweepHit@physx@@ABVPxHeightFieldGeometry@3@ABVPxTransform@3@ABVCapsule@Gu@3@3ABVPxVec3@3@@Z 100afa30 f i GuSweepsHF.obj
 0001:000aec10       ?finalizeHit@ConvexTraceSegmentReport@@QAE_NAAUPxSweepHit@physx@@ABVPxHeightFieldGeometry@3@ABVPxTransform@3@ABVPxConvexMeshGeometry@3@2ABVPxVec3@3@M@Z 100afc10 f i GuSweepsHF.obj
 0001:000aed60       ?init@?$OverlapTraceSegment@VBoxTraceSegmentReport@@@HeightFieldTraceUtil@Gu@physx@@QAE_NHHHHHPAVBoxTraceSegmentReport@@@Z 100afd60 f i GuSweepsHF.obj
 0001:000aee40       ?init@?$OverlapTraceSegment@VCapsuleTraceSegmentReport@@@HeightFieldTraceUtil@Gu@physx@@QAE_NHHHHHPAVCapsuleTraceSegmentReport@@@Z 100afe40 f i GuSweepsHF.obj
 0001:000aef20       ?init@?$OverlapTraceSegment@VConvexTraceSegmentReport@@@HeightFieldTraceUtil@Gu@physx@@QAE_NHHHHHPAVConvexTraceSegmentReport@@@Z 100aff20 f i GuSweepsHF.obj
 0001:000af000       ?initialize@CapsuleV@Gu@physx@@QAEXABT__m128@@00@Z 100b0000 f i GuSweepsHF.obj
 0001:000af0d0       ?initialize@ConvexHullV@Gu@physx@@QAEXPBUConvexHullData@23@ABT__m128@@11_N@Z 100b00d0 f i GuSweepsHF.obj
 0001:000af1e0       ?initialized@?$OverlapTraceSegment@VBoxTraceSegmentReport@@@HeightFieldTraceUtil@Gu@physx@@QBE_NXZ 100b01e0 f i GuSweepsHF.obj
 0001:000af1f0       ?initialized@?$OverlapTraceSegment@VCapsuleTraceSegmentReport@@@HeightFieldTraceUtil@Gu@physx@@QBE_NXZ 100b01f0 f i GuSweepsHF.obj
 0001:000af200       ?initialized@?$OverlapTraceSegment@VConvexTraceSegmentReport@@@HeightFieldTraceUtil@Gu@physx@@QBE_NXZ 100b0200 f i GuSweepsHF.obj
 0001:000af210       ?invalidate@OverlapRectangle@?$OverlapTraceSegment@VBoxTraceSegmentReport@@@HeightFieldTraceUtil@Gu@physx@@QAEXXZ 100b0210 f i GuSweepsHF.obj
 0001:000af250       ?invalidate@OverlapRectangle@?$OverlapTraceSegment@VCapsuleTraceSegmentReport@@@HeightFieldTraceUtil@Gu@physx@@QAEXXZ 100b0250 f i GuSweepsHF.obj
 0001:000af290       ?invalidate@OverlapRectangle@?$OverlapTraceSegment@VConvexTraceSegmentReport@@@HeightFieldTraceUtil@Gu@physx@@QAEXXZ 100b0290 f i GuSweepsHF.obj
 0001:000af2d0       ?onEvent@BoxTraceSegmentReport@@UAE_NIPAI@Z 100b02d0 f i GuSweepsHF.obj
 0001:000af730       ?onEvent@CapsuleTraceSegmentReport@@UAE_NIPAI@Z 100b0730 f i GuSweepsHF.obj
 0001:000af8f0       ?onEvent@ConvexTraceSegmentReport@@UAE_NIPAI@Z 100b08f0 f i GuSweepsHF.obj
 0001:000afa60       ?prepare@?$OverlapTraceSegment@VBoxTraceSegmentReport@@@HeightFieldTraceUtil@Gu@physx@@QAEXABVPxVec3@4@00AAM1@Z 100b0a60 f i GuSweepsHF.obj
 0001:000afd40       ?prepare@?$OverlapTraceSegment@VCapsuleTraceSegmentReport@@@HeightFieldTraceUtil@Gu@physx@@QAEXABVPxVec3@4@00AAM1@Z 100b0d40 f i GuSweepsHF.obj
 0001:000b0020       ?prepare@?$OverlapTraceSegment@VConvexTraceSegmentReport@@@HeightFieldTraceUtil@Gu@physx@@QAEXABVPxVec3@4@00AAM1@Z 100b1020 f i GuSweepsHF.obj
 0001:000b0300       ?reportOverlaps@?$OverlapTraceSegment@VBoxTraceSegmentReport@@@HeightFieldTraceUtil@Gu@physx@@QAE_NXZ 100b1300 f i GuSweepsHF.obj
 0001:000b0360       ?reportOverlaps@?$OverlapTraceSegment@VCapsuleTraceSegmentReport@@@HeightFieldTraceUtil@Gu@physx@@QAE_NXZ 100b1360 f i GuSweepsHF.obj
 0001:000b03c0       ?reportOverlaps@?$OverlapTraceSegment@VConvexTraceSegmentReport@@@HeightFieldTraceUtil@Gu@physx@@QAE_NXZ 100b13c0 f i GuSweepsHF.obj
 0001:000b0420       ?step@?$OverlapTraceSegment@VBoxTraceSegmentReport@@@HeightFieldTraceUtil@Gu@physx@@QAE_NHH@Z 100b1420 f i GuSweepsHF.obj
 0001:000b04e0       ?step@?$OverlapTraceSegment@VCapsuleTraceSegmentReport@@@HeightFieldTraceUtil@Gu@physx@@QAE_NHH@Z 100b14e0 f i GuSweepsHF.obj
 0001:000b05a0       ?step@?$OverlapTraceSegment@VConvexTraceSegmentReport@@@HeightFieldTraceUtil@Gu@physx@@QAE_NHH@Z 100b15a0 f i GuSweepsHF.obj
 0001:000b0660       ?testVertexIndex@?$OverlapTraceSegment@VBoxTraceSegmentReport@@@HeightFieldTraceUtil@Gu@physx@@QAE_NI@Z 100b1660 f i GuSweepsHF.obj
 0001:000b07b0       ?testVertexIndex@?$OverlapTraceSegment@VCapsuleTraceSegmentReport@@@HeightFieldTraceUtil@Gu@physx@@QAE_NI@Z 100b17b0 f i GuSweepsHF.obj
 0001:000b0900       ?testVertexIndex@?$OverlapTraceSegment@VConvexTraceSegmentReport@@@HeightFieldTraceUtil@Gu@physx@@QAE_NI@Z 100b1900 f i GuSweepsHF.obj
 0001:000b0a50       ?underFaceHit@HeightFieldTraceSegmentReport@@QAE_NABVHeightFieldUtil@Gu@physx@@ABVPxVec3@4@1MMMI@Z 100b1a50 f i GuSweepsHF.obj
 0001:000b0a60       ?visitCells@?$OverlapTraceSegment@VBoxTraceSegmentReport@@@HeightFieldTraceUtil@Gu@physx@@QAE_NABUOverlapLine@1234@@Z 100b1a60 f i GuSweepsHF.obj
 0001:000b0bd0       ?visitCells@?$OverlapTraceSegment@VBoxTraceSegmentReport@@@HeightFieldTraceUtil@Gu@physx@@QAE_NABUOverlapRectangle@1234@@Z 100b1bd0 f i GuSweepsHF.obj
 0001:000b0ca0       ?visitCells@?$OverlapTraceSegment@VCapsuleTraceSegmentReport@@@HeightFieldTraceUtil@Gu@physx@@QAE_NABUOverlapLine@1234@@Z 100b1ca0 f i GuSweepsHF.obj
 0001:000b0e10       ?visitCells@?$OverlapTraceSegment@VCapsuleTraceSegmentReport@@@HeightFieldTraceUtil@Gu@physx@@QAE_NABUOverlapRectangle@1234@@Z 100b1e10 f i GuSweepsHF.obj
 0001:000b0ee0       ?visitCells@?$OverlapTraceSegment@VConvexTraceSegmentReport@@@HeightFieldTraceUtil@Gu@physx@@QAE_NABUOverlapLine@1234@@Z 100b1ee0 f i GuSweepsHF.obj
 0001:000b1050       ?visitCells@?$OverlapTraceSegment@VConvexTraceSegmentReport@@@HeightFieldTraceUtil@Gu@physx@@QAE_NABUOverlapRectangle@1234@@Z 100b2050 f i GuSweepsHF.obj
 0001:000b1120       ?intersectOBBOBB@Gu@physx@@YA_NABVPxVec3@2@0ABVPxMat33@2@001_N@Z 100b2120 f   GuIntersectionBoxBox.obj
 0001:000b2130       ?intersectCapsuleTriangle@Gu@physx@@YA_NABVPxVec3@2@000ABVCapsule@12@ABUCapsuleTriangleOverlapData@12@@Z 100b3130 f   GuIntersectionCapsuleTriangle.obj
 0001:000b2320       ??$PxClamp@M@physx@@YAMMMM@Z 100b3320 f i GuIntersectionCapsuleTriangle.obj
 0001:000b2380       ??9PxVec3@physx@@QBE_NABV01@@Z 100b3380 f i GuIntersectionCapsuleTriangle.obj
 0001:000b23e0       ?computeEdgeAxis@Gu@physx@@YA?AVPxVec3@2@ABV32@000MM@Z 100b33e0 f i GuIntersectionCapsuleTriangle.obj
 0001:000b25e0       ?testAxis@Gu@physx@@YAIABVPxVec3@2@00ABVCapsule@12@0@Z 100b35e0 f i GuIntersectionCapsuleTriangle.obj
 0001:000b2710       ?intersectEdgeEdge@Gu@physx@@YA_NABVPxVec3@2@0000AAMAAV32@@Z 100b3710 f   GuIntersectionEdgeEdge.obj
 0001:000b2a20       ?rayAABBIntersect@Gu@physx@@YA_NABVPxVec3@2@000AAV32@@Z 100b3a20 f   GuIntersectionRayBox.obj
 0001:000b2d40       ?rayAABBIntersect2@Gu@physx@@YAIABVPxVec3@2@000AAV32@AAM@Z 100b3d40 f   GuIntersectionRayBox.obj
 0001:000b3080       ?intersectRayAABB@Gu@physx@@YAHABVPxVec3@2@000AAM1@Z 100b4080 f   GuIntersectionRayBox.obj
 0001:000b3290       ?intersectRayAABB@Gu@physx@@YAHABVPxVec3@2@0000AAM1@Z 100b4290 f   GuIntersectionRayBox.obj
 0001:000b35b0       ?intersectRayAABB2@Gu@physx@@YA_NABVPxVec3@2@000MAAM1@Z 100b45b0 f   GuIntersectionRayBox.obj
 0001:000b3a60       ?intersectRayAABB2@Gu@physx@@YA_NABT__m128@@0000AAT3@1@Z 100b4a60 f   GuIntersectionRayBox.obj
 0001:000b3d70       ?V3Sign@aos@shdfnd@physx@@YA?AT__m128@@T4@@Z 100b4d70 f i GuIntersectionRayBox.obj
 0001:000b3e50       ?recip@intrinsics@physx@@YAMM@Z 100b4e50 f i GuIntersectionRayBox.obj
 0001:000b3e70       ?intersectRayCapsuleInternal@Gu@physx@@YAIABVPxVec3@2@000MQAM@Z 100b4e70 f   GuIntersectionRayCapsule.obj
 0001:000b4990       ?intersectRaySphereBasic@Gu@physx@@YA_NABVPxVec3@2@0M0MAAMPAV32@@Z 100b5990 f   GuIntersectionRaySphere.obj
 0001:000b4ad0       ?intersectRaySphere@Gu@physx@@YA_NABVPxVec3@2@0M0MAAMPAV32@@Z 100b5ad0 f   GuIntersectionRaySphere.obj
 0001:000b4bc0       ?intersectSphereBox@Gu@physx@@YA_NABVSphere@12@ABVBox@12@@Z 100b5bc0 f   GuIntersectionSphereBox.obj
 0001:000b4d40       ?intersectTriangleBox_ReferenceCode@Gu@physx@@YAHABVPxVec3@2@0000@Z 100b5d40 f   GuIntersectionTriangleBox.obj
 0001:000b4d70       ?intersectTriangleBox_Unsafe@Gu@physx@@YAHABVPxVec3@2@0000@Z 100b5d70 f   GuIntersectionTriangleBox.obj
 0001:000b4e50       ?intersectTriangleBox@Gu@physx@@YAHABVBoxPadded@12@ABVPxVec3@2@11@Z 100b5e50 f   GuIntersectionTriangleBox.obj
 0001:000b64b0       ?intersectTriangleBoxBV4@@YAHABVPxVec3@physx@@00ABVPxMat33@2@00@Z 100b74b0 f   GuIntersectionTriangleBox.obj
 0001:000b65e0       ?BAnyTrue3_R@internalWindowsSimd@aos@shdfnd@physx@@YAIT__m128@@@Z 100b75e0 f i GuIntersectionTriangleBox.obj
 0001:000b6630       ?U4LoadXYZW@aos@shdfnd@physx@@YA?AT__m128@@IIII@Z 100b7630 f i GuIntersectionTriangleBox.obj
 0001:000b6690       ?V4AllGrtrOrEq3@aos@shdfnd@physx@@YAIT__m128@@0@Z 100b7690 f i GuIntersectionTriangleBox.obj
 0001:000b66e0       ?V4AnyGrtr3@aos@shdfnd@physx@@YAIT__m128@@0@Z 100b76e0 f i GuIntersectionTriangleBox.obj
 0001:000b6730       ?V4Cross@aos@shdfnd@physx@@YA?AT__m128@@T4@0@Z 100b7730 f i GuIntersectionTriangleBox.obj
 0001:000b6800       ?V4Dot3@aos@shdfnd@physx@@YA?AT__m128@@T4@0@Z 100b7800 f i GuIntersectionTriangleBox.obj
 0001:000b68c0       ?V4NegMulSub@aos@shdfnd@physx@@YA?AT__m128@@T4@00@Z 100b78c0 f i GuIntersectionTriangleBox.obj
 0001:000b6920       ?V4PermYZXW@aos@shdfnd@physx@@YA?AT__m128@@T4@@Z 100b7920 f i GuIntersectionTriangleBox.obj
 0001:000b6960       ?V4U32and@aos@shdfnd@physx@@YA?AT__m128@@T4@0@Z 100b7960 f i GuIntersectionTriangleBox.obj
 0001:000b69c0       ?V4U32or@aos@shdfnd@physx@@YA?AT__m128@@T4@0@Z 100b79c0 f i GuIntersectionTriangleBox.obj
 0001:000b6a20       ?V4U32xor@aos@shdfnd@physx@@YA?AT__m128@@T4@0@Z 100b7a20 f i GuIntersectionTriangleBox.obj
 0001:000b6a80       ?Vec4V_From_FloatV@aos@shdfnd@physx@@YA?AT__m128@@T4@@Z 100b7a80 f i GuIntersectionTriangleBox.obj
 0001:000b6ab0       ?Vec4V_ReinterpretFrom_VecU32V@aos@shdfnd@physx@@YA?AT__m128@@T4@@Z 100b7ab0 f i GuIntersectionTriangleBox.obj
 0001:000b6ae0       ?VecU32V_ReinterpretFrom_Vec4V@aos@shdfnd@physx@@YA?AT__m128@@T4@@Z 100b7ae0 f i GuIntersectionTriangleBox.obj
 0001:000b6b10       ??0SourceMeshBase@Gu@physx@@QAE@XZ 100b7b10 f   GuBV4.obj
 0001:000b6b40       ??1SourceMeshBase@Gu@physx@@QAE@XZ 100b7b40 f   GuBV4.obj
 0001:000b6b70       ??0SourceMesh@Gu@physx@@QAE@XZ 100b7b70 f   GuBV4.obj
 0001:000b6b90       ??1SourceMesh@Gu@physx@@QAE@XZ 100b7b90 f   GuBV4.obj
 0001:000b6bb0       ?reset@SourceMesh@Gu@physx@@QAEXXZ 100b7bb0 f   GuBV4.obj
 0001:000b6c00       ??4SourceMesh@Gu@physx@@QAEXAAV012@@Z 100b7c00 f   GuBV4.obj
 0001:000b6c60       ?remapTopology@SourceMesh@Gu@physx@@QAEXPBI@Z 100b7c60 f   GuBV4.obj
 0001:000b6fc0       ?isValid@SourceMesh@Gu@physx@@QBE_NXZ 100b7fc0 f   GuBV4.obj
 0001:000b7010       ??0BV4Tree@Gu@physx@@QAE@W4PxEMPTY@2@@Z 100b8010 f   GuBV4.obj
 0001:000b7050       ?exportExtraData@BV4Tree@Gu@physx@@QAEXAAVPxSerializationContext@3@@Z 100b8050 f   GuBV4.obj
 0001:000b70a0       ?importExtraData@BV4Tree@Gu@physx@@QAEXAAVPxDeserializationContext@3@@Z 100b80a0 f   GuBV4.obj
 0001:000b70e0       ??0BV4Tree@Gu@physx@@QAE@XZ 100b80e0 f   GuBV4.obj
 0001:000b7120       ??0BV4Tree@Gu@physx@@QAE@PAVSourceMesh@12@ABVPxBounds3@2@@Z 100b8120 f   GuBV4.obj
 0001:000b7170       ??1BV4Tree@Gu@physx@@QAE@XZ 100b8170 f   GuBV4.obj
 0001:000b7190       ?load@BV4Tree@Gu@physx@@QAE_NAAVPxInputStream@3@_N@Z 100b8190 f   GuBV4.obj
 0001:000b73f0       ?reset@BV4Tree@Gu@physx@@QAEXXZ 100b83f0 f   GuBV4.obj
 0001:000b7470       ??4BV4Tree@Gu@physx@@QAEXAAV012@@Z 100b8470 f   GuBV4.obj
 0001:000b7510       ?init@BV4Tree@Gu@physx@@QAE_NPAVSourceMesh@23@ABVPxBounds3@3@@Z 100b8510 f   GuBV4.obj
 0001:000b7540       ?release@BV4Tree@Gu@physx@@QAEXXZ 100b8540 f   GuBV4.obj
 0001:000b7590       ?refit@BV4Tree@Gu@physx@@QAEXM@Z 100b8590 f   GuBV4.obj
 0001:000b75c0       ??$?_UV?$ReflectionAllocator@VIndTri16@Gu@physx@@@shdfnd@physx@@@UserAllocated@shdfnd@physx@@SAPAXIV?$ReflectionAllocator@VIndTri16@Gu@physx@@@12@PBDH@Z 100b85c0 f i GuBV4.obj
 0001:000b75e0       ??$?_UV?$ReflectionAllocator@VIndTri32@Gu@physx@@@shdfnd@physx@@@UserAllocated@shdfnd@physx@@SAPAXIV?$ReflectionAllocator@VIndTri32@Gu@physx@@@12@PBDH@Z 100b85e0 f i GuBV4.obj
 0001:000b7600       ??$readExtraData@U?$BVDataPackedT@VQuantizedAABB@Gu@physx@@@Gu@physx@@@PxDeserializationContext@physx@@QAEPAU?$BVDataPackedT@VQuantizedAABB@Gu@physx@@@Gu@1@I@Z 100b8600 f i GuBV4.obj
 0001:000b7630       ??0?$ReflectionAllocator@VIndTri16@Gu@physx@@@shdfnd@physx@@QAE@PBD@Z 100b8630 f i GuBV4.obj
 0001:000b7640       ??0?$ReflectionAllocator@VIndTri32@Gu@physx@@@shdfnd@physx@@QAE@PBD@Z 100b8640 f i GuBV4.obj
 0001:000b7650       ??0IndTri16@Gu@physx@@QAE@XZ 100b8650 f i GuBV4.obj
 0001:000b7660       ??0IndTri32@Gu@physx@@QAE@XZ 100b8660 f i GuBV4.obj
 0001:000b7670       ??0LocalBounds@Gu@physx@@QAE@W4PxEMPTY@2@@Z 100b8670 f i GuBV4.obj
 0001:000b7690       ??0LocalBounds@Gu@physx@@QAE@XZ 100b8690 f i GuBV4.obj
 0001:000b76c0       ??1IndTri16@Gu@physx@@QAE@XZ 100b86c0 f i GuBV4.obj
 0001:000b76d0       ??1IndTri32@Gu@physx@@QAE@XZ 100b86d0 f i GuBV4.obj
 0001:000b76e0       ??4LocalBounds@Gu@physx@@QAEAAU012@ABU012@@Z 100b86e0 f i GuBV4.obj
 0001:000b7710       ??_EIndTri16@Gu@physx@@QAEPAXI@Z 100b8710 f i GuBV4.obj
 0001:000b77c0       ??_EIndTri32@Gu@physx@@QAEPAXI@Z 100b87c0 f i GuBV4.obj
 0001:000b7870       ?allocate@?$ReflectionAllocator@VIndTri16@Gu@physx@@@shdfnd@physx@@QAEPAXIPBDH@Z 100b8870 f i GuBV4.obj
 0001:000b78c0       ?allocate@?$ReflectionAllocator@VIndTri32@Gu@physx@@@shdfnd@physx@@QAEPAXIPBDH@Z 100b88c0 f i GuBV4.obj
 0001:000b7910       ?getName@?$ReflectionAllocator@VIndTri16@Gu@physx@@@shdfnd@physx@@CAPBDXZ 100b8910 f i GuBV4.obj
 0001:000b7950       ?getName@?$ReflectionAllocator@VIndTri32@Gu@physx@@@shdfnd@physx@@CAPBDXZ 100b8950 f i GuBV4.obj
 0001:000b7990       ?init@LocalBounds@Gu@physx@@QAEXABVPxBounds3@3@@Z 100b8990 f i GuBV4.obj
 0001:000b79d0       ?readBigEndianVersionNumber@physx@@YA_NAAVPxInputStream@1@_NAAIAA_N@Z 100b89d0 f i GuBV4.obj
 0001:000b7b40       ??0AABBTree@Gu@physx@@QAE@XZ 100b8b40 f   GuBV4Build.obj
 0001:000b7b70       ??1AABBTree@Gu@physx@@QAE@XZ 100b8b70 f   GuBV4Build.obj
 0001:000b7b90       ?buildFromMesh@AABBTree@Gu@physx@@QAE_NAAVSourceMesh@23@I@Z 100b8b90 f   GuBV4Build.obj
 0001:000b7fa0       ?release@AABBTree@Gu@physx@@QAEXXZ 100b8fa0 f   GuBV4Build.obj
 0001:000b8010       ?walk@AABBTree@Gu@physx@@QBEIP6A_NPBVAABBTreeNode@23@IPAX@Z1@Z 100b9010 f   GuBV4Build.obj
 0001:000b8050       ?BuildBV4Ex@Gu@physx@@YA_NAAVBV4Tree@12@AAVSourceMesh@12@MI@Z 100b9050 f   GuBV4Build.obj
 0001:000b9070       ??0BVData@@QAE@XZ          100ba070 f   GuBV4Build.obj
 0001:000b90b0       ??1BV4BuildParams@@QAE@XZ  100ba0b0 f   GuBV4Build.obj
 0001:000b90d0       ?allocateNode@BV4BuildParams@@QAEPAUBV4Node@@XZ 100ba0d0 f   GuBV4Build.obj
 0001:000b91a0       ?releaseNodes@BV4BuildParams@@QAEXXZ 100ba1a0 f   GuBV4Build.obj
 0001:000ba9d0       ??$?2V?$ReflectionAllocator@USlab@BV4BuildParams@@@shdfnd@physx@@@UserAllocated@shdfnd@physx@@SAPAXIV?$ReflectionAllocator@USlab@BV4BuildParams@@@12@PBDH@Z 100bb9d0 f i GuBV4Build.obj
 0001:000ba9f0       ??$?_UV?$ReflectionAllocator@U?$BVDataPackedT@VQuantizedAABB@Gu@physx@@@Gu@physx@@@shdfnd@physx@@@UserAllocated@shdfnd@physx@@SAPAXIV?$ReflectionAllocator@U?$BVDataPackedT@VQuantizedAABB@Gu@physx@@@Gu@physx@@@12@PBDH@Z 100bb9f0 f i GuBV4Build.obj
 0001:000baa10       ??$?_UV?$ReflectionAllocator@VAABBTreeNode@Gu@physx@@@shdfnd@physx@@@UserAllocated@shdfnd@physx@@SAPAXIV?$ReflectionAllocator@VAABBTreeNode@Gu@physx@@@12@PBDH@Z 100bba10 f i GuBV4Build.obj
 0001:000baa30       ??$swap@PAVAABBTreeNode@Gu@physx@@@shdfnd@physx@@YAXAAPAVAABBTreeNode@Gu@1@0@Z 100bba30 f i GuBV4Build.obj
 0001:000baa60       ??$swap@VAABBTreeNode@Gu@physx@@@shdfnd@physx@@YAXAAVAABBTreeNode@Gu@1@0@Z 100bba60 f i GuBV4Build.obj
 0001:000baaa0       ??0?$ReflectionAllocator@U?$BVDataPackedT@VQuantizedAABB@Gu@physx@@@Gu@physx@@@shdfnd@physx@@QAE@PBD@Z 100bbaa0 f i GuBV4Build.obj
 0001:000baab0       ??0?$ReflectionAllocator@USlab@BV4BuildParams@@@shdfnd@physx@@QAE@PBD@Z 100bbab0 f i GuBV4Build.obj
 0001:000baac0       ??0?$ReflectionAllocator@VAABBTreeNode@Gu@physx@@@shdfnd@physx@@QAE@PBD@Z 100bbac0 f i GuBV4Build.obj
 0001:000baad0       ??0AABBTreeNode@Gu@physx@@QAE@ABV012@@Z 100bbad0 f i GuBV4Build.obj
 0001:000bab10       ??0AABBTreeNode@Gu@physx@@QAE@XZ 100bbb10 f i GuBV4Build.obj
 0001:000bab50       ??0BV4BuildParams@@QAE@M@Z 100bbb50 f i GuBV4Build.obj
 0001:000bab80       ??0BV4Node@@QAE@XZ         100bbb80 f i GuBV4Build.obj
 0001:000baba0       ??0Slab@BV4BuildParams@@QAE@XZ 100bbba0 f i GuBV4Build.obj
 0001:000babd0       ??1AABBTreeNode@Gu@physx@@QAE@XZ 100bbbd0 f i GuBV4Build.obj
 0001:000bac00       ??1BV4Node@@QAE@XZ         100bbc00 f i GuBV4Build.obj
 0001:000bac20       ??1BVData@@QAE@XZ          100bbc20 f i GuBV4Build.obj
 0001:000bac40       ??1Slab@BV4BuildParams@@QAE@XZ 100bbc40 f i GuBV4Build.obj
 0001:000bac70       ??4AABBTreeNode@Gu@physx@@QAEAAV012@ABV012@@Z 100bbc70 f i GuBV4Build.obj
 0001:000bacb0       ??_EAABBTreeNode@Gu@physx@@QAEPAXI@Z 100bbcb0 f i GuBV4Build.obj
 0001:000bad60       ??_GSlab@BV4BuildParams@@QAEPAXI@Z 100bbd60 f i GuBV4Build.obj
 0001:000bafd0       ?allocate@?$ReflectionAllocator@U?$BVDataPackedT@VQuantizedAABB@Gu@physx@@@Gu@physx@@@shdfnd@physx@@QAEPAXIPBDH@Z 100bbfd0 f i GuBV4Build.obj
 0001:000bb020       ?allocate@?$ReflectionAllocator@USlab@BV4BuildParams@@@shdfnd@physx@@QAEPAXIPBDH@Z 100bc020 f i GuBV4Build.obj
 0001:000bb070       ?allocate@?$ReflectionAllocator@VAABBTreeNode@Gu@physx@@@shdfnd@physx@@QAEPAXIPBDH@Z 100bc070 f i GuBV4Build.obj
 0001:000bb0c0       ?encodePNS@?$BVDataPackedT@VQuantizedAABB@Gu@physx@@@Gu@physx@@QAEXI@Z 100bc0c0 f i GuBV4Build.obj
 0001:000bb120       ?getAABB@AABBTreeNode@Gu@physx@@QBEABVPxBounds3@3@XZ 100bc120 f i GuBV4Build.obj
 0001:000bb130       ?getBV@AABBTree@Gu@physx@@QBEABVPxBounds3@3@XZ 100bc130 f i GuBV4Build.obj
 0001:000bb150       ?getChild@BV4Node@@QBEPBU1@I@Z 100bc150 f i GuBV4Build.obj
 0001:000bb170       ?getIndices@AABBTree@Gu@physx@@QBEPBIXZ 100bc170 f i GuBV4Build.obj
 0001:000bb180       ?getName@?$ReflectionAllocator@U?$BVDataPackedT@VQuantizedAABB@Gu@physx@@@Gu@physx@@@shdfnd@physx@@CAPBDXZ 100bc180 f i GuBV4Build.obj
 0001:000bb1c0       ?getName@?$ReflectionAllocator@USlab@BV4BuildParams@@@shdfnd@physx@@CAPBDXZ 100bc1c0 f i GuBV4Build.obj
 0001:000bb200       ?getName@?$ReflectionAllocator@VAABBTreeNode@Gu@physx@@@shdfnd@physx@@CAPBDXZ 100bc200 f i GuBV4Build.obj
 0001:000bb240       ?getNbPrimitives@AABBTreeNode@Gu@physx@@QBEIXZ 100bc240 f i GuBV4Build.obj
 0001:000bb260       ?getNbTriangles@SourceMesh@Gu@physx@@QBEIXZ 100bc260 f i GuBV4Build.obj
 0001:000bb280       ?getNeg@AABBTreeNode@Gu@physx@@QBEPBV123@XZ 100bc280 f i GuBV4Build.obj
 0001:000bb2c0       ?getNodes@AABBTree@Gu@physx@@QBEPBVAABBTreeNode@23@XZ 100bc2c0 f i GuBV4Build.obj
 0001:000bb2e0       ?getPos@AABBTreeNode@Gu@physx@@QBEPBV123@XZ 100bc2e0 f i GuBV4Build.obj
 0001:000bb300       ?getPrimitives@AABBTreeNode@Gu@physx@@QBEPBIXZ 100bc300 f i GuBV4Build.obj
 0001:000bb320       ?getTriangle@SourceMesh@Gu@physx@@QBEXAAUVertexPointers@23@I@Z 100bc320 f i GuBV4Build.obj
 0001:000bb3a0       ?getType@BV4Node@@QBEIXZ   100bc3a0 f i GuBV4Build.obj
 0001:000bb3f0       ?getVertexReferences@Gu@physx@@YAXAAI00IPBVIndTri32@12@PBVIndTri16@12@@Z 100bc3f0 f i GuBV4Build.obj
 0001:000bb490       ?isLeaf@AABBTreeNode@Gu@physx@@QBE_NXZ 100bc490 f i GuBV4Build.obj
 0001:000bb4c0       ?isLeaf@BV4Node@@QBEII@Z   100bc4c0 f i GuBV4Build.obj
 0001:000bcaa0       ?Sweep_AABB_BV4@@YAHABVBox@Gu@physx@@ABVPxVec3@3@MABVBV4Tree@23@PIAVSweepHit@23@I@Z 100bdaa0 f   GuBV4_AABBSweep.obj
 0001:000bcc40       ?Sweep_AABB_BV4_CB@@YAXABVBox@Gu@physx@@ABVPxVec3@3@MABVBV4Tree@23@PIBVPxMat44@3@P6A_NPAXABVSweepHit@23@@Z4I_N@Z 100bdc40 f   GuBV4_AABBSweep.obj
 0001:000bce00       ?GenericSweep_AABB_CB@@YAXABVBox@Gu@physx@@ABVPxVec3@3@MABVBV4Tree@23@P6A_NPAX111IAAM@Z3I@Z 100bde00 f   GuBV4_AABBSweep.obj
 0001:000c3ca0       ??$V4SplatElement@$00@aos@shdfnd@physx@@YA?AT__m128@@T3@@Z 100c4ca0 f i GuBV4_AABBSweep.obj
 0001:000c3cf0       ??$V4SplatElement@$01@aos@shdfnd@physx@@YA?AT__m128@@T3@@Z 100c4cf0 f i GuBV4_AABBSweep.obj
 0001:000c3d40       ??$V4SplatElement@$0A@@aos@shdfnd@physx@@YA?AT__m128@@T3@@Z 100c4d40 f i GuBV4_AABBSweep.obj
 0001:000c43b0       ??0RayParams@@QAE@XZ       100c53b0 f i GuBV4_AABBSweep.obj
 0001:000c43e0       ??0RaycastHitInternal@Gu@physx@@QAE@XZ 100c53e0 f i GuBV4_AABBSweep.obj
 0001:000c43f0       ??0SweepHit@Gu@physx@@QAE@XZ 100c53f0 f i GuBV4_AABBSweep.obj
 0001:000c4490       ??1RayParams@@QAE@XZ       100c5490 f i GuBV4_AABBSweep.obj
 0001:000c44c0       ??1RaycastHitInternal@Gu@physx@@QAE@XZ 100c54c0 f i GuBV4_AABBSweep.obj
 0001:000c44d0       ??1SweepHit@Gu@physx@@QAE@XZ 100c54d0 f i GuBV4_AABBSweep.obj
 0001:000c44e0       ?V4RecipFast@aos@shdfnd@physx@@YA?AT__m128@@T4@@Z 100c54e0 f i GuBV4_AABBSweep.obj
 0001:000c4510       ?computeBoxLocalImpact@Gu@physx@@YAXAAVPxVec3@2@0AAV?$PxFlags@W4Enum@PxHitFlag@physx@@G@2@ABVBox@12@ABV32@ABVPxTriangle@2@V42@_N6M@Z 100c5510 f i GuBV4_AABBSweep.obj
 0001:000c4680       ?cross010@shdfnd@physx@@YA?AVPxVec3@2@ABV32@@Z 100c5680 f i GuBV4_AABBSweep.obj
 0001:000c46c0       ?cross100@shdfnd@physx@@YA?AVPxVec3@2@ABV32@@Z 100c56c0 f i GuBV4_AABBSweep.obj
 0001:000c4700       ?decodePNSNoShift@BVDataSwizzledQ@Gu@physx@@QBEII@Z 100c5700 f i GuBV4_AABBSweep.obj
 0001:000c4bb0       ?getChildData@BVDataSwizzledQ@Gu@physx@@QBEII@Z 100c5bb0 f i GuBV4_AABBSweep.obj
 0001:000c4bd0       ?getNbPrimitives@Gu@physx@@YAIAAI@Z 100c5bd0 f i GuBV4_AABBSweep.obj
 0001:000c4c00       ?getPrimitive@BVDataSwizzledQ@Gu@physx@@QBEII@Z 100c5c00 f i GuBV4_AABBSweep.obj
 0001:000c4c20       ?getTris16@SourceMesh@Gu@physx@@QBEPBVIndTri16@23@XZ 100c5c20 f i GuBV4_AABBSweep.obj
 0001:000c4c40       ?getTris32@SourceMesh@Gu@physx@@QBEPBVIndTri32@23@XZ 100c5c40 f i GuBV4_AABBSweep.obj
 0001:000c4c60       ?getVerts@SourceMeshBase@Gu@physx@@QBEPBVPxVec3@3@XZ 100c5c60 f i GuBV4_AABBSweep.obj
 0001:000c4c80       ?invertBoxMatrix@Gu@physx@@YAXAAVPxMat33@2@AAVPxVec3@2@ABVBox@12@@Z 100c5c80 f i GuBV4_AABBSweep.obj
 0001:000c4e40       ?isLeaf@BVDataSwizzledQ@Gu@physx@@QBEII@Z 100c5e40 f i GuBV4_AABBSweep.obj
 0001:000c4e60       ?shouldFlipNormal@Gu@physx@@YA_NABVPxVec3@2@_N1ABVPxTriangle@2@0PBVPxTransform@2@@Z 100c5e60 f i GuBV4_AABBSweep.obj
 0001:000c4f40       ?testSeparationAxes@Gu@physx@@YAHABVPxTriangle@2@ABVPxVec3@2@111MAAM@Z 100c5f40 f i GuBV4_AABBSweep.obj
 0001:000c51f0       ?triBoxSweepTestBoxSpace_inlined@Gu@physx@@YAHABVPxTriangle@2@ABVPxVec3@2@11MAAMI@Z 100c61f0 f i GuBV4_AABBSweep.obj
 0001:000c52d0       ?BV4_OverlapBoxAny@@YAHABVBox@Gu@physx@@ABVBV4Tree@23@PIBVPxMat44@3@@Z 100c62d0 f   GuBV4_BoxOverlap.obj
 0001:000c5480       ?BV4_OverlapBoxAll@@YAIABVBox@Gu@physx@@ABVBV4Tree@23@PIBVPxMat44@3@PAIIAA_N@Z 100c6480 f   GuBV4_BoxOverlap.obj
 0001:000c5650       ?BV4_OverlapBoxCB@@YAXABVBox@Gu@physx@@ABVBV4Tree@23@P6A_NPAXABVPxVec3@3@33IPBI@Z2@Z 100c6650 f   GuBV4_BoxOverlap.obj
 0001:000c5a40       ?BV4_OverlapCapsuleAny@@YAHABVCapsule@Gu@physx@@ABVBV4Tree@23@PIBVPxMat44@3@@Z 100c6a40 f   GuBV4_BoxOverlap.obj
 0001:000c5bc0       ?BV4_OverlapCapsuleAll@@YAIABVCapsule@Gu@physx@@ABVBV4Tree@23@PIBVPxMat44@3@PAIIAA_N@Z 100c6bc0 f   GuBV4_BoxOverlap.obj
 0001:000c5d70       ?BV4_OverlapCapsuleCB@@YAXABVCapsule@Gu@physx@@ABVBV4Tree@23@PIBVPxMat44@3@P6A_NPAXABVPxVec3@3@44IPBI@Z3@Z 100c6d70 f   GuBV4_BoxOverlap.obj
 0001:000c6720       ??$BV4_ProcessNodeNoOrder_SwizzledQ@VLeafFunction_BoxOverlapAll@?A0xaba167e5@@$00UOBBParamsAll@@@@YAHPIAIAAIPIBUBVDataSwizzledQ@Gu@physx@@PIAUOBBParamsAll@@@Z 100c7720 f i GuBV4_BoxOverlap.obj
 0001:000c69b0       ??$BV4_ProcessNodeNoOrder_SwizzledQ@VLeafFunction_BoxOverlapAll@?A0xaba167e5@@$01UOBBParamsAll@@@@YAHPIAIAAIPIBUBVDataSwizzledQ@Gu@physx@@PIAUOBBParamsAll@@@Z 100c79b0 f i GuBV4_BoxOverlap.obj
 0001:000c6c40       ??$BV4_ProcessNodeNoOrder_SwizzledQ@VLeafFunction_BoxOverlapAll@?A0xaba167e5@@$02UOBBParamsAll@@@@YAHPIAIAAIPIBUBVDataSwizzledQ@Gu@physx@@PIAUOBBParamsAll@@@Z 100c7c40 f i GuBV4_BoxOverlap.obj
 0001:000c6ed0       ??$BV4_ProcessNodeNoOrder_SwizzledQ@VLeafFunction_BoxOverlapAll@?A0xaba167e5@@$0A@UOBBParamsAll@@@@YAHPIAIAAIPIBUBVDataSwizzledQ@Gu@physx@@PIAUOBBParamsAll@@@Z 100c7ed0 f i GuBV4_BoxOverlap.obj
 0001:000c7160       ??$BV4_ProcessNodeNoOrder_SwizzledQ@VLeafFunction_BoxOverlapAny@?A0xaba167e5@@$00UOBBParams@@@@YAHPIAIAAIPIBUBVDataSwizzledQ@Gu@physx@@PIAUOBBParams@@@Z 100c8160 f i GuBV4_BoxOverlap.obj
 0001:000c73f0       ??$BV4_ProcessNodeNoOrder_SwizzledQ@VLeafFunction_BoxOverlapAny@?A0xaba167e5@@$01UOBBParams@@@@YAHPIAIAAIPIBUBVDataSwizzledQ@Gu@physx@@PIAUOBBParams@@@Z 100c83f0 f i GuBV4_BoxOverlap.obj
 0001:000c7680       ??$BV4_ProcessNodeNoOrder_SwizzledQ@VLeafFunction_BoxOverlapAny@?A0xaba167e5@@$02UOBBParams@@@@YAHPIAIAAIPIBUBVDataSwizzledQ@Gu@physx@@PIAUOBBParams@@@Z 100c8680 f i GuBV4_BoxOverlap.obj
 0001:000c7910       ??$BV4_ProcessNodeNoOrder_SwizzledQ@VLeafFunction_BoxOverlapAny@?A0xaba167e5@@$0A@UOBBParams@@@@YAHPIAIAAIPIBUBVDataSwizzledQ@Gu@physx@@PIAUOBBParams@@@Z 100c8910 f i GuBV4_BoxOverlap.obj
 0001:000c7ba0       ??$BV4_ProcessNodeNoOrder_SwizzledQ@VLeafFunction_BoxOverlapCB@?A0xaba167e5@@$00UOBBParamsCB@@@@YAHPIAIAAIPIBUBVDataSwizzledQ@Gu@physx@@PIAUOBBParamsCB@@@Z 100c8ba0 f i GuBV4_BoxOverlap.obj
 0001:000c7e30       ??$BV4_ProcessNodeNoOrder_SwizzledQ@VLeafFunction_BoxOverlapCB@?A0xaba167e5@@$01UOBBParamsCB@@@@YAHPIAIAAIPIBUBVDataSwizzledQ@Gu@physx@@PIAUOBBParamsCB@@@Z 100c8e30 f i GuBV4_BoxOverlap.obj
 0001:000c80c0       ??$BV4_ProcessNodeNoOrder_SwizzledQ@VLeafFunction_BoxOverlapCB@?A0xaba167e5@@$02UOBBParamsCB@@@@YAHPIAIAAIPIBUBVDataSwizzledQ@Gu@physx@@PIAUOBBParamsCB@@@Z 100c90c0 f i GuBV4_BoxOverlap.obj
 0001:000c8350       ??$BV4_ProcessNodeNoOrder_SwizzledQ@VLeafFunction_BoxOverlapCB@?A0xaba167e5@@$0A@UOBBParamsCB@@@@YAHPIAIAAIPIBUBVDataSwizzledQ@Gu@physx@@PIAUOBBParamsCB@@@Z 100c9350 f i GuBV4_BoxOverlap.obj
 0001:000c85e0       ??$BV4_ProcessNodeNoOrder_SwizzledQ@VLeafFunction_CapsuleOverlapAll@?A0xaba167e5@@$00UCapsuleParamsAll@@@@YAHPIAIAAIPIBUBVDataSwizzledQ@Gu@physx@@PIAUCapsuleParamsAll@@@Z 100c95e0 f i GuBV4_BoxOverlap.obj
 0001:000c8870       ??$BV4_ProcessNodeNoOrder_SwizzledQ@VLeafFunction_CapsuleOverlapAll@?A0xaba167e5@@$01UCapsuleParamsAll@@@@YAHPIAIAAIPIBUBVDataSwizzledQ@Gu@physx@@PIAUCapsuleParamsAll@@@Z 100c9870 f i GuBV4_BoxOverlap.obj
 0001:000c8b00       ??$BV4_ProcessNodeNoOrder_SwizzledQ@VLeafFunction_CapsuleOverlapAll@?A0xaba167e5@@$02UCapsuleParamsAll@@@@YAHPIAIAAIPIBUBVDataSwizzledQ@Gu@physx@@PIAUCapsuleParamsAll@@@Z 100c9b00 f i GuBV4_BoxOverlap.obj
 0001:000c8d90       ??$BV4_ProcessNodeNoOrder_SwizzledQ@VLeafFunction_CapsuleOverlapAll@?A0xaba167e5@@$0A@UCapsuleParamsAll@@@@YAHPIAIAAIPIBUBVDataSwizzledQ@Gu@physx@@PIAUCapsuleParamsAll@@@Z 100c9d90 f i GuBV4_BoxOverlap.obj
 0001:000c9020       ??$BV4_ProcessNodeNoOrder_SwizzledQ@VLeafFunction_CapsuleOverlapAny@?A0xaba167e5@@$00UCapsuleParamsAny@@@@YAHPIAIAAIPIBUBVDataSwizzledQ@Gu@physx@@PIAUCapsuleParamsAny@@@Z 100ca020 f i GuBV4_BoxOverlap.obj
 0001:000c92b0       ??$BV4_ProcessNodeNoOrder_SwizzledQ@VLeafFunction_CapsuleOverlapAny@?A0xaba167e5@@$01UCapsuleParamsAny@@@@YAHPIAIAAIPIBUBVDataSwizzledQ@Gu@physx@@PIAUCapsuleParamsAny@@@Z 100ca2b0 f i GuBV4_BoxOverlap.obj
 0001:000c9540       ??$BV4_ProcessNodeNoOrder_SwizzledQ@VLeafFunction_CapsuleOverlapAny@?A0xaba167e5@@$02UCapsuleParamsAny@@@@YAHPIAIAAIPIBUBVDataSwizzledQ@Gu@physx@@PIAUCapsuleParamsAny@@@Z 100ca540 f i GuBV4_BoxOverlap.obj
 0001:000c97d0       ??$BV4_ProcessNodeNoOrder_SwizzledQ@VLeafFunction_CapsuleOverlapAny@?A0xaba167e5@@$0A@UCapsuleParamsAny@@@@YAHPIAIAAIPIBUBVDataSwizzledQ@Gu@physx@@PIAUCapsuleParamsAny@@@Z 100ca7d0 f i GuBV4_BoxOverlap.obj
 0001:000c9a60       ??$BV4_ProcessNodeNoOrder_SwizzledQ@VLeafFunction_CapsuleOverlapCB@?A0xaba167e5@@$00UCapsuleParamsCB@@@@YAHPIAIAAIPIBUBVDataSwizzledQ@Gu@physx@@PIAUCapsuleParamsCB@@@Z 100caa60 f i GuBV4_BoxOverlap.obj
 0001:000c9cf0       ??$BV4_ProcessNodeNoOrder_SwizzledQ@VLeafFunction_CapsuleOverlapCB@?A0xaba167e5@@$01UCapsuleParamsCB@@@@YAHPIAIAAIPIBUBVDataSwizzledQ@Gu@physx@@PIAUCapsuleParamsCB@@@Z 100cacf0 f i GuBV4_BoxOverlap.obj
 0001:000c9f80       ??$BV4_ProcessNodeNoOrder_SwizzledQ@VLeafFunction_CapsuleOverlapCB@?A0xaba167e5@@$02UCapsuleParamsCB@@@@YAHPIAIAAIPIBUBVDataSwizzledQ@Gu@physx@@PIAUCapsuleParamsCB@@@Z 100caf80 f i GuBV4_BoxOverlap.obj
 0001:000ca210       ??$BV4_ProcessNodeNoOrder_SwizzledQ@VLeafFunction_CapsuleOverlapCB@?A0xaba167e5@@$0A@UCapsuleParamsCB@@@@YAHPIAIAAIPIBUBVDataSwizzledQ@Gu@physx@@PIAUCapsuleParamsCB@@@Z 100cb210 f i GuBV4_BoxOverlap.obj
 0001:000ca4a0       ??$precomputeData@UOBBTestParams@@@@YAXPIAUOBBTestParams@@PIAVPxMat33@physx@@PIBV12@@Z 100cb4a0 f i GuBV4_BoxOverlap.obj
 0001:000ca7b0       ??$processStreamNoOrder@VLeafFunction_BoxOverlapAll@?A0xaba167e5@@UOBBParamsAll@@@@YAHABVBV4Tree@Gu@physx@@PIAUOBBParamsAll@@@Z 100cb7b0 f i GuBV4_BoxOverlap.obj
 0001:000ca7d0       ??$processStreamNoOrder@VLeafFunction_BoxOverlapAny@?A0xaba167e5@@UOBBParams@@@@YAHABVBV4Tree@Gu@physx@@PIAUOBBParams@@@Z 100cb7d0 f i GuBV4_BoxOverlap.obj
 0001:000ca7f0       ??$processStreamNoOrder@VLeafFunction_BoxOverlapCB@?A0xaba167e5@@UOBBParamsCB@@@@YAHABVBV4Tree@Gu@physx@@PIAUOBBParamsCB@@@Z 100cb7f0 f i GuBV4_BoxOverlap.obj
 0001:000ca810       ??$processStreamNoOrder@VLeafFunction_CapsuleOverlapAll@?A0xaba167e5@@UCapsuleParamsAll@@@@YAHABVBV4Tree@Gu@physx@@PIAUCapsuleParamsAll@@@Z 100cb810 f i GuBV4_BoxOverlap.obj
 0001:000ca830       ??$processStreamNoOrder@VLeafFunction_CapsuleOverlapAny@?A0xaba167e5@@UCapsuleParamsAny@@@@YAHABVBV4Tree@Gu@physx@@PIAUCapsuleParamsAny@@@Z 100cb830 f i GuBV4_BoxOverlap.obj
 0001:000ca850       ??$processStreamNoOrder@VLeafFunction_CapsuleOverlapCB@?A0xaba167e5@@UCapsuleParamsCB@@@@YAHABVBV4Tree@Gu@physx@@PIAUCapsuleParamsCB@@@Z 100cb850 f i GuBV4_BoxOverlap.obj
 0001:000ca870       ??$setupBoxData@UOBBTestParams@@@@YAXPIAUOBBTestParams@@ABVPxVec3@physx@@PIBVPxMat33@2@@Z 100cb870 f i GuBV4_BoxOverlap.obj
 0001:000ca970       ??$setupMeshPointersAndQuantizedCoeffs@UCapsuleParamsAll@@@Gu@physx@@YAXPIAUCapsuleParamsAll@@PIBVSourceMesh@01@PIBVBV4Tree@01@@Z 100cb970 f i GuBV4_BoxOverlap.obj
 0001:000caa10       ??$setupMeshPointersAndQuantizedCoeffs@UCapsuleParamsAny@@@Gu@physx@@YAXPIAUCapsuleParamsAny@@PIBVSourceMesh@01@PIBVBV4Tree@01@@Z 100cba10 f i GuBV4_BoxOverlap.obj
 0001:000caab0       ??$setupMeshPointersAndQuantizedCoeffs@UCapsuleParamsCB@@@Gu@physx@@YAXPIAUCapsuleParamsCB@@PIBVSourceMesh@01@PIBVBV4Tree@01@@Z 100cbab0 f i GuBV4_BoxOverlap.obj
 0001:000cab50       ??$setupMeshPointersAndQuantizedCoeffs@UOBBParams@@@Gu@physx@@YAXPIAUOBBParams@@PIBVSourceMesh@01@PIBVBV4Tree@01@@Z 100cbb50 f i GuBV4_BoxOverlap.obj
 0001:000cabf0       ??$setupMeshPointersAndQuantizedCoeffs@UOBBParamsAll@@@Gu@physx@@YAXPIAUOBBParamsAll@@PIBVSourceMesh@01@PIBVBV4Tree@01@@Z 100cbbf0 f i GuBV4_BoxOverlap.obj
 0001:000cac90       ??$setupMeshPointersAndQuantizedCoeffs@UOBBParamsCB@@@Gu@physx@@YAXPIAUOBBParamsCB@@PIBVSourceMesh@01@PIBVBV4Tree@01@@Z 100cbc90 f i GuBV4_BoxOverlap.obj
 0001:000cad30       ??0CapsuleParamsAll@@QAE@XZ 100cbd30 f i GuBV4_BoxOverlap.obj
 0001:000cad50       ??0CapsuleParamsAny@@QAE@XZ 100cbd50 f i GuBV4_BoxOverlap.obj
 0001:000cad90       ??0CapsuleParamsCB@@QAE@XZ 100cbd90 f i GuBV4_BoxOverlap.obj
 0001:000cadb0       ??0CapsuleTriangleOverlapData@Gu@physx@@QAE@XZ 100cbdb0 f i GuBV4_BoxOverlap.obj
 0001:000cadd0       ??0OBBParams@@QAE@XZ       100cbdd0 f i GuBV4_BoxOverlap.obj
 0001:000cae10       ??0OBBParamsAll@@QAE@XZ    100cbe10 f i GuBV4_BoxOverlap.obj
 0001:000cae30       ??0OBBParamsCB@@QAE@XZ     100cbe30 f i GuBV4_BoxOverlap.obj
 0001:000cae50       ??0OBBTestParams@@QAE@XZ   100cbe50 f i GuBV4_BoxOverlap.obj
 0001:000caee0       ??0PxMat44@physx@@QAE@XZ   100cbee0 f i GuBV4_BoxOverlap.obj
 0001:000caf20       ??1CapsuleParamsAll@@QAE@XZ 100cbf20 f i GuBV4_BoxOverlap.obj
 0001:000caf40       ??1CapsuleParamsAny@@QAE@XZ 100cbf40 f i GuBV4_BoxOverlap.obj
 0001:000caf70       ??1CapsuleParamsCB@@QAE@XZ 100cbf70 f i GuBV4_BoxOverlap.obj
 0001:000caf90       ??1OBBParams@@QAE@XZ       100cbf90 f i GuBV4_BoxOverlap.obj
 0001:000cafc0       ??1OBBParamsAll@@QAE@XZ    100cbfc0 f i GuBV4_BoxOverlap.obj
 0001:000cafe0       ??1OBBParamsCB@@QAE@XZ     100cbfe0 f i GuBV4_BoxOverlap.obj
 0001:000cb000       ??1OBBTestParams@@QAE@XZ   100cc000 f i GuBV4_BoxOverlap.obj
 0001:000cb090       ?BV4_BoxBoxOverlap@@YAHT__m128@@0PIBUOBBTestParams@@@Z 100cc090 f i GuBV4_BoxOverlap.obj
 0001:000cb4d0       ?computeLocalBox@Gu@physx@@YAXAAVBox@12@ABV312@PIBVPxMat44@2@@Z 100cc4d0 f i GuBV4_BoxOverlap.obj
 0001:000cb520       ?computeLocalCapsule@Gu@physx@@YAXAAVCapsule@12@ABV312@PIBVPxMat44@2@@Z 100cc520 f i GuBV4_BoxOverlap.obj
 0001:000cbac0       ?init@CapsuleTriangleOverlapData@Gu@physx@@QAEXABVCapsule@23@@Z 100ccac0 f i GuBV4_BoxOverlap.obj
 0001:000cbb50       ?inverseTransform@Gu@physx@@YA?AVPxVec3@2@PIBVPxMat44@2@ABV32@@Z 100ccb50 f i GuBV4_BoxOverlap.obj
 0001:000cbd20       ?invertPRMatrix@Gu@physx@@YAXPIAVPxMat44@2@PIBV32@@Z 100ccd20 f i GuBV4_BoxOverlap.obj
 0001:000cbf10       ?precomputeBoxData@OBBTestParams@@QAEXABVPxVec3@physx@@PIBVPxMat33@3@@Z 100ccf10 f i GuBV4_BoxOverlap.obj
 0001:000cbf50       ?rotateBox@Gu@physx@@YAXAAVBox@12@ABVPxMat44@2@ABV312@@Z 100ccf50 f i GuBV4_BoxOverlap.obj
 0001:000cd340       ?BV4_CapsuleSweepSingle@@YAHABVCapsule@Gu@physx@@ABVPxVec3@3@MABVBV4Tree@23@PIAVSweepHit@23@I@Z 100ce340 f   GuBV4_CapsuleSweep.obj
 0001:000cd970       ?BV4_CapsuleSweepCB@@YAXABVCapsule@Gu@physx@@ABVPxVec3@3@MABVBV4Tree@23@PIBVPxMat44@3@P6A_NPAXABVSweepHit@23@@Z4I_N@Z 100ce970 f   GuBV4_CapsuleSweep.obj
 0001:000d1320       ??$PX_UNUSED@_N@@YAXAB_N@Z 100d2320 f i GuBV4_CapsuleSweep.obj
 0001:000d1ce0       ??4Capsule@Gu@physx@@QAEAAV012@ABV012@@Z 100d2ce0 f i GuBV4_CapsuleSweep.obj
 0001:000d1d10       ??4Segment@Gu@physx@@QAEAAV012@ABV012@@Z 100d2d10 f i GuBV4_CapsuleSweep.obj
 0001:000d1e10       ?coarseCullingQuad@Gu@physx@@YA_NABVPxVec3@2@0MMPIBV32@@Z 100d2e10 f i GuBV4_CapsuleSweep.obj
 0001:000d1fc0       ?coarseCullingTri@Gu@physx@@YA_NABVPxVec3@2@0MMPIBV32@@Z 100d2fc0 f i GuBV4_CapsuleSweep.obj
 0001:000d21f0       ?computeAlignmentValue@Gu@physx@@YAMABVPxVec3@2@0@Z 100d31f0 f i GuBV4_CapsuleSweep.obj
 0001:000d2460       ?cullQuad@Gu@physx@@YA_NPIBVPxVec3@2@ABV32@MMM@Z 100d3460 f i GuBV4_CapsuleSweep.obj
 0001:000d27a0       ?keepTriangle@Gu@physx@@YA_NMMMMMM@Z 100d37a0 f i GuBV4_CapsuleSweep.obj
 0001:000d2870       ?rejectQuad@Gu@physx@@YA_NABVPxVec3@2@0MMPIBV32@M@Z 100d3870 f i GuBV4_CapsuleSweep.obj
 0001:000d28f0       ?rejectTriangle@Gu@physx@@YA_NABVPxVec3@2@0MMPIBV32@M@Z 100d38f0 f i GuBV4_CapsuleSweep.obj
 0001:000d2970       ?squareDistance@Gu@physx@@YAMABVPxVec3@2@0M0@Z 100d3970 f i GuBV4_CapsuleSweep.obj
 0001:000d3c70       ?BV4_CapsuleSweepSingleAA@@YAHABVCapsule@Gu@physx@@ABVPxVec3@3@MABVBV4Tree@23@PIAVSweepHit@23@I@Z 100d4c70 f   GuBV4_CapsuleSweepAA.obj
 0001:000d8200       ?Sweep_OBB_BV4@@YAHABVBox@Gu@physx@@ABVPxVec3@3@MABVBV4Tree@23@PIAVSweepHit@23@I@Z 100d9200 f   GuBV4_OBBSweep.obj
 0001:000d8380       ?Sweep_OBB_BV4_CB@@YAXABVBox@Gu@physx@@ABVPxVec3@3@MABVBV4Tree@23@PIBVPxMat44@3@P6A_NPAXABVSweepHit@23@@Z4I_N@Z 100d9380 f   GuBV4_OBBSweep.obj
 0001:000d8520       ?GenericSweep_OBB_CB@@YAXABVBox@Gu@physx@@ABVPxVec3@3@MABVBV4Tree@23@P6A_NPAX111IAAM@Z3I@Z 100d9520 f   GuBV4_OBBSweep.obj
 0001:000d87f0       ?BV4_BoxSweepSingle@@YAHABVBox@Gu@physx@@ABVPxVec3@3@MABVBV4Tree@23@PIBVPxMat44@3@PIAVSweepHit@23@I@Z 100d97f0 f   GuBV4_OBBSweep.obj
 0001:000d88f0       ?BV4_BoxSweepCB@@YAXABVBox@Gu@physx@@ABVPxVec3@3@MABVBV4Tree@23@PIBVPxMat44@3@P6A_NPAXABVSweepHit@23@@Z4I_N@Z 100d98f0 f   GuBV4_OBBSweep.obj
 0001:000d89b0       ?BV4_GenericSweepCB@@YAXABVBox@Gu@physx@@ABVPxVec3@3@MABVBV4Tree@23@P6A_NPAX111IAAM@Z3_N@Z 100d99b0 f   GuBV4_OBBSweep.obj
 0001:000df4e0       ?BV4_RaycastSingle@@YAHABVPxVec3@physx@@0ABVBV4Tree@Gu@2@PIBVPxMat44@2@PIAUPxRaycastHit@2@MMIV?$PxFlags@W4Enum@PxHitFlag@physx@@G@2@@Z 100e04e0 f   GuBV4_Raycast.obj
 0001:000df6a0       ?BV4_RaycastCB@@YAXABVPxVec3@physx@@0ABVBV4Tree@Gu@2@PIBVPxMat44@2@MMIP6A?AW4HitCode@42@PAX000IMMM@Z3@Z 100e06a0 f   GuBV4_Raycast.obj
 0001:000df870       ?BV4_RaycastAll@@YAIABVPxVec3@physx@@0ABVBV4Tree@Gu@2@PIBVPxMat44@2@PIAUPxRaycastHit@2@IMMIV?$PxFlags@W4Enum@PxHitFlag@physx@@G@2@@Z 100e0870 f   GuBV4_Raycast.obj
 0001:000e3bb0       ??$RayTriOverlapT@URayParams@@@@YAHAAUPxRaycastHit@physx@@ABVPxVec3@1@11PIBURayParams@@@Z 100e4bb0 f i GuBV4_Raycast.obj
 0001:000e3ec0       ??$doBruteForceTests@VLeafFunction_RaycastAny@?A0x7657330e@@VLeafFunction_RaycastClosest@2@URayParams@@@Gu@physx@@YAXIPIAURayParams@@@Z 100e4ec0 f i GuBV4_Raycast.obj
 0001:000e3f50       ??$processStreamRayNoOrder@$0A@VLeafFunction_RaycastAny@?A0x7657330e@@URayParams@@@@YAHABVBV4Tree@Gu@physx@@PIAURayParams@@@Z 100e4f50 f i GuBV4_Raycast.obj
 0001:000e3f90       ??$processStreamRayOrdered@$0A@VLeafFunction_RaycastClosest@?A0x7657330e@@URayParams@@@@YAXABVBV4Tree@Gu@physx@@PIAURayParams@@@Z 100e4f90 f i GuBV4_Raycast.obj
 0001:000e3fb0       ??$setupMeshPointersAndQuantizedCoeffs@URayParams@@@Gu@physx@@YAXPIAURayParams@@PIBVSourceMesh@01@PIBVBV4Tree@01@@Z 100e4fb0 f i GuBV4_Raycast.obj
 0001:000e4190       ??$setupParamsFlags@URayParams@@@Gu@physx@@YAXPIAURayParams@@I@Z 100e5190 f i GuBV4_Raycast.obj
 0001:000e42a0       ??0RaycastHitInternalUV@@QAE@XZ 100e52a0 f i GuBV4_Raycast.obj
 0001:000e4300       ??1RaycastHitInternalUV@@QAE@XZ 100e5300 f i GuBV4_Raycast.obj
 0001:000e4320       ?computeLocalRay@Gu@physx@@YAXAAVPxVec3@2@0ABV32@1PIBVPxMat44@2@@Z 100e5320 f i GuBV4_Raycast.obj
 0001:000e47e0       ?inverseRotate@Gu@physx@@YA?AVPxVec3@2@PIBVPxMat44@2@ABV32@@Z 100e57e0 f i GuBV4_Raycast.obj
 0001:000e4bf0       ?BV4_OverlapSphereAny@@YAHABVSphere@Gu@physx@@ABVBV4Tree@23@PIBVPxMat44@3@@Z 100e5bf0 f   GuBV4_SphereOverlap.obj
 0001:000e4d60       ?BV4_OverlapSphereAll@@YAIABVSphere@Gu@physx@@ABVBV4Tree@23@PIBVPxMat44@3@PAIIAA_N@Z 100e5d60 f   GuBV4_SphereOverlap.obj
 0001:000e4f00       ?BV4_OverlapSphereCB@@YAXABVSphere@Gu@physx@@ABVBV4Tree@23@PIBVPxMat44@3@P6A_NPAXABVPxVec3@3@44IPBI@Z3@Z 100e5f00 f   GuBV4_SphereOverlap.obj
 0001:000e53c0       ??$BV4_ProcessNodeNoOrder_SwizzledQ@VLeafFunction_SphereOverlapAll@?A0x7c48e4c5@@$00USphereParamsAll@@@@YAHPIAIAAIPIBUBVDataSwizzledQ@Gu@physx@@PIAUSphereParamsAll@@@Z 100e63c0 f i GuBV4_SphereOverlap.obj
 0001:000e5600       ??$BV4_ProcessNodeNoOrder_SwizzledQ@VLeafFunction_SphereOverlapAll@?A0x7c48e4c5@@$01USphereParamsAll@@@@YAHPIAIAAIPIBUBVDataSwizzledQ@Gu@physx@@PIAUSphereParamsAll@@@Z 100e6600 f i GuBV4_SphereOverlap.obj
 0001:000e5830       ??$BV4_ProcessNodeNoOrder_SwizzledQ@VLeafFunction_SphereOverlapAll@?A0x7c48e4c5@@$02USphereParamsAll@@@@YAHPIAIAAIPIBUBVDataSwizzledQ@Gu@physx@@PIAUSphereParamsAll@@@Z 100e6830 f i GuBV4_SphereOverlap.obj
 0001:000e5a70       ??$BV4_ProcessNodeNoOrder_SwizzledQ@VLeafFunction_SphereOverlapAll@?A0x7c48e4c5@@$0A@USphereParamsAll@@@@YAHPIAIAAIPIBUBVDataSwizzledQ@Gu@physx@@PIAUSphereParamsAll@@@Z 100e6a70 f i GuBV4_SphereOverlap.obj
 0001:000e5cb0       ??$BV4_ProcessNodeNoOrder_SwizzledQ@VLeafFunction_SphereOverlapAny@?A0x7c48e4c5@@$00USphereParams@@@@YAHPIAIAAIPIBUBVDataSwizzledQ@Gu@physx@@PIAUSphereParams@@@Z 100e6cb0 f i GuBV4_SphereOverlap.obj
 0001:000e5ef0       ??$BV4_ProcessNodeNoOrder_SwizzledQ@VLeafFunction_SphereOverlapAny@?A0x7c48e4c5@@$01USphereParams@@@@YAHPIAIAAIPIBUBVDataSwizzledQ@Gu@physx@@PIAUSphereParams@@@Z 100e6ef0 f i GuBV4_SphereOverlap.obj
 0001:000e6120       ??$BV4_ProcessNodeNoOrder_SwizzledQ@VLeafFunction_SphereOverlapAny@?A0x7c48e4c5@@$02USphereParams@@@@YAHPIAIAAIPIBUBVDataSwizzledQ@Gu@physx@@PIAUSphereParams@@@Z 100e7120 f i GuBV4_SphereOverlap.obj
 0001:000e6360       ??$BV4_ProcessNodeNoOrder_SwizzledQ@VLeafFunction_SphereOverlapAny@?A0x7c48e4c5@@$0A@USphereParams@@@@YAHPIAIAAIPIBUBVDataSwizzledQ@Gu@physx@@PIAUSphereParams@@@Z 100e7360 f i GuBV4_SphereOverlap.obj
 0001:000e65a0       ??$BV4_ProcessNodeNoOrder_SwizzledQ@VLeafFunction_SphereOverlapCB@?A0x7c48e4c5@@$00USphereParamsCB@@@@YAHPIAIAAIPIBUBVDataSwizzledQ@Gu@physx@@PIAUSphereParamsCB@@@Z 100e75a0 f i GuBV4_SphereOverlap.obj
 0001:000e67e0       ??$BV4_ProcessNodeNoOrder_SwizzledQ@VLeafFunction_SphereOverlapCB@?A0x7c48e4c5@@$01USphereParamsCB@@@@YAHPIAIAAIPIBUBVDataSwizzledQ@Gu@physx@@PIAUSphereParamsCB@@@Z 100e77e0 f i GuBV4_SphereOverlap.obj
 0001:000e6a10       ??$BV4_ProcessNodeNoOrder_SwizzledQ@VLeafFunction_SphereOverlapCB@?A0x7c48e4c5@@$02USphereParamsCB@@@@YAHPIAIAAIPIBUBVDataSwizzledQ@Gu@physx@@PIAUSphereParamsCB@@@Z 100e7a10 f i GuBV4_SphereOverlap.obj
 0001:000e6c50       ??$BV4_ProcessNodeNoOrder_SwizzledQ@VLeafFunction_SphereOverlapCB@?A0x7c48e4c5@@$0A@USphereParamsCB@@@@YAHPIAIAAIPIBUBVDataSwizzledQ@Gu@physx@@PIAUSphereParamsCB@@@Z 100e7c50 f i GuBV4_SphereOverlap.obj
 0001:000e6e90       ??$processStreamNoOrder@VLeafFunction_SphereOverlapAll@?A0x7c48e4c5@@USphereParamsAll@@@@YAHABVBV4Tree@Gu@physx@@PIAUSphereParamsAll@@@Z 100e7e90 f i GuBV4_SphereOverlap.obj
 0001:000e6eb0       ??$processStreamNoOrder@VLeafFunction_SphereOverlapAny@?A0x7c48e4c5@@USphereParams@@@@YAHABVBV4Tree@Gu@physx@@PIAUSphereParams@@@Z 100e7eb0 f i GuBV4_SphereOverlap.obj
 0001:000e6ed0       ??$processStreamNoOrder@VLeafFunction_SphereOverlapCB@?A0x7c48e4c5@@USphereParamsCB@@@@YAHABVBV4Tree@Gu@physx@@PIAUSphereParamsCB@@@Z 100e7ed0 f i GuBV4_SphereOverlap.obj
 0001:000e6ef0       ??$setupMeshPointersAndQuantizedCoeffs@USphereParams@@@Gu@physx@@YAXPIAUSphereParams@@PIBVSourceMesh@01@PIBVBV4Tree@01@@Z 100e7ef0 f i GuBV4_SphereOverlap.obj
 0001:000e6f90       ??$setupMeshPointersAndQuantizedCoeffs@USphereParamsAll@@@Gu@physx@@YAXPIAUSphereParamsAll@@PIBVSourceMesh@01@PIBVBV4Tree@01@@Z 100e7f90 f i GuBV4_SphereOverlap.obj
 0001:000e7030       ??$setupMeshPointersAndQuantizedCoeffs@USphereParamsCB@@@Gu@physx@@YAXPIAUSphereParamsCB@@PIBVSourceMesh@01@PIBVBV4Tree@01@@Z 100e8030 f i GuBV4_SphereOverlap.obj
 0001:000e70d0       ??0SphereParams@@QAE@XZ    100e80d0 f i GuBV4_SphereOverlap.obj
 0001:000e7110       ??0SphereParamsAll@@QAE@XZ 100e8110 f i GuBV4_SphereOverlap.obj
 0001:000e7130       ??0SphereParamsCB@@QAE@XZ  100e8130 f i GuBV4_SphereOverlap.obj
 0001:000e7150       ??1SphereParams@@QAE@XZ    100e8150 f i GuBV4_SphereOverlap.obj
 0001:000e7180       ??1SphereParamsAll@@QAE@XZ 100e8180 f i GuBV4_SphereOverlap.obj
 0001:000e71a0       ??1SphereParamsCB@@QAE@XZ  100e81a0 f i GuBV4_SphereOverlap.obj
 0001:000e71c0       ?closestPtPointTriangle2@Gu@physx@@YA?AVPxVec3@2@ABV32@00000@Z 100e81c0 f i GuBV4_SphereOverlap.obj
 0001:000e7540       ?computeLocalSphere@Gu@physx@@YAXAAMAAVPxVec3@2@ABVSphere@12@PIBVPxMat44@2@@Z 100e8540 f i GuBV4_SphereOverlap.obj
 0001:000e7a20       ?BV4_SphereSweepSingle@@YAHABVSphere@Gu@physx@@ABVPxVec3@3@MABVBV4Tree@23@PIBVPxMat44@3@PIAVSweepHit@23@I@Z 100e8a20 f   GuBV4_SphereSweep.obj
 0001:000e7fe0       ?BV4_SphereSweepCB@@YAXABVSphere@Gu@physx@@ABVPxVec3@3@MABVBV4Tree@23@PIBVPxMat44@3@P6A_NPAXABVSweepHit@23@@Z4I_N@Z 100e8fe0 f   GuBV4_SphereSweep.obj
 0001:000e81f0       ?BV4_GenericSweepCB_Old@@YAXABVPxVec3@physx@@00MABVBV4Tree@Gu@2@PIBVPxMat44@2@P6A_NPAX000IAAM@Z3@Z 100e91f0 f   GuBV4_SphereSweep.obj
 0001:000ee5e0       ??0Sphere@Gu@physx@@QAE@XZ 100ef5e0 f i GuBV4_SphereSweep.obj
 0001:000eeb30       ?raycast_triangleMesh_BV4@Gu@physx@@YAIPBVTriangleMesh@12@ABVPxTriangleMeshGeometry@2@ABVPxTransform@2@ABVPxVec3@2@3MV?$PxFlags@W4Enum@PxHitFlag@physx@@G@2@IPIAUPxRaycastHit@2@@Z 100efb30 f   GuMidphaseBV4.obj
 0001:000ef090       ?intersectSphereVsMesh_BV4@Gu@physx@@YA_NABVSphere@12@ABVTriangleMesh@12@ABVPxTransform@2@ABVPxMeshScale@2@PAULimitedResults@12@@Z 100f0090 f   GuMidphaseBV4.obj
 0001:000ef290       ?intersectBoxVsMesh_BV4@Gu@physx@@YA_NABVBox@12@ABVTriangleMesh@12@ABVPxTransform@2@ABVPxMeshScale@2@PAULimitedResults@12@@Z 100f0290 f   GuMidphaseBV4.obj
 0001:000ef450       ?intersectCapsuleVsMesh_BV4@Gu@physx@@YA_NABVCapsule@12@ABVTriangleMesh@12@ABVPxTransform@2@ABVPxMeshScale@2@PAULimitedResults@12@@Z 100f0450 f   GuMidphaseBV4.obj
 0001:000ef640       ?intersectOBB_BV4@Gu@physx@@YAXPBVTriangleMesh@12@ABVBox@12@AAU?$MeshHitCallback@UPxRaycastHit@physx@@@12@_N3@Z 100f0640 f   GuMidphaseBV4.obj
 0001:000ef680       ?sweepCapsule_MeshGeom_BV4@Gu@physx@@YA_NPBVTriangleMesh@12@ABVPxTriangleMeshGeometry@2@ABVPxTransform@2@ABVCapsule@12@ABVPxVec3@2@MAAUPxSweepHit@2@V?$PxFlags@W4Enum@PxHitFlag@physx@@G@2@M@Z 100f0680 f   GuMidphaseBV4.obj
 0001:000efca0       ?sweepBox_MeshGeom_BV4@Gu@physx@@YA_NPBVTriangleMesh@12@ABVPxTriangleMeshGeometry@2@ABVPxTransform@2@ABVBox@12@ABVPxVec3@2@MAAUPxSweepHit@2@V?$PxFlags@W4Enum@PxHitFlag@physx@@G@2@M@Z 100f0ca0 f   GuMidphaseBV4.obj
 0001:000f0450       ?sweepConvex_MeshGeom_BV4@Gu@physx@@YAXPBVTriangleMesh@12@ABVBox@12@ABVPxVec3@2@MAAUSweepConvexMeshHitCallback@12@_N@Z 100f1450 f   GuMidphaseBV4.obj
 0001:000f1390       ??0BV4RaycastCBParams@@QAE@PAUPxRaycastHit@physx@@IPBVPxMeshScale@2@PBVPxTransform@2@PBVMatrix34@Cm@2@IABVPxVec3@2@_NM@Z 100f2390 f i GuMidphaseBV4.obj
 0001:000f16d0       ??0Matrix34Padded@Gu@physx@@QAE@ABVMatrix34@Cm@2@@Z 100f26d0 f i GuMidphaseBV4.obj
 0001:000f16f0       ??0PxRaycastHit@physx@@QAE@XZ 100f26f0 f i GuMidphaseBV4.obj
 0001:000f1770       ??1Matrix34Padded@Gu@physx@@QAE@XZ 100f2770 f i GuMidphaseBV4.obj
 0001:000f1780       ??1SweepBoxMeshHitCallback@Gu@physx@@UAE@XZ 100f2780 f i GuMidphaseBV4.obj
 0001:000f17b0       ??1SweepCapsuleMeshHitCallback@Gu@physx@@UAE@XZ 100f27b0 f i GuMidphaseBV4.obj
 0001:000f17d0       ??1SweepShapeMeshHitCallback@Gu@physx@@UAE@XZ 100f27d0 f i GuMidphaseBV4.obj
 0001:000f17f0       ??4PxRaycastHit@physx@@QAEAAU01@ABU01@@Z 100f27f0 f i GuMidphaseBV4.obj
 0001:000f1860       ??_ESweepBoxMeshHitCallback@Gu@physx@@UAEPAXI@Z 100f2860 f i GuMidphaseBV4.obj
 0001:000f1860       ??_GSweepBoxMeshHitCallback@Gu@physx@@UAEPAXI@Z 100f2860 f i GuMidphaseBV4.obj
 0001:000f18a0       ?add@LimitedResults@Gu@physx@@QAE_NI@Z 100f28a0 f i GuMidphaseBV4.obj
 0001:000f1910       ?computeSweepData@physx@@YAMABVPxTriangleMeshGeometry@1@AAVPxVec3@1@11M@Z 100f2910 f i GuMidphaseBV4.obj
 0001:000f1a80       ?getBV4Tree@BV4TriangleMesh@Gu@physx@@QBEABVBV4Tree@23@XZ 100f2a80 f i GuMidphaseBV4.obj
 0001:000f1aa0       ?getGeomEpsilon@TriangleMesh@Gu@physx@@QBEMXZ 100f2aa0 f i GuMidphaseBV4.obj
 0001:000f1ac0       ?getInverse@physx@@YAXAAVPxMat33@1@AAVPxVec3@1@ABV21@ABV31@@Z 100f2ac0 f i GuMidphaseBV4.obj
 0001:000f1ec0       ?setupSweepHitForMTD@Gu@physx@@YAXAAUPxSweepHit@2@_NABVPxVec3@2@@Z 100f2ec0 f i GuMidphaseBV4.obj
 0001:000f1f50       ?transform@PxMeshScale@physx@@QBE?AVPxVec3@2@ABV32@@Z 100f2f50 f i GuMidphaseBV4.obj
 0001:000f1fa0       ?getTriangle@PxMeshQuery@physx@@SAXABVPxTriangleMeshGeometry@2@ABVPxTransform@2@IAAVPxTriangle@2@PAI3@Z 100f2fa0 f   GuMeshQuery.obj
 0001:000f2070       ?getTriangle@PxMeshQuery@physx@@SAXABVPxHeightFieldGeometry@2@ABVPxTransform@2@IAAVPxTriangle@2@PAI3@Z 100f3070 f   GuMeshQuery.obj
 0001:000f20b0       ?findOverlapTriangleMesh@PxMeshQuery@physx@@SAIABVPxGeometry@2@ABVPxTransform@2@ABVPxTriangleMeshGeometry@2@1PAIIIAA_N@Z 100f30b0 f   GuMeshQuery.obj
 0001:000f2280       ?findOverlapHeightField@PxMeshQuery@physx@@SAIABVPxGeometry@2@ABVPxTransform@2@ABVPxHeightFieldGeometry@2@1PAIIIAA_N@Z 100f3280 f   GuMeshQuery.obj
 0001:000f2500       ?sweep@PxMeshQuery@physx@@SA_NABVPxVec3@2@MABVPxGeometry@2@ABVPxTransform@2@IPBVPxTriangle@2@AAUPxSweepHit@2@V?$PxFlags@W4Enum@PxHitFlag@physx@@G@2@PBIM_N@Z 100f3500 f   GuMeshQuery.obj
 0001:000f2a20       ??0LimitedResults@Gu@physx@@QAE@PAIII@Z 100f3a20 f i GuMeshQuery.obj
 0001:000f2a60       ??0PxBoxGeometry@physx@@QAE@XZ 100f3a60 f i GuMeshQuery.obj
 0001:000f2aa0       ??0PxProfileScoped@physx@@QAE@PAVPxProfilerCallback@1@PBD_N_K@Z 100f3aa0 f i GuMeshQuery.obj
 0001:000f2b40       ??1PxProfileScoped@physx@@QAE@XZ 100f3b40 f i GuMeshQuery.obj
 0001:000f2bc0       ?intersectBoxVsMesh@Midphase@Gu@physx@@YA_NABVBox@23@ABVTriangleMesh@23@ABVPxTransform@3@ABVPxMeshScale@3@PAULimitedResults@23@@Z 100f3bc0 f i GuMeshQuery.obj
 0001:000f2c00       ?intersectCapsuleVsMesh@Midphase@Gu@physx@@YA_NABVCapsule@23@ABVTriangleMesh@23@ABVPxTransform@3@ABVPxMeshScale@3@PAULimitedResults@23@@Z 100f3c00 f i GuMeshQuery.obj
 0001:000f2c40       ?intersectSphereVsMesh@Midphase@Gu@physx@@YA_NABVSphere@23@ABVTriangleMesh@23@ABVPxTransform@3@ABVPxMeshScale@3@PAULimitedResults@23@@Z 100f3c40 f i GuMeshQuery.obj
 0001:000f2db0       ?reset@LimitedResults@Gu@physx@@QAEXXZ 100f3db0 f i GuMeshQuery.obj
 0001:000f2ec0       ?raycast_triangleMesh_RTREE@Gu@physx@@YAIPBVTriangleMesh@12@ABVPxTriangleMeshGeometry@2@ABVPxTransform@2@ABVPxVec3@2@3MV?$PxFlags@W4Enum@PxHitFlag@physx@@G@2@IPIAUPxRaycastHit@2@@Z 100f3ec0 f   GuMidphaseRTree.obj
 0001:000f3160       ?intersectSphereVsMesh_RTREE@Gu@physx@@YA_NABVSphere@12@ABVTriangleMesh@12@ABVPxTransform@2@ABVPxMeshScale@2@PAULimitedResults@12@@Z 100f4160 f   GuMidphaseRTree.obj
 0001:000f3190       ?intersectBoxVsMesh_RTREE@Gu@physx@@YA_NABVBox@12@ABVTriangleMesh@12@ABVPxTransform@2@ABVPxMeshScale@2@PAULimitedResults@12@@Z 100f4190 f   GuMidphaseRTree.obj
 0001:000f31c0       ?intersectCapsuleVsMesh_RTREE@Gu@physx@@YA_NABVCapsule@12@ABVTriangleMesh@12@ABVPxTransform@2@ABVPxMeshScale@2@PAULimitedResults@12@@Z 100f41c0 f   GuMidphaseRTree.obj
 0001:000f31f0       ?intersectOBB_RTREE@Gu@physx@@YAXPBVTriangleMesh@12@ABVBox@12@AAU?$MeshHitCallback@UPxRaycastHit@physx@@@12@_N3@Z 100f41f0 f   GuMidphaseRTree.obj
 0001:000f3220       ?sweepCapsule_MeshGeom_RTREE@Gu@physx@@YA_NPBVTriangleMesh@12@ABVPxTriangleMeshGeometry@2@ABVPxTransform@2@ABVCapsule@12@ABVPxVec3@2@MAAUPxSweepHit@2@V?$PxFlags@W4Enum@PxHitFlag@physx@@G@2@M@Z 100f4220 f   GuMidphaseRTree.obj
 0001:000f3500       ?sweepBox_MeshGeom_RTREE@Gu@physx@@YA_NPBVTriangleMesh@12@ABVPxTriangleMeshGeometry@2@ABVPxTransform@2@ABVBox@12@ABVPxVec3@2@MAAUPxSweepHit@2@V?$PxFlags@W4Enum@PxHitFlag@physx@@G@2@M@Z 100f4500 f   GuMidphaseRTree.obj
 0001:000f3ac0       ?sweepConvex_MeshGeom_RTREE@Gu@physx@@YAXPBVTriangleMesh@12@ABVBox@12@ABVPxVec3@2@MAAUSweepConvexMeshHitCallback@12@_N@Z 100f4ac0 f   GuMidphaseRTree.obj
 0001:000f3b70       ?collideOBB@MeshRayCollider@@SAXABVBox@Gu@physx@@_NPBVRTreeTriangleMesh@34@AAU?$MeshHitCallback@UPxRaycastHit@physx@@@34@1@Z 100f4b70 f   GuMidphaseRTree.obj
 0001:000f6a50       ??$collide@$00$00@MeshRayCollider@@SAXABVPxVec3@physx@@0M_NPBVRTreeTriangleMesh@Gu@2@AAU?$MeshHitCallback@UPxRaycastHit@physx@@@42@PBV12@@Z 100f7a50 f i GuMidphaseRTree.obj
 0001:000f6c30       ??$collide@$00$0A@@MeshRayCollider@@SAXABVPxVec3@physx@@0M_NPBVRTreeTriangleMesh@Gu@2@AAU?$MeshHitCallback@UPxRaycastHit@physx@@@42@PBV12@@Z 100f7c30 f i GuMidphaseRTree.obj
 0001:000f6e10       ??$collide@$0A@$00@MeshRayCollider@@SAXABVPxVec3@physx@@0M_NPBVRTreeTriangleMesh@Gu@2@AAU?$MeshHitCallback@UPxRaycastHit@physx@@@42@PBV12@@Z 100f7e10 f i GuMidphaseRTree.obj
 0001:000f6fe0       ??$collide@$0A@$0A@@MeshRayCollider@@SAXABVPxVec3@physx@@0M_NPBVRTreeTriangleMesh@Gu@2@AAU?$MeshHitCallback@UPxRaycastHit@physx@@@42@PBV12@@Z 100f7fe0 f i GuMidphaseRTree.obj
 0001:000f7370       ??0?$RayRTreeCallback@$00$00@@QAE@MAAU?$MeshHitCallback@UPxRaycastHit@physx@@@Gu@physx@@HPBXPBVPxVec3@3@ABV43@3M_N2@Z 100f8370 f i GuMidphaseRTree.obj
 0001:000f7530       ??0?$RayRTreeCallback@$00$0A@@@QAE@MAAU?$MeshHitCallback@UPxRaycastHit@physx@@@Gu@physx@@HPBXPBVPxVec3@3@ABV43@3M_N2@Z 100f8530 f i GuMidphaseRTree.obj
 0001:000f76f0       ??0?$RayRTreeCallback@$0A@$00@@QAE@MAAU?$MeshHitCallback@UPxRaycastHit@physx@@@Gu@physx@@HPBXPBVPxVec3@3@ABV43@3M_N2@Z 100f86f0 f i GuMidphaseRTree.obj
 0001:000f78a0       ??0?$RayRTreeCallback@$0A@$0A@@@QAE@MAAU?$MeshHitCallback@UPxRaycastHit@physx@@@Gu@physx@@HPBXPBVPxVec3@3@ABV43@3M_N2@Z 100f88a0 f i GuMidphaseRTree.obj
 0001:000f7a50       ??0Callback@RTree@Gu@physx@@QAE@XZ 100f8a50 f i GuMidphaseRTree.obj
 0001:000f7a70       ??0CallbackRaycast@RTree@Gu@physx@@QAE@XZ 100f8a70 f i GuMidphaseRTree.obj
 0001:000f7ae0       ??0PxLocationHit@physx@@QAE@ABU01@@Z 100f8ae0 f i GuMidphaseRTree.obj
 0001:000f7b50       ??0PxRaycastHit@physx@@QAE@ABU01@@Z 100f8b50 f i GuMidphaseRTree.obj
 0001:000f7ba0       ??0RayMeshColliderCallback@@QAE@W4Enum@CallbackMode@Gu@physx@@PAUPxRaycastHit@4@IPBVPxMeshScale@4@PBVPxTransform@4@PBVMatrix34@Cm@4@IABVPxVec3@4@_NM@Z 100f8ba0 f i GuMidphaseRTree.obj
 0001:000f7c30       ??0SimpleRayTriOverlap@@QAE@ABVPxVec3@physx@@0_NM@Z 100f8c30 f i GuMidphaseRTree.obj
 0001:000f7da0       ??1?$RayRTreeCallback@$00$00@@UAE@XZ 100f8da0 f i GuMidphaseRTree.obj
 0001:000f7e80       ??1?$RayRTreeCallback@$00$0A@@@UAE@XZ 100f8e80 f i GuMidphaseRTree.obj
 0001:000f7f60       ??1?$RayRTreeCallback@$0A@$00@@UAE@XZ 100f8f60 f i GuMidphaseRTree.obj
 0001:000f8040       ??1?$RayRTreeCallback@$0A@$0A@@@UAE@XZ 100f9040 f i GuMidphaseRTree.obj
 0001:000f8120       ??1Callback@RTree@Gu@physx@@UAE@XZ 100f9120 f i GuMidphaseRTree.obj
 0001:000f8140       ??1CallbackRaycast@RTree@Gu@physx@@UAE@XZ 100f9140 f i GuMidphaseRTree.obj
 0001:000f8180       ??1RayMeshColliderCallback@@UAE@XZ 100f9180 f i GuMidphaseRTree.obj
 0001:000f8193       ??_E?$RayRTreeCallback@$00$00@@W3AEPAXI@Z 100f9193 f i GuMidphaseRTree.obj
 0001:000f819b       ??_E?$RayRTreeCallback@$00$0A@@@W3AEPAXI@Z 100f919b f i GuMidphaseRTree.obj
 0001:000f81a3       ??_E?$RayRTreeCallback@$0A@$00@@W3AEPAXI@Z 100f91a3 f i GuMidphaseRTree.obj
 0001:000f81ab       ??_E?$RayRTreeCallback@$0A@$0A@@@W3AEPAXI@Z 100f91ab f i GuMidphaseRTree.obj
 0001:000f82e0       ??_E?$RayRTreeCallback@$00$00@@UAEPAXI@Z 100f92e0 f i GuMidphaseRTree.obj
 0001:000f82e0       ??_G?$RayRTreeCallback@$00$00@@UAEPAXI@Z 100f92e0 f i GuMidphaseRTree.obj
 0001:000f8320       ??_E?$RayRTreeCallback@$00$0A@@@UAEPAXI@Z 100f9320 f i GuMidphaseRTree.obj
 0001:000f8320       ??_G?$RayRTreeCallback@$00$0A@@@UAEPAXI@Z 100f9320 f i GuMidphaseRTree.obj
 0001:000f8360       ??_G?$RayRTreeCallback@$0A@$00@@UAEPAXI@Z 100f9360 f i GuMidphaseRTree.obj
 0001:000f8360       ??_E?$RayRTreeCallback@$0A@$00@@UAEPAXI@Z 100f9360 f i GuMidphaseRTree.obj
 0001:000f83a0       ??_E?$RayRTreeCallback@$0A@$0A@@@UAEPAXI@Z 100f93a0 f i GuMidphaseRTree.obj
 0001:000f83a0       ??_G?$RayRTreeCallback@$0A@$0A@@@UAEPAXI@Z 100f93a0 f i GuMidphaseRTree.obj
 0001:000f83e0       ??_GCallback@RTree@Gu@physx@@UAEPAXI@Z 100f93e0 f i GuMidphaseRTree.obj
 0001:000f83e0       ??_ECallback@RTree@Gu@physx@@UAEPAXI@Z 100f93e0 f i GuMidphaseRTree.obj
 0001:000f8410       ??_GCallbackRaycast@RTree@Gu@physx@@UAEPAXI@Z 100f9410 f i GuMidphaseRTree.obj
 0001:000f8410       ??_ECallbackRaycast@RTree@Gu@physx@@UAEPAXI@Z 100f9410 f i GuMidphaseRTree.obj
 0001:000f8470       ??_GRayMeshColliderCallback@@UAEPAXI@Z 100f9470 f i GuMidphaseRTree.obj
 0001:000f8470       ??_ERayMeshColliderCallback@@UAEPAXI@Z 100f9470 f i GuMidphaseRTree.obj
 0001:000f84a0       ?GetNbTriangles@LeafTriangles@Gu@physx@@QBEIXZ 100f94a0 f i GuMidphaseRTree.obj
 0001:000f84c0       ?GetTriangleIndex@LeafTriangles@Gu@physx@@QBEIXZ 100f94c0 f i GuMidphaseRTree.obj
 0001:000f84e0       ?LeafGetNbTriangles@Gu@physx@@YAII@Z 100f94e0 f i GuMidphaseRTree.obj
 0001:000f84f0       ?LeafGetTriangleIndex@Gu@physx@@YAII@Z 100f94f0 f i GuMidphaseRTree.obj
 0001:000f8500       ?getRTree@RTreeTriangleMesh@Gu@physx@@QBEABURTree@23@XZ 100f9500 f i GuMidphaseRTree.obj
 0001:000f8520       ?getVertIndices@?$RayRTreeCallback@$00$00@@QAEXIAAI00@Z 100f9520 f i GuMidphaseRTree.obj
 0001:000f85d0       ?getVertIndices@?$RayRTreeCallback@$00$0A@@@QAEXIAAI00@Z 100f95d0 f i GuMidphaseRTree.obj
 0001:000f8680       ?getVertIndices@?$RayRTreeCallback@$0A@$00@@QAEXIAAI00@Z 100f9680 f i GuMidphaseRTree.obj
 0001:000f8730       ?getVertIndices@?$RayRTreeCallback@$0A@$0A@@@QAEXIAAI00@Z 100f9730 f i GuMidphaseRTree.obj
 0001:000f87e0       ?inAnyMode@?$MeshHitCallback@UPxRaycastHit@physx@@@Gu@physx@@QBE_NXZ 100f97e0 f i GuMidphaseRTree.obj
 0001:000f8810       ?inClosestMode@?$MeshHitCallback@UPxRaycastHit@physx@@@Gu@physx@@QBE_NXZ 100f9810 f i GuMidphaseRTree.obj
 0001:000f8840       ?largestAxis@shdfnd@physx@@YAIABVPxVec3@2@AAI1@Z 100f9840 f i GuMidphaseRTree.obj
 0001:000f88e0       ?overlap@SimpleRayTriOverlap@@QBEHABVPxVec3@physx@@00AAUPxRaycastHit@3@@Z 100f98e0 f i GuMidphaseRTree.obj
 0001:000f9450       ?processHit@RayMeshColliderCallback@@UAE_NABUPxRaycastHit@physx@@ABVPxVec3@3@11AAMPBI@Z 100fa450 f i GuMidphaseRTree.obj
 0001:000f96e0       ?processResults@?$RayRTreeCallback@$00$00@@UAE_NIPAI@Z 100fa6e0 f i GuMidphaseRTree.obj
 0001:000f9710       ?processResults@?$RayRTreeCallback@$00$00@@UAE_NIPAIAAM@Z 100fa710 f i GuMidphaseRTree.obj
 0001:000f9c30       ?processResults@?$RayRTreeCallback@$00$0A@@@UAE_NIPAI@Z 100fac30 f i GuMidphaseRTree.obj
 0001:000f9c60       ?processResults@?$RayRTreeCallback@$00$0A@@@UAE_NIPAIAAM@Z 100fac60 f i GuMidphaseRTree.obj
 0001:000fa180       ?processResults@?$RayRTreeCallback@$0A@$00@@UAE_NIPAI@Z 100fb180 f i GuMidphaseRTree.obj
 0001:000fa1b0       ?processResults@?$RayRTreeCallback@$0A@$00@@UAE_NIPAIAAM@Z 100fb1b0 f i GuMidphaseRTree.obj
 0001:000fa6d0       ?processResults@?$RayRTreeCallback@$0A@$0A@@@UAE_NIPAI@Z 100fb6d0 f i GuMidphaseRTree.obj
 0001:000fa700       ?processResults@?$RayRTreeCallback@$0A@$0A@@@UAE_NIPAIAAM@Z 100fb700 f i GuMidphaseRTree.obj
 0001:000fac20       ?profile@Callback@RTree@Gu@physx@@UAEXXZ 100fbc20 f i GuMidphaseRTree.obj
 0001:000fac80       ?checkOverlapAABB_triangleGeom@Gu@physx@@YA_NABVPxGeometry@2@ABVPxTransform@2@ABVPxBounds3@2@@Z 100fbc80 f   GuOverlapTestsMesh.obj
 0001:000fadd0       ?GeomOverlapCallback_SphereMesh@@YA_NABVPxGeometry@physx@@ABVPxTransform@2@01PAUTriggerCache@Gu@2@@Z 100fbdd0 f   GuOverlapTestsMesh.obj
 0001:000faec0       ?GeomOverlapCallback_CapsuleMesh@@YA_NABVPxGeometry@physx@@ABVPxTransform@2@01PAUTriggerCache@Gu@2@@Z 100fbec0 f   GuOverlapTestsMesh.obj
 0001:000fafb0       ?GeomOverlapCallback_BoxMesh@@YA_NABVPxGeometry@physx@@ABVPxTransform@2@01PAUTriggerCache@Gu@2@@Z 100fbfb0 f   GuOverlapTestsMesh.obj
 0001:000fb0b0       ?GeomOverlapCallback_ConvexMesh@@YA_NABVPxGeometry@physx@@ABVPxTransform@2@01PAUTriggerCache@Gu@2@@Z 100fc0b0 f   GuOverlapTestsMesh.obj
 0001:000fb320       ??$gjk@U?$RelativeConvex@VTriangleV@Gu@physx@@@Gu@physx@@U?$LocalConvex@VConvexHullV@Gu@physx@@@23@@Gu@physx@@YA?AW4GjkStatus@01@ABU?$RelativeConvex@VTriangleV@Gu@physx@@@01@ABU?$LocalConvex@VConvexHullV@Gu@physx@@@01@ABT__m128@@2AAT5@333@Z 100fc320 f i GuOverlapTestsMesh.obj
 0001:000fbcb0       ??0ConvexVsMeshOverlapCallback@@QAE@ABVConvexMesh@Gu@physx@@ABVPxMeshScale@3@ABVFastVertex2ShapeScaling@Cm@3@ABVPxTransform@3@3_NABVBox@23@@Z 100fccb0 f i GuOverlapTestsMesh.obj
 0001:000fbfe0       ??1ConvexVsMeshOverlapCallback@@UAE@XZ 100fcfe0 f i GuOverlapTestsMesh.obj
 0001:000fc010       ??_EConvexVsMeshOverlapCallback@@UAEPAXI@Z 100fd010 f i GuOverlapTestsMesh.obj
 0001:000fc010       ??_GConvexVsMeshOverlapCallback@@UAEPAXI@Z 100fd010 f i GuOverlapTestsMesh.obj
 0001:000fc050       ?BAnyTrue3@aos@shdfnd@physx@@YA?AT__m128@@T4@@Z 100fd050 f i GuOverlapTestsMesh.obj
 0001:000fc0d0       ?processHit@ConvexVsMeshOverlapCallback@@UAE_NABUPxRaycastHit@physx@@ABVPxVec3@3@11AAMPBI@Z 100fd0d0 f i GuOverlapTestsMesh.obj
 0001:000fc440       ??0RTree@Gu@physx@@QAE@W4PxEMPTY@2@@Z 100fd440 f   GuRTree.obj
 0001:000fc490       ?exportExtraData@RTree@Gu@physx@@QAEXAAVPxSerializationContext@3@@Z 100fd490 f   GuRTree.obj
 0001:000fc4d0       ?importExtraData@RTree@Gu@physx@@QAEXAAVPxDeserializationContext@3@@Z 100fd4d0 f   GuRTree.obj
 0001:000fc500       ?load@RTree@Gu@physx@@QAE_NAAVPxInputStream@3@I_N@Z 100fd500 f   GuRTree.obj
 0001:000fc7f0       ?refitAllStaticTree@RTree@Gu@physx@@QAEXAAUCallbackRefit@123@PAVPxBounds3@3@@Z 100fd7f0 f   GuRTree.obj
 0001:000fccd0       ?validate@RTree@Gu@physx@@QAEXPAUCallbackRefit@123@@Z 100fdcd0 f   GuRTree.obj
 0001:000fcd40       ?computeBottomLevelCount@RTree@Gu@physx@@QBEII@Z 100fdd40 f   GuRTree.obj
 0001:000fceb0       ?validateRecursive@RTree@Gu@physx@@IAEXIURTreeNodeQ@23@PAURTreePage@23@PAUCallbackRefit@123@@Z 100fdeb0 f   GuRTree.obj
 0001:000fd580       ??$PX_UNUSED@URTreeNodeQ@Gu@physx@@@@YAXABURTreeNodeQ@Gu@physx@@@Z 100fe580 f i GuRTree.obj
 0001:000fd590       ??$readExtraData@URTreePage@Gu@physx@@@PxDeserializationContext@physx@@QAEPAURTreePage@Gu@1@I@Z 100fe590 f i GuRTree.obj
 0001:000fd5c0       ?allocate@?$AlignedAllocator@$0IA@VNonTrackingAllocator@shdfnd@physx@@@shdfnd@physx@@QAEPAXIPBDH@Z 100fe5c0 f i GuRTree.obj
 0001:000fd620       ?computeBounds@RTreePage@Gu@physx@@QAEXAAURTreeNodeQ@23@@Z 100fe620 f i GuRTree.obj
 0001:000fd7f0       ?getNode@RTreePage@Gu@physx@@QBEXIAAURTreeNodeQ@23@@Z 100fe7f0 f i GuRTree.obj
 0001:000fd8b0       ?isEmpty@RTreePage@Gu@physx@@QBE_NI@Z 100fe8b0 f i GuRTree.obj
 0001:000fd8f0       ?isLeaf@RTreeNodeQ@Gu@physx@@QBEIXZ 100fe8f0 f i GuRTree.obj
 0001:000fd910       ?isLeaf@RTreePage@Gu@physx@@QBEII@Z 100fe910 f i GuRTree.obj
 0001:000fd930       ?nodeCount@RTreePage@Gu@physx@@QBEIXZ 100fe930 f i GuRTree.obj
 0001:000fd980       ?traverseAABB@RTree@Gu@physx@@QBEXABVPxVec3@3@0IPAIPAUCallback@123@@Z 100fe980 f   GuRTreeQueries.obj
 0001:000fe030       ?traverseOBB@RTree@Gu@physx@@QBEXABVBox@23@IPAIPAUCallback@123@@Z 100ff030 f   GuRTreeQueries.obj
 0001:000ffb20       ??$PX_UNUSED@PAI@@YAXABQAI@Z 10100b20 f i GuRTreeQueries.obj
 0001:000ffb30       ??$traverseRay@$00@RTree@Gu@physx@@QBEXABVPxVec3@2@0IPAIPAUCallbackRaycast@012@PBV32@M@Z 10100b30 f i GuRTreeQueries.obj
 0001:00100730       ??$traverseRay@$0A@@RTree@Gu@physx@@QBEXABVPxVec3@2@0IPAIPAUCallbackRaycast@012@PBV32@M@Z 10101730 f i GuRTreeQueries.obj
 0001:00101330       ?U4Load@aos@shdfnd@physx@@YA?AT__m128@@I@Z 10102330 f i GuRTreeQueries.obj
 0001:00101370       ?U4StoreA@aos@shdfnd@physx@@YAXT__m128@@PAI@Z 10102370 f i GuRTreeQueries.obj
 0001:001013f0       ?V4Andc@aos@shdfnd@physx@@YA?AT__m128@@T4@0@Z 101023f0 f i GuRTreeQueries.obj
 0001:00101450       ?V4IsGrtrV32u@aos@shdfnd@physx@@YA?AT__m128@@T4@0@Z 10102450 f i GuRTreeQueries.obj
 0001:00101490       ?V4U32Andc@aos@shdfnd@physx@@YA?AT__m128@@T4@0@Z 10102490 f i GuRTreeQueries.obj
 0001:001014f0       ?V4U32StoreAligned@aos@shdfnd@physx@@YAXT__m128@@PAT4@@Z 101024f0 f i GuRTreeQueries.obj
 0001:00101520       ?Vec4V_From_PxVec3_WUndefined@aos@shdfnd@physx@@YA?AT__m128@@ABVPxVec3@3@@Z 10102520 f i GuRTreeQueries.obj
 0001:00101570       ?VecU32V_From_BoolV@aos@shdfnd@physx@@YA?AT__m128@@ABT4@@Z 10102570 f i GuRTreeQueries.obj
 0001:00101610       ??0SweepShapeMeshHitCallback@Gu@physx@@QAE@W4Enum@CallbackMode@12@ABV?$PxFlags@W4Enum@PxHitFlag@physx@@G@2@_NM@Z 10102610 f   GuSweepsMesh.obj
 0001:00101670       ??0SweepCapsuleMeshHitCallback@Gu@physx@@QAE@AAUPxSweepHit@2@ABVMatrix34@Cm@2@M_NABVCapsule@12@ABVPxVec3@2@ABV?$PxFlags@W4Enum@PxHitFlag@physx@@G@2@2M@Z 10102670 f   GuSweepsMesh.obj
 0001:00101730       ?processHit@SweepCapsuleMeshHitCallback@Gu@physx@@UAE_NABUPxRaycastHit@3@ABVPxVec3@3@11AAMPBI@Z 10102730 f   GuSweepsMesh.obj
 0001:00101ab0       ?finalizeHit@SweepCapsuleMeshHitCallback@Gu@physx@@QBE_NAAUPxSweepHit@3@ABVCapsule@23@ABVPxTriangleMeshGeometry@3@ABVPxTransform@3@_N@Z 10102ab0 f   GuSweepsMesh.obj
 0001:00101c30       ??0SweepBoxMeshHitCallback@Gu@physx@@QAE@W4Enum@CallbackMode@12@ABVMatrix34Padded@12@M_NABVBox@12@ABVPxVec3@2@44ABV?$PxFlags@W4Enum@PxHitFlag@physx@@G@2@M2M@Z 10102c30 f   GuSweepsMesh.obj
 0001:00101e20       ?processHit@SweepBoxMeshHitCallback@Gu@physx@@UAE_NABUPxRaycastHit@3@ABVPxVec3@3@11AAMPBI@Z 10102e20 f   GuSweepsMesh.obj
 0001:001025c0       ?finalizeHit@SweepBoxMeshHitCallback@Gu@physx@@QBE_NAAUPxSweepHit@3@ABVPxTriangleMeshGeometry@3@ABVPxTransform@3@2ABVPxVec3@3@_N4@Z 101035c0 f   GuSweepsMesh.obj
 0001:00102870       ??0SweepConvexMeshHitCallback@Gu@physx@@QAE@ABUConvexHullData@12@ABVPxMeshScale@2@ABVFastVertex2ShapeScaling@Cm@2@ABVPxTransform@2@3ABVPxVec3@2@MV?$PxFlags@W4Enum@PxHitFlag@physx@@G@2@_NM6M@Z 10103870 f   GuSweepsMesh.obj
 0001:00102be0       ?processHit@SweepConvexMeshHitCallback@Gu@physx@@UAE_NABUPxRaycastHit@3@ABVPxVec3@3@11AAMPBI@Z 10103be0 f   GuSweepsMesh.obj
 0001:00102dc0       ?finalizeHit@SweepConvexMeshHitCallback@Gu@physx@@QAE_NAAUPxSweepHit@3@ABVPxTriangleMeshGeometry@3@ABVPxTransform@3@ABVPxConvexMeshGeometry@3@2ABVPxVec3@3@M_N555@Z 10103dc0 f   GuSweepsMesh.obj
 0001:00103470       ?sweepCapsule_MeshGeom@@YA_NABVPxGeometry@physx@@ABVPxTransform@2@ABVPxCapsuleGeometry@2@1ABVCapsule@Gu@2@ABVPxVec3@2@MAAUPxSweepHit@2@V?$PxFlags@W4Enum@PxHitFlag@physx@@G@2@M@Z 10104470 f   GuSweepsMesh.obj
 0001:00103660       ?sweepBox_MeshGeom@@YA_NABVPxGeometry@physx@@ABVPxTransform@2@ABVPxBoxGeometry@2@1ABVBox@Gu@2@ABVPxVec3@2@MAAUPxSweepHit@2@V?$PxFlags@W4Enum@PxHitFlag@physx@@G@2@M@Z 10104660 f   GuSweepsMesh.obj
 0001:00103720       ?sweepConvex_MeshGeom@@YA_NABVPxGeometry@physx@@ABVPxTransform@2@ABVPxConvexMeshGeometry@2@1ABVPxVec3@2@MAAUPxSweepHit@2@V?$PxFlags@W4Enum@PxHitFlag@physx@@G@2@M@Z 10104720 f   GuSweepsMesh.obj
 0001:00103af0       ??1SweepConvexMeshHitCallback@Gu@physx@@UAE@XZ 10104af0 f i GuSweepsMesh.obj
 0001:00103b30       ??4PxTriangle@physx@@QAEXABV01@@Z 10104b30 f i GuSweepsMesh.obj
 0001:00103b90       ??_5?$PxFlags@W4Enum@PxHitFlag@physx@@G@physx@@QAEAAV01@ABV01@@Z 10104b90 f i GuSweepsMesh.obj
 0001:00103bc0       ??_GSweepCapsuleMeshHitCallback@Gu@physx@@UAEPAXI@Z 10104bc0 f i GuSweepsMesh.obj
 0001:00103bc0       ??_ESweepCapsuleMeshHitCallback@Gu@physx@@UAEPAXI@Z 10104bc0 f i GuSweepsMesh.obj
 0001:00103bf0       ??_GSweepConvexMeshHitCallback@Gu@physx@@UAEPAXI@Z 10104bf0 f i GuSweepsMesh.obj
 0001:00103bf0       ??_ESweepConvexMeshHitCallback@Gu@physx@@UAEPAXI@Z 10104bf0 f i GuSweepsMesh.obj
 0001:00103c30       ??_GSweepShapeMeshHitCallback@Gu@physx@@UAEPAXI@Z 10104c30 f i GuSweepsMesh.obj
 0001:00103c30       ??_ESweepShapeMeshHitCallback@Gu@physx@@UAEPAXI@Z 10104c30 f i GuSweepsMesh.obj
 0001:00103c60       ?V4ScaleAdd@aos@shdfnd@physx@@YA?AT__m128@@T4@00@Z 10104c60 f i GuSweepsMesh.obj
 0001:00103d00       ?getShape2VertexSkew@FastVertex2ShapeScaling@Cm@physx@@QBEABVPxMat33@3@XZ 10104d00 f i GuSweepsMesh.obj
 0001:00103d20       ?sweepBoxVsMesh@Midphase@Gu@physx@@YA_NPBVTriangleMesh@23@ABVPxTriangleMeshGeometry@3@ABVPxTransform@3@ABVBox@23@ABVPxVec3@3@MAAUPxSweepHit@3@V?$PxFlags@W4Enum@PxHitFlag@physx@@G@3@M@Z 10104d20 f i GuSweepsMesh.obj
 0001:00103d90       ?sweepCapsuleVsMesh@Midphase@Gu@physx@@YA_NPBVTriangleMesh@23@ABVPxTriangleMeshGeometry@3@ABVPxTransform@3@ABVCapsule@23@ABVPxVec3@3@MAAUPxSweepHit@3@V?$PxFlags@W4Enum@PxHitFlag@physx@@G@3@M@Z 10104d90 f i GuSweepsMesh.obj
 0001:00103e00       ?sweepConvexVsMesh@Midphase@Gu@physx@@YAXPBVTriangleMesh@23@ABVBox@23@ABVPxVec3@3@MAAUSweepConvexMeshHitCallback@23@_N@Z 10104e00 f i GuSweepsMesh.obj
 0001:00103ee0       ?exportExtraData@TriangleMesh@Gu@physx@@UAEXAAVPxSerializationContext@3@@Z 10104ee0 f   GuTriangleMesh.obj
 0001:00104060       ?importExtraData@TriangleMesh@Gu@physx@@QAEXAAVPxDeserializationContext@3@@Z 10105060 f   GuTriangleMesh.obj
 0001:00104170       ?release@TriangleMesh@Gu@physx@@UAEXXZ 10105170 f   GuTriangleMesh.obj
 0001:00104190       ?onRefCountZero@TriangleMesh@Gu@physx@@UAEXXZ 10105190 f   GuTriangleMesh.obj
 0001:00104220       ??0TriangleMesh@Gu@physx@@QAE@AAVGuMeshFactory@2@AAVTriangleMeshData@12@@Z 10105220 f   GuTriangleMesh.obj
 0001:001043a0       ??1TriangleMesh@Gu@physx@@UAE@XZ 101053a0 f   GuTriangleMesh.obj
 0001:00104580       ?getVerticesForModification@TriangleMesh@Gu@physx@@UAEPAVPxVec3@3@XZ 10105580 f   GuTriangleMesh.obj
 0001:001045b0       ?refitBVH@TriangleMesh@Gu@physx@@UAE?AVPxBounds3@3@XZ 101055b0 f   GuTriangleMesh.obj
 0001:00104610       ??$deletePxBase@VTriangleMesh@Gu@physx@@@Cm@physx@@YAXPAVTriangleMesh@Gu@1@@Z 10105610 f i GuTriangleMesh.obj
 0001:00104680       ??$readExtraData@G$0BA@@PxDeserializationContext@physx@@QAEPAGI@Z 10105680 f i GuTriangleMesh.obj
 0001:001046b0       ??$readExtraData@G@PxDeserializationContext@physx@@QAEPAGI@Z 101056b0 f i GuTriangleMesh.obj
 0001:001046e0       ??$readExtraData@I$0BA@@PxDeserializationContext@physx@@QAEPAII@Z 101056e0 f i GuTriangleMesh.obj
 0001:00104710       ??$readExtraData@I@PxDeserializationContext@physx@@QAEPAII@Z 10105710 f i GuTriangleMesh.obj
 0001:00104740       ??$readExtraData@VPxVec3@physx@@$0BA@@PxDeserializationContext@physx@@QAEPAVPxVec3@1@I@Z 10105740 f i GuTriangleMesh.obj
 0001:00104770       ??$readExtraData@VPxVec3@physx@@@PxDeserializationContext@physx@@QAEPAVPxVec3@1@I@Z 10105770 f i GuTriangleMesh.obj
 0001:001047a0       ??0?$PxFlags@W4Enum@PxTriangleMeshFlag@physx@@E@physx@@QAE@E@Z 101057a0 f i GuTriangleMesh.obj
 0001:001047c0       ??0PxTriangleMesh@physx@@IAE@GV?$PxFlags@W4Enum@PxBaseFlag@physx@@G@1@@Z 101057c0 f i GuTriangleMesh.obj
 0001:00104800       ??1PxTriangleMesh@physx@@MAE@XZ 10105800 f i GuTriangleMesh.obj
 0001:0010481c       ??_ETriangleMesh@Gu@physx@@W7AEPAXI@Z 1010581c f i GuTriangleMesh.obj
 0001:00104830       ??_GPxTriangleMesh@physx@@MAEPAXI@Z 10105830 f i GuTriangleMesh.obj
 0001:00104830       ??_EPxTriangleMesh@physx@@MAEPAXI@Z 10105830 f i GuTriangleMesh.obj
 0001:00104860       ??_ETriangleMesh@Gu@physx@@UAEPAXI@Z 10105860 f i GuTriangleMesh.obj
 0001:00104860       ??_GTriangleMesh@Gu@physx@@UAEPAXI@Z 10105860 f i GuTriangleMesh.obj
 0001:001048b0       ?acquireReference@TriangleMesh@Gu@physx@@UAEXXZ 101058b0 f i GuTriangleMesh.obj
 0001:001048d0       ?getLocalBounds@TriangleMesh@Gu@physx@@UBE?AVPxBounds3@3@XZ 101058d0 f i GuTriangleMesh.obj
 0001:00104940       ?getNbTriangles@TriangleMesh@Gu@physx@@UBEIXZ 10105940 f i GuTriangleMesh.obj
 0001:00104960       ?getNbVertices@TriangleMesh@Gu@physx@@UBEIXZ 10105960 f i GuTriangleMesh.obj
 0001:00104980       ?getReferenceCount@TriangleMesh@Gu@physx@@UBEIXZ 10105980 f i GuTriangleMesh.obj
 0001:001049a0       ?getTriangleMaterialIndex@TriangleMesh@Gu@physx@@UBEGI@Z 101059a0 f i GuTriangleMesh.obj
 0001:001049e0       ?getTriangleMeshFlags@TriangleMesh@Gu@physx@@UBE?AV?$PxFlags@W4Enum@PxTriangleMeshFlag@physx@@E@3@XZ 101059e0 f i GuTriangleMesh.obj
 0001:00104a00       ?getTriangles@TriangleMesh@Gu@physx@@UBEPBXXZ 10105a00 f i GuTriangleMesh.obj
 0001:00104a20       ?getTrianglesRemap@TriangleMesh@Gu@physx@@UBEPBIXZ 10105a20 f i GuTriangleMesh.obj
 0001:00104a40       ?getVertices@TriangleMesh@Gu@physx@@UBEPBVPxVec3@3@XZ 10105a40 f i GuTriangleMesh.obj
 0001:00104a60       ?hasPerTriangleMaterials@TriangleMesh@Gu@physx@@QBE_NXZ 10105a60 f i GuTriangleMesh.obj
 0001:00104a90       ?isKindOf@PxTriangleMesh@physx@@MBE_NPBD@Z 10105a90 f i GuTriangleMesh.obj
 0001:00104ae0       ?requiresObjects@TriangleMesh@Gu@physx@@UAEXAAVPxProcessPxBaseCallback@3@@Z 10105ae0 f i GuTriangleMesh.obj
 0001:00104b80       ?exportExtraData@BV4TriangleMesh@Gu@physx@@UAEXAAVPxSerializationContext@3@@Z 10105b80 f   GuTriangleMeshBV4.obj
 0001:00104bb0       ?importExtraData@BV4TriangleMesh@Gu@physx@@QAEXAAVPxDeserializationContext@3@@Z 10105bb0 f   GuTriangleMeshBV4.obj
 0001:00104c40       ?createObject@BV4TriangleMesh@Gu@physx@@SAPAVTriangleMesh@23@AAPAEAAVPxDeserializationContext@3@@Z 10105c40 f   GuTriangleMeshBV4.obj
 0001:00104cc0       ??0BV4TriangleMesh@Gu@physx@@QAE@AAVGuMeshFactory@2@AAVTriangleMeshData@12@@Z 10105cc0 f   GuTriangleMeshBV4.obj
 0001:00104d80       ??0BV4TriangleMesh@Gu@physx@@QAE@V?$PxFlags@W4Enum@PxBaseFlag@physx@@G@2@@Z 10105d80 f i GuTriangleMeshBV4.obj
 0001:00104de0       ??0PxTriangleMesh@physx@@IAE@V?$PxFlags@W4Enum@PxBaseFlag@physx@@G@1@@Z 10105de0 f i GuTriangleMeshBV4.obj
 0001:00104e10       ??0SourceMesh@Gu@physx@@QAE@W4PxEMPTY@2@@Z 10105e10 f i GuTriangleMeshBV4.obj
 0001:00104e30       ??0TriangleMesh@Gu@physx@@QAE@V?$PxFlags@W4Enum@PxBaseFlag@physx@@G@2@@Z 10105e30 f i GuTriangleMeshBV4.obj
 0001:00104e80       ??1BV4TriangleMesh@Gu@physx@@UAE@XZ 10105e80 f i GuTriangleMeshBV4.obj
 0001:00104ebc       ??_EBV4TriangleMesh@Gu@physx@@W7AEPAXI@Z 10105ebc f i GuTriangleMeshBV4.obj
 0001:00104ed0       ??_GBV4TriangleMesh@Gu@physx@@UAEPAXI@Z 10105ed0 f i GuTriangleMeshBV4.obj
 0001:00104ed0       ??_EBV4TriangleMesh@Gu@physx@@UAEPAXI@Z 10105ed0 f i GuTriangleMeshBV4.obj
 0001:00104f20       ?getConcreteTypeName@BV4TriangleMesh@Gu@physx@@UBEPBDXZ 10105f20 f i GuTriangleMeshBV4.obj
 0001:00104f30       ?getMidphaseID@BV4TriangleMesh@Gu@physx@@UBE?AW4Enum@PxMeshMidPhase@3@XZ 10105f30 f i GuTriangleMeshBV4.obj
 0001:00104f40       ?resolveReferences@TriangleMesh@Gu@physx@@QAEXAAVPxDeserializationContext@3@@Z 10105f40 f i GuTriangleMeshBV4.obj
 0001:00104fe0       ?exportExtraData@RTreeTriangleMesh@Gu@physx@@UAEXAAVPxSerializationContext@3@@Z 10105fe0 f   GuTriangleMeshRTree.obj
 0001:00105010       ?importExtraData@RTreeTriangleMesh@Gu@physx@@QAEXAAVPxDeserializationContext@3@@Z 10106010 f   GuTriangleMeshRTree.obj
 0001:00105040       ?createObject@RTreeTriangleMesh@Gu@physx@@SAPAVTriangleMesh@23@AAPAEAAVPxDeserializationContext@3@@Z 10106040 f   GuTriangleMeshRTree.obj
 0001:001050c0       ??0RTreeTriangleMesh@Gu@physx@@QAE@AAVGuMeshFactory@2@AAVTriangleMeshData@12@@Z 101060c0 f   GuTriangleMeshRTree.obj
 0001:00105160       ?getVerticesForModification@RTreeTriangleMesh@Gu@physx@@UAEPAVPxVec3@3@XZ 10106160 f   GuTriangleMeshRTree.obj
 0001:00105180       ?refitBVH@RTreeTriangleMesh@Gu@physx@@UAE?AVPxBounds3@3@XZ 10106180 f   GuTriangleMeshRTree.obj
 0001:001052b0       ??0?$RefitCallback@G@physx@@QAE@PBVPxVec3@1@PBG@Z 101062b0 f i GuTriangleMeshRTree.obj
 0001:001052f0       ??0?$RefitCallback@I@physx@@QAE@PBVPxVec3@1@PBI@Z 101062f0 f i GuTriangleMeshRTree.obj
 0001:00105330       ??0CallbackRefit@RTree@Gu@physx@@QAE@XZ 10106330 f i GuTriangleMeshRTree.obj
 0001:00105350       ??0RTreeTriangleMesh@Gu@physx@@QAE@V?$PxFlags@W4Enum@PxBaseFlag@physx@@G@2@@Z 10106350 f i GuTriangleMeshRTree.obj
 0001:001053a0       ??1?$RefitCallback@G@physx@@UAE@XZ 101063a0 f i GuTriangleMeshRTree.obj
 0001:001053c0       ??1?$RefitCallback@I@physx@@UAE@XZ 101063c0 f i GuTriangleMeshRTree.obj
 0001:001053e0       ??1CallbackRefit@RTree@Gu@physx@@UAE@XZ 101063e0 f i GuTriangleMeshRTree.obj
 0001:00105400       ??1RTreeTriangleMesh@Gu@physx@@UAE@XZ 10106400 f i GuTriangleMeshRTree.obj
 0001:00105440       ??4RTree@Gu@physx@@QAEAAU012@ABU012@@Z 10106440 f i GuTriangleMeshRTree.obj
 0001:001054e6       ??_ERTreeTriangleMesh@Gu@physx@@W7AEPAXI@Z 101064e6 f i GuTriangleMeshRTree.obj
 0001:001054f0       ??_G?$RefitCallback@G@physx@@UAEPAXI@Z 101064f0 f i GuTriangleMeshRTree.obj
 0001:001054f0       ??_E?$RefitCallback@G@physx@@UAEPAXI@Z 101064f0 f i GuTriangleMeshRTree.obj
 0001:00105520       ??_E?$RefitCallback@I@physx@@UAEPAXI@Z 10106520 f i GuTriangleMeshRTree.obj
 0001:00105520       ??_G?$RefitCallback@I@physx@@UAEPAXI@Z 10106520 f i GuTriangleMeshRTree.obj
 0001:00105550       ??_ECallbackRefit@RTree@Gu@physx@@UAEPAXI@Z 10106550 f i GuTriangleMeshRTree.obj
 0001:00105550       ??_GCallbackRefit@RTree@Gu@physx@@UAEPAXI@Z 10106550 f i GuTriangleMeshRTree.obj
 0001:00105580       ??_ERTreeTriangleMesh@Gu@physx@@UAEPAXI@Z 10106580 f i GuTriangleMeshRTree.obj
 0001:00105580       ??_GRTreeTriangleMesh@Gu@physx@@UAEPAXI@Z 10106580 f i GuTriangleMeshRTree.obj
 0001:001055d0       ?getConcreteTypeName@RTreeTriangleMesh@Gu@physx@@UBEPBDXZ 101065d0 f i GuTriangleMeshRTree.obj
 0001:001055e0       ?getMidphaseID@RTreeTriangleMesh@Gu@physx@@UBE?AW4Enum@PxMeshMidPhase@3@XZ 101065e0 f i GuTriangleMeshRTree.obj
 0001:001055f0       ?recomputeBounds@?$RefitCallback@G@physx@@UAEXIAAT__m128@@0@Z 101065f0 f i GuTriangleMeshRTree.obj
 0001:00105940       ?recomputeBounds@?$RefitCallback@I@physx@@UAEXIAAT__m128@@0@Z 10106940 f i GuTriangleMeshRTree.obj
 0001:00105c70       ??0BV32Tree@Gu@physx@@QAE@W4PxEMPTY@2@@Z 10106c70 f   GuBV32.obj
 0001:00105ca0       ?exportExtraData@BV32Tree@Gu@physx@@QAEXAAVPxSerializationContext@3@@Z 10106ca0 f   GuBV32.obj
 0001:00105ce0       ?importExtraData@BV32Tree@Gu@physx@@QAEXAAVPxDeserializationContext@3@@Z 10106ce0 f   GuBV32.obj
 0001:00105d10       ??0BV32Tree@Gu@physx@@QAE@XZ 10106d10 f   GuBV32.obj
 0001:00105d40       ??0BV32Tree@Gu@physx@@QAE@PAVSourceMesh@12@ABVPxBounds3@2@@Z 10106d40 f   GuBV32.obj
 0001:00105d80       ??1BV32Tree@Gu@physx@@QAE@XZ 10106d80 f   GuBV32.obj
 0001:00105da0       ?load@BV32Tree@Gu@physx@@QAE_NAAVPxInputStream@3@_N@Z 10106da0 f   GuBV32.obj
 0001:00106060       ?calculateLeafNode@BV32Tree@Gu@physx@@QAEXAAUBV32Data@23@@Z 10107060 f   GuBV32.obj
 0001:00106130       ?createSOAformatNode@BV32Tree@Gu@physx@@QAEXAAUBV32DataPacked@23@ABUBV32Data@23@IAAI2@Z 10107130 f   GuBV32.obj
 0001:00106350       ?reset@BV32Tree@Gu@physx@@QAEXXZ 10107350 f   GuBV32.obj
 0001:001063a0       ??4BV32Tree@Gu@physx@@QAEXAAV012@@Z 101073a0 f   GuBV32.obj
 0001:00106410       ?init@BV32Tree@Gu@physx@@QAE_NPAVSourceMesh@23@ABVPxBounds3@3@@Z 10107410 f   GuBV32.obj
 0001:00106440       ?release@BV32Tree@Gu@physx@@QAEXXZ 10107440 f   GuBV32.obj
 0001:001064c0       ??$readExtraData@UBV32DataPacked@Gu@physx@@@PxDeserializationContext@physx@@QAEPAUBV32DataPacked@Gu@1@I@Z 101074c0 f i GuBV32.obj
 0001:001064f0       ?getChildOffset@BV32Data@Gu@physx@@QBEIXZ 101074f0 f i GuBV32.obj
 0001:00106550       ?getNbChildren@BV32Data@Gu@physx@@QBEIXZ 10107550 f i GuBV32.obj
 0001:001065b0       ?isLeaf@BV32Data@Gu@physx@@QBEIXZ 101075b0 f i GuBV32.obj
 0001:001065d0       ?BuildBV32Ex@Gu@physx@@YA_NAAVBV32Tree@12@AAVSourceMesh@12@MI@Z 101075d0 f   GuBV32Build.obj
 0001:00107310       ??$?2V?$ReflectionAllocator@UBV32Node@@@shdfnd@physx@@@UserAllocated@shdfnd@physx@@SAPAXIV?$ReflectionAllocator@UBV32Node@@@12@PBDH@Z 10108310 f i GuBV32Build.obj
 0001:00107330       ??$?_UV?$ReflectionAllocator@UBV32Data@Gu@physx@@@shdfnd@physx@@@UserAllocated@shdfnd@physx@@SAPAXIV?$ReflectionAllocator@UBV32Data@Gu@physx@@@12@PBDH@Z 10108330 f i GuBV32Build.obj
 0001:00107350       ??0?$ReflectionAllocator@UBV32Data@Gu@physx@@@shdfnd@physx@@QAE@PBD@Z 10108350 f i GuBV32Build.obj
 0001:00107360       ??0?$ReflectionAllocator@UBV32Node@@@shdfnd@physx@@QAE@PBD@Z 10108360 f i GuBV32Build.obj
 0001:00107370       ??0BV32Data@Gu@physx@@QAE@XZ 10108370 f i GuBV32Build.obj
 0001:001073b0       ??0BV32Node@@QAE@XZ        101083b0 f i GuBV32Build.obj
 0001:00107820       ?allocate@?$ReflectionAllocator@UBV32Data@Gu@physx@@@shdfnd@physx@@QAEPAXIPBDH@Z 10108820 f i GuBV32Build.obj
 0001:00107870       ?allocate@?$ReflectionAllocator@UBV32Node@@@shdfnd@physx@@QAEPAXIPBDH@Z 10108870 f i GuBV32Build.obj
 0001:001078c0       ?getChild@BV32Node@@QBEPBU1@I@Z 101088c0 f i GuBV32Build.obj
 0001:001078e0       ?getName@?$ReflectionAllocator@UBV32Data@Gu@physx@@@shdfnd@physx@@CAPBDXZ 101088e0 f i GuBV32Build.obj
 0001:00107920       ?getName@?$ReflectionAllocator@UBV32Node@@@shdfnd@physx@@CAPBDXZ 10108920 f i GuBV32Build.obj
 0001:00107960       ?isLeaf@BV32Node@@QBEII@Z  10108960 f i GuBV32Build.obj
 0001:00107980       ?setEmpty@BV32Data@Gu@physx@@QAEXXZ 10108980 f i GuBV32Build.obj
 0001:00107a00       ?pcmContactBoxBox@Gu@physx@@YA_NABVGeometryUnion@12@0ABVPxTransform@2@1ABUNarrowPhaseParams@12@AAUCache@12@AAVContactBuffer@12@PAVRenderOutput@Cm@2@@Z 10108a00 f   GuPCMContactBoxBox.obj
 0001:0010c630       ?BTTFT@aos@shdfnd@physx@@YA?AT__m128@@XZ 1010d630 f i GuPCMContactBoxBox.obj
 0001:0010c670       ?CalculatePCMBoxMargin@Gu@physx@@YA?AT__m128@@ABT3@MM@Z 1010d670 f i GuPCMContactBoxBox.obj
 0001:0010c710       ?V3ExtractMax@aos@shdfnd@physx@@YA?AT__m128@@T4@@Z 1010d710 f i GuPCMContactBoxBox.obj
 0001:0010c7f0       ?V3RecipFast@aos@shdfnd@physx@@YA?AT__m128@@T4@@Z 1010d7f0 f i GuPCMContactBoxBox.obj
 0001:0010c8b0       ?V3SetZ@aos@shdfnd@physx@@YA?AT__m128@@T4@0@Z 1010d8b0 f i GuPCMContactBoxBox.obj
 0001:0010c990       ?Vec3V_From_FloatV@aos@shdfnd@physx@@YA?AT__m128@@T4@@Z 1010d990 f i GuPCMContactBoxBox.obj
 0001:0010c9e0       ?contains@Gu@physx@@YA_NPAT__m128@@IABT3@11@Z 1010d9e0 f i GuPCMContactBoxBox.obj
 0001:0010ced0       ?getCol0@PsMatTransformV@aos@shdfnd@physx@@QBE?AT__m128@@XZ 1010ded0 f i GuPCMContactBoxBox.obj
 0001:0010cef0       ?getCol1@PsMatTransformV@aos@shdfnd@physx@@QBE?AT__m128@@XZ 1010def0 f i GuPCMContactBoxBox.obj
 0001:0010cf10       ?getCol2@PsMatTransformV@aos@shdfnd@physx@@QBE?AT__m128@@XZ 1010df10 f i GuPCMContactBoxBox.obj
 0001:0010cf30       ?getManifold@Cache@Gu@physx@@QAEAAVPersistentContactManifold@23@XZ 1010df30 f i GuPCMContactBoxBox.obj
 0001:0010d000       ?getNumContacts@PersistentContactManifold@Gu@physx@@QBEIXZ 1010e000 f i GuPCMContactBoxBox.obj
 0001:0010d020       ?getWorldNormal@PersistentContactManifold@Gu@physx@@QAE?AT__m128@@ABVPsTransformV@aos@shdfnd@3@@Z 1010e020 f i GuPCMContactBoxBox.obj
 0001:0010d170       ?invalidate_BoxConvex@PersistentContactManifold@Gu@physx@@QAEIABVPsTransformV@aos@shdfnd@3@ABT__m128@@@Z 1010e170 f i GuPCMContactBoxBox.obj
 0001:0010d2e0       ?isManifold@Cache@Gu@physx@@QBEEXZ 1010e2e0 f i GuPCMContactBoxBox.obj
 0001:0010d300       ?isMultiManifold@Cache@Gu@physx@@QBEEXZ 1010e300 f i GuPCMContactBoxBox.obj
 0001:0010d320       ?loadTransformA@aos@shdfnd@physx@@YA?AVPsTransformV@123@ABVPxTransform@3@@Z 1010e320 f i GuPCMContactBoxBox.obj
 0001:0010d390       ?maxTransformPositionDelta@PersistentContactManifold@Gu@physx@@QAE?AT__m128@@ABT4@@Z 1010e390 f i GuPCMContactBoxBox.obj
 0001:0010d410       ?refreshContactPoints@PersistentContactManifold@Gu@physx@@QAEXABVPsMatTransformV@aos@shdfnd@3@ABT__m128@@1@Z 1010e410 f i GuPCMContactBoxBox.obj
 0001:0010d5f0       ?removeContactPoint@PersistentContactManifold@Gu@physx@@QAEXI@Z 1010e5f0 f i GuPCMContactBoxBox.obj
 0001:0010d640       ?rotateInv@PsMatTransformV@aos@shdfnd@physx@@QBE?AT__m128@@ABT5@@Z 1010e640 f i GuPCMContactBoxBox.obj
 0001:0010d690       ?setRelativeTransform@PersistentContactManifold@Gu@physx@@QAEXABVPsTransformV@aos@shdfnd@3@@Z 1010e690 f i GuPCMContactBoxBox.obj
 0001:0010d6b0       ?transformInv@PsMatTransformV@aos@shdfnd@physx@@QBE?AT__m128@@ABT5@@Z 1010e6b0 f i GuPCMContactBoxBox.obj
 0001:0010d710       ?transformInv@PsMatTransformV@aos@shdfnd@physx@@QBE?AV1234@ABV1234@@Z 1010e710 f i GuPCMContactBoxBox.obj
 0001:0010d7b0       ?pcmContactBoxConvex@Gu@physx@@YA_NABVGeometryUnion@12@0ABVPxTransform@2@1ABUNarrowPhaseParams@12@AAUCache@12@AAVContactBuffer@12@PAVRenderOutput@Cm@2@@Z 1010e7b0 f   GuPCMContactBoxConvex.obj
 0001:0010e2a0       ??$getConvex@VConvexHullNoScaleV@Gu@physx@@@GjkConvexBase@Gu@physx@@QBEABVConvexHullNoScaleV@12@XZ 1010f2a0 f i GuPCMContactBoxConvex.obj
 0001:0010e2c0       ??$gjkPenetration@U?$RelativeConvex@VBoxV@Gu@physx@@@Gu@physx@@U?$LocalConvex@VConvexHullNoScaleV@Gu@physx@@@23@@Gu@physx@@YA?AW4GjkStatus@01@ABU?$RelativeConvex@VBoxV@Gu@physx@@@01@ABU?$LocalConvex@VConvexHullNoScaleV@Gu@physx@@@01@ABT__m128@@2_NPIAE4AAEAAUGjkOutput@01@@Z 1010f2c0 f i GuPCMContactBoxConvex.obj
 0001:0010ed90       ??0?$LocalConvex@VConvexHullNoScaleV@Gu@physx@@@Gu@physx@@QAE@ABVConvexHullNoScaleV@12@@Z 1010fd90 f i GuPCMContactBoxConvex.obj
 0001:0010edc0       ??1?$LocalConvex@VConvexHullNoScaleV@Gu@physx@@@Gu@physx@@UAE@XZ 1010fdc0 f i GuPCMContactBoxConvex.obj
 0001:0010ede0       ??_E?$LocalConvex@VConvexHullNoScaleV@Gu@physx@@@Gu@physx@@UAEPAXI@Z 1010fde0 f i GuPCMContactBoxConvex.obj
 0001:0010ede0       ??_G?$LocalConvex@VConvexHullNoScaleV@Gu@physx@@@Gu@physx@@UAEPAXI@Z 1010fde0 f i GuPCMContactBoxConvex.obj
 0001:0010ee10       ?CalculatePCMConvexMargin@Gu@physx@@YA?AT__m128@@PBUConvexHullData@12@ABT3@MM@Z 1010fe10 f i GuPCMContactBoxConvex.obj
 0001:0010eef0       ?getCenter@?$LocalConvex@VConvexHullNoScaleV@Gu@physx@@@Gu@physx@@UBE?AT__m128@@XZ 1010fef0 f i GuPCMContactBoxConvex.obj
 0001:0010ef20       ?getLocalNormal@PersistentContactManifold@Gu@physx@@QAE?AT__m128@@XZ 1010ff20 f i GuPCMContactBoxConvex.obj
 0001:0010efd0       ?getMarginF@ConvexV@Gu@physx@@QBEMXZ 1010ffd0 f i GuPCMContactBoxConvex.obj
 0001:0010eff0       ?getSweepMargin@?$LocalConvex@VConvexHullNoScaleV@Gu@physx@@@Gu@physx@@UBE?AT__m128@@XZ 1010fff0 f i GuPCMContactBoxConvex.obj
 0001:0010f020       ?support@?$LocalConvex@VConvexHullNoScaleV@Gu@physx@@@Gu@physx@@UBE?AT__m128@@ABT4@@Z 10110020 f i GuPCMContactBoxConvex.obj
 0001:0010f050       ?support@?$LocalConvex@VConvexHullNoScaleV@Gu@physx@@@Gu@physx@@UBE?AT__m128@@ABT4@AAH@Z 10110050 f i GuPCMContactBoxConvex.obj
 0001:0010f080       ?supportLocal@ConvexHullNoScaleV@Gu@physx@@QBE?AT__m128@@ABT4@AAH@Z 10110080 f i GuPCMContactBoxConvex.obj
 0001:0010f0f0       ?supportPoint@?$LocalConvex@VConvexHullNoScaleV@Gu@physx@@@Gu@physx@@UBE?AT__m128@@H@Z 101100f0 f i GuPCMContactBoxConvex.obj
 0001:0010f120       ?supportPoint@ConvexHullNoScaleV@Gu@physx@@QBE?AT__m128@@H@Z 10110120 f i GuPCMContactBoxConvex.obj
 0001:0010f170       ?pcmContactCapsuleBox@Gu@physx@@YA_NABVGeometryUnion@12@0ABVPxTransform@2@1ABUNarrowPhaseParams@12@AAUCache@12@AAVContactBuffer@12@PAVRenderOutput@Cm@2@@Z 10110170 f   GuPCMContactCapsuleBox.obj
 0001:0010fcb0       ?invalidate_SphereCapsule@PersistentContactManifold@Gu@physx@@QAEIABVPsTransformV@aos@shdfnd@3@ABT__m128@@@Z 10110cb0 f i GuPCMContactCapsuleBox.obj
 0001:0010fe20       ?transformInv@PsTransformV@aos@shdfnd@physx@@QBE?AT__m128@@ABT5@@Z 10110e20 f i GuPCMContactCapsuleBox.obj
 0001:0010fec0       ?pcmContactCapsuleCapsule@Gu@physx@@YA_NABVGeometryUnion@12@0ABVPxTransform@2@1ABUNarrowPhaseParams@12@AAUCache@12@AAVContactBuffer@12@PAVRenderOutput@Cm@2@@Z 10110ec0 f   GuPCMContactCapsuleCapsule.obj
 0001:00111640       ?BFTTT@aos@shdfnd@physx@@YA?AT__m128@@XZ 10112640 f i GuPCMContactCapsuleCapsule.obj
 0001:00111680       ?QuatGetBasisVector0@aos@shdfnd@physx@@YA?AT__m128@@T4@@Z 10112680 f i GuPCMContactCapsuleCapsule.obj
 0001:00111860       ?V3SetX@aos@shdfnd@physx@@YA?AT__m128@@T4@0@Z 10112860 f i GuPCMContactCapsuleCapsule.obj
 0001:00111940       ?V3StoreA@aos@shdfnd@physx@@YAXT__m128@@AAVPxVec3@3@@Z 10112940 f i GuPCMContactCapsuleCapsule.obj
 0001:00111a00       ?pcmContactCapsuleConvex@Gu@physx@@YA_NABVGeometryUnion@12@0ABVPxTransform@2@1ABUNarrowPhaseParams@12@AAUCache@12@AAVContactBuffer@12@PAVRenderOutput@Cm@2@@Z 10112a00 f   GuPCMContactCapsuleConvex.obj
 0001:001126a0       ??$gjkPenetration@U?$LocalConvex@VCapsuleV@Gu@physx@@@Gu@physx@@U?$LocalConvex@VConvexHullNoScaleV@Gu@physx@@@23@@Gu@physx@@YA?AW4GjkStatus@01@ABU?$LocalConvex@VCapsuleV@Gu@physx@@@01@ABU?$LocalConvex@VConvexHullNoScaleV@Gu@physx@@@01@ABT__m128@@2_NPIAE4AAEAAUGjkOutput@01@@Z 101136a0 f i GuPCMContactCapsuleConvex.obj
 0001:00113170       ?CalculateCapsuleMinMargin@Gu@physx@@YA?AT__m128@@ABT3@@Z 10114170 f i GuPCMContactCapsuleConvex.obj
 0001:001131d0       ?pcmContactCapsuleHeightField@Gu@physx@@YA_NABVGeometryUnion@12@0ABVPxTransform@2@1ABUNarrowPhaseParams@12@AAUCache@12@AAVContactBuffer@12@PAVRenderOutput@Cm@2@@Z 101141d0 f   GuPCMContactCapsuleHeightField.obj
 0001:00113640       ??$processTriangleCache@$0BA@@PCMCapsuleVsHeightfieldContactGenerationCallback@physx@@QAEXAAU?$TriangleCache@$0BA@@Gu@1@@Z 10114640 f i GuPCMContactCapsuleHeightField.obj
 0001:00113660       ??$processTriangleCache@$0BA@VPCMCapsuleVsMeshContactGeneration@Gu@physx@@@PCMMeshContactGeneration@Gu@physx@@QAE_NAAU?$TriangleCache@$0BA@@12@@Z 10114660 f i GuPCMContactCapsuleHeightField.obj
 0001:00113700       ??0?$PCMHeightfieldContactGenerationCallback@UPCMCapsuleVsHeightfieldContactGenerationCallback@physx@@@Gu@physx@@QAE@ABVHeightFieldUtil@12@ABVPxTransform@2@@Z 10114700 f i GuPCMContactCapsuleHeightField.obj
 0001:00113790       ??0?$TriangleCache@$0BA@@Gu@physx@@QAE@XZ 10114790 f i GuPCMContactCapsuleHeightField.obj
 0001:001137c0       ??0PCMCapsuleVsHeightfieldContactGenerationCallback@physx@@QAE@ABVCapsuleV@Gu@1@ABT__m128@@1ABVPsTransformV@aos@shdfnd@1@2ABVPxTransform@1@AAVMultiplePersistentContactManifold@31@AAVContactBuffer@31@PAV?$InlineArray@I$0EEA@VNamedAllocator@shdfnd@physx@@@71@AAVHeightFieldUtil@31@@Z 101147c0 f i GuPCMContactCapsuleHeightField.obj
 0001:00113820       ??0PCMCapsuleVsMeshContactGeneration@Gu@physx@@QAE@ABVCapsuleV@12@ABT__m128@@1ABVPsTransformV@aos@shdfnd@2@2AAVMultiplePersistentContactManifold@12@AAVContactBuffer@12@PAV?$InlineArray@I$0EEA@VNamedAllocator@shdfnd@physx@@@72@PAVRenderOutput@Cm@2@@Z 10114820 f i GuPCMContactCapsuleHeightField.obj
 0001:001138d0       ??0PCMContactPatch@Gu@physx@@QAE@XZ 101148d0 f i GuPCMContactCapsuleHeightField.obj
 0001:00113930       ??0PCMMeshContactGeneration@Gu@physx@@QAE@ABT__m128@@0ABVPsTransformV@aos@shdfnd@2@1AAVMultiplePersistentContactManifold@12@AAVContactBuffer@12@PAV?$InlineArray@I$0EEA@VNamedAllocator@shdfnd@physx@@@62@PAVRenderOutput@Cm@2@@Z 10114930 f i GuPCMContactCapsuleHeightField.obj
 0001:00113af0       ??1?$PCMHeightfieldContactGenerationCallback@UPCMCapsuleVsHeightfieldContactGenerationCallback@physx@@@Gu@physx@@UAE@XZ 10114af0 f i GuPCMContactCapsuleHeightField.obj
 0001:00113b10       ??1PCMCapsuleVsHeightfieldContactGenerationCallback@physx@@UAE@XZ 10114b10 f i GuPCMContactCapsuleHeightField.obj
 0001:00113b30       ??_E?$PCMHeightfieldContactGenerationCallback@UPCMCapsuleVsHeightfieldContactGenerationCallback@physx@@@Gu@physx@@UAEPAXI@Z 10114b30 f i GuPCMContactCapsuleHeightField.obj
 0001:00113b30       ??_G?$PCMHeightfieldContactGenerationCallback@UPCMCapsuleVsHeightfieldContactGenerationCallback@physx@@@Gu@physx@@UAEPAXI@Z 10114b30 f i GuPCMContactCapsuleHeightField.obj
 0001:00113b60       ??_GPCMCapsuleVsHeightfieldContactGenerationCallback@physx@@UAEPAXI@Z 10114b60 f i GuPCMContactCapsuleHeightField.obj
 0001:00113b60       ??_EPCMCapsuleVsHeightfieldContactGenerationCallback@physx@@UAEPAXI@Z 10114b60 f i GuPCMContactCapsuleHeightField.obj
 0001:00113ba0       ?addTriangle@?$TriangleCache@$0BA@@Gu@physx@@QAEXPBVPxVec3@3@PBIIE@Z 10114ba0 f i GuPCMContactCapsuleHeightField.obj
 0001:00113ce0       ?getMultipleManifold@Cache@Gu@physx@@QAEAAVMultiplePersistentContactManifold@23@XZ 10114ce0 f i GuPCMContactCapsuleHeightField.obj
 0001:00113dc0       ?onEvent@?$PCMHeightfieldContactGenerationCallback@UPCMCapsuleVsHeightfieldContactGenerationCallback@physx@@@Gu@physx@@UAE_NIPAI@Z 10114dc0 f i GuPCMContactCapsuleHeightField.obj
 0001:001141a0       ?prioritizeContactPatches@PCMMeshContactGeneration@Gu@physx@@QAEXXZ 101151a0 f i GuPCMContactCapsuleHeightField.obj
 0001:001142e0       ?processContacts@PCMMeshContactGeneration@Gu@physx@@QAEXE_N@Z 101152e0 f i GuPCMContactCapsuleHeightField.obj
 0001:00114420       ?pcmContactCapsuleMesh@Gu@physx@@YA_NABVGeometryUnion@12@0ABVPxTransform@2@1ABUNarrowPhaseParams@12@AAUCache@12@AAVContactBuffer@12@PAVRenderOutput@Cm@2@@Z 10115420 f   GuPCMContactCapsuleMesh.obj
 0001:00114950       ??$processTriangleCache@$0BA@@PCMCapsuleVsMeshContactGenerationCallback@physx@@QAEXAAU?$TriangleCache@$0BA@@Gu@1@@Z 10115950 f i GuPCMContactCapsuleMesh.obj
 0001:00114970       ??0?$PCMMeshContactGenerationCallback@UPCMCapsuleVsMeshContactGenerationCallback@physx@@@Gu@physx@@QAE@ABVFastVertex2ShapeScaling@Cm@2@PBE_N@Z 10115970 f i GuPCMContactCapsuleMesh.obj
 0001:001149c0       ??0PCMCapsuleVsMeshContactGenerationCallback@physx@@QAE@ABVCapsuleV@Gu@1@ABT__m128@@1ABVPsTransformV@aos@shdfnd@1@2AAVMultiplePersistentContactManifold@31@AAVContactBuffer@31@PBEABVFastVertex2ShapeScaling@Cm@1@_NPAV?$InlineArray@I$0EEA@VNamedAllocator@shdfnd@physx@@@71@PAVRenderOutput@Cm@1@@Z 101159c0 f i GuPCMContactCapsuleMesh.obj
 0001:00114a20       ??1?$PCMMeshContactGenerationCallback@UPCMCapsuleVsMeshContactGenerationCallback@physx@@@Gu@physx@@UAE@XZ 10115a20 f i GuPCMContactCapsuleMesh.obj
 0001:00114a40       ??1PCMCapsuleVsMeshContactGenerationCallback@physx@@UAE@XZ 10115a40 f i GuPCMContactCapsuleMesh.obj
 0001:00114a60       ??_G?$PCMMeshContactGenerationCallback@UPCMCapsuleVsMeshContactGenerationCallback@physx@@@Gu@physx@@UAEPAXI@Z 10115a60 f i GuPCMContactCapsuleMesh.obj
 0001:00114a60       ??_E?$PCMMeshContactGenerationCallback@UPCMCapsuleVsMeshContactGenerationCallback@physx@@@Gu@physx@@UAEPAXI@Z 10115a60 f i GuPCMContactCapsuleMesh.obj
 0001:00114aa0       ??_GPCMCapsuleVsMeshContactGenerationCallback@physx@@UAEPAXI@Z 10115aa0 f i GuPCMContactCapsuleMesh.obj
 0001:00114aa0       ??_EPCMCapsuleVsMeshContactGenerationCallback@physx@@UAEPAXI@Z 10115aa0 f i GuPCMContactCapsuleMesh.obj
 0001:00114ae0       ?doTest@PCMCapsuleVsMeshContactGenerationCallback@physx@@QAE_NABVPxVec3@2@00@Z 10115ae0 f i GuPCMContactCapsuleMesh.obj
 0001:00114af0       ?flushCache@?$PCMMeshContactGenerationCallback@UPCMCapsuleVsMeshContactGenerationCallback@physx@@@Gu@physx@@QAEXXZ 10115af0 f i GuPCMContactCapsuleMesh.obj
 0001:00114b30       ?isEmpty@?$TriangleCache@$0BA@@Gu@physx@@QBE_NXZ 10115b30 f i GuPCMContactCapsuleMesh.obj
 0001:00114b60       ?isFull@?$TriangleCache@$0BA@@Gu@physx@@QBE_NXZ 10115b60 f i GuPCMContactCapsuleMesh.obj
 0001:00114b90       ?processHit@?$PCMMeshContactGenerationCallback@UPCMCapsuleVsMeshContactGenerationCallback@physx@@@Gu@physx@@UAE_NABUPxRaycastHit@3@ABVPxVec3@3@11AAMPBI@Z 10115b90 f i GuPCMContactCapsuleMesh.obj
 0001:00114d30       ?reset@?$TriangleCache@$0BA@@Gu@physx@@QAEXXZ 10115d30 f i GuPCMContactCapsuleMesh.obj
 0001:00114d50       ?generateLastContacts@PCMConvexVsMeshContactGeneration@Gu@physx@@QAEXXZ 10115d50 f   GuPCMContactConvexCommon.obj
 0001:001151b0       ?addContactsToPatch@PCMConvexVsMeshContactGeneration@Gu@physx@@QAEXABT__m128@@I@Z 101161b0 f   GuPCMContactConvexCommon.obj
 0001:001154f0       ?processTriangle@PCMConvexVsMeshContactGeneration@Gu@physx@@QAE_NPBVPxVec3@3@IEPBI@Z 101164f0 f   GuPCMContactConvexCommon.obj
 0001:00115980       ?processTriangle@PCMConvexVsMeshContactGeneration@Gu@physx@@SA_NABUPolygonalData@23@PAVSupportLocal@23@PBVPxVec3@3@IEABT__m128@@_NABVPsTransformV@aos@shdfnd@3@ABVPsMatTransformV@9shdfnd@3@PAVMeshPersistentContact@23@AAI@Z 10116980 f   GuPCMContactConvexCommon.obj
 0001:00115c20       ?processTriangle@PCMSphereVsMeshContactGeneration@Gu@physx@@QAE_NPBVPxVec3@3@IEPBI@Z 10116c20 f   GuPCMContactConvexCommon.obj
 0001:00116140       ?generateLastContacts@PCMSphereVsMeshContactGeneration@Gu@physx@@QAEXXZ 10117140 f   GuPCMContactConvexCommon.obj
 0001:001163a0       ?addToPatch@PCMSphereVsMeshContactGeneration@Gu@physx@@QAEXABT__m128@@0T4@I@Z 101173a0 f   GuPCMContactConvexCommon.obj
 0001:00116760       ?generateEEContacts@PCMCapsuleVsMeshContactGeneration@Gu@physx@@QAEXABT__m128@@000I000PAVMeshPersistentContact@23@AAI@Z 10117760 f   GuPCMContactConvexCommon.obj
 0001:00116800       ?generateEE@PCMCapsuleVsMeshContactGeneration@Gu@physx@@QAEXABT__m128@@000I00PAVMeshPersistentContact@23@AAI@Z 10117800 f   GuPCMContactConvexCommon.obj
 0001:00116cc0       ?generateContacts@PCMCapsuleVsMeshContactGeneration@Gu@physx@@SA_NABT__m128@@0000I000PAVMeshPersistentContact@23@AAI@Z 10117cc0 f   GuPCMContactConvexCommon.obj
 0001:00117550       ?generateEEContactsMTD@PCMCapsuleVsMeshContactGeneration@Gu@physx@@SAXABT__m128@@000I000PAVMeshPersistentContact@23@AAI@Z 10118550 f   GuPCMContactConvexCommon.obj
 0001:001175e0       ?generateEEMTD@PCMCapsuleVsMeshContactGeneration@Gu@physx@@SAXABT__m128@@000I00PAVMeshPersistentContact@23@AAI@Z 101185e0 f   GuPCMContactConvexCommon.obj
 0001:00117a10       ?processTriangle@PCMCapsuleVsMeshContactGeneration@Gu@physx@@QAE_NPBVPxVec3@3@IEPBI@Z 10118a10 f   GuPCMContactConvexCommon.obj
 0001:001181f0       ?processTriangle@PCMCapsuleVsMeshContactGeneration@Gu@physx@@SA_NABVTriangleV@23@IABVCapsuleV@23@ABT__m128@@EPAVMeshPersistentContact@23@AAI@Z 101191f0 f   GuPCMContactConvexCommon.obj
 0001:00119170       ?pcmDistanceSegmentTriangleSquared@Gu@physx@@YA?AT__m128@@ABT3@0000AAT3@11@Z 1011a170 f   GuPCMContactConvexCommon.obj
 0001:0011a240       ??$PX_UNUSED@PBI@@YAXABQBI@Z 1011b240 f i GuPCMContactConvexCommon.obj
 0001:0011a250       ??$median3@USortedTriangle@Gu@physx@@$$CBU?$Less@USortedTriangle@Gu@physx@@@shdfnd@3@@internal@shdfnd@physx@@YAXPAUSortedTriangle@Gu@2@HHABU?$Less@USortedTriangle@Gu@physx@@@12@@Z 1011b250 f i GuPCMContactConvexCommon.obj
 0001:0011a350       ??$partition@USortedTriangle@Gu@physx@@$$CBU?$Less@USortedTriangle@Gu@physx@@@shdfnd@3@@internal@shdfnd@physx@@YAHPAUSortedTriangle@Gu@2@HHABU?$Less@USortedTriangle@Gu@physx@@@12@@Z 1011b350 f i GuPCMContactConvexCommon.obj
 0001:0011a4c0       ??$smallSort@USortedTriangle@Gu@physx@@$$CBU?$Less@USortedTriangle@Gu@physx@@@shdfnd@3@@internal@shdfnd@physx@@YAXPAUSortedTriangle@Gu@2@HHABU?$Less@USortedTriangle@Gu@physx@@@12@@Z 1011b4c0 f i GuPCMContactConvexCommon.obj
 0001:0011a560       ??$sort@USortedTriangle@Gu@physx@@U?$Less@USortedTriangle@Gu@physx@@@shdfnd@3@@shdfnd@physx@@YAXPAUSortedTriangle@Gu@1@IABU?$Less@USortedTriangle@Gu@physx@@@01@@Z 1011b560 f i GuPCMContactConvexCommon.obj
 0001:0011a5a0       ??$sort@USortedTriangle@Gu@physx@@U?$Less@USortedTriangle@Gu@physx@@@shdfnd@3@VNamedAllocator@53@@shdfnd@physx@@YAXPAUSortedTriangle@Gu@1@IABU?$Less@USortedTriangle@Gu@physx@@@01@ABVNamedAllocator@01@I@Z 1011b5a0 f i GuPCMContactConvexCommon.obj
 0001:0011a7e0       ??$swap@USortedTriangle@Gu@physx@@@shdfnd@physx@@YAXAAUSortedTriangle@Gu@1@0@Z 1011b7e0 f i GuPCMContactConvexCommon.obj
 0001:0011a830       ??0?$Stack@VNamedAllocator@shdfnd@physx@@@internal@shdfnd@physx@@QAE@PAHIABVNamedAllocator@23@@Z 1011b830 f i GuPCMContactConvexCommon.obj
 0001:0011a870       ??0?$SupportLocalImpl@VTriangleV@Gu@physx@@@Gu@physx@@QAE@ABVTriangleV@12@ABVPsTransformV@aos@shdfnd@2@ABUMat33V@562@2_N@Z 1011b870 f i GuPCMContactConvexCommon.obj
 0001:0011a8b0       ??0TriangleV@Gu@physx@@QAE@PBVPxVec3@2@@Z 1011b8b0 f i GuPCMContactConvexCommon.obj
 0001:0011aa30       ??1?$Stack@VNamedAllocator@shdfnd@physx@@@internal@shdfnd@physx@@QAE@XZ 1011ba30 f i GuPCMContactConvexCommon.obj
 0001:0011aa60       ??1?$SupportLocalImpl@VTriangleV@Gu@physx@@@Gu@physx@@UAE@XZ 1011ba60 f i GuPCMContactConvexCommon.obj
 0001:0011aa80       ??A?$Array@USortedTriangle@Gu@physx@@V?$InlineAllocator@$0IAA@VNamedAllocator@shdfnd@physx@@@shdfnd@3@@shdfnd@physx@@QAEAAUSortedTriangle@Gu@2@I@Z 1011ba80 f i GuPCMContactConvexCommon.obj
 0001:0011aaf0       ??MSortedTriangle@Gu@physx@@QBE_NABU012@@Z 1011baf0 f i GuPCMContactConvexCommon.obj
 0001:0011ab30       ??R?$Less@USortedTriangle@Gu@physx@@@shdfnd@physx@@QBE_NABUSortedTriangle@Gu@2@0@Z 1011bb30 f i GuPCMContactConvexCommon.obj
 0001:0011ab50       ??_G?$SupportLocalImpl@VTriangleV@Gu@physx@@@Gu@physx@@UAEPAXI@Z 1011bb50 f i GuPCMContactConvexCommon.obj
 0001:0011ab50       ??_E?$SupportLocalImpl@VTriangleV@Gu@physx@@@Gu@physx@@UAEPAXI@Z 1011bb50 f i GuPCMContactConvexCommon.obj
 0001:0011ab80       ?V4PermXZXZ@aos@shdfnd@physx@@YA?AT__m128@@T4@@Z 1011bb80 f i GuPCMContactConvexCommon.obj
 0001:0011abc0       ?V4PermYWYW@aos@shdfnd@physx@@YA?AT__m128@@T4@@Z 1011bbc0 f i GuPCMContactConvexCommon.obj
 0001:0011ac00       ?V4PermYXWZ@aos@shdfnd@physx@@YA?AT__m128@@T4@@Z 1011bc00 f i GuPCMContactConvexCommon.obj
 0001:0011ac40       ?addManifoldPointToPatch@PCMMeshContactGeneration@Gu@physx@@QAEXABT__m128@@0I@Z 1011bc40 f i GuPCMContactConvexCommon.obj
 0001:0011af20       ?allocate@?$Array@USortedTriangle@Gu@physx@@V?$InlineAllocator@$0IAA@VNamedAllocator@shdfnd@physx@@@shdfnd@3@@shdfnd@physx@@IAEPAUSortedTriangle@Gu@3@I@Z 1011bf20 f i GuPCMContactConvexCommon.obj
 0001:0011af90       ?allocate@?$InlineAllocator@$0IAA@VNamedAllocator@shdfnd@physx@@@shdfnd@physx@@QAEPAXIPBDH@Z 1011bf90 f i GuPCMContactConvexCommon.obj
 0001:0011afe0       ?begin@?$Array@USortedTriangle@Gu@physx@@V?$InlineAllocator@$0IAA@VNamedAllocator@shdfnd@physx@@@shdfnd@3@@shdfnd@physx@@QAEPAUSortedTriangle@Gu@3@XZ 1011bfe0 f i GuPCMContactConvexCommon.obj
 0001:0011b000       ?capacity@?$Array@USortedTriangle@Gu@physx@@V?$InlineAllocator@$0IAA@VNamedAllocator@shdfnd@physx@@@shdfnd@3@@shdfnd@physx@@QBEIXZ 1011c000 f i GuPCMContactConvexCommon.obj
 0001:0011b020       ?capacityIncrement@?$Array@USortedTriangle@Gu@physx@@V?$InlineAllocator@$0IAA@VNamedAllocator@shdfnd@physx@@@shdfnd@3@@shdfnd@physx@@IBEIXZ 1011c020 f i GuPCMContactConvexCommon.obj
 0001:0011b060       ?copy@?$Array@USortedTriangle@Gu@physx@@V?$InlineAllocator@$0IAA@VNamedAllocator@shdfnd@physx@@@shdfnd@3@@shdfnd@physx@@KAXPAUSortedTriangle@Gu@3@0PBU453@@Z 1011c060 f i GuPCMContactConvexCommon.obj
 0001:0011b0c0       ?deallocate@?$Array@USortedTriangle@Gu@physx@@V?$InlineAllocator@$0IAA@VNamedAllocator@shdfnd@physx@@@shdfnd@3@@shdfnd@physx@@IAEXPAX@Z 1011c0c0 f i GuPCMContactConvexCommon.obj
 0001:0011b0e0       ?deallocate@?$InlineAllocator@$0IAA@VNamedAllocator@shdfnd@physx@@@shdfnd@physx@@QAEXPAX@Z 1011c0e0 f i GuPCMContactConvexCommon.obj
 0001:0011b110       ?destroy@?$Array@USortedTriangle@Gu@physx@@V?$InlineAllocator@$0IAA@VNamedAllocator@shdfnd@physx@@@shdfnd@3@@shdfnd@physx@@KAXPAUSortedTriangle@Gu@3@0@Z 1011c110 f i GuPCMContactConvexCommon.obj
 0001:0011b130       ?doSupport@?$SupportLocalImpl@VTriangleV@Gu@physx@@@Gu@physx@@UBE?AT__m128@@ABT4@@Z 1011c130 f i GuPCMContactConvexCommon.obj
 0001:0011b160       ?doSupport@?$SupportLocalImpl@VTriangleV@Gu@physx@@@Gu@physx@@UBEXABT__m128@@AAT4@1@Z 1011c160 f i GuPCMContactConvexCommon.obj
 0001:0011b190       ?empty@?$Stack@VNamedAllocator@shdfnd@physx@@@internal@shdfnd@physx@@QAE_NXZ 1011c190 f i GuPCMContactConvexCommon.obj
 0001:0011b1c0       ?get@?$CacheMap@UCachedEdge@Gu@physx@@$0IA@@Gu@physx@@QBEPBUCachedEdge@23@ABU423@@Z 1011c1c0 f i GuPCMContactConvexCommon.obj
 0001:0011b240       ?grow@?$Stack@VNamedAllocator@shdfnd@physx@@@internal@shdfnd@physx@@QAEXXZ 1011c240 f i GuPCMContactConvexCommon.obj
 0001:0011b2d0       ?growAndPushBack@?$Array@USortedTriangle@Gu@physx@@V?$InlineAllocator@$0IAA@VNamedAllocator@shdfnd@physx@@@shdfnd@3@@shdfnd@physx@@IAEAAUSortedTriangle@Gu@3@ABU453@@Z 1011c2d0 f i GuPCMContactConvexCommon.obj
 0001:0011b430       ?isInUserMemory@?$Array@USortedTriangle@Gu@physx@@V?$InlineAllocator@$0IAA@VNamedAllocator@shdfnd@physx@@@shdfnd@3@@shdfnd@physx@@QBEIXZ 1011c430 f i GuPCMContactConvexCommon.obj
 0001:0011b450       ?isValidTriangleBarycentricCoord2@Gu@physx@@YA?AT__m128@@ABT3@@Z 1011c450 f i GuPCMContactConvexCommon.obj
 0001:0011b630       ?pcmDistanceSegmentSegmentSquared4@Gu@physx@@YA?AT__m128@@ABT3@000000000AAT3@1@Z 1011c630 f i GuPCMContactConvexCommon.obj
 0001:0011c2b0       ?pop@?$Stack@VNamedAllocator@shdfnd@physx@@@internal@shdfnd@physx@@QAEXAAH0@Z 1011d2b0 f i GuPCMContactConvexCommon.obj
 0001:0011c350       ?populateVerts@?$SupportLocalImpl@VTriangleV@Gu@physx@@@Gu@physx@@UBEXPBEIPBVPxVec3@3@PAT__m128@@@Z 1011d350 f i GuPCMContactConvexCommon.obj
 0001:0011c380       ?populateVerts@TriangleV@Gu@physx@@QBEXPBEIPBVPxVec3@3@PAT__m128@@@Z 1011d380 f i GuPCMContactConvexCommon.obj
 0001:0011c3f0       ?push@?$Stack@VNamedAllocator@shdfnd@physx@@@internal@shdfnd@physx@@QAEXHH@Z 1011d3f0 f i GuPCMContactConvexCommon.obj
 0001:0011c460       ?pushBack@?$Array@USortedTriangle@Gu@physx@@V?$InlineAllocator@$0IAA@VNamedAllocator@shdfnd@physx@@@shdfnd@3@@shdfnd@physx@@QAEAAUSortedTriangle@Gu@3@ABU453@@Z 1011d460 f i GuPCMContactConvexCommon.obj
 0001:0011c500       ?size@?$Array@USortedTriangle@Gu@physx@@V?$InlineAllocator@$0IAA@VNamedAllocator@shdfnd@physx@@@shdfnd@3@@shdfnd@physx@@QBEIXZ 1011d500 f i GuPCMContactConvexCommon.obj
 0001:0011c520       ?supportLocal@TriangleV@Gu@physx@@QBEXABT__m128@@AAT4@1@Z 1011d520 f i GuPCMContactConvexCommon.obj
 0001:0011c650       ?pcmContactConvexConvex@Gu@physx@@YA_NABVGeometryUnion@12@0ABVPxTransform@2@1ABUNarrowPhaseParams@12@AAUCache@12@AAVContactBuffer@12@PAVRenderOutput@Cm@2@@Z 1011d650 f   GuPCMContactConvexConvex.obj
 0001:0011d410       ??$gjkPenetration@U?$RelativeConvex@VConvexHullNoScaleV@Gu@physx@@@Gu@physx@@U?$LocalConvex@VConvexHullNoScaleV@Gu@physx@@@23@@Gu@physx@@YA?AW4GjkStatus@01@ABU?$RelativeConvex@VConvexHullNoScaleV@Gu@physx@@@01@ABU?$LocalConvex@VConvexHullNoScaleV@Gu@physx@@@01@ABT__m128@@2_NPIAE4AAEAAUGjkOutput@01@@Z 1011e410 f i GuPCMContactConvexConvex.obj
 0001:0011dee0       ??$gjkPenetration@U?$RelativeConvex@VConvexHullNoScaleV@Gu@physx@@@Gu@physx@@U?$LocalConvex@VConvexHullV@Gu@physx@@@23@@Gu@physx@@YA?AW4GjkStatus@01@ABU?$RelativeConvex@VConvexHullNoScaleV@Gu@physx@@@01@ABU?$LocalConvex@VConvexHullV@Gu@physx@@@01@ABT__m128@@2_NPIAE4AAEAAUGjkOutput@01@@Z 1011eee0 f i GuPCMContactConvexConvex.obj
 0001:0011e9b0       ??$gjkPenetration@U?$RelativeConvex@VConvexHullV@Gu@physx@@@Gu@physx@@U?$LocalConvex@VConvexHullNoScaleV@Gu@physx@@@23@@Gu@physx@@YA?AW4GjkStatus@01@ABU?$RelativeConvex@VConvexHullV@Gu@physx@@@01@ABU?$LocalConvex@VConvexHullNoScaleV@Gu@physx@@@01@ABT__m128@@2_NPIAE4AAEAAUGjkOutput@01@@Z 1011f9b0 f i GuPCMContactConvexConvex.obj
 0001:0011f480       ??0?$RelativeConvex@VConvexHullNoScaleV@Gu@physx@@@Gu@physx@@QAE@ABVConvexHullNoScaleV@12@ABVPsMatTransformV@aos@shdfnd@2@@Z 10120480 f i GuPCMContactConvexConvex.obj
 0001:0011f4e0       ??1?$RelativeConvex@VConvexHullNoScaleV@Gu@physx@@@Gu@physx@@UAE@XZ 101204e0 f i GuPCMContactConvexConvex.obj
 0001:0011f500       ??_E?$RelativeConvex@VConvexHullNoScaleV@Gu@physx@@@Gu@physx@@UAEPAXI@Z 10120500 f i GuPCMContactConvexConvex.obj
 0001:0011f500       ??_G?$RelativeConvex@VConvexHullNoScaleV@Gu@physx@@@Gu@physx@@UAEPAXI@Z 10120500 f i GuPCMContactConvexConvex.obj
 0001:0011f530       ?getCenter@?$RelativeConvex@VConvexHullNoScaleV@Gu@physx@@@Gu@physx@@UBE?AT__m128@@XZ 10120530 f i GuPCMContactConvexConvex.obj
 0001:0011f580       ?getSweepMargin@?$RelativeConvex@VConvexHullNoScaleV@Gu@physx@@@Gu@physx@@UBE?AT__m128@@XZ 10120580 f i GuPCMContactConvexConvex.obj
 0001:0011f5b0       ?support@?$RelativeConvex@VConvexHullNoScaleV@Gu@physx@@@Gu@physx@@UBE?AT__m128@@ABT4@@Z 101205b0 f i GuPCMContactConvexConvex.obj
 0001:0011f5f0       ?support@?$RelativeConvex@VConvexHullNoScaleV@Gu@physx@@@Gu@physx@@UBE?AT__m128@@ABT4@AAH@Z 101205f0 f i GuPCMContactConvexConvex.obj
 0001:0011f630       ?supportPoint@?$RelativeConvex@VConvexHullNoScaleV@Gu@physx@@@Gu@physx@@UBE?AT__m128@@H@Z 10120630 f i GuPCMContactConvexConvex.obj
 0001:0011f680       ?supportRelative@ConvexHullNoScaleV@Gu@physx@@QBE?AT__m128@@ABT4@ABVPsMatTransformV@aos@shdfnd@3@1@Z 10120680 f i GuPCMContactConvexConvex.obj
 0001:0011f6e0       ?supportRelative@ConvexHullNoScaleV@Gu@physx@@QBE?AT__m128@@ABT4@ABVPsMatTransformV@aos@shdfnd@3@1AAH@Z 101206e0 f i GuPCMContactConvexConvex.obj
 0001:0011f740       ?pcmContactBoxHeightField@Gu@physx@@YA_NABVGeometryUnion@12@0ABVPxTransform@2@1ABUNarrowPhaseParams@12@AAUCache@12@AAVContactBuffer@12@PAVRenderOutput@Cm@2@@Z 10120740 f   GuPCMContactConvexHeightField.obj
 0001:0011f980       ?pcmContactConvexHeightField@Gu@physx@@YA_NABVGeometryUnion@12@0ABVPxTransform@2@1ABUNarrowPhaseParams@12@AAUCache@12@AAVContactBuffer@12@PAVRenderOutput@Cm@2@@Z 10120980 f   GuPCMContactConvexHeightField.obj
 0001:0011fc80       ?PCMContactConvexHeightfield@Gu@physx@@YA_NABUPolygonalData@12@PAVSupportLocal@12@ABT__m128@@ABVPxBounds3@2@ABVPxHeightFieldGeometry@2@ABVPxTransform@2@5MAAVContactBuffer@12@ABVFastVertex2ShapeScaling@Cm@2@_NAAVMultiplePersistentContactManifold@12@PAVRenderOutput@Cm@2@@Z 10120c80 f   GuPCMContactConvexHeightField.obj
 0001:00120090       ??$processTriangleCache@$0BA@@PCMConvexVsHeightfieldContactGenerationCallback@physx@@QAEXAAU?$TriangleCache@$0BA@@Gu@1@@Z 10121090 f i GuPCMContactConvexHeightField.obj
 0001:001200b0       ??$processTriangleCache@$0BA@VPCMConvexVsMeshContactGeneration@Gu@physx@@@PCMMeshContactGeneration@Gu@physx@@QAE_NAAU?$TriangleCache@$0BA@@12@@Z 101210b0 f i GuPCMContactConvexHeightField.obj
 0001:00120150       ??0?$PCMHeightfieldContactGenerationCallback@UPCMConvexVsHeightfieldContactGenerationCallback@physx@@@Gu@physx@@QAE@ABVHeightFieldUtil@12@ABVPxTransform@2@@Z 10121150 f i GuPCMContactConvexHeightField.obj
 0001:001201e0       ??0PCMConvexVsHeightfieldContactGenerationCallback@physx@@QAE@ABT__m128@@0ABUPolygonalData@Gu@1@PAVSupportLocal@41@ABVFastVertex2ShapeScaling@Cm@1@_NABVPsTransformV@aos@shdfnd@1@5ABVPxTransform@1@AAVMultiplePersistentContactManifold@41@AAVContactBuffer@41@AAVHeightFieldUtil@41@PAV?$InlineArray@I$0EEA@VNamedAllocator@shdfnd@physx@@@shdfnd@1@4PAVRenderOutput@71@@Z 101211e0 f i GuPCMContactConvexHeightField.obj
 0001:00120250       ??0PCMConvexVsMeshContactGeneration@Gu@physx@@QAE@ABT__m128@@0ABVPsTransformV@aos@shdfnd@2@1AAVMultiplePersistentContactManifold@12@AAVContactBuffer@12@ABUPolygonalData@12@PAVSupportLocal@12@PAV?$InlineArray@I$0EEA@VNamedAllocator@shdfnd@physx@@@62@ABVFastVertex2ShapeScaling@Cm@2@_N8PAVRenderOutput@Cm@2@@Z 10121250 f i GuPCMContactConvexHeightField.obj
 0001:00120330       ??1?$PCMHeightfieldContactGenerationCallback@UPCMConvexVsHeightfieldContactGenerationCallback@physx@@@Gu@physx@@UAE@XZ 10121330 f i GuPCMContactConvexHeightField.obj
 0001:00120350       ??1PCMConvexVsHeightfieldContactGenerationCallback@physx@@UAE@XZ 10121350 f i GuPCMContactConvexHeightField.obj
 0001:00120370       ??_E?$PCMHeightfieldContactGenerationCallback@UPCMConvexVsHeightfieldContactGenerationCallback@physx@@@Gu@physx@@UAEPAXI@Z 10121370 f i GuPCMContactConvexHeightField.obj
 0001:00120370       ??_G?$PCMHeightfieldContactGenerationCallback@UPCMConvexVsHeightfieldContactGenerationCallback@physx@@@Gu@physx@@UAEPAXI@Z 10121370 f i GuPCMContactConvexHeightField.obj
 0001:001203a0       ??_EPCMConvexVsHeightfieldContactGenerationCallback@physx@@UAEPAXI@Z 101213a0 f i GuPCMContactConvexHeightField.obj
 0001:001203a0       ??_GPCMConvexVsHeightfieldContactGenerationCallback@physx@@UAEPAXI@Z 101213a0 f i GuPCMContactConvexHeightField.obj
 0001:001203e0       ?onEvent@?$PCMHeightfieldContactGenerationCallback@UPCMConvexVsHeightfieldContactGenerationCallback@physx@@@Gu@physx@@UAE_NIPAI@Z 101213e0 f i GuPCMContactConvexHeightField.obj
 0001:001207c0       ?pcmContactBoxMesh@Gu@physx@@YA_NABVGeometryUnion@12@0ABVPxTransform@2@1ABUNarrowPhaseParams@12@AAUCache@12@AAVContactBuffer@12@PAVRenderOutput@Cm@2@@Z 101217c0 f   GuPCMContactConvexMesh.obj
 0001:001209e0       ?pcmContactConvexMesh@Gu@physx@@YA_NABVGeometryUnion@12@0ABVPxTransform@2@1ABUNarrowPhaseParams@12@AAUCache@12@AAVContactBuffer@12@PAVRenderOutput@Cm@2@@Z 101219e0 f   GuPCMContactConvexMesh.obj
 0001:00120ce0       ?PCMContactConvexMesh@Gu@physx@@YA_NABUPolygonalData@12@PAVSupportLocal@12@ABT__m128@@ABVPxBounds3@2@ABUPxTriangleMeshGeometryLL@2@ABVPxTransform@2@5MAAVContactBuffer@12@ABVFastVertex2ShapeScaling@Cm@2@7_N8AAVMultiplePersistentContactManifold@12@PAVRenderOutput@Cm@2@@Z 10121ce0 f   GuPCMContactConvexMesh.obj
 0001:00121100       ??$processTriangleCache@$0BA@@PCMConvexVsMeshContactGenerationCallback@physx@@QAEXAAU?$TriangleCache@$0BA@@Gu@1@@Z 10122100 f i GuPCMContactConvexMesh.obj
 0001:00121120       ??0?$PCMMeshContactGenerationCallback@UPCMConvexVsMeshContactGenerationCallback@physx@@@Gu@physx@@QAE@ABVFastVertex2ShapeScaling@Cm@2@PBE_N@Z 10122120 f i GuPCMContactConvexMesh.obj
 0001:00121170       ??0PCMConvexVsMeshContactGenerationCallback@physx@@QAE@ABT__m128@@0ABVPsTransformV@aos@shdfnd@1@1AAVMultiplePersistentContactManifold@Gu@1@AAVContactBuffer@71@ABUPolygonalData@71@PAVSupportLocal@71@PAV?$InlineArray@I$0EEA@VNamedAllocator@shdfnd@physx@@@51@ABVFastVertex2ShapeScaling@Cm@1@_N7PBE88ABVBoxPadded@71@PAVRenderOutput@Cm@1@@Z 10122170 f i GuPCMContactConvexMesh.obj
 0001:001211f0       ??1?$PCMMeshContactGenerationCallback@UPCMConvexVsMeshContactGenerationCallback@physx@@@Gu@physx@@UAE@XZ 101221f0 f i GuPCMContactConvexMesh.obj
 0001:00121210       ??1PCMConvexVsMeshContactGenerationCallback@physx@@UAE@XZ 10122210 f i GuPCMContactConvexMesh.obj
 0001:00121230       ??_E?$PCMMeshContactGenerationCallback@UPCMConvexVsMeshContactGenerationCallback@physx@@@Gu@physx@@UAEPAXI@Z 10122230 f i GuPCMContactConvexMesh.obj
 0001:00121230       ??_G?$PCMMeshContactGenerationCallback@UPCMConvexVsMeshContactGenerationCallback@physx@@@Gu@physx@@UAEPAXI@Z 10122230 f i GuPCMContactConvexMesh.obj
 0001:00121270       ??_GPCMConvexVsMeshContactGenerationCallback@physx@@UAEPAXI@Z 10122270 f i GuPCMContactConvexMesh.obj
 0001:00121270       ??_EPCMConvexVsMeshContactGenerationCallback@physx@@UAEPAXI@Z 10122270 f i GuPCMContactConvexMesh.obj
 0001:001212b0       ?doTest@PCMConvexVsMeshContactGenerationCallback@physx@@QAEHABVPxVec3@2@00@Z 101222b0 f i GuPCMContactConvexMesh.obj
 0001:001212e0       ?flushCache@?$PCMMeshContactGenerationCallback@UPCMConvexVsMeshContactGenerationCallback@physx@@@Gu@physx@@QAEXXZ 101222e0 f i GuPCMContactConvexMesh.obj
 0001:00121320       ?processHit@?$PCMMeshContactGenerationCallback@UPCMConvexVsMeshContactGenerationCallback@physx@@@Gu@physx@@UAE_NABUPxRaycastHit@3@ABVPxVec3@3@11AAMPBI@Z 10122320 f i GuPCMContactConvexMesh.obj
 0001:001214c0       ?generateFullContactManifold@Gu@physx@@YA_NAAUPolygonalData@12@0PAVSupportLocal@12@1PAVPersistentContact@12@AAIABT__m128@@444MM_NPAVRenderOutput@Cm@2@M@Z 101224c0 f   GuPCMContactGenBoxConvex.obj
 0001:00121cc0       ?addGJKEPAContacts@Gu@physx@@YA_NPBUGjkConvex@12@0ABVPsMatTransformV@aos@shdfnd@2@W4GjkStatus@12@PAVPersistentContact@12@T__m128@@4AAUGjkOutput@12@AAVPersistentContactManifold@12@@Z 10122cc0 f   GuPCMContactGenBoxConvex.obj
 0001:00121f00       ?computeMTD@Gu@physx@@YA_NAAUPolygonalData@12@0PAVSupportLocal@12@1AAT__m128@@2@Z 10122f00 f   GuPCMContactGenBoxConvex.obj
 0001:00122130       ?buildPartialHull@Gu@physx@@YAXABUPolygonalData@12@PAVSupportLocal@12@AAVSeparatingAxes@12@ABT__m128@@3@Z 10123130 f   GuPCMContactGenBoxConvex.obj
 0001:00123400       ?generatedContacts@Gu@physx@@YAXAAUPolygonalData@12@0ABUHullPolygonData@12@1PAVSupportLocal@12@2ABVPsMatTransformV@aos@shdfnd@2@PAVPersistentContact@12@AAIABT__m128@@PAVRenderOutput@Cm@2@@Z 10124400 f   GuPCMContactGenBoxConvex.obj
 0001:00124380       ??$PX_UNUSED@UPolygonalData@Gu@physx@@@@YAXABUPolygonalData@Gu@physx@@@Z 10125380 f i GuPCMContactGenBoxConvex.obj
 0001:00124390       ??4PxPlane@physx@@QAEAAV01@ABV01@@Z 10125390 f i GuPCMContactGenBoxConvex.obj
 0001:001243c0       ?getPolygonIndex@Gu@physx@@YAHABUPolygonalData@12@PAVSupportLocal@12@ABT__m128@@@Z 101253c0 f i GuPCMContactGenBoxConvex.obj
 0001:00124850       ?getWitnessPolygonIndex@Gu@physx@@YAIABUPolygonalData@12@PAVSupportLocal@12@ABT__m128@@2M@Z 10125850 f i GuPCMContactGenBoxConvex.obj
 0001:00124bf0       ?signed2DTriArea@Gu@physx@@YA?AT__m128@@ABT3@00@Z 10125bf0 f i GuPCMContactGenBoxConvex.obj
 0001:00124cf0       ?generateFullContactManifold@Gu@physx@@YA_NABVCapsuleV@12@AAUPolygonalData@12@PAVSupportLocal@12@ABVPsMatTransformV@aos@shdfnd@2@PAVPersistentContact@12@AAIABT__m128@@AAT__m128@@6M_NM@Z 10125cf0 f   GuPCMContactGenSphereCapsule.obj
 0001:00124f00       ?generateCapsuleBoxFullContactManifold@Gu@physx@@YA_NABVCapsuleV@12@AAUPolygonalData@12@PAVSupportLocal@12@ABVPsMatTransformV@aos@shdfnd@2@PAVPersistentContact@12@AAIABT__m128@@AAT__m128@@6M_NM@Z 10125f00 f   GuPCMContactGenSphereCapsule.obj
 0001:001250a0       ?computeMTD@Gu@physx@@YA_NABVCapsuleV@12@AAUPolygonalData@12@PAVSupportLocal@12@AAT__m128@@3@Z 101260a0 f   GuPCMContactGenSphereCapsule.obj
 0001:00125130       ?generateSphereFullContactManifold@Gu@physx@@YA_NABVCapsuleV@12@AAUPolygonalData@12@PAVSupportLocal@12@PAVPersistentContact@12@AAIABT__m128@@AAT7@_N@Z 10126130 f   GuPCMContactGenSphereCapsule.obj
 0001:00125830       ?generatedCapsuleBoxFaceContacts@Gu@physx@@YAXABVCapsuleV@12@AAUPolygonalData@12@ABUHullPolygonData@12@PAVSupportLocal@12@ABVPsMatTransformV@aos@shdfnd@2@PAVPersistentContact@12@AAIABT__m128@@7@Z 10126830 f   GuPCMContactGenSphereCapsule.obj
 0001:001265f0       ?generatedContactsEEContacts@Gu@physx@@YAXABVCapsuleV@12@AAUPolygonalData@12@ABUHullPolygonData@12@PAVSupportLocal@12@ABVPsMatTransformV@aos@shdfnd@2@PAVPersistentContact@12@AAIABT__m128@@7@Z 101275f0 f   GuPCMContactGenSphereCapsule.obj
 0001:00126700       ?BAndNot@aos@shdfnd@physx@@YA?AT__m128@@T4@0@Z 10127700 f i GuPCMContactGenSphereCapsule.obj
 0001:00126740       ?intersectSegmentPolyhedron@Gu@physx@@YA_NABT__m128@@0ABUPolygonalData@12@AAT3@2@Z 10127740 f i GuPCMContactGenSphereCapsule.obj
 0001:00126a40       ?testPolyDataAxis@Gu@physx@@YA_NABVCapsuleV@12@ABUPolygonalData@12@PAVSupportLocal@12@ABT__m128@@AAT6@4@Z 10127a40 f i GuPCMContactGenSphereCapsule.obj
 0001:00126e00       ?pcmContactPlaneBox@Gu@physx@@YA_NABVGeometryUnion@12@0ABVPxTransform@2@1ABUNarrowPhaseParams@12@AAUCache@12@AAVContactBuffer@12@PAVRenderOutput@Cm@2@@Z 10127e00 f   GuPCMContactPlaneBox.obj
 0001:00127d70       ?invalidate_PrimitivesPlane@PersistentContactManifold@Gu@physx@@QAEIABVPsTransformV@aos@shdfnd@3@ABT__m128@@1@Z 10128d70 f i GuPCMContactPlaneBox.obj
 0001:00127e70       ?pcmContactPlaneCapsule@Gu@physx@@YA_NABVGeometryUnion@12@0ABVPxTransform@2@1ABUNarrowPhaseParams@12@AAUCache@12@AAVContactBuffer@12@PAVRenderOutput@Cm@2@@Z 10128e70 f   GuPCMContactPlaneCapsule.obj
 0001:00128440       ?pcmContactPlaneConvex@Gu@physx@@YA_NABVGeometryUnion@12@0ABVPxTransform@2@1ABUNarrowPhaseParams@12@AAUCache@12@AAVContactBuffer@12@PAVRenderOutput@Cm@2@@Z 10129440 f   GuPCMContactPlaneConvex.obj
 0001:001289d0       ?ConstructVertex2ShapeMatrix@Gu@physx@@YA?AUMat33V@aos@shdfnd@2@ABT__m128@@0@Z 101299d0 f i GuPCMContactPlaneConvex.obj
 0001:00128ad0       ?pcmContactSphereBox@Gu@physx@@YA_NABVGeometryUnion@12@0ABVPxTransform@2@1ABUNarrowPhaseParams@12@AAUCache@12@AAVContactBuffer@12@PAVRenderOutput@Cm@2@@Z 10129ad0 f   GuPCMContactSphereBox.obj
 0001:00129320       ?BAllTrue3@aos@shdfnd@physx@@YA?AT__m128@@T4@@Z 1012a320 f i GuPCMContactSphereBox.obj
 0001:001293a0       ?V3Clamp@aos@shdfnd@physx@@YA?AT__m128@@T4@00@Z 1012a3a0 f i GuPCMContactSphereBox.obj
 0001:001294d0       ?pcmContactSphereCapsule@Gu@physx@@YA_NABVGeometryUnion@12@0ABVPxTransform@2@1ABUNarrowPhaseParams@12@AAUCache@12@AAVContactBuffer@12@PAVRenderOutput@Cm@2@@Z 1012a4d0 f   GuPCMContactSphereCapsule.obj
 0001:00129940       ?PxcDistancePointSegmentSquared@Gu@physx@@YA?AT__m128@@ABT3@00AAT3@@Z 1012a940 f i GuPCMContactSphereCapsule.obj
 0001:00129ae0       ?pcmContactSphereConvex@Gu@physx@@YA_NABVGeometryUnion@12@0ABVPxTransform@2@1ABUNarrowPhaseParams@12@AAUCache@12@AAVContactBuffer@12@PAVRenderOutput@Cm@2@@Z 1012aae0 f   GuPCMContactSphereConvex.obj
 0001:0012a8b0       ?getContactPoint@PersistentContactManifold@Gu@physx@@QAEAAVPersistentContact@23@I@Z 1012b8b0 f i GuPCMContactSphereConvex.obj
 0001:0012a910       ?pcmContactSphereHeightField@Gu@physx@@YA_NABVGeometryUnion@12@0ABVPxTransform@2@1ABUNarrowPhaseParams@12@AAUCache@12@AAVContactBuffer@12@PAVRenderOutput@Cm@2@@Z 1012b910 f   GuPCMContactSphereHeightField.obj
 0001:0012adc0       ??$processTriangleCache@$0BA@@PCMSphereVsHeightfieldContactGenerationCallback@physx@@QAEXAAU?$TriangleCache@$0BA@@Gu@1@@Z 1012bdc0 f i GuPCMContactSphereHeightField.obj
 0001:0012ade0       ??$processTriangleCache@$0BA@VPCMSphereVsMeshContactGeneration@Gu@physx@@@PCMMeshContactGeneration@Gu@physx@@QAE_NAAU?$TriangleCache@$0BA@@12@@Z 1012bde0 f i GuPCMContactSphereHeightField.obj
 0001:0012ae80       ??0?$Array@USortedTriangle@Gu@physx@@V?$InlineAllocator@$0IAA@VNamedAllocator@shdfnd@physx@@@shdfnd@3@@shdfnd@physx@@QAE@ABV?$InlineAllocator@$0IAA@VNamedAllocator@shdfnd@physx@@@12@@Z 1012be80 f i GuPCMContactSphereHeightField.obj
 0001:0012aed0       ??0?$InlineAllocator@$0IAA@VNamedAllocator@shdfnd@physx@@@shdfnd@physx@@QAE@ABV012@@Z 1012bed0 f i GuPCMContactSphereHeightField.obj
 0001:0012af00       ??0?$InlineAllocator@$0IAA@VNamedAllocator@shdfnd@physx@@@shdfnd@physx@@QAE@ABVNamedAllocator@12@@Z 1012bf00 f i GuPCMContactSphereHeightField.obj
 0001:0012af30       ??0?$InlineArray@USortedTriangle@Gu@physx@@$0EA@VNamedAllocator@shdfnd@3@@shdfnd@physx@@QAE@ABVNamedAllocator@12@@Z 1012bf30 f i GuPCMContactSphereHeightField.obj
 0001:0012af90       ??0?$PCMHeightfieldContactGenerationCallback@UPCMSphereVsHeightfieldContactGenerationCallback@physx@@@Gu@physx@@QAE@ABVHeightFieldUtil@12@ABVPxTransform@2@@Z 1012bf90 f i GuPCMContactSphereHeightField.obj
 0001:0012b020       ??0PCMSphereVsHeightfieldContactGenerationCallback@physx@@QAE@ABT__m128@@000ABVPsTransformV@aos@shdfnd@1@1ABVPxTransform@1@AAVMultiplePersistentContactManifold@Gu@1@AAVContactBuffer@81@PAV?$InlineArray@I$0EEA@VNamedAllocator@shdfnd@physx@@@51@AAVHeightFieldUtil@81@@Z 1012c020 f i GuPCMContactSphereHeightField.obj
 0001:0012b080       ??0PCMSphereVsMeshContactGeneration@Gu@physx@@QAE@ABT__m128@@000ABVPsTransformV@aos@shdfnd@2@1AAVMultiplePersistentContactManifold@12@AAVContactBuffer@12@PAV?$InlineArray@I$0EEA@VNamedAllocator@shdfnd@physx@@@62@PAVRenderOutput@Cm@2@@Z 1012c080 f i GuPCMContactSphereHeightField.obj
 0001:0012b150       ??1?$Array@USortedTriangle@Gu@physx@@V?$InlineAllocator@$0IAA@VNamedAllocator@shdfnd@physx@@@shdfnd@3@@shdfnd@physx@@QAE@XZ 1012c150 f i GuPCMContactSphereHeightField.obj
 0001:0012b1c0       ??1?$InlineAllocator@$0IAA@VNamedAllocator@shdfnd@physx@@@shdfnd@physx@@QAE@XZ 1012c1c0 f i GuPCMContactSphereHeightField.obj
 0001:0012b1e0       ??1?$InlineArray@USortedTriangle@Gu@physx@@$0EA@VNamedAllocator@shdfnd@3@@shdfnd@physx@@QAE@XZ 1012c1e0 f i GuPCMContactSphereHeightField.obj
 0001:0012b200       ??1?$PCMHeightfieldContactGenerationCallback@UPCMSphereVsHeightfieldContactGenerationCallback@physx@@@Gu@physx@@UAE@XZ 1012c200 f i GuPCMContactSphereHeightField.obj
 0001:0012b220       ??1PCMSphereVsHeightfieldContactGenerationCallback@physx@@UAE@XZ 1012c220 f i GuPCMContactSphereHeightField.obj
 0001:0012b240       ??1PCMSphereVsMeshContactGeneration@Gu@physx@@QAE@XZ 1012c240 f i GuPCMContactSphereHeightField.obj
 0001:0012b260       ??_G?$PCMHeightfieldContactGenerationCallback@UPCMSphereVsHeightfieldContactGenerationCallback@physx@@@Gu@physx@@UAEPAXI@Z 1012c260 f i GuPCMContactSphereHeightField.obj
 0001:0012b260       ??_E?$PCMHeightfieldContactGenerationCallback@UPCMSphereVsHeightfieldContactGenerationCallback@physx@@@Gu@physx@@UAEPAXI@Z 1012c260 f i GuPCMContactSphereHeightField.obj
 0001:0012b290       ??_EPCMSphereVsHeightfieldContactGenerationCallback@physx@@UAEPAXI@Z 1012c290 f i GuPCMContactSphereHeightField.obj
 0001:0012b290       ??_GPCMSphereVsHeightfieldContactGenerationCallback@physx@@UAEPAXI@Z 1012c290 f i GuPCMContactSphereHeightField.obj
 0001:0012b2d0       ?onEvent@?$PCMHeightfieldContactGenerationCallback@UPCMSphereVsHeightfieldContactGenerationCallback@physx@@@Gu@physx@@UAE_NIPAI@Z 1012c2d0 f i GuPCMContactSphereHeightField.obj
 0001:0012b6b0       ?pcmContactSphereMesh@Gu@physx@@YA_NABVGeometryUnion@12@0ABVPxTransform@2@1ABUNarrowPhaseParams@12@AAUCache@12@AAVContactBuffer@12@PAVRenderOutput@Cm@2@@Z 1012c6b0 f   GuPCMContactSphereMesh.obj
 0001:0012bbd0       ??$processTriangleCache@$0BA@@PCMSphereVsMeshContactGenerationCallback@physx@@QAEXAAU?$TriangleCache@$0BA@@Gu@1@@Z 1012cbd0 f i GuPCMContactSphereMesh.obj
 0001:0012bbf0       ??0?$PCMMeshContactGenerationCallback@UPCMSphereVsMeshContactGenerationCallback@physx@@@Gu@physx@@QAE@ABVFastVertex2ShapeScaling@Cm@2@PBE_N@Z 1012cbf0 f i GuPCMContactSphereMesh.obj
 0001:0012bc40       ??0PCMSphereVsMeshContactGenerationCallback@physx@@QAE@ABT__m128@@000ABVPsTransformV@aos@shdfnd@1@1AAVMultiplePersistentContactManifold@Gu@1@AAVContactBuffer@71@PBEABVFastVertex2ShapeScaling@Cm@1@_NPAV?$InlineArray@I$0EEA@VNamedAllocator@shdfnd@physx@@@51@PAVRenderOutput@Cm@1@@Z 1012cc40 f i GuPCMContactSphereMesh.obj
 0001:0012bcb0       ??1?$PCMMeshContactGenerationCallback@UPCMSphereVsMeshContactGenerationCallback@physx@@@Gu@physx@@UAE@XZ 1012ccb0 f i GuPCMContactSphereMesh.obj
 0001:0012bcd0       ??1PCMSphereVsMeshContactGenerationCallback@physx@@UAE@XZ 1012ccd0 f i GuPCMContactSphereMesh.obj
 0001:0012bd00       ??_E?$PCMMeshContactGenerationCallback@UPCMSphereVsMeshContactGenerationCallback@physx@@@Gu@physx@@UAEPAXI@Z 1012cd00 f i GuPCMContactSphereMesh.obj
 0001:0012bd00       ??_G?$PCMMeshContactGenerationCallback@UPCMSphereVsMeshContactGenerationCallback@physx@@@Gu@physx@@UAEPAXI@Z 1012cd00 f i GuPCMContactSphereMesh.obj
 0001:0012bd40       ??_GPCMSphereVsMeshContactGenerationCallback@physx@@UAEPAXI@Z 1012cd40 f i GuPCMContactSphereMesh.obj
 0001:0012bd40       ??_EPCMSphereVsMeshContactGenerationCallback@physx@@UAEPAXI@Z 1012cd40 f i GuPCMContactSphereMesh.obj
 0001:0012bd80       ?doTest@PCMSphereVsMeshContactGenerationCallback@physx@@QAE_NABVPxVec3@2@00@Z 1012cd80 f i GuPCMContactSphereMesh.obj
 0001:0012bd90       ?flushCache@?$PCMMeshContactGenerationCallback@UPCMSphereVsMeshContactGenerationCallback@physx@@@Gu@physx@@QAEXXZ 1012cd90 f i GuPCMContactSphereMesh.obj
 0001:0012bdd0       ?processHit@?$PCMMeshContactGenerationCallback@UPCMSphereVsMeshContactGenerationCallback@physx@@@Gu@physx@@UAE_NABUPxRaycastHit@3@ABVPxVec3@3@11AAMPBI@Z 1012cdd0 f i GuPCMContactSphereMesh.obj
 0001:0012bf70       ?pcmContactSpherePlane@Gu@physx@@YA_NABVGeometryUnion@12@0ABVPxTransform@2@1ABUNarrowPhaseParams@12@AAUCache@12@AAVContactBuffer@12@PAVRenderOutput@Cm@2@@Z 1012cf70 f   GuPCMContactSpherePlane.obj
 0001:0012c1c0       ?pcmContactSphereSphere@Gu@physx@@YA_NABVGeometryUnion@12@0ABVPxTransform@2@1ABUNarrowPhaseParams@12@AAUCache@12@AAVContactBuffer@12@PAVRenderOutput@Cm@2@@Z 1012d1c0 f   GuPCMContactSphereSphere.obj
 0001:0012c570       ??0PCMPolygonalBox@Gu@physx@@QAE@ABVPxVec3@2@@Z 1012d570 f   GuPCMShapeConvex.obj
 0001:0012cd50       ?getPolygonalData@PCMPolygonalBox@Gu@physx@@QBEXPIAUPolygonalData@23@@Z 1012dd50 f   GuPCMShapeConvex.obj
 0001:0012ce30       ?getPCMConvexData@Gu@physx@@YAXABVConvexHullV@12@_NAAUPolygonalData@12@@Z 1012de30 f   GuPCMShapeConvex.obj
 0001:0012cec0       ?getPCMConvexData@Gu@physx@@YA_NABVGeometryUnion@12@AAVFastVertex2ShapeScaling@Cm@2@AAVPxBounds3@2@AAUPolygonalData@12@@Z 1012dec0 f   GuPCMShapeConvex.obj
 0001:0012d1f0       ?getVerticesByEdges16@ConvexHullData@Gu@physx@@QBEPBGXZ 1012e1f0 f i GuPCMShapeConvex.obj
 0001:0012d270       ?generateTriangleFullContactManifold@PCMConvexVsMeshContactGeneration@Gu@physx@@QAE_NAAVTriangleV@23@IPBIEABUPolygonalData@23@PAV?$SupportLocalImpl@VTriangleV@Gu@physx@@@23@PAVSupportLocal@23@PAVMeshPersistentContact@23@AAIABT__m128@@AAT9@@Z 1012e270 f   GuPCMTriangleContactGen.obj
 0001:0012d700       ?generatePolyDataContactManifold@PCMConvexVsMeshContactGeneration@Gu@physx@@QAE_NAAVTriangleV@23@IIEPAVMeshPersistentContact@23@AAIABT__m128@@AAT6@@Z 1012e700 f   GuPCMTriangleContactGen.obj
 0001:0012d7f0       ?generateTriangleFullContactManifold@PCMConvexVsMeshContactGeneration@Gu@physx@@SA_NAAVTriangleV@23@IEABUPolygonalData@23@PAV?$SupportLocalImpl@VTriangleV@Gu@physx@@@23@PAVSupportLocal@23@PAVMeshPersistentContact@23@AAIABT__m128@@AAT9@PAVRenderOutput@Cm@3@@Z 1012e7f0 f   GuPCMTriangleContactGen.obj
 0001:00130670       ??$PX_UNUSED@E@@YAXABE@Z   10131670 f i GuPCMTriangleContactGen.obj
 0001:00130680       ??$PX_UNUSED@PAV?$SupportLocalImpl@VTriangleV@Gu@physx@@@Gu@physx@@@@YAXABQAV?$SupportLocalImpl@VTriangleV@Gu@physx@@@Gu@physx@@@Z 10131680 f i GuPCMTriangleContactGen.obj
 0001:00130690       ?FRsqrtFast@aos@shdfnd@physx@@YA?AT__m128@@T4@@Z 10131690 f i GuPCMTriangleContactGen.obj
 0001:00130710       ?V3AllGrtr@aos@shdfnd@physx@@YAIT__m128@@0@Z 10131710 f i GuPCMTriangleContactGen.obj
 0001:001307e0       ?V3LengthSq@aos@shdfnd@physx@@YA?AT__m128@@T4@@Z 101317e0 f i GuPCMTriangleContactGen.obj
 0001:00130860       ?findRotationMatrixFromZAxis@Gu@physx@@YA?AUMat33V@aos@shdfnd@2@ABT__m128@@@Z 10131860 f   GuPersistentContactManifold.obj
 0001:00131080       ?replaceManifoldPoint@PersistentContactManifold@Gu@physx@@QAE_NABT__m128@@000@Z 10132080 f   GuPersistentContactManifold.obj
 0001:00131200       ?addManifoldPoint@PersistentContactManifold@Gu@physx@@QAEIABT__m128@@000@Z 10132200 f   GuPersistentContactManifold.obj
 0001:001312d0       ?addManifoldPoint2@PersistentContactManifold@Gu@physx@@QAEIABT__m128@@000@Z 101322d0 f   GuPersistentContactManifold.obj
 0001:001313e0       ?addBatchManifoldContactsCluster@PersistentContactManifold@Gu@physx@@QAEXPBVPersistentContact@23@I@Z 101323e0 f   GuPersistentContactManifold.obj
 0001:00131490       ?addBatchManifoldContacts2@PersistentContactManifold@Gu@physx@@QAEXPBVPersistentContact@23@I@Z 10132490 f   GuPersistentContactManifold.obj
 0001:00131540       ?addBatchManifoldContacts@PersistentContactManifold@Gu@physx@@QAEXPBVPersistentContact@23@IM@Z 10132540 f   GuPersistentContactManifold.obj
 0001:00131600       ?reduceBatchContactsCluster@PersistentContactManifold@Gu@physx@@QAEXPBVPersistentContact@23@I@Z 10132600 f   GuPersistentContactManifold.obj
 0001:00131e00       ?reduceBatchContacts2@PersistentContactManifold@Gu@physx@@QAEXPBVPersistentContact@23@I@Z 10132e00 f   GuPersistentContactManifold.obj
 0001:001321d0       ?reduceBatchContacts@PersistentContactManifold@Gu@physx@@QAEXPBVPersistentContact@23@IM@Z 101331d0 f   GuPersistentContactManifold.obj
 0001:00132af0       ?reduceContactsForPCM@PersistentContactManifold@Gu@physx@@QAEIABT__m128@@00@Z 10133af0 f   GuPersistentContactManifold.obj
 0001:00133100       ?reduceContactSegment@PersistentContactManifold@Gu@physx@@QAEIABT__m128@@00@Z 10134100 f   GuPersistentContactManifold.obj
 0001:00133290       ?addManifoldContactsToContactBuffer@PersistentContactManifold@Gu@physx@@QAEXAAVContactBuffer@23@ABT__m128@@ABVPsMatTransformV@aos@shdfnd@3@@Z 10134290 f   GuPersistentContactManifold.obj
 0001:001334d0       ?addManifoldContactsToContactBuffer@PersistentContactManifold@Gu@physx@@QAEXAAVContactBuffer@23@ABT__m128@@ABVPsTransformV@aos@shdfnd@3@1@Z 101344d0 f   GuPersistentContactManifold.obj
 0001:00133700       ?addManifoldContactsToContactBuffer@PersistentContactManifold@Gu@physx@@QAEXAAVContactBuffer@23@ABT__m128@@1ABVPsTransformV@aos@shdfnd@3@11@Z 10134700 f   GuPersistentContactManifold.obj
 0001:00133890       ?recordWarmStart@PersistentContactManifold@Gu@physx@@QAEXPAE0AAE@Z 10134890 f   GuPersistentContactManifold.obj
 0001:00133900       ?setWarmStart@PersistentContactManifold@Gu@physx@@QAEXPBE0E@Z 10134900 f   GuPersistentContactManifold.obj
 0001:00133970       ?drawManifold@PersistentContactManifold@Gu@physx@@QAEXAAVRenderOutput@Cm@3@ABVPsTransformV@aos@shdfnd@3@1@Z 10134970 f   GuPersistentContactManifold.obj
 0001:00133a10       ?drawManifold@PersistentContactManifold@Gu@physx@@QAEXAAVRenderOutput@Cm@3@ABVPsTransformV@aos@shdfnd@3@1ABT__m128@@@Z 10134a10 f   GuPersistentContactManifold.obj
 0001:00133ab0       ?drawManifold@PersistentContactManifold@Gu@physx@@QAEXABVPersistentContact@23@AAVRenderOutput@Cm@3@ABVPsTransformV@aos@shdfnd@3@2@Z 10134ab0 f   GuPersistentContactManifold.obj
 0001:00133af0       ?drawPoint@PersistentContactManifold@Gu@physx@@SAXAAVRenderOutput@Cm@3@ABT__m128@@MI@Z 10134af0 f   GuPersistentContactManifold.obj
 0001:00133c90       ?drawLine@PersistentContactManifold@Gu@physx@@SAXAAVRenderOutput@Cm@3@ABT__m128@@1I@Z 10134c90 f   GuPersistentContactManifold.obj
 0001:00133d30       ?drawTriangle@PersistentContactManifold@Gu@physx@@SAXAAVRenderOutput@Cm@3@ABT__m128@@11I@Z 10134d30 f   GuPersistentContactManifold.obj
 0001:00133e00       ?drawPolygon@PersistentContactManifold@Gu@physx@@SAXAAVRenderOutput@Cm@3@ABVPsTransformV@aos@shdfnd@3@PAT__m128@@II@Z 10134e00 f   GuPersistentContactManifold.obj
 0001:00133eb0       ?drawPolygon@PersistentContactManifold@Gu@physx@@SAXAAVRenderOutput@Cm@3@ABVPsMatTransformV@aos@shdfnd@3@PAT__m128@@II@Z 10134eb0 f   GuPersistentContactManifold.obj
 0001:00133f60       ?reduceBatchContactsConvex@SinglePersistentContactManifold@Gu@physx@@QAE?AT__m128@@PBVMeshPersistentContact@23@IAAUPCMContactPatch@23@@Z 10134f60 f   GuPersistentContactManifold.obj
 0001:00134890       ?reduceBatchContactsSphere@SinglePersistentContactManifold@Gu@physx@@QAE?AT__m128@@PBVMeshPersistentContact@23@IAAUPCMContactPatch@23@@Z 10135890 f   GuPersistentContactManifold.obj
 0001:001349c0       ?reduceBatchContactsCapsule@SinglePersistentContactManifold@Gu@physx@@QAE?AT__m128@@PBVMeshPersistentContact@23@IAAUPCMContactPatch@23@@Z 101359c0 f   GuPersistentContactManifold.obj
 0001:00134db0       ?addBatchManifoldContactsConvex@SinglePersistentContactManifold@Gu@physx@@QAE?AT__m128@@PBVMeshPersistentContact@23@IAAUPCMContactPatch@23@ABT4@@Z 10135db0 f   GuPersistentContactManifold.obj
 0001:00134eb0       ?addBatchManifoldContactsSphere@SinglePersistentContactManifold@Gu@physx@@QAE?AT__m128@@PBVMeshPersistentContact@23@IAAUPCMContactPatch@23@ABT4@@Z 10135eb0 f   GuPersistentContactManifold.obj
 0001:00134f20       ?addBatchManifoldContactsCapsule@SinglePersistentContactManifold@Gu@physx@@QAE?AT__m128@@PBVMeshPersistentContact@23@IAAUPCMContactPatch@23@ABT4@@Z 10135f20 f   GuPersistentContactManifold.obj
 0001:00135020       ?reduceContacts@SinglePersistentContactManifold@Gu@physx@@SAIPAVMeshPersistentContact@23@I@Z 10136020 f   GuPersistentContactManifold.obj
 0001:00135880       ?refreshContactPoints@SinglePersistentContactManifold@Gu@physx@@QAE?AT__m128@@ABVPsMatTransformV@aos@shdfnd@3@ABT4@1@Z 10136880 f   GuPersistentContactManifold.obj
 0001:00135ab0       ?drawManifold@SinglePersistentContactManifold@Gu@physx@@QAEXAAVRenderOutput@Cm@3@ABVPsTransformV@aos@shdfnd@3@1@Z 10136ab0 f   GuPersistentContactManifold.obj
 0001:00135b50       ?addManifoldContactPoints@MultiplePersistentContactManifold@Gu@physx@@QAEXPAVMeshPersistentContact@23@IPAPAUPCMContactPatch@23@IABT__m128@@2E@Z 10136b50 f   GuPersistentContactManifold.obj
 0001:00136100       ?addManifoldContactsToContactBuffer@MultiplePersistentContactManifold@Gu@physx@@QAE_NAAVContactBuffer@23@ABVPsTransformV@aos@shdfnd@3@@Z 10137100 f   GuPersistentContactManifold.obj
 0001:00136360       ?addManifoldContactsToContactBuffer@MultiplePersistentContactManifold@Gu@physx@@QAE_NAAVContactBuffer@23@ABVPsTransformV@aos@shdfnd@3@1ABT__m128@@@Z 10137360 f   GuPersistentContactManifold.obj
 0001:00136600       ?drawManifold@MultiplePersistentContactManifold@Gu@physx@@QAEXAAVRenderOutput@Cm@3@ABVPsTransformV@aos@shdfnd@3@1@Z 10137600 f   GuPersistentContactManifold.obj
 0001:00136660       ?fromBuffer@MultiplePersistentContactManifold@Gu@physx@@QAEXPIAE@Z 10137660 f   GuPersistentContactManifold.obj
 0001:00136940       ?drawLine@MultiplePersistentContactManifold@Gu@physx@@SAXAAVRenderOutput@Cm@3@ABT__m128@@1I@Z 10137940 f   GuPersistentContactManifold.obj
 0001:001369e0       ?drawLine@MultiplePersistentContactManifold@Gu@physx@@SAXAAVRenderOutput@Cm@3@VPxVec3@3@1I@Z 101379e0 f   GuPersistentContactManifold.obj
 0001:00136a40       ?drawPoint@MultiplePersistentContactManifold@Gu@physx@@SAXAAVRenderOutput@Cm@3@ABT__m128@@MI@Z 10137a40 f   GuPersistentContactManifold.obj
 0001:00136be0       ?drawPolygon@MultiplePersistentContactManifold@Gu@physx@@SAXAAVRenderOutput@Cm@3@ABVPsTransformV@aos@shdfnd@3@PAT__m128@@II@Z 10137be0 f   GuPersistentContactManifold.obj
 0001:00136c90       ?addManifoldPoint@Gu@physx@@YAXPAVPersistentContact@12@AAVPersistentContactManifold@12@AAUGjkOutput@12@ABVPsMatTransformV@aos@shdfnd@2@T__m128@@@Z 10137c90 f   GuPersistentContactManifold.obj
 0001:001385f0       ?BTFTT@aos@shdfnd@physx@@YA?AT__m128@@XZ 101395f0 f i GuPersistentContactManifold.obj
 0001:00138630       ?V3SetY@aos@shdfnd@physx@@YA?AT__m128@@T4@0@Z 10139630 f i GuPersistentContactManifold.obj
 0001:00138710       ?getContactPoint@SinglePersistentContactManifold@Gu@physx@@QAEAAVMeshPersistentContact@23@I@Z 10139710 f i GuPersistentContactManifold.obj
 0001:00138770       ?getLocalNormal@SinglePersistentContactManifold@Gu@physx@@QAE?AT__m128@@XZ 10139770 f i GuPersistentContactManifold.obj
 0001:00138820       ?getNumContacts@SinglePersistentContactManifold@Gu@physx@@QBEIXZ 10139820 f i GuPersistentContactManifold.obj
 0001:00138840       ?getWorldNormal@SinglePersistentContactManifold@Gu@physx@@QAE?AT__m128@@ABVPsTransformV@aos@shdfnd@3@@Z 10139840 f i GuPersistentContactManifold.obj
 0001:00138900       ?removeContactPoint@SinglePersistentContactManifold@Gu@physx@@QAEXI@Z 10139900 f i GuPersistentContactManifold.obj
 0001:001389a0       ?sweepBoxBox@Gu@physx@@YA_NABVBox@12@0ABVPxVec3@2@MV?$PxFlags@W4Enum@PxHitFlag@physx@@G@2@AAUPxSweepHit@2@@Z 101399a0 f   GuSweepBoxBox.obj
 0001:001391e0       ?sweepBoxSphere@Gu@physx@@YA_NABVBox@12@MABVPxVec3@2@1MAAMAAV42@V?$PxFlags@W4Enum@PxHitFlag@physx@@G@2@@Z 1013a1e0 f   GuSweepBoxSphere.obj
 0001:00139700       ?sweepBoxTriangle@Gu@physx@@YA_NABVPxTriangle@2@ABVPxBounds3@2@ABVPxVec3@2@2AAV52@3AAM_N@Z 1013a700 f   GuSweepBoxTriangle_FeatureBased.obj
 0001:0013a950       ??0PxTriangle@physx@@QAE@ABV01@@Z 1013b950 f i GuSweepBoxTriangle_FeatureBased.obj
 0001:0013b400       ?triBoxSweepTestBoxSpace@Gu@physx@@YAHABVPxTriangle@2@ABVPxVec3@2@11MAAM_N@Z 1013c400 f   GuSweepBoxTriangle_SAT.obj
 0001:0013b440       ?sweepCapsuleBox@Gu@physx@@YA_NABVCapsule@12@ABVPxTransform@2@ABVPxVec3@2@2MAAV52@AAM3V?$PxFlags@W4Enum@PxHitFlag@physx@@G@2@@Z 1013c440 f   GuSweepCapsuleBox.obj
 0001:0013bf60       ??0?$ScopedPointer@VPxTriangle@physx@@VTempAllocator@shdfnd@2@@shdfnd@physx@@QAE@XZ 1013cf60 f i GuSweepCapsuleBox.obj
 0001:0013bf80       ??1?$ScopedPointer@VPxTriangle@physx@@VTempAllocator@shdfnd@2@@shdfnd@physx@@QAE@XZ 1013cf80 f i GuSweepCapsuleBox.obj
 0001:0013bfb0       ??B?$ScopedPointer@VPxTriangle@physx@@VTempAllocator@shdfnd@2@@shdfnd@physx@@QBEPAVPxTriangle@2@XZ 1013cfb0 f i GuSweepCapsuleBox.obj
 0001:0013c010       ?sweepCapsuleCapsule@Gu@physx@@YA_NABVCapsule@12@0ABVPxVec3@2@MAAMAAV42@3IAAG@Z 1013d010 f   GuSweepCapsuleCapsule.obj
 0001:0013cd30       ??B?$PxFlags@W4Enum@PxHitFlag@physx@@G@physx@@QBEGXZ 1013dd30 f i GuSweepCapsuleCapsule.obj
 0001:0013cda0       ?sweepCapsuleTriangles_Precise@Gu@physx@@YA_NIPIBVPxTriangle@2@ABVCapsule@12@ABVPxVec3@2@MPIBIAAUPxSweepHit@2@AAV52@V?$PxFlags@W4Enum@PxHitFlag@physx@@G@2@_NPBVBoxPadded@12@@Z 1013dda0 f   GuSweepCapsuleTriangle.obj
 0001:0013e260       ?computeSphereTriangleImpactData@Gu@physx@@YA_NAAUPxSweepHit@2@AAVPxVec3@2@IMABV42@22PIBVPxTriangle@2@_N4@Z 1013f260 f i GuSweepCapsuleTriangle.obj
 0001:0013e350       ?getInitIndex@Gu@physx@@YAIPIBII@Z 1013f350 f i GuSweepCapsuleTriangle.obj
 0001:0013e410       ?sweepSphereCapsule@Gu@physx@@YA_NABVSphere@12@ABVCapsule@12@ABVPxVec3@2@MAAMAAV52@4V?$PxFlags@W4Enum@PxHitFlag@physx@@G@2@@Z 1013f410 f   GuSweepSphereCapsule.obj
 0001:0013e700       ?sweepSphereSphere@Gu@physx@@YA_NABVPxVec3@2@M0M0AAMAAV32@@Z 1013f700 f   GuSweepSphereSphere.obj
 0001:0013ea90       ?sweepSphereVSTri@Gu@physx@@YA_NPIBVPxVec3@2@ABV32@1M1AAMAA_N_N@Z 1013fa90 f   GuSweepSphereTriangle.obj
 0001:0013ef60       ?sweepSphereVSQuad@Gu@physx@@YA_NPIBVPxVec3@2@ABV32@1M1AAM@Z 1013ff60 f   GuSweepSphereTriangle.obj
 0001:0013f5c0       ?sweepSphereTriangles@Gu@physx@@YA_NIPIBVPxTriangle@2@ABVPxVec3@2@M1MPIBIAAUPxSweepHit@2@AAV42@_N555@Z 101405c0 f   GuSweepSphereTriangle.obj
 0001:0013fc90       ?computeSphereTriImpactData@Gu@physx@@YAXAAVPxVec3@2@0ABV32@1MABVPxTriangle@2@@Z 10140c90 f   GuSweepTriangleUtils.obj
 0001:0013fd60       ?computeBoxTriImpactData@Gu@physx@@YAXAAVPxVec3@2@0ABV32@1ABVPxTriangle@2@M@Z 10140d60 f   GuSweepTriangleUtils.obj
 0001:0013ffa0       ?computeEdgeEdgeNormal@Gu@physx@@YAXAAVPxVec3@2@ABV32@1111M@Z 10140fa0 f   GuSweepTriangleUtils.obj
 0001:00140560       ??$gjk@U?$LocalConvex@VTriangleV@Gu@physx@@@Gu@physx@@U?$LocalConvex@VBoxV@Gu@physx@@@23@@Gu@physx@@YA?AW4GjkStatus@01@ABU?$LocalConvex@VTriangleV@Gu@physx@@@01@ABU?$LocalConvex@VBoxV@Gu@physx@@@01@ABT__m128@@2AAT5@333@Z 10141560 f i GuSweepTriangleUtils.obj
 0001:00140ee5       __imp_load_?PxGetAssertHandler@physx@@YAAAVPxAssertHandler@1@XZ 10141ee5 f   PhysXFoundation_32:PhysXFoundation_32.dll
 0001:00140eef       ?PxGetAssertHandler@physx@@YAAAVPxAssertHandler@1@XZ 10141eef f   PhysXFoundation_32:PhysXFoundation_32.dll
 0001:00140ef5       __tailMerge_physxfoundation_32_dll 10141ef5     PhysXFoundation_32:PhysXFoundation_32.dll
 0001:00140f06       __imp_load__PxGetFoundation 10141f06 f   PhysXFoundation_32:PhysXFoundation_32.dll
 0001:00140f10       _PxGetFoundation           10141f10 f   PhysXFoundation_32:PhysXFoundation_32.dll
 0001:00140f16       __imp_load_?getAllocator@shdfnd@physx@@YAAAVPxAllocatorCallback@2@XZ 10141f16 f   PhysXFoundation_32:PhysXFoundation_32.dll
 0001:00140f20       ?getAllocator@shdfnd@physx@@YAAAVPxAllocatorCallback@2@XZ 10141f20 f   PhysXFoundation_32:PhysXFoundation_32.dll
 0001:00140f26       __imp_load_?getInstance@Foundation@shdfnd@physx@@SAAAV123@XZ 10141f26 f   PhysXFoundation_32:PhysXFoundation_32.dll
 0001:00140f30       ?getInstance@Foundation@shdfnd@physx@@SAAAV123@XZ 10141f30 f   PhysXFoundation_32:PhysXFoundation_32.dll
 0001:00140f36       __imp_load_?error@Foundation@shdfnd@physx@@QAAXW4Enum@PxErrorCode@3@PBDH1ZZ 10141f36 f   PhysXFoundation_32:PhysXFoundation_32.dll
 0001:00140f40       ?error@Foundation@shdfnd@physx@@QAAXW4Enum@PxErrorCode@3@PBDH1ZZ 10141f40 f   PhysXFoundation_32:PhysXFoundation_32.dll
 0001:00140f46       __imp_load_?PxShortestRotation@physx@@YA?AVPxQuat@1@ABVPxVec3@1@0@Z 10141f46 f   PhysXFoundation_32:PhysXFoundation_32.dll
 0001:00140f50       ?PxShortestRotation@physx@@YA?AVPxQuat@1@ABVPxVec3@1@0@Z 10141f50 f   PhysXFoundation_32:PhysXFoundation_32.dll
 0001:00140f56       __imp_load_??0NamedAllocator@shdfnd@physx@@QAE@PBD@Z 10141f56 f   PhysXFoundation_32:PhysXFoundation_32.dll
 0001:00140f60       ??0NamedAllocator@shdfnd@physx@@QAE@PBD@Z 10141f60 f   PhysXFoundation_32:PhysXFoundation_32.dll
 0001:00140f66       __imp_load_??1NamedAllocator@shdfnd@physx@@QAE@XZ 10141f66 f   PhysXFoundation_32:PhysXFoundation_32.dll
 0001:00140f70       ??1NamedAllocator@shdfnd@physx@@QAE@XZ 10141f70 f   PhysXFoundation_32:PhysXFoundation_32.dll
 0001:00140f76       __imp_load_?allocate@NamedAllocator@shdfnd@physx@@QAEPAXIPBDH@Z 10141f76 f   PhysXFoundation_32:PhysXFoundation_32.dll
 0001:00140f80       ?allocate@NamedAllocator@shdfnd@physx@@QAEPAXIPBDH@Z 10141f80 f   PhysXFoundation_32:PhysXFoundation_32.dll
 0001:00140f86       __imp_load_?deallocate@NamedAllocator@shdfnd@physx@@QAEXPAX@Z 10141f86 f   PhysXFoundation_32:PhysXFoundation_32.dll
 0001:00140f90       ?deallocate@NamedAllocator@shdfnd@physx@@QAEXPAX@Z 10141f90 f   PhysXFoundation_32:PhysXFoundation_32.dll
 0001:00140f96       __imp_load_?vsnprintf@shdfnd@physx@@YAHPADIPBD0@Z 10141f96 f   PhysXFoundation_32:PhysXFoundation_32.dll
 0001:00140fa0       ?vsnprintf@shdfnd@physx@@YAHPADIPBD0@Z 10141fa0 f   PhysXFoundation_32:PhysXFoundation_32.dll
 0001:00140fa6       __imp_load_??0NamedAllocator@shdfnd@physx@@QAE@ABV012@@Z 10141fa6 f   PhysXFoundation_32:PhysXFoundation_32.dll
 0001:00140fb0       ??0NamedAllocator@shdfnd@physx@@QAE@ABV012@@Z 10141fb0 f   PhysXFoundation_32:PhysXFoundation_32.dll
 0001:00140fb6       __imp_load_??0MutexImpl@shdfnd@physx@@QAE@XZ 10141fb6 f   PhysXFoundation_32:PhysXFoundation_32.dll
 0001:00140fc0       ??0MutexImpl@shdfnd@physx@@QAE@XZ 10141fc0 f   PhysXFoundation_32:PhysXFoundation_32.dll
 0001:00140fc6       __imp_load_??1MutexImpl@shdfnd@physx@@QAE@XZ 10141fc6 f   PhysXFoundation_32:PhysXFoundation_32.dll
 0001:00140fd0       ??1MutexImpl@shdfnd@physx@@QAE@XZ 10141fd0 f   PhysXFoundation_32:PhysXFoundation_32.dll
 0001:00140fd6       __imp_load_?lock@MutexImpl@shdfnd@physx@@QAEXXZ 10141fd6 f   PhysXFoundation_32:PhysXFoundation_32.dll
 0001:00140fe0       ?lock@MutexImpl@shdfnd@physx@@QAEXXZ 10141fe0 f   PhysXFoundation_32:PhysXFoundation_32.dll
 0001:00140fe6       __imp_load_?unlock@MutexImpl@shdfnd@physx@@QAEXXZ 10141fe6 f   PhysXFoundation_32:PhysXFoundation_32.dll
 0001:00140ff0       ?unlock@MutexImpl@shdfnd@physx@@QAEXXZ 10141ff0 f   PhysXFoundation_32:PhysXFoundation_32.dll
 0001:00140ff6       __imp_load_?getSize@MutexImpl@shdfnd@physx@@SAIXZ 10141ff6 f   PhysXFoundation_32:PhysXFoundation_32.dll
 0001:00141000       ?getSize@MutexImpl@shdfnd@physx@@SAIXZ 10142000 f   PhysXFoundation_32:PhysXFoundation_32.dll
 0001:00141006       __imp_load_?atomicDecrement@shdfnd@physx@@YAHPCH@Z 10142006 f   PhysXFoundation_32:PhysXFoundation_32.dll
 0001:00141010       ?atomicDecrement@shdfnd@physx@@YAHPCH@Z 10142010 f   PhysXFoundation_32:PhysXFoundation_32.dll
 0001:00141016       __imp_load_?optimizeBoundingBox@shdfnd@physx@@YA?AVPxVec3@2@AAVPxMat33@2@@Z 10142016 f   PhysXFoundation_32:PhysXFoundation_32.dll
 0001:00141020       ?optimizeBoundingBox@shdfnd@physx@@YA?AVPxVec3@2@AAVPxMat33@2@@Z 10142020 f   PhysXFoundation_32:PhysXFoundation_32.dll
 0001:00141026       __imp_load_?allocate@TempAllocator@shdfnd@physx@@QAEPAXIPBDH@Z 10142026 f   PhysXFoundation_32:PhysXFoundation_32.dll
 0001:00141030       ?allocate@TempAllocator@shdfnd@physx@@QAEPAXIPBDH@Z 10142030 f   PhysXFoundation_32:PhysXFoundation_32.dll
 0001:00141036       __imp_load_?deallocate@TempAllocator@shdfnd@physx@@QAEXPAX@Z 10142036 f   PhysXFoundation_32:PhysXFoundation_32.dll
 0001:00141040       ?deallocate@TempAllocator@shdfnd@physx@@QAEXPAX@Z 10142040 f   PhysXFoundation_32:PhysXFoundation_32.dll
 0001:00141046       __imp_load_?atomicIncrement@shdfnd@physx@@YAHPCH@Z 10142046 f   PhysXFoundation_32:PhysXFoundation_32.dll
 0001:00141050       ?atomicIncrement@shdfnd@physx@@YAHPCH@Z 10142050 f   PhysXFoundation_32:PhysXFoundation_32.dll
 0001:00141056       __imp_load__PxGetProfilerCallback 10142056 f   PhysXFoundation_32:PhysXFoundation_32.dll
 0001:00141060       _PxGetProfilerCallback     10142060 f   PhysXFoundation_32:PhysXFoundation_32.dll
 0001:00141066       _FreeLibrary@4             10142066 f   kernel32:KERNEL32.dll
 0001:0014106c       _GetProcAddress@8          1014206c f   kernel32:KERNEL32.dll
 0001:00141072       _LoadLibraryA@4            10142072 f   kernel32:KERNEL32.dll
 0001:00141078       ??$PFromRva@PAP6GHXZ@@YGPAP6GHXZK@Z 10142078 f i Delayimp:delayhlp.obj
 0001:0014108a       ??$PFromRva@PAPAUHINSTANCE__@@@@YGPAPAUHINSTANCE__@@K@Z 1014208a f i Delayimp:delayhlp.obj
 0001:0014109c       ??$PFromRva@PAU_IMAGE_IMPORT_BY_NAME@@@@YGPAU_IMAGE_IMPORT_BY_NAME@@K@Z 1014209c f i Delayimp:delayhlp.obj
 0001:001410ae       ??$PFromRva@PAU_IMAGE_THUNK_DATA32@@@@YGPAU_IMAGE_THUNK_DATA32@@K@Z 101420ae f i Delayimp:delayhlp.obj
 0001:001410c0       ??$PFromRva@PBD@@YGPBDK@Z  101420c0 f i Delayimp:delayhlp.obj
 0001:001410d2       ??$PFromRva@PBUImgDelayDescr@@@@YGPBUImgDelayDescr@@K@Z 101420d2 f i Delayimp:delayhlp.obj
 0001:001410e4       ??$PFromRva@PBU_IMAGE_THUNK_DATA32@@@@YGPBU_IMAGE_THUNK_DATA32@@K@Z 101420e4 f i Delayimp:delayhlp.obj
 0001:001410f6       ?CountOfImports@@YGIPBU_IMAGE_THUNK_DATA32@@@Z 101420f6 f i Delayimp:delayhlp.obj
 0001:00141111       ?DloadAcquireSectionWriteAccess@@YGXXZ 10142111 f i Delayimp:delayhlp.obj
 0001:00141144       ?DloadGetSRWLockFunctionPointers@@YGEXZ 10142144 f i Delayimp:delayhlp.obj
 0001:001411b7       ?DloadLock@@YGXXZ          101421b7 f i Delayimp:delayhlp.obj
 0001:001411f6       ?DloadMakePermanentImageCommit@@YGXPAXK@Z 101421f6 f i Delayimp:delayhlp.obj
 0001:00141265       ?DloadObtainSection@@YGPAXPAK0@Z 10142265 f i Delayimp:delayhlp.obj
 0001:001412e0       ?DloadProtectSection@@YGXKPAK@Z 101422e0 f i Delayimp:delayhlp.obj
 0001:0014134e       ?DloadReleaseSectionWriteAccess@@YGXXZ 1014234e f i Delayimp:delayhlp.obj
 0001:00141384       ?DloadUnlock@@YGXXZ        10142384 f i Delayimp:delayhlp.obj
 0001:001413c5       ?IndexFromPImgThunkData@@YGIPBU_IMAGE_THUNK_DATA32@@0@Z 101423c5 f i Delayimp:delayhlp.obj
 0001:00141525       _HRESULT_FROM_WIN32@4      10142525 f i Delayimp:delayhlp.obj
 0001:0014153d       _ReadAcquire@4             1014253d f i Delayimp:delayhlp.obj
 0001:0014154b       _ReadPointerAcquire@4      1014254b f i Delayimp:delayhlp.obj
 0001:00141559       _WritePointerRelease@8     10142559 f i Delayimp:delayhlp.obj
 0001:0014156a       _WriteRelease@8            1014256a f i Delayimp:delayhlp.obj
 0001:0014157b       __InlineInterlockedCompareExchangePointer@12 1014257b f i Delayimp:delayhlp.obj
 0001:00141591       ___FUnloadDelayLoadedDLL2@4 10142591 f   Delayimp:delayhlp.obj
 0001:00141615       ___HrLoadAllImportsForDll@4 10142615 f   Delayimp:delayhlp.obj
 0001:00141676       ___delayLoadHelper2@8      10142676 f   Delayimp:delayhlp.obj
 0001:001418f0       ??3@YAXPAXI@Z              101428f0 f   LIBCMTD:delete_scalar_size.obj
 0001:00141910       __CRT_RTC_INIT             10142910 f   LIBCMTD:init.obj
 0001:00141920       __CRT_RTC_INITW            10142920 f   LIBCMTD:init.obj
 0001:00141930       __RTC_InitBase             10142930 f   LIBCMTD:init.obj
 0001:00141960       __RTC_Shutdown             10142960 f   LIBCMTD:init.obj
 0001:00141980       __allshl                   10142980 f   LIBCMTD:llshl.obj
 0001:001419a0       __aullshr                  101429a0 f   LIBCMTD:ullshr.obj
 0001:001419c0       __ftoui3                   101429c0 f   LIBCMTD:ftol3.obj
 0001:001419cf       __ftoul3                   101429cf f   LIBCMTD:ftol3.obj
 0001:001419de       __ftol3                    101429de f   LIBCMTD:ftol3.obj
 0001:001419eb       __ftol3_NaN                101429eb f   LIBCMTD:ftol3.obj
 0001:00141a03       __ftol3_work               10142a03 f   LIBCMTD:ftol3.obj
 0001:00141a89       __ftol3_common             10142a89 f   LIBCMTD:ftol3.obj
 0001:00141b4b       __ftol3_arg_error          10142b4b f   LIBCMTD:ftol3.obj
 0001:00141b5d       __ftol3_except             10142b5d f   LIBCMTD:ftol3.obj
 0001:00141ba1       __dtoui3                   10142ba1 f   LIBCMTD:ftol3.obj
 0001:00141bb0       __dtoul3                   10142bb0 f   LIBCMTD:ftol3.obj
 0001:00141bbf       __dtol3                    10142bbf f   LIBCMTD:ftol3.obj
 0001:00141bcc       __dtol3_NaN                10142bcc f   LIBCMTD:ftol3.obj
 0001:00141be9       __dtol3_work               10142be9 f   LIBCMTD:ftol3.obj
 0001:00141cd0       __ultod3                   10142cd0 f   LIBCMTD:ftol3.obj
 0001:00141d10       __ltod3                    10142d10 f   LIBCMTD:ftol3.obj
 0001:00141d40       ?__scrt_initialize_type_info@@YAXXZ 10142d40 f   LIBCMTD:tncleanup.obj
 0001:00141d50       ?__scrt_uninitialize_type_info@@YAXXZ 10142d50 f   LIBCMTD:tncleanup.obj
 0001:00141d70       ??1type_info@@UAE@XZ       10142d70 f   LIBCMTD:std_type_info_static.obj
 0001:00141d90       ??_Gtype_info@@UAEPAXI@Z   10142d90 f i LIBCMTD:std_type_info_static.obj
 0001:00141d90       ??_Etype_info@@UAEPAXI@Z   10142d90 f i LIBCMTD:std_type_info_static.obj
 0001:00141dc0       ??_V@YAXPAXI@Z             10142dc0 f   LIBCMTD:delete_array_size.obj
 0001:00141de0       __chkstk                   10142de0 f   LIBCMTD:chkstk.obj
 0001:00141de0       __alloca_probe             10142de0 f   LIBCMTD:chkstk.obj
 0001:00141e10       ??3@YAXPAX@Z               10142e10 f   LIBCMTD:delete_scalar.obj
 0001:00141e30       ??_V@YAXPAX@Z              10142e30 f   LIBCMTD:delete_array.obj
 0001:00141e50       __ftol2_sse                10142e50 f   LIBCMTD:ftol2.obj
 0001:00141e59       __ftol2_pentium4           10142e59 f   LIBCMTD:ftol2.obj
 0001:00141e6c       __ftol2_sse_excpt          10142e6c f   LIBCMTD:ftol2.obj
 0001:00141e90       __ftol2                    10142e90 f   LIBCMTD:ftol2.obj
 0001:00141f10       __alloca_probe_16          10142f10 f   LIBCMTD:alloca16.obj
 0001:00141f26       __alloca_probe_8           10142f26     LIBCMTD:alloca16.obj
 0001:001423e0       __CRT_INIT@12              101433e0 f   LIBCMTD:dll_dllmain.obj
 0001:00142400       __DllMainCRTStartup@12     10143400 f   LIBCMTD:dll_dllmain.obj
 0001:00142430       @_guard_check_icall_nop@4  10143430 f i LIBCMTD:guard_support.obj
 0001:00142440       _ReadNoFence               10143440 f i LIBCMTD:guard_support.obj
 0001:00142460       _ReadPointerNoFence        10143460 f i LIBCMTD:guard_support.obj
 0001:00142480       __guard_icall_checks_enforced 10143480 f i LIBCMTD:guard_support.obj
 0001:001424b0       ?_RTC_GetErrorFunc@@YAP6AHHPBDH00ZZPBX@Z 101434b0 f   LIBCMTD:userapi.obj
 0001:001424c0       ?_RTC_GetErrorFuncW@@YAP6AHHPB_WH00ZZPBX@Z 101434c0 f   LIBCMTD:userapi.obj
 0001:001424d0       __RTC_GetErrDesc           101434d0 f   LIBCMTD:userapi.obj
 0001:001424f0       __RTC_NumErrors            101434f0 f   LIBCMTD:userapi.obj
 0001:00142500       __RTC_SetErrorFunc         10143500 f   LIBCMTD:userapi.obj
 0001:00142520       __RTC_SetErrorFuncW        10143520 f   LIBCMTD:userapi.obj
 0001:00142540       __RTC_SetErrorType         10143540 f   LIBCMTD:userapi.obj
 0001:00142570       ___isa_available_init      10143570 f   LIBCMTD:cpu_disp.obj
 0001:001428c0       ___security_init_cookie    101438c0 f   LIBCMTD:gs_support.obj
 0001:00142940       _DllMain@12                10143940 f   LIBCMTD:dll_dllmain_stub.obj
 0001:00142950       ___local_stdio_printf_options 10143950 f i LIBCMTD:default_local_stdio_options.obj
 0001:00142960       ___local_stdio_scanf_options 10143960 f i LIBCMTD:default_local_stdio_options.obj
 0001:00142970       ___scrt_initialize_default_local_stdio_options 10143970 f   LIBCMTD:default_local_stdio_options.obj
 0001:001429b0       ??$__crt_fast_decode_pointer@PAP6AXXZ@@YAPAP6AXXZQAP6AXXZ@Z 101439b0 f i LIBCMTD:utility.obj
 0001:001429e0       ??$__crt_fast_encode_pointer@PAP6AXXZ@@YAPAP6AXXZQAP6AXXZ@Z 101439e0 f i LIBCMTD:utility.obj
 0001:00142a10       ?__crt_rotate_pointer_value@@YAIIH@Z 10143a10 f i LIBCMTD:utility.obj
 0001:00142a20       ?configure_argv@__scrt_narrow_argv_policy@@SAHXZ 10143a20 f i LIBCMTD:utility.obj
 0001:00142ad0       ?initialize_environment@__scrt_narrow_environment_policy@@SAHXZ 10143ad0 f i LIBCMTD:utility.obj
 0001:00142b50       _NtCurrentTeb              10143b50 f i LIBCMTD:utility.obj
 0001:00142b60       ___scrt_acquire_startup_lock 10143b60 f   LIBCMTD:utility.obj
 0001:00142bb0       ___scrt_dllmain_after_initialize_c 10143bb0 f   LIBCMTD:utility.obj
 0001:00142be0       ___scrt_dllmain_before_initialize_c 10143be0 f   LIBCMTD:utility.obj
 0001:00142c00       ___scrt_dllmain_crt_thread_attach 10143c00 f   LIBCMTD:utility.obj
 0001:00142c30       ___scrt_dllmain_crt_thread_detach 10143c30 f   LIBCMTD:utility.obj
 0001:00142c50       ___scrt_dllmain_exception_filter 10143c50 f   LIBCMTD:utility.obj
 0001:00142ca0       ___scrt_dllmain_uninitialize_c 10143ca0 f   LIBCMTD:utility.obj
 0001:00142cd0       ___scrt_dllmain_uninitialize_critical 10143cd0 f   LIBCMTD:utility.obj
 0001:00142cf0       ___scrt_initialize_crt     10143cf0 f   LIBCMTD:utility.obj
 0001:00142d40       ___scrt_initialize_onexit_tables 10143d40 f   LIBCMTD:utility.obj
 0001:00142e20       ___scrt_is_nonwritable_in_current_image 10143e20 f   LIBCMTD:utility.obj
 0001:00142f50       ___scrt_release_startup_lock 10143f50 f   LIBCMTD:utility.obj
 0001:00142f80       ___scrt_uninitialize_crt   10143f80 f   LIBCMTD:utility.obj
 0001:00142fc0       __onexit                   10143fc0 f   LIBCMTD:utility.obj
 0001:00143030       _at_quick_exit             10144030 f   LIBCMTD:utility.obj
 0001:00143080       _atexit                    10144080 f   LIBCMTD:utility.obj
 0001:001430b0       ___scrt_get_dyn_tls_init_callback 101440b0 f   LIBCMTD:dyn_tls_init.obj
 0001:001430c0       ___scrt_fastfail           101440c0 f   LIBCMTD:utility_desktop.obj
 0001:00143200       ___scrt_get_show_window_mode 10144200 f   LIBCMTD:utility_desktop.obj
 0001:00143240       ___scrt_initialize_mta     10144240 f   LIBCMTD:utility_desktop.obj
 0001:00143250       ___scrt_initialize_winrt   10144250 f   LIBCMTD:utility_desktop.obj
 0001:00143260       ___scrt_is_managed_app     10144260 f   LIBCMTD:utility_desktop.obj
 0001:001432f0       ___scrt_set_unhandled_exception_filter 101442f0 f   LIBCMTD:utility_desktop.obj
 0001:00143300       ___scrt_exe_initialize_mta 10144300 f   LIBCMTD:utility_desktop.obj
 0001:00143300       ___scrt_stub_for_initialize_mta 10144300 f   LIBCMTD:utility_desktop.obj
 0001:00143310       ___scrt_unhandled_exception_filter@4 10144310 f   LIBCMTD:utility_desktop.obj
 0001:00143370       __crt_debugger_hook        10144370 f   LIBCMTD:utility_desktop.obj
 0001:00143380       __RTC_Initialize           10144380 f   LIBCMTD:initsect.obj
 0001:001433b0       __RTC_Terminate            101443b0 f   LIBCMTD:initsect.obj
 0001:00143470       ?_RTC_AllocaFailure@@YAXPAXPAU_RTC_ALLOCA_NODE@@H@Z 10144470 f   LIBCMTD:error.obj
 0001:00143560       ?_RTC_Failure@@YAXPAXH@Z   10144560 f   LIBCMTD:error.obj
 0001:001435b0       ?_RTC_StackFailure@@YAXPAXPBD@Z 101445b0 f   LIBCMTD:error.obj
 0001:00143970       __RTC_UninitUse            10144970 f   LIBCMTD:error.obj
 0001:00143a20       __vsprintf_s_l             10144a20 f i LIBCMTD:error.obj
 0001:00143a50       _sprintf_s                 10144a50 f i LIBCMTD:error.obj
 0001:00143a70       @__security_check_cookie@4 10144a70 f   LIBCMTD:secchk.obj
 0001:00143a90       __get_startup_argv_mode    10144a90 f   LIBCMTD:argv_mode.obj
 0001:00143aa0       ___scrt_is_ucrt_dll_in_use 10144aa0 f   LIBCMTD:ucrt_detection.obj
 0001:00143f50       ?_RTC_GetSrcLine@@YAHPAEPA_WKPAH1K@Z 10144f50 f   LIBCMTD:pdblkup.obj
 0001:001442e0       __except_handler4_noexcept 101452e0 f   LIBCMTD:chandler4_noexcept.obj
 0001:00144330       ___raise_securityfailure   10145330 f   LIBCMTD:gs_report.obj
 0001:00144360       ___report_gsfailure        10145360 f   LIBCMTD:gs_report.obj
 0001:00144470       ___report_rangecheckfailure 10145470 f   LIBCMTD:gs_report.obj
 0001:00144480       ___report_securityfailure  10145480 f   LIBCMTD:gs_report.obj
 0001:00144560       ___report_securityfailureEx 10145560 f   LIBCMTD:gs_report.obj
 0001:00144690       ??$__crt_fast_decode_pointer@P6AXXZ@@YAP6AXXZQ6AXXZ@Z 10145690 f i libvcruntimed:purevirt.obj
 0001:001446c0       ??$__crt_fast_encode_pointer@P6AXXZ@@YAP6AXXZQ6AXXZ@Z 101456c0 f i libvcruntimed:purevirt.obj
 0001:001446f0       ??$__crt_interlocked_exchange_pointer@$$A6AXXZP6AXXZ@@YAP6AXXZPDS6AXXZQ6AXXZ@Z 101456f0 f i libvcruntimed:purevirt.obj
 0001:00144700       ??$__crt_interlocked_read_pointer@$$A6AXXZ@@YAP6AXXZPDS6AXXZ@Z 10145700 f i libvcruntimed:purevirt.obj
 0001:00144720       ?__crt_interlocked_read_32@@YAHPDH@Z 10145720 f i libvcruntimed:purevirt.obj
 0001:00144740       __get_purecall_handler     10145740 f   libvcruntimed:purevirt.obj
 0001:00144760       __purecall                 10145760 f   libvcruntimed:purevirt.obj
 0001:00144790       __set_purecall_handler     10145790 f   libvcruntimed:purevirt.obj
 0001:001447e0       ??$?RD@__crt_internal_free_policy@@QBEXQBD@Z 101457e0 f i libvcruntimed:std_type_info.obj
 0001:00144800       ??$?RX@__crt_internal_free_policy@@QBEXQBX@Z 10145800 f i libvcruntimed:std_type_info.obj
 0001:00144820       ??$__crt_interlocked_compare_exchange_pointer@$$CBDPAD$$T@@YAPBDPDSBDQAD$$T@Z 10145820 f i libvcruntimed:std_type_info.obj
 0001:00144840       ??$__crt_interlocked_read_pointer@$$CBD@@YAPBDPDSBD@Z 10145840 f i libvcruntimed:std_type_info.obj
 0001:00144860       ??0?$__crt_unique_heap_ptr@DU__crt_internal_free_policy@@@@QAE@QAD@Z 10145860 f i libvcruntimed:std_type_info.obj
 0001:00144880       ??0?$__crt_unique_heap_ptr@XU__crt_internal_free_policy@@@@QAE@QAX@Z 10145880 f i libvcruntimed:std_type_info.obj
 0001:001448a0       ??1?$__crt_unique_heap_ptr@DU__crt_internal_free_policy@@@@QAE@XZ 101458a0 f i libvcruntimed:std_type_info.obj
 0001:001448c0       ??1?$__crt_unique_heap_ptr@XU__crt_internal_free_policy@@@@QAE@XZ 101458c0 f i libvcruntimed:std_type_info.obj
 0001:00144900       ??B?$__crt_unique_heap_ptr@DU__crt_internal_free_policy@@@@QBE_NXZ 10145900 f i libvcruntimed:std_type_info.obj
 0001:00144920       ??B?$__crt_unique_heap_ptr@XU__crt_internal_free_policy@@@@QBE_NXZ 10145920 f i libvcruntimed:std_type_info.obj
 0001:00144990       ?detach@?$__crt_unique_heap_ptr@XU__crt_internal_free_policy@@@@QAEPAXXZ 10145990 f i libvcruntimed:std_type_info.obj
 0001:001449c0       ?get@?$__crt_unique_heap_ptr@DU__crt_internal_free_policy@@@@QBEPADXZ 101459c0 f i libvcruntimed:std_type_info.obj
 0001:001449d0       ?get@?$__crt_unique_heap_ptr@XU__crt_internal_free_policy@@@@QBEPAXXZ 101459d0 f i libvcruntimed:std_type_info.obj
 0001:001449e0       ?is_valid@?$__crt_unique_heap_ptr@DU__crt_internal_free_policy@@@@QBE_NXZ 101459e0 f i libvcruntimed:std_type_info.obj
 0001:00144a10       ?is_valid@?$__crt_unique_heap_ptr@XU__crt_internal_free_policy@@@@QBE_NXZ 10145a10 f i libvcruntimed:std_type_info.obj
 0001:00144a40       ?release@?$__crt_unique_heap_ptr@DU__crt_internal_free_policy@@@@QAEXXZ 10145a40 f i libvcruntimed:std_type_info.obj
 0001:00144a70       ?release@?$__crt_unique_heap_ptr@XU__crt_internal_free_policy@@@@QAEXXZ 10145a70 f i libvcruntimed:std_type_info.obj
 0001:00144aa0       ___std_type_info_compare   10145aa0 f   libvcruntimed:std_type_info.obj
 0001:00144ad0       ___std_type_info_destroy_list 10145ad0 f   libvcruntimed:std_type_info.obj
 0001:00144b10       ___std_type_info_hash      10145b10 f   libvcruntimed:std_type_info.obj
 0001:00144b70       ___std_type_info_name      10145b70 f   libvcruntimed:std_type_info.obj
 0001:00144d50       _memcpy                    10145d50 f   libvcruntimed:memcpy.obj
 0001:001452d0       _memset                    101462d0 f   libvcruntimed:memset.obj
 0001:00145430       _strstr                    10146430 f   libvcruntimed:strstr.obj
 0001:00145700       __except_handler4          10146700 f   libvcruntimed:chandler4.obj
 0001:001458d0       ___vcrt_initialize         101468d0 f   libvcruntimed:initialization.obj
 0001:00145910       ___vcrt_thread_attach      10146910 f   libvcruntimed:initialization.obj
 0001:00145930       ___vcrt_thread_detach      10146930 f   libvcruntimed:initialization.obj
 0001:00145950       ___vcrt_uninitialize       10146950 f   libvcruntimed:initialization.obj
 0001:00145970       ___vcrt_uninitialize_critical 10146970 f   libvcruntimed:initialization.obj
 0001:00145990       ___vcrt_GetModuleFileNameW 10146990 f   libvcruntimed:winapi_thunks.obj
 0001:001459b0       ___vcrt_GetModuleHandleW   101469b0 f   libvcruntimed:winapi_thunks.obj
 0001:001459c0       ___vcrt_LoadLibraryExW     101469c0 f   libvcruntimed:winapi_thunks.obj
 0001:001459e0       ??$?B$$A6AXXZ@__crt_fast_encoded_nullptr_t@@QBEP6AXXZXZ 101469e0 f i libvcruntimed:purevirt_data.obj
 0001:00145a00       ?__crt_fast_encode_pointer@@YA?AU__crt_fast_encoded_nullptr_t@@$$T@Z 10146a00 f i libvcruntimed:purevirt_data.obj
 0001:00145a10       ___vcrt_initialize_pure_virtual_call_handler 10146a10 f   libvcruntimed:purevirt_data.obj
 0001:00145a40       ??0Block@_HeapManager@@QAE@XZ 10146a40 f i libvcruntimed:undname.obj
 0001:00145a60       ??0DName@@QAE@AAPBDD@Z     10146a60 f   libvcruntimed:undname.obj
 0001:00145c90       ??0DName@@QAE@ABV0@@Z      10146c90 f i libvcruntimed:undname.obj
 0001:00145cc0       ??0DName@@QAE@D@Z          10146cc0 f   libvcruntimed:undname.obj
 0001:00145d00       ??0DName@@QAE@PAV0@@Z      10146d00 f   libvcruntimed:undname.obj
 0001:00145db0       ??0DName@@QAE@PBD@Z        10146db0 f   libvcruntimed:undname.obj
 0001:00145e00       ??0DName@@QAE@W4DNameStatus@@@Z 10146e00 f   libvcruntimed:undname.obj
 0001:00145ea0       ??0DName@@QAE@XZ           10146ea0 f i libvcruntimed:undname.obj
 0001:00145ed0       ??0DName@@QAE@_J@Z         10146ed0 f   libvcruntimed:undname.obj
 0001:00145fc0       ??0DName@@QAE@_K@Z         10146fc0 f   libvcruntimed:undname.obj
 0001:00146070       ??0DNameNode@@IAE@XZ       10147070 f i libvcruntimed:undname.obj
 0001:00146090       ??0Replicator@@QAE@XZ      10147090 f i libvcruntimed:undname.obj
 0001:001460d0       ??0UnDecorator@@QAE@PBDP6APADJ@ZK@Z 101470d0 f i libvcruntimed:undname.obj
 0001:00146150       ??0charNode@@QAE@D@Z       10147150 f i libvcruntimed:undname.obj
 0001:00146180       ??0pDNameNode@@QAE@PAVDName@@@Z 10147180 f   libvcruntimed:undname.obj
 0001:001461e0       ??0pairNode@@QAE@PBVDNameNode@@0@Z 101471e0 f i libvcruntimed:undname.obj
 0001:00146220       ??0pcharNode@@QAE@PBDH@Z   10147220 f   libvcruntimed:undname.obj
 0001:001462e0       ??2@YAPAXIAAV_HeapManager@@H@Z 101472e0 f i libvcruntimed:undname.obj
 0001:00146300       ??4DName@@QAEAAV0@ABV0@@Z  10147300 f   libvcruntimed:undname.obj
 0001:00146330       ??4DName@@QAEAAV0@D@Z      10147330 f i libvcruntimed:undname.obj
 0001:00146370       ??4DName@@QAEAAV0@PAV0@@Z  10147370 f   libvcruntimed:undname.obj
 0001:00146410       ??4DName@@QAEAAV0@PBD@Z    10147410 f   libvcruntimed:undname.obj
 0001:00146450       ??4DName@@QAEAAV0@W4DNameStatus@@@Z 10147450 f   libvcruntimed:undname.obj
 0001:001464d0       ??AReplicator@@QBE?AVDName@@H@Z 101474d0 f   libvcruntimed:undname.obj
 0001:00146540       ??H@YA?AVDName@@DABV0@@Z   10147540 f i libvcruntimed:undname.obj
 0001:00146570       ??H@YA?AVDName@@PBDABV0@@Z 10147570 f i libvcruntimed:undname.obj
 0001:001465a0       ??H@YA?AVDName@@W4DNameStatus@@ABV0@@Z 101475a0 f i libvcruntimed:undname.obj
 0001:001465d0       ??HDName@@QBE?AV0@ABV0@@Z  101475d0 f   libvcruntimed:undname.obj
 0001:00146610       ??HDName@@QBE?AV0@D@Z      10147610 f   libvcruntimed:undname.obj
 0001:00146650       ??HDName@@QBE?AV0@PAV0@@Z  10147650 f   libvcruntimed:undname.obj
 0001:00146690       ??HDName@@QBE?AV0@PBD@Z    10147690 f   libvcruntimed:undname.obj
 0001:001466d0       ??HDName@@QBE?AV0@W4DNameStatus@@@Z 101476d0 f   libvcruntimed:undname.obj
 0001:00146710       ??YDName@@QAEAAV0@ABV0@@Z  10147710 f   libvcruntimed:undname.obj
 0001:00146780       ??YDName@@QAEAAV0@D@Z      10147780 f   libvcruntimed:undname.obj
 0001:00146800       ??YDName@@QAEAAV0@PAV0@@Z  10147800 f   libvcruntimed:undname.obj
 0001:001468c0       ??YDName@@QAEAAV0@PBD@Z    101478c0 f   libvcruntimed:undname.obj
 0001:00146960       ??YDName@@QAEAAV0@W4DNameStatus@@@Z 10147960 f   libvcruntimed:undname.obj
 0001:001469c0       ??YReplicator@@QAEAAV0@ABVDName@@@Z 101479c0 f   libvcruntimed:undname.obj
 0001:00146a50       ??_5DName@@QAEAAV0@ABV0@@Z 10147a50 f   libvcruntimed:undname.obj
 0001:00146ab0       ?Constructor@_HeapManager@@QAEXP6APAXI@ZP6AXPAX@Z@Z 10147ab0 f i libvcruntimed:undname.obj
 0001:00146af0       ?Destructor@_HeapManager@@QAEXXZ 10147af0 f i libvcruntimed:undname.obj
 0001:00146b50       ?UScore@UnDecorator@@SAPBDW4Tokens@@@Z 10147b50 f   libvcruntimed:undname.obj
 0001:00146b80       ?append@DName@@AAEXPBVDNameNode@@@Z 10147b80 f   libvcruntimed:undname.obj
 0001:00146c10       ?composeDeclaration@UnDecorator@@CA?AVDName@@ABV2@@Z 10147c10 f i libvcruntimed:undname.obj
 0001:00148b30       ?dbGetString@DName@@QBEPADXZ 10149b30 f   libvcruntimed:undname.obj
 0001:00148b50       ?doAccessSpecifiers@UnDecorator@@SAHXZ 10149b50 f i libvcruntimed:undname.obj
 0001:00148b80       ?doAllocationLanguage@UnDecorator@@SAHXZ 10149b80 f i libvcruntimed:undname.obj
 0001:00148bb0       ?doAllocationModel@UnDecorator@@SAHXZ 10149bb0 f i libvcruntimed:undname.obj
 0001:00148be0       ?doEcsu@UnDecorator@@SAHXZ 10149be0 f i libvcruntimed:undname.obj
 0001:00148c10       ?doEllipsis@UnDecorator@@SAHXZ 10149c10 f i libvcruntimed:undname.obj
 0001:00148c40       ?doFunctionReturns@UnDecorator@@SAHXZ 10149c40 f i libvcruntimed:undname.obj
 0001:00148c70       ?doMSKeywords@UnDecorator@@SAHXZ 10149c70 f i libvcruntimed:undname.obj
 0001:00148ca0       ?doMemberTypes@UnDecorator@@SAHXZ 10149ca0 f i libvcruntimed:undname.obj
 0001:00148cd0       ?doNameOnly@UnDecorator@@SAHXZ 10149cd0 f i libvcruntimed:undname.obj
 0001:00148ce0       ?doNoIdentCharCheck@UnDecorator@@SAHXZ 10149ce0 f i libvcruntimed:undname.obj
 0001:00148cf0       ?doPchar@DName@@AAEXPBDH@Z 10149cf0 f   libvcruntimed:undname.obj
 0001:00148e30       ?doPtr64@UnDecorator@@SAHXZ 10149e30 f i libvcruntimed:undname.obj
 0001:00148e60       ?doRestrictionSpec@UnDecorator@@SAHXZ 10149e60 f i libvcruntimed:undname.obj
 0001:00148e90       ?doThisTypes@UnDecorator@@SAHXZ 10149e90 f i libvcruntimed:undname.obj
 0001:00148ec0       ?doThrowTypes@UnDecorator@@SAHXZ 10149ec0 f i libvcruntimed:undname.obj
 0001:00148ef0       ?doTypeOnly@UnDecorator@@SAHXZ 10149ef0 f i libvcruntimed:undname.obj
 0001:00148f00       ?doUnderScore@UnDecorator@@SAHXZ 10149f00 f i libvcruntimed:undname.obj
 0001:00148f30       ?getArgumentList@UnDecorator@@CA?AVDName@@XZ 10149f30 f   libvcruntimed:undname.obj
 0001:00149080       ?getArgumentTypes@UnDecorator@@CA?AVDName@@XZ 1014a080 f   libvcruntimed:undname.obj
 0001:001491d0       ?getArrayType@UnDecorator@@CA?AVDName@@ABV2@@Z 1014a1d0 f i libvcruntimed:undname.obj
 0001:00149450       ?getBasedType@UnDecorator@@CA?AVDName@@XZ 1014a450 f   libvcruntimed:undname.obj
 0001:00149520       ?getBasicDataType@UnDecorator@@CA?AVDName@@ABV2@@Z 1014a520 f   libvcruntimed:undname.obj
 0001:00149b40       ?getCHPEName@UnDecorator@@QAEPADPADH@Z 1014ab40 f i libvcruntimed:undname.obj
 0001:00149ca0       ?getCallIndex@UnDecorator@@CA?AVDName@@XZ 1014aca0 f i libvcruntimed:undname.obj
 0001:00149cc0       ?getCallingConvention@UnDecorator@@CA?AVDName@@XZ 1014acc0 f   libvcruntimed:undname.obj
 0001:00149ee0       ?getDataIndirectType@UnDecorator@@CA?AVDName@@ABV2@PBD0H@Z 1014aee0 f   libvcruntimed:undname.obj
 0001:0014a7e0       ?getDataIndirectType@UnDecorator@@CA?AVDName@@XZ 1014b7e0 f i libvcruntimed:undname.obj
 0001:0014a820       ?getDataType@UnDecorator@@CA?AVDName@@PAV2@@Z 1014b820 f   libvcruntimed:undname.obj
 0001:0014a940       ?getDecoratedName@UnDecorator@@CA?AVDName@@XZ 1014b940 f   libvcruntimed:undname.obj
 0001:0014ad70       ?getDimension@UnDecorator@@CA?AVDName@@_N@Z 1014bd70 f   libvcruntimed:undname.obj
 0001:0014b020       ?getDispatchTarget@UnDecorator@@CA?AVDName@@XZ 1014c020 f   libvcruntimed:undname.obj
 0001:0014b0c0       ?getDisplacement@UnDecorator@@CA?AVDName@@XZ 1014c0c0 f i libvcruntimed:undname.obj
 0001:0014b0e0       ?getECSUDataType@UnDecorator@@CA?AVDName@@XZ 1014c0e0 f   libvcruntimed:undname.obj
 0001:0014b2c0       ?getECSUName@UnDecorator@@CA?AVDName@@XZ 1014c2c0 f i libvcruntimed:undname.obj
 0001:0014b2e0       ?getEnumType@UnDecorator@@CA?AVDName@@XZ 1014c2e0 f i libvcruntimed:undname.obj
 0001:0014b430       ?getExtendedDataIndirectType@UnDecorator@@CA?AVDName@@AAPBDAA_NH@Z 1014c430 f   libvcruntimed:undname.obj
 0001:0014b690       ?getExternalDataType@UnDecorator@@CA?AVDName@@ABV2@@Z 1014c690 f i libvcruntimed:undname.obj
 0001:0014b730       ?getFunctionIndirectType@UnDecorator@@CA?AVDName@@ABV2@@Z 1014c730 f   libvcruntimed:undname.obj
 0001:0014bc80       ?getGuardNumber@UnDecorator@@CA?AVDName@@XZ 1014cc80 f i libvcruntimed:undname.obj
 0001:0014bca0       ?getLastChar@DName@@QBEDXZ 1014cca0 f i libvcruntimed:undname.obj
 0001:0014bce0       ?getLastChar@DNameStatusNode@@UBEDXZ 1014cce0 f i libvcruntimed:undname.obj
 0001:0014bd10       ?getLastChar@charNode@@UBEDXZ 1014cd10 f i libvcruntimed:undname.obj
 0001:0014bd30       ?getLastChar@pDNameNode@@UBEDXZ 1014cd30 f i libvcruntimed:undname.obj
 0001:0014bd60       ?getLastChar@pairNode@@UBEDXZ 1014cd60 f i libvcruntimed:undname.obj
 0001:0014bdd0       ?getLastChar@pcharNode@@UBEDXZ 1014cdd0 f i libvcruntimed:undname.obj
 0001:0014be10       ?getLexicalFrame@UnDecorator@@CA?AVDName@@XZ 1014ce10 f i libvcruntimed:undname.obj
 0001:0014be50       ?getMemory@_HeapManager@@QAEPAXIH@Z 1014ce50 f   libvcruntimed:undname.obj
 0001:0014bf70       ?getNoexcept@UnDecorator@@CA?AVDName@@XZ 1014cf70 f   libvcruntimed:undname.obj
 0001:0014bfe0       ?getNumberOfDimensions@UnDecorator@@CAHXZ 1014cfe0 f   libvcruntimed:undname.obj
 0001:0014c0e0       ?getOperatorName@UnDecorator@@CA?AVDName@@_NPA_N@Z 1014d0e0 f i libvcruntimed:undname.obj
 0001:0014cbd0       ?getPointerType@UnDecorator@@CA?AVDName@@ABV2@0@Z 1014dbd0 f i libvcruntimed:undname.obj
 0001:0014cc00       ?getPointerTypeArray@UnDecorator@@CA?AVDName@@ABV2@0@Z 1014dc00 f i libvcruntimed:undname.obj
 0001:0014cc30       ?getPrimaryDataType@UnDecorator@@CA?AVDName@@ABV2@@Z 1014dc30 f   libvcruntimed:undname.obj
 0001:0014d030       ?getPtrRefDataType@UnDecorator@@CA?AVDName@@ABV2@H@Z 1014e030 f   libvcruntimed:undname.obj
 0001:0014d260       ?getPtrRefType@UnDecorator@@CA?AVDName@@ABV2@0PBD@Z 1014e260 f   libvcruntimed:undname.obj
 0001:0014d3d0       ?getReferenceType@UnDecorator@@CA?AVDName@@ABV2@0PBD@Z 1014e3d0 f i libvcruntimed:undname.obj
 0001:0014d3f0       ?getRestrictionSpec@UnDecorator@@CA?AVDName@@XZ 1014e3f0 f   libvcruntimed:undname.obj
 0001:0014d570       ?getReturnType@UnDecorator@@CA?AVDName@@PAV2@@Z 1014e570 f   libvcruntimed:undname.obj
 0001:0014d5c0       ?getScope@UnDecorator@@CA?AVDName@@XZ 1014e5c0 f   libvcruntimed:undname.obj
 0001:0014db60       ?getScopedName@UnDecorator@@CA?AVDName@@XZ 1014eb60 f   libvcruntimed:undname.obj
 0001:0014dca0       ?getSignedDimension@UnDecorator@@CA?AVDName@@XZ 1014eca0 f   libvcruntimed:undname.obj
 0001:0014dd20       ?getStorageConvention@UnDecorator@@CA?AVDName@@XZ 1014ed20 f i libvcruntimed:undname.obj
 0001:0014dd40       ?getString@DName@@QBEPADPAD0@Z 1014ed40 f i libvcruntimed:undname.obj
 0001:0014dda0       ?getString@DName@@QBEPADPADH@Z 1014eda0 f i libvcruntimed:undname.obj
 0001:0014de30       ?getString@DNameStatusNode@@UBEPADPAD0@Z 1014ee30 f i libvcruntimed:undname.obj
 0001:0014de70       ?getString@charNode@@UBEPADPAD0@Z 1014ee70 f i libvcruntimed:undname.obj
 0001:0014dea0       ?getString@pDNameNode@@UBEPADPAD0@Z 1014eea0 f i libvcruntimed:undname.obj
 0001:0014dee0       ?getString@pairNode@@UBEPADPAD0@Z 1014eee0 f i libvcruntimed:undname.obj
 0001:0014df70       ?getString@pcharNode@@UBEPADPAD0@Z 1014ef70 f i libvcruntimed:undname.obj
 0001:0014dfa0       ?getStringEncoding@UnDecorator@@CA?AVDName@@PBDH@Z 1014efa0 f   libvcruntimed:undname.obj
 0001:0014e0b0       ?getStringHelper@@YAPADPADPBD1H@Z 1014f0b0 f i libvcruntimed:undname.obj
 0001:0014e0f0       ?getSymbolName@UnDecorator@@CA?AVDName@@XZ 1014f0f0 f i libvcruntimed:undname.obj
 0001:0014e180       ?getTemplateArgumentList@UnDecorator@@CA?AVDName@@XZ 1014f180 f   libvcruntimed:undname.obj
 0001:0014e5a0       ?getTemplateConstant@UnDecorator@@CA?AVDName@@XZ 1014f5a0 f   libvcruntimed:undname.obj
 0001:0014ebc0       ?getTemplateName@UnDecorator@@CA?AVDName@@_N@Z 1014fbc0 f   libvcruntimed:undname.obj
 0001:0014eda0       ?getThisType@UnDecorator@@CA?AVDName@@XZ 1014fda0 f i libvcruntimed:undname.obj
 0001:0014ede0       ?getThrowTypes@UnDecorator@@CA?AVDName@@XZ 1014fde0 f   libvcruntimed:undname.obj
 0001:0014ee20       ?getTypeEncoding@UnDecorator@@CAHXZ 1014fe20 f i libvcruntimed:undname.obj
 0001:0014f8b0       ?getUndecoratedName@UnDecorator@@QAEPADPADH@Z 101508b0 f i libvcruntimed:undname.obj
 0001:0014fa00       ?getVCallThunkType@UnDecorator@@CA?AVDName@@XZ 10150a00 f i libvcruntimed:undname.obj
 0001:0014fa60       ?getVbTableType@UnDecorator@@CA?AVDName@@ABV2@@Z 10150a60 f i libvcruntimed:undname.obj
 0001:0014fa80       ?getVdispMapType@UnDecorator@@CA?AVDName@@ABV2@@Z 10150a80 f i libvcruntimed:undname.obj
 0001:0014fb00       ?getVfTableType@UnDecorator@@CA?AVDName@@ABV2@@Z 10150b00 f i libvcruntimed:undname.obj
 0001:0014fce0       ?getZName@UnDecorator@@CA?AVDName@@_N0@Z 10150ce0 f   libvcruntimed:undname.obj
 0001:0014ffe0       ?haveTemplateParameters@UnDecorator@@SAHXZ 10150fe0 f i libvcruntimed:undname.obj
 0001:0014fff0       ?isArray@DName@@QBEHXZ     10150ff0 f i libvcruntimed:undname.obj
 0001:00150010       ?isComArray@DName@@QBEHXZ  10151010 f i libvcruntimed:undname.obj
 0001:00150030       ?isEmpty@DName@@QBEHXZ     10151030 f i libvcruntimed:undname.obj
 0001:00150060       ?isFull@Replicator@@QBEHXZ 10151060 f i libvcruntimed:undname.obj
 0001:00150090       ?isNoTE@DName@@QBEHXZ      10151090 f i libvcruntimed:undname.obj
 0001:001500b0       ?isPinPtr@DName@@QBEHXZ    101510b0 f i libvcruntimed:undname.obj
 0001:001500d0       ?isPtrRef@DName@@QBEHXZ    101510d0 f i libvcruntimed:undname.obj
 0001:001500f0       ?isUDC@DName@@QBEHXZ       101510f0 f i libvcruntimed:undname.obj
 0001:00150130       ?isUDTThunk@DName@@QBEHXZ  10151130 f i libvcruntimed:undname.obj
 0001:00150170       ?isVCallThunk@DName@@QBEHXZ 10151170 f i libvcruntimed:undname.obj
 0001:00150190       ?isValid@DName@@QBEHXZ     10151190 f i libvcruntimed:undname.obj
 0001:001501d0       ?length@DName@@QBEHXZ      101511d0 f i libvcruntimed:undname.obj
 0001:00150210       ?length@DNameStatusNode@@UBEHXZ 10151210 f i libvcruntimed:undname.obj
 0001:00150230       ?length@charNode@@UBEHXZ   10151230 f i libvcruntimed:undname.obj
 0001:00150240       ?length@pDNameNode@@UBEHXZ 10151240 f i libvcruntimed:undname.obj
 0001:00150270       ?length@pairNode@@UBEHXZ   10151270 f i libvcruntimed:undname.obj
 0001:001502e0       ?length@pcharNode@@UBEHXZ  101512e0 f i libvcruntimed:undname.obj
 0001:00150300       ?make@DNameStatusNode@@SAPBV1@W4DNameStatus@@@Z 10151300 f i libvcruntimed:undname.obj
 0001:00150330       ?parseDecoratedName@UnDecorator@@CA?AVDName@@XZ 10151330 f   libvcruntimed:undname.obj
 0001:001504c0       ?setIsArray@DName@@QAEXXZ  101514c0 f i libvcruntimed:undname.obj
 0001:001504e0       ?setIsComArray@DName@@QAEXXZ 101514e0 f i libvcruntimed:undname.obj
 0001:00150500       ?setIsNoTE@DName@@QAEXXZ   10151500 f i libvcruntimed:undname.obj
 0001:00150520       ?setIsPinPtr@DName@@QAEXXZ 10151520 f i libvcruntimed:undname.obj
 0001:00150540       ?setIsUDC@DName@@QAEXXZ    10151540 f i libvcruntimed:undname.obj
 0001:00150570       ?setIsVCallThunk@DName@@QAEXXZ 10151570 f i libvcruntimed:undname.obj
 0001:00150590       ?setPtrRef@DName@@QAEAAV1@XZ 10151590 f i libvcruntimed:undname.obj
 0001:001505b0       ?status@DName@@QBE?AW4DNameStatus@@XZ 101515b0 f i libvcruntimed:undname.obj
 0001:001506b0       ___unDName                 101516b0 f   libvcruntimed:undname.obj
 0001:001506e0       ___unDNameEx               101516e0 f   libvcruntimed:undname.obj
 0001:001507b0       _unDNameGenerateCHPE       101517b0 f   libvcruntimed:undname.obj
 0001:00150810       _strchr                    10151810 f   libvcruntimed:strchr.obj
 0001:0015087e       ___from_strstr_to_strchr   1015187e     libvcruntimed:strchr.obj
 0001:00150940       __local_unwind4            10151940 f   libvcruntimed:exsup4.obj
 0001:00150a18       __seh_longjmp_unwind4@4    10151a18 f   libvcruntimed:exsup4.obj
 0001:00150a40       @_EH4_CallFilterFunc@8     10151a40 f   libvcruntimed:exsup4.obj
 0001:00150a58       @_EH4_TransferToHandler@8  10151a58 f   libvcruntimed:exsup4.obj
 0001:00150a74       @_EH4_GlobalUnwind2@8      10151a74 f   libvcruntimed:exsup4.obj
 0001:00150a90       @_EH4_LocalUnwind@16       10151a90 f   libvcruntimed:exsup4.obj
 0001:00150ac0       ___except_validate_context_record 10151ac0 f   libvcruntimed:jbcxrval.obj
 0001:00150b10       ___except_validate_jump_buffer 10151b10 f   libvcruntimed:jbcxrval.obj
 0001:00150b30       ___except_validate_jump_buffer_common 10151b30 f i libvcruntimed:jbcxrval.obj
 0001:00150b90       ??$?RU__vcrt_ptd@@@__crt_internal_free_policy@@QBEXQBU__vcrt_ptd@@@Z 10151b90 f i libvcruntimed:per_thread_data.obj
 0001:00150bb0       ??0?$__crt_unique_heap_ptr@U__vcrt_ptd@@U__crt_internal_free_policy@@@@QAE@QAU__vcrt_ptd@@@Z 10151bb0 f i libvcruntimed:per_thread_data.obj
 0001:00150bf0       ??1?$__crt_unique_heap_ptr@U__vcrt_ptd@@U__crt_internal_free_policy@@@@QAE@XZ 10151bf0 f i libvcruntimed:per_thread_data.obj
 0001:00150c30       ??B?$__crt_unique_heap_ptr@U__vcrt_ptd@@U__crt_internal_free_policy@@@@QBE_NXZ 10151c30 f i libvcruntimed:per_thread_data.obj
 0001:00150c50       ?detach@?$__crt_unique_heap_ptr@U__vcrt_ptd@@U__crt_internal_free_policy@@@@QAEPAU__vcrt_ptd@@XZ 10151c50 f i libvcruntimed:per_thread_data.obj
 0001:00150c80       ?get@?$__crt_unique_heap_ptr@U__vcrt_ptd@@U__crt_internal_free_policy@@@@QBEPAU__vcrt_ptd@@XZ 10151c80 f i libvcruntimed:per_thread_data.obj
 0001:00150c90       ?is_valid@?$__crt_unique_heap_ptr@U__vcrt_ptd@@U__crt_internal_free_policy@@@@QBE_NXZ 10151c90 f i libvcruntimed:per_thread_data.obj
 0001:00150cc0       ?release@?$__crt_unique_heap_ptr@U__vcrt_ptd@@U__crt_internal_free_policy@@@@QAEXXZ 10151cc0 f i libvcruntimed:per_thread_data.obj
 0001:00150d20       ___vcrt_freefls@4          10151d20 f   libvcruntimed:per_thread_data.obj
 0001:00150d50       ___vcrt_freeptd            10151d50 f   libvcruntimed:per_thread_data.obj
 0001:00150db0       ___vcrt_getptd             10151db0 f   libvcruntimed:per_thread_data.obj
 0001:00150dd0       ___vcrt_getptd_noexit      10151dd0 f   libvcruntimed:per_thread_data.obj
 0001:00150f30       ___vcrt_getptd_noinit      10151f30 f   libvcruntimed:per_thread_data.obj
 0001:00150f90       ___vcrt_initialize_ptd     10151f90 f   libvcruntimed:per_thread_data.obj
 0001:00150fe0       ___vcrt_uninitialize_ptd   10151fe0 f   libvcruntimed:per_thread_data.obj
 0001:00151010       ___vcrt_initialize_locks   10152010 f   libvcruntimed:locks.obj
 0001:00151070       ___vcrt_lock               10152070 f   libvcruntimed:locks.obj
 0001:00151090       ___vcrt_uninitialize_locks 10152090 f   libvcruntimed:locks.obj
 0001:001510e0       ___vcrt_unlock             101520e0 f   libvcruntimed:locks.obj
 0001:00151100       ??$?BX@__crt_fast_encoded_nullptr_t@@QBEPAXXZ 10152100 f i libvcruntimed:winapi_downlevel.obj
 0001:00151120       ??$__crt_fast_decode_pointer@PAX@@YAPAXQAX@Z 10152120 f i libvcruntimed:winapi_downlevel.obj
 0001:00151150       ??$__crt_fast_encode_pointer@PAX@@YAPAXQAX@Z 10152150 f i libvcruntimed:winapi_downlevel.obj
 0001:00151180       ??$__crt_interlocked_exchange_pointer@UHINSTANCE__@@PAU1@@@YAPAUHINSTANCE__@@PDSAU0@QAU0@@Z 10152180 f i libvcruntimed:winapi_downlevel.obj
 0001:00151190       ??$__crt_interlocked_exchange_pointer@UHINSTANCE__@@PAX@@YAPAUHINSTANCE__@@PDSAU0@QAX@Z 10152190 f i libvcruntimed:winapi_downlevel.obj
 0001:001511a0       ??$__crt_interlocked_exchange_pointer@XPAX@@YAPAXPDSAXQAX@Z 101521a0 f i libvcruntimed:winapi_downlevel.obj
 0001:001511b0       ??$__crt_interlocked_read_pointer@UHINSTANCE__@@@@YAPAUHINSTANCE__@@PDSAU0@@Z 101521b0 f i libvcruntimed:winapi_downlevel.obj
 0001:001511d0       ??$__crt_interlocked_read_pointer@X@@YAPAXPDSAX@Z 101521d0 f i libvcruntimed:winapi_downlevel.obj
 0001:001515e0       ___vcrt_FlsAlloc           101525e0 f   libvcruntimed:winapi_downlevel.obj
 0001:00151620       ___vcrt_FlsFree            10152620 f   libvcruntimed:winapi_downlevel.obj
 0001:00151660       ___vcrt_FlsGetValue        10152660 f   libvcruntimed:winapi_downlevel.obj
 0001:001516a0       ___vcrt_FlsSetValue        101526a0 f   libvcruntimed:winapi_downlevel.obj
 0001:001516f0       ___vcrt_InitializeCriticalSectionEx 101526f0 f   libvcruntimed:winapi_downlevel.obj
 0001:00151740       ___vcrt_initialize_winapi_thunks 10152740 f   libvcruntimed:winapi_downlevel.obj
 0001:001517a0       ___vcrt_uninitialize_winapi_thunks 101527a0 f   libvcruntimed:winapi_downlevel.obj
 0001:00151810       ??$?0AAViterator@TryBlockMap@__FrameHandler3@@AAV012@$0A@@?$pair@Viterator@TryBlockMap@__FrameHandler3@@V123@@std@@QAE@AAViterator@TryBlockMap@__FrameHandler3@@0@Z 10152810 f i libvcruntimed:trnsctrl.obj
 0001:00151860       ??$forward@AAViterator@TryBlockMap@__FrameHandler3@@@std@@YAAAViterator@TryBlockMap@__FrameHandler3@@AAV123@@Z 10152860 f i libvcruntimed:trnsctrl.obj
 0001:00151870       ??0iterator@TryBlockMap@__FrameHandler3@@QAE@AAV12@I@Z 10152870 f i libvcruntimed:trnsctrl.obj
 0001:001518a0       ?GetRangeOfTrysToCheck@__FrameHandler3@@SA?AU?$pair@Viterator@TryBlockMap@__FrameHandler3@@V123@@std@@AAVTryBlockMap@1@HH@Z 101528a0 f   libvcruntimed:trnsctrl.obj
 0001:00151990       ?_CallCatchBlock2@@YAPAXPAUEHRegistrationNode@@PBU_s_FuncInfo@@PAXHK@Z 10152990 f   libvcruntimed:trnsctrl.obj
 0001:00151a00       ?_CallSETranslator@@YAHPAUEHExceptionRecord@@PAUEHRegistrationNode@@PAX2PBU_s_FuncInfo@@H1@Z 10152a00 f   libvcruntimed:trnsctrl.obj
 0001:00151af0       ?_JumpToContinuation@@YGXPAXPAUEHRegistrationNode@@@Z 10152af0 f   libvcruntimed:trnsctrl.obj
 0001:00151b30       ?_UnwindNestedFrames@@YGXPAUEHRegistrationNode@@PAUEHExceptionRecord@@@Z 10152b30 f   libvcruntimed:trnsctrl.obj
 0001:00151b90       ?getFuncInfo@TryBlockMap@__FrameHandler3@@QAEPBU_s_FuncInfo@@XZ 10152b90 f i libvcruntimed:trnsctrl.obj
 0001:00151ba0       __CatchGuardHandler        10152ba0 f   libvcruntimed:trnsctrl.obj
 0001:00151bf0       __CreateFrameInfo          10152bf0 f   libvcruntimed:trnsctrl.obj
 0001:00151c20       __FindAndUnlinkFrame       10152c20 f   libvcruntimed:trnsctrl.obj
