 PhysX_32

 Timestamp is 5c5f49ed (Sat Feb  9 14:45:17 2019)

 Preferred load address is 10000000

 Start         Length     Name                   Class
 0001:00000000 00004f40H .text$di                CODE
 0001:00004f40 001e7067H .text$mn                CODE
 0001:001ebfa7 00000049H .text$x                 CODE
 0001:001ebff0 0000001bH .text$yd                CODE
 0002:00000000 00000170H .idata$5                DATA
 0002:00000170 00000004H .00cfg                  DATA
 0002:00000174 00000004H .CRT$XCA                DATA
 0002:00000178 00000bccH .CRT$XCU                DATA
 0002:00000d44 00000004H .CRT$XCZ                DATA
 0002:00000d48 00000004H .CRT$XIA                DATA
 0002:00000d4c 0000000cH .CRT$XIC                DATA
 0002:00000d58 00000004H .CRT$XIZ                DATA
 0002:00000d5c 00000004H .CRT$XPA                DATA
 0002:00000d60 00000008H .CRT$XPX                DATA
 0002:00000d68 00000004H .CRT$XPXA               DATA
 0002:00000d6c 00000004H .CRT$XPZ                DATA
 0002:00000d70 00000004H .CRT$XTA                DATA
 0002:00000d74 0000000cH .CRT$XTZ                DATA
 0002:00000d78 00000000H .gfids$y                DATA
 0002:00000d80 0002a594H .rdata                  DATA
 0002:0002b314 000002acH .rdata$r                DATA
 0002:0002b5c0 0000001cH .rdata$sxdata           DATA
 0002:0002b5dc 000003f0H .rdata$zzzdbg           DATA
 0002:0002b9cc 00000004H .rtc$IAA                DATA
 0002:0002b9d0 00000004H .rtc$IZZ                DATA
 0002:0002b9d4 00000004H .rtc$TAA                DATA
 0002:0002b9d8 00000008H .rtc$TZZ                DATA
 0002:0002b9e0 000008a4H .xdata$x                DATA
 0002:0002c284 00000040H .didat$2                DATA
 0002:0002c2c4 00000020H .didat$3                DATA
 0002:0002c2e4 00000374H .didat$4                DATA
 0002:0002c658 0000494cH .didat$6                DATA
 0002:00030fa4 0000037cH .didat$7                DATA
 0002:00031320 00002330H .edata                  DATA
 0002:00033650 00000014H .idata$2                DATA
 0002:00033664 00000014H .idata$3                DATA
 0002:00033678 00000170H .idata$4                DATA
 0002:000337e8 000006b2H .idata$6                DATA
 0003:00000000 000012f0H .data                   DATA
 0003:000012f0 00000fe0H .data$r                 DATA
 0003:000022d0 00000380H .didat$5                DATA
 0003:00002650 00004418H .bss                    DATA
 0004:00000000 000004e0H _RDATA                  DATA
 0005:00000000 000000a0H .rsrc$01                DATA
 0005:000000a0 00000488H .rsrc$02                DATA

  Address         Publics by Value              Rva+Base       Lib:Object

 0000:00000000       ___guard_fids_count        00000000     <absolute>
 0000:00000000       ___hybrid_code_map         00000000     <absolute>
 0000:00000000       ___guard_longjmp_table     00000000     <absolute>
 0000:00000000       ___hybrid_code_map_count   00000000     <absolute>
 0000:00000000       ___volatile_metadata       00000000     <absolute>
 0000:00000000       ___dynamic_value_reloc_table 00000000     <absolute>
 0000:00000000       ___enclave_config          00000000     <absolute>
 0000:00000000       __except_list              00000000     <absolute>
 0000:00000000       ___guard_iat_table         00000000     <absolute>
 0000:00000000       ___guard_iat_count         00000000     <absolute>
 0000:00000000       ___hybrid_auxiliary_iat    00000000     <absolute>
 0000:00000000       ___guard_longjmp_count     00000000     <absolute>
 0000:00000000       ___guard_fids_table        00000000     <absolute>
 0000:00000007       ___safe_se_handler_count   00000007     <absolute>
 0000:00000100       ___guard_flags             00000100     <absolute>
 0000:00000000       ___ImageBase               10000000     <linker-defined>
 0001:00004f50       ??0PxPhysicsGeneratedValues@physx@@QAE@PBVPxPhysics@1@@Z 10005f50 f   PxAutoGeneratedMetaDataObjects.obj
 0001:00004f70       ??0PxPhysicsGeneratedInfo@physx@@QAE@XZ 10005f70 f   PxAutoGeneratedMetaDataObjects.obj
 0001:00005080       ??0PxMaterialGeneratedValues@physx@@QAE@PBVPxMaterial@1@@Z 10006080 f   PxAutoGeneratedMetaDataObjects.obj
 0001:000050f0       ??0PxMaterialGeneratedInfo@physx@@QAE@XZ 100060f0 f   PxAutoGeneratedMetaDataObjects.obj
 0001:000051f0       ??0PxActorGeneratedValues@physx@@QAE@PBVPxActor@1@@Z 100061f0 f   PxAutoGeneratedMetaDataObjects.obj
 0001:00005250       ??0PxActorGeneratedInfo@physx@@QAE@XZ 10006250 f   PxAutoGeneratedMetaDataObjects.obj
 0001:00005310       ??0PxRigidActorGeneratedValues@physx@@QAE@PBVPxRigidActor@1@@Z 10006310 f   PxAutoGeneratedMetaDataObjects.obj
 0001:00005370       ??0PxRigidActorGeneratedInfo@physx@@QAE@XZ 10006370 f   PxAutoGeneratedMetaDataObjects.obj
 0001:000053f0       ??0PxRigidBodyGeneratedValues@physx@@QAE@PBVPxRigidBody@1@@Z 100063f0 f   PxAutoGeneratedMetaDataObjects.obj
 0001:000054f0       ??0PxRigidBodyGeneratedInfo@physx@@QAE@XZ 100064f0 f   PxAutoGeneratedMetaDataObjects.obj
 0001:00005740       ??0PxRigidDynamicGeneratedValues@physx@@QAE@PBVPxRigidDynamic@1@@Z 10006740 f   PxAutoGeneratedMetaDataObjects.obj
 0001:000057f0       ??0PxRigidDynamicGeneratedInfo@physx@@QAE@XZ 100067f0 f   PxAutoGeneratedMetaDataObjects.obj
 0001:00005940       ??0PxRigidStaticGeneratedValues@physx@@QAE@PBVPxRigidStatic@1@@Z 10006940 f   PxAutoGeneratedMetaDataObjects.obj
 0001:00005960       ??0PxRigidStaticGeneratedInfo@physx@@QAE@XZ 10006960 f   PxAutoGeneratedMetaDataObjects.obj
 0001:00005990       ??0PxArticulationLinkGeneratedValues@physx@@QAE@PBVPxArticulationLink@1@@Z 10006990 f   PxAutoGeneratedMetaDataObjects.obj
 0001:000059f0       ??0PxArticulationLinkGeneratedInfo@physx@@QAE@XZ 100069f0 f   PxAutoGeneratedMetaDataObjects.obj
 0001:00005aa0       ??0PxArticulationJointBaseGeneratedValues@physx@@QAE@PBVPxArticulationJointBase@1@@Z 10006aa0 f   PxAutoGeneratedMetaDataObjects.obj
 0001:00005ad0       ??0PxArticulationJointBaseGeneratedInfo@physx@@QAE@XZ 10006ad0 f   PxAutoGeneratedMetaDataObjects.obj
 0001:00005b10       ??0PxArticulationJointGeneratedValues@physx@@QAE@PBVPxArticulationJoint@1@@Z 10006b10 f   PxAutoGeneratedMetaDataObjects.obj
 0001:00005c20       ??0PxArticulationJointGeneratedInfo@physx@@QAE@XZ 10006c20 f   PxAutoGeneratedMetaDataObjects.obj
 0001:00005eb0       ??0PxArticulationBaseGeneratedValues@physx@@QAE@PBVPxArticulationBase@1@@Z 10006eb0 f   PxAutoGeneratedMetaDataObjects.obj
 0001:00005f30       ??0PxArticulationBaseGeneratedInfo@physx@@QAE@XZ 10006f30 f   PxAutoGeneratedMetaDataObjects.obj
 0001:00006080       ??0PxArticulationGeneratedValues@physx@@QAE@PBVPxArticulation@1@@Z 10007080 f   PxAutoGeneratedMetaDataObjects.obj
 0001:000060d0       ??0PxArticulationGeneratedInfo@physx@@QAE@XZ 100070d0 f   PxAutoGeneratedMetaDataObjects.obj
 0001:00006180       ??0PxAggregateGeneratedValues@physx@@QAE@PBVPxAggregate@1@@Z 10007180 f   PxAutoGeneratedMetaDataObjects.obj
 0001:000061b0       ??0PxAggregateGeneratedInfo@physx@@QAE@XZ 100071b0 f   PxAutoGeneratedMetaDataObjects.obj
 0001:00006210       ??0PxConstraintGeneratedValues@physx@@QAE@PBVPxConstraint@1@@Z 10007210 f   PxAutoGeneratedMetaDataObjects.obj
 0001:00006280       ??0PxConstraintGeneratedInfo@physx@@QAE@XZ 10007280 f   PxAutoGeneratedMetaDataObjects.obj
 0001:00006350       ??0PxShapeGeneratedValues@physx@@QAE@PBVPxShape@1@@Z 10007350 f   PxAutoGeneratedMetaDataObjects.obj
 0001:00006420       ??0PxShapeGeneratedInfo@physx@@QAE@XZ 10007420 f   PxAutoGeneratedMetaDataObjects.obj
 0001:00006610       ??0PxPruningStructureGeneratedValues@physx@@QAE@PBVPxPruningStructure@1@@Z 10007610 f   PxAutoGeneratedMetaDataObjects.obj
 0001:00006630       ??0PxPruningStructureGeneratedInfo@physx@@QAE@XZ 10007630 f   PxAutoGeneratedMetaDataObjects.obj
 0001:00006670       ??0PxTolerancesScaleGeneratedValues@physx@@QAE@PBVPxTolerancesScale@1@@Z 10007670 f   PxAutoGeneratedMetaDataObjects.obj
 0001:000066a0       ??0PxTolerancesScaleGeneratedInfo@physx@@QAE@XZ 100076a0 f   PxAutoGeneratedMetaDataObjects.obj
 0001:000066f0       ??0PxGeometryGeneratedValues@physx@@QAE@PBVPxGeometry@1@@Z 100076f0 f   PxAutoGeneratedMetaDataObjects.obj
 0001:00006700       ??0PxGeometryGeneratedInfo@physx@@QAE@XZ 10007700 f   PxAutoGeneratedMetaDataObjects.obj
 0001:00006710       ??0PxBoxGeometryGeneratedValues@physx@@QAE@PBVPxBoxGeometry@1@@Z 10007710 f   PxAutoGeneratedMetaDataObjects.obj
 0001:00006730       ??0PxBoxGeometryGeneratedInfo@physx@@QAE@XZ 10007730 f   PxAutoGeneratedMetaDataObjects.obj
 0001:00006750       ??0PxCapsuleGeometryGeneratedValues@physx@@QAE@PBVPxCapsuleGeometry@1@@Z 10007750 f   PxAutoGeneratedMetaDataObjects.obj
 0001:00006770       ??0PxCapsuleGeometryGeneratedInfo@physx@@QAE@XZ 10007770 f   PxAutoGeneratedMetaDataObjects.obj
 0001:000067b0       ??0PxMeshScaleGeneratedValues@physx@@QAE@PBVPxMeshScale@1@@Z 100077b0 f   PxAutoGeneratedMetaDataObjects.obj
 0001:000067f0       ??0PxMeshScaleGeneratedInfo@physx@@QAE@XZ 100077f0 f   PxAutoGeneratedMetaDataObjects.obj
 0001:00006830       ??0PxConvexMeshGeometryGeneratedValues@physx@@QAE@PBVPxConvexMeshGeometry@1@@Z 10007830 f   PxAutoGeneratedMetaDataObjects.obj
 0001:00006870       ??0PxConvexMeshGeometryGeneratedInfo@physx@@QAE@XZ 10007870 f   PxAutoGeneratedMetaDataObjects.obj
 0001:000068d0       ??0PxSphereGeometryGeneratedValues@physx@@QAE@PBVPxSphereGeometry@1@@Z 100078d0 f   PxAutoGeneratedMetaDataObjects.obj
 0001:000068e0       ??0PxSphereGeometryGeneratedInfo@physx@@QAE@XZ 100078e0 f   PxAutoGeneratedMetaDataObjects.obj
 0001:00006900       ??0PxPlaneGeometryGeneratedValues@physx@@QAE@PBVPxPlaneGeometry@1@@Z 10007900 f   PxAutoGeneratedMetaDataObjects.obj
 0001:00006910       ??0PxPlaneGeometryGeneratedInfo@physx@@QAE@XZ 10007910 f   PxAutoGeneratedMetaDataObjects.obj
 0001:00006920       ??0PxTriangleMeshGeometryGeneratedValues@physx@@QAE@PBVPxTriangleMeshGeometry@1@@Z 10007920 f   PxAutoGeneratedMetaDataObjects.obj
 0001:00006960       ??0PxTriangleMeshGeometryGeneratedInfo@physx@@QAE@XZ 10007960 f   PxAutoGeneratedMetaDataObjects.obj
 0001:000069c0       ??0PxHeightFieldGeometryGeneratedValues@physx@@QAE@PBVPxHeightFieldGeometry@1@@Z 100079c0 f   PxAutoGeneratedMetaDataObjects.obj
 0001:000069f0       ??0PxHeightFieldGeometryGeneratedInfo@physx@@QAE@XZ 100079f0 f   PxAutoGeneratedMetaDataObjects.obj
 0001:00006a80       ??0PxHeightFieldDescGeneratedValues@physx@@QAE@PBVPxHeightFieldDesc@1@@Z 10007a80 f   PxAutoGeneratedMetaDataObjects.obj
 0001:00006ac0       ??0PxHeightFieldDescGeneratedInfo@physx@@QAE@XZ 10007ac0 f   PxAutoGeneratedMetaDataObjects.obj
 0001:00006b70       ??0PxArticulationJointReducedCoordinateGeneratedValues@physx@@QAE@PBVPxArticulationJointReducedCoordinate@1@@Z 10007b70 f   PxAutoGeneratedMetaDataObjects.obj
 0001:00006be0       ??0PxArticulationJointReducedCoordinateGeneratedInfo@physx@@QAE@XZ 10007be0 f   PxAutoGeneratedMetaDataObjects.obj
 0001:00006ca0       ??0PxSceneGeneratedValues@physx@@QAE@PBVPxScene@1@@Z 10007ca0 f   PxAutoGeneratedMetaDataObjects.obj
 0001:00006f60       ??0PxSceneGeneratedInfo@physx@@QAE@XZ 10007f60 f   PxAutoGeneratedMetaDataObjects.obj
 0001:00007410       ??0PxSceneLimitsGeneratedValues@physx@@QAE@PBVPxSceneLimits@1@@Z 10008410 f   PxAutoGeneratedMetaDataObjects.obj
 0001:00007450       ??0PxSceneLimitsGeneratedInfo@physx@@QAE@XZ 10008450 f   PxAutoGeneratedMetaDataObjects.obj
 0001:00007540       ??0PxgDynamicsMemoryConfigGeneratedValues@physx@@QAE@PBUPxgDynamicsMemoryConfig@1@@Z 10008540 f   PxAutoGeneratedMetaDataObjects.obj
 0001:00007580       ??0PxgDynamicsMemoryConfigGeneratedInfo@physx@@QAE@XZ 10008580 f   PxAutoGeneratedMetaDataObjects.obj
 0001:00007670       ??0PxSceneDescGeneratedValues@physx@@QAE@PBVPxSceneDesc@1@@Z 10008670 f   PxAutoGeneratedMetaDataObjects.obj
 0001:00007830       ??0PxSceneDescGeneratedInfo@physx@@QAE@XZ 10008830 f   PxAutoGeneratedMetaDataObjects.obj
 0001:00007e10       ??0PxSimulationStatisticsGeneratedValues@physx@@QAE@PBVPxSimulationStatistics@1@@Z 10008e10 f   PxAutoGeneratedMetaDataObjects.obj
 0001:00007f10       ??0PxSimulationStatisticsGeneratedInfo@physx@@QAE@XZ 10008f10 f   PxAutoGeneratedMetaDataObjects.obj
 0001:00008240       ?getPxPhysics_TolerancesScale@@YA?BVPxTolerancesScale@physx@@PBVPxPhysics@2@@Z 10009240 f   PxAutoGeneratedMetaDataObjects.obj
 0001:00008260       ?getPxPhysics_TriangleMeshes@@YAIPBVPxPhysics@physx@@PAPAVPxTriangleMesh@2@I@Z 10009260 f   PxAutoGeneratedMetaDataObjects.obj
 0001:00008280       ?getNbPxPhysics_TriangleMeshes@@YAIPBVPxPhysics@physx@@@Z 10009280 f   PxAutoGeneratedMetaDataObjects.obj
 0001:00008290       ?createPxPhysics_TriangleMeshes@@YAPAVPxTriangleMesh@physx@@PAVPxPhysics@2@AAVPxInputStream@2@@Z 10009290 f   PxAutoGeneratedMetaDataObjects.obj
 0001:000082a0       ?getPxPhysics_HeightFields@@YAIPBVPxPhysics@physx@@PAPAVPxHeightField@2@I@Z 100092a0 f   PxAutoGeneratedMetaDataObjects.obj
 0001:000082c0       ?getNbPxPhysics_HeightFields@@YAIPBVPxPhysics@physx@@@Z 100092c0 f   PxAutoGeneratedMetaDataObjects.obj
 0001:000082d0       ?createPxPhysics_HeightFields@@YAPAVPxHeightField@physx@@PAVPxPhysics@2@AAVPxInputStream@2@@Z 100092d0 f   PxAutoGeneratedMetaDataObjects.obj
 0001:000082e0       ?getPxPhysics_ConvexMeshes@@YAIPBVPxPhysics@physx@@PAPAVPxConvexMesh@2@I@Z 100092e0 f   PxAutoGeneratedMetaDataObjects.obj
 0001:00008300       ?getNbPxPhysics_ConvexMeshes@@YAIPBVPxPhysics@physx@@@Z 10009300 f   PxAutoGeneratedMetaDataObjects.obj
 0001:00008310       ?createPxPhysics_ConvexMeshes@@YAPAVPxConvexMesh@physx@@PAVPxPhysics@2@AAVPxInputStream@2@@Z 10009310 f   PxAutoGeneratedMetaDataObjects.obj
 0001:00008320       ?getPxPhysics_BVHStructures@@YAIPBVPxPhysics@physx@@PAPAVPxBVHStructure@2@I@Z 10009320 f   PxAutoGeneratedMetaDataObjects.obj
 0001:00008340       ?getNbPxPhysics_BVHStructures@@YAIPBVPxPhysics@physx@@@Z 10009340 f   PxAutoGeneratedMetaDataObjects.obj
 0001:00008350       ?createPxPhysics_BVHStructures@@YAPAVPxBVHStructure@physx@@PAVPxPhysics@2@AAVPxInputStream@2@@Z 10009350 f   PxAutoGeneratedMetaDataObjects.obj
 0001:00008360       ?getPxPhysics_Scenes@@YAIPBVPxPhysics@physx@@PAPAVPxScene@2@I@Z 10009360 f   PxAutoGeneratedMetaDataObjects.obj
 0001:00008380       ?getNbPxPhysics_Scenes@@YAIPBVPxPhysics@physx@@@Z 10009380 f   PxAutoGeneratedMetaDataObjects.obj
 0001:00008390       ?createPxPhysics_Scenes@@YAPAVPxScene@physx@@PAVPxPhysics@2@ABVPxSceneDesc@2@@Z 10009390 f   PxAutoGeneratedMetaDataObjects.obj
 0001:000083a0       ?getPxPhysics_Shapes@@YAIPBVPxPhysics@physx@@PAPAVPxShape@2@I@Z 100093a0 f   PxAutoGeneratedMetaDataObjects.obj
 0001:000083c0       ?getNbPxPhysics_Shapes@@YAIPBVPxPhysics@physx@@@Z 100093c0 f   PxAutoGeneratedMetaDataObjects.obj
 0001:000083d0       ?getPxPhysics_Materials@@YAIPBVPxPhysics@physx@@PAPAVPxMaterial@2@I@Z 100093d0 f   PxAutoGeneratedMetaDataObjects.obj
 0001:000083f0       ?getNbPxPhysics_Materials@@YAIPBVPxPhysics@physx@@@Z 100093f0 f   PxAutoGeneratedMetaDataObjects.obj
 0001:00008400       ?getPxMaterial_ReferenceCount@@YAIPBVPxMaterial@physx@@@Z 10009400 f   PxAutoGeneratedMetaDataObjects.obj
 0001:00008410       ?setPxMaterial_DynamicFriction@@YAXPAVPxMaterial@physx@@M@Z 10009410 f   PxAutoGeneratedMetaDataObjects.obj
 0001:00008430       ?getPxMaterial_DynamicFriction@@YAMPBVPxMaterial@physx@@@Z 10009430 f   PxAutoGeneratedMetaDataObjects.obj
 0001:00008440       ?setPxMaterial_StaticFriction@@YAXPAVPxMaterial@physx@@M@Z 10009440 f   PxAutoGeneratedMetaDataObjects.obj
 0001:00008460       ?getPxMaterial_StaticFriction@@YAMPBVPxMaterial@physx@@@Z 10009460 f   PxAutoGeneratedMetaDataObjects.obj
 0001:00008470       ?setPxMaterial_Restitution@@YAXPAVPxMaterial@physx@@M@Z 10009470 f   PxAutoGeneratedMetaDataObjects.obj
 0001:00008490       ?getPxMaterial_Restitution@@YAMPBVPxMaterial@physx@@@Z 10009490 f   PxAutoGeneratedMetaDataObjects.obj
 0001:000084a0       ?setPxMaterial_Flags@@YAXPAVPxMaterial@physx@@V?$PxFlags@W4Enum@PxMaterialFlag@physx@@G@2@@Z 100094a0 f   PxAutoGeneratedMetaDataObjects.obj
 0001:000084c0       ?getPxMaterial_Flags@@YA?AV?$PxFlags@W4Enum@PxMaterialFlag@physx@@G@physx@@PBVPxMaterial@2@@Z 100094c0 f   PxAutoGeneratedMetaDataObjects.obj
 0001:000084e0       ?setPxMaterial_FrictionCombineMode@@YAXPAVPxMaterial@physx@@W4Enum@PxCombineMode@2@@Z 100094e0 f   PxAutoGeneratedMetaDataObjects.obj
 0001:000084f0       ?getPxMaterial_FrictionCombineMode@@YA?AW4Enum@PxCombineMode@physx@@PBVPxMaterial@3@@Z 100094f0 f   PxAutoGeneratedMetaDataObjects.obj
 0001:00008500       ?setPxMaterial_RestitutionCombineMode@@YAXPAVPxMaterial@physx@@W4Enum@PxCombineMode@2@@Z 10009500 f   PxAutoGeneratedMetaDataObjects.obj
 0001:00008510       ?getPxMaterial_RestitutionCombineMode@@YA?AW4Enum@PxCombineMode@physx@@PBVPxMaterial@3@@Z 10009510 f   PxAutoGeneratedMetaDataObjects.obj
 0001:00008520       ?getPxMaterial_ConcreteTypeName@@YAPBDPBVPxMaterial@physx@@@Z 10009520 f   PxAutoGeneratedMetaDataObjects.obj
 0001:00008530       ?getPxActor_Scene@@YAPAVPxScene@physx@@PBVPxActor@2@@Z 10009530 f   PxAutoGeneratedMetaDataObjects.obj
 0001:00008540       ?setPxActor_Name@@YAXPAVPxActor@physx@@PBD@Z 10009540 f   PxAutoGeneratedMetaDataObjects.obj
 0001:00008550       ?getPxActor_Name@@YAPBDPBVPxActor@physx@@@Z 10009550 f   PxAutoGeneratedMetaDataObjects.obj
 0001:00008560       ?setPxActor_ActorFlags@@YAXPAVPxActor@physx@@V?$PxFlags@W4Enum@PxActorFlag@physx@@E@2@@Z 10009560 f   PxAutoGeneratedMetaDataObjects.obj
 0001:00008580       ?getPxActor_ActorFlags@@YA?AV?$PxFlags@W4Enum@PxActorFlag@physx@@E@physx@@PBVPxActor@2@@Z 10009580 f   PxAutoGeneratedMetaDataObjects.obj
 0001:000085a0       ?setPxActor_DominanceGroup@@YAXPAVPxActor@physx@@E@Z 100095a0 f   PxAutoGeneratedMetaDataObjects.obj
 0001:000085b0       ?getPxActor_DominanceGroup@@YAEPBVPxActor@physx@@@Z 100095b0 f   PxAutoGeneratedMetaDataObjects.obj
 0001:000085c0       ?setPxActor_OwnerClient@@YAXPAVPxActor@physx@@E@Z 100095c0 f   PxAutoGeneratedMetaDataObjects.obj
 0001:000085d0       ?getPxActor_OwnerClient@@YAEPBVPxActor@physx@@@Z 100095d0 f   PxAutoGeneratedMetaDataObjects.obj
 0001:000085e0       ?getPxActor_Aggregate@@YAPAVPxAggregate@physx@@PBVPxActor@2@@Z 100095e0 f   PxAutoGeneratedMetaDataObjects.obj
 0001:000085f0       ?setPxRigidActor_GlobalPose@@YAXPAVPxRigidActor@physx@@ABVPxTransform@2@@Z 100095f0 f   PxAutoGeneratedMetaDataObjects.obj
 0001:00008600       ?getPxRigidActor_GlobalPose@@YA?AVPxTransform@physx@@PBVPxRigidActor@2@@Z 10009600 f   PxAutoGeneratedMetaDataObjects.obj
 0001:00008620       ?getPxRigidActor_Shapes@@YAIPBVPxRigidActor@physx@@PAPAVPxShape@2@I@Z 10009620 f   PxAutoGeneratedMetaDataObjects.obj
 0001:00008640       ?getNbPxRigidActor_Shapes@@YAIPBVPxRigidActor@physx@@@Z 10009640 f   PxAutoGeneratedMetaDataObjects.obj
 0001:00008650       ?getPxRigidActor_Constraints@@YAIPBVPxRigidActor@physx@@PAPAVPxConstraint@2@I@Z 10009650 f   PxAutoGeneratedMetaDataObjects.obj
 0001:00008670       ?getNbPxRigidActor_Constraints@@YAIPBVPxRigidActor@physx@@@Z 10009670 f   PxAutoGeneratedMetaDataObjects.obj
 0001:00008680       ?setPxRigidBody_CMassLocalPose@@YAXPAVPxRigidBody@physx@@ABVPxTransform@2@@Z 10009680 f   PxAutoGeneratedMetaDataObjects.obj
 0001:00008690       ?getPxRigidBody_CMassLocalPose@@YA?AVPxTransform@physx@@PBVPxRigidBody@2@@Z 10009690 f   PxAutoGeneratedMetaDataObjects.obj
 0001:000086b0       ?setPxRigidBody_Mass@@YAXPAVPxRigidBody@physx@@M@Z 100096b0 f   PxAutoGeneratedMetaDataObjects.obj
 0001:000086d0       ?getPxRigidBody_Mass@@YAMPBVPxRigidBody@physx@@@Z 100096d0 f   PxAutoGeneratedMetaDataObjects.obj
 0001:000086e0       ?getPxRigidBody_InvMass@@YAMPBVPxRigidBody@physx@@@Z 100096e0 f   PxAutoGeneratedMetaDataObjects.obj
 0001:000086f0       ?setPxRigidBody_MassSpaceInertiaTensor@@YAXPAVPxRigidBody@physx@@ABVPxVec3@2@@Z 100096f0 f   PxAutoGeneratedMetaDataObjects.obj
 0001:00008700       ?getPxRigidBody_MassSpaceInertiaTensor@@YA?AVPxVec3@physx@@PBVPxRigidBody@2@@Z 10009700 f   PxAutoGeneratedMetaDataObjects.obj
 0001:00008720       ?getPxRigidBody_MassSpaceInvInertiaTensor@@YA?AVPxVec3@physx@@PBVPxRigidBody@2@@Z 10009720 f   PxAutoGeneratedMetaDataObjects.obj
 0001:00008740       ?setPxRigidBody_LinearDamping@@YAXPAVPxRigidBody@physx@@M@Z 10009740 f   PxAutoGeneratedMetaDataObjects.obj
 0001:00008760       ?getPxRigidBody_LinearDamping@@YAMPBVPxRigidBody@physx@@@Z 10009760 f   PxAutoGeneratedMetaDataObjects.obj
 0001:00008770       ?setPxRigidBody_AngularDamping@@YAXPAVPxRigidBody@physx@@M@Z 10009770 f   PxAutoGeneratedMetaDataObjects.obj
 0001:00008790       ?getPxRigidBody_AngularDamping@@YAMPBVPxRigidBody@physx@@@Z 10009790 f   PxAutoGeneratedMetaDataObjects.obj
 0001:000087a0       ?setPxRigidBody_LinearVelocity@@YAXPAVPxRigidBody@physx@@ABVPxVec3@2@@Z 100097a0 f   PxAutoGeneratedMetaDataObjects.obj
 0001:000087c0       ?getPxRigidBody_LinearVelocity@@YA?AVPxVec3@physx@@PBVPxRigidBody@2@@Z 100097c0 f   PxAutoGeneratedMetaDataObjects.obj
 0001:000087e0       ?setPxRigidBody_AngularVelocity@@YAXPAVPxRigidBody@physx@@ABVPxVec3@2@@Z 100097e0 f   PxAutoGeneratedMetaDataObjects.obj
 0001:00008800       ?getPxRigidBody_AngularVelocity@@YA?AVPxVec3@physx@@PBVPxRigidBody@2@@Z 10009800 f   PxAutoGeneratedMetaDataObjects.obj
 0001:00008820       ?setPxRigidBody_MaxAngularVelocity@@YAXPAVPxRigidBody@physx@@M@Z 10009820 f   PxAutoGeneratedMetaDataObjects.obj
 0001:00008840       ?getPxRigidBody_MaxAngularVelocity@@YAMPBVPxRigidBody@physx@@@Z 10009840 f   PxAutoGeneratedMetaDataObjects.obj
 0001:00008850       ?setPxRigidBody_MaxLinearVelocity@@YAXPAVPxRigidBody@physx@@M@Z 10009850 f   PxAutoGeneratedMetaDataObjects.obj
 0001:00008870       ?getPxRigidBody_MaxLinearVelocity@@YAMPBVPxRigidBody@physx@@@Z 10009870 f   PxAutoGeneratedMetaDataObjects.obj
 0001:00008880       ?setPxRigidBody_RigidBodyFlags@@YAXPAVPxRigidBody@physx@@V?$PxFlags@W4Enum@PxRigidBodyFlag@physx@@E@2@@Z 10009880 f   PxAutoGeneratedMetaDataObjects.obj
 0001:000088a0       ?getPxRigidBody_RigidBodyFlags@@YA?AV?$PxFlags@W4Enum@PxRigidBodyFlag@physx@@E@physx@@PBVPxRigidBody@2@@Z 100098a0 f   PxAutoGeneratedMetaDataObjects.obj
 0001:000088c0       ?setPxRigidBody_MinCCDAdvanceCoefficient@@YAXPAVPxRigidBody@physx@@M@Z 100098c0 f   PxAutoGeneratedMetaDataObjects.obj
 0001:000088e0       ?getPxRigidBody_MinCCDAdvanceCoefficient@@YAMPBVPxRigidBody@physx@@@Z 100098e0 f   PxAutoGeneratedMetaDataObjects.obj
 0001:000088f0       ?setPxRigidBody_MaxDepenetrationVelocity@@YAXPAVPxRigidBody@physx@@M@Z 100098f0 f   PxAutoGeneratedMetaDataObjects.obj
 0001:00008910       ?getPxRigidBody_MaxDepenetrationVelocity@@YAMPBVPxRigidBody@physx@@@Z 10009910 f   PxAutoGeneratedMetaDataObjects.obj
 0001:00008920       ?setPxRigidBody_MaxContactImpulse@@YAXPAVPxRigidBody@physx@@M@Z 10009920 f   PxAutoGeneratedMetaDataObjects.obj
 0001:00008940       ?getPxRigidBody_MaxContactImpulse@@YAMPBVPxRigidBody@physx@@@Z 10009940 f   PxAutoGeneratedMetaDataObjects.obj
 0001:00008950       ?getPxRigidDynamic_IsSleeping@@YA_NPBVPxRigidDynamic@physx@@@Z 10009950 f   PxAutoGeneratedMetaDataObjects.obj
 0001:00008960       ?setPxRigidDynamic_SleepThreshold@@YAXPAVPxRigidDynamic@physx@@M@Z 10009960 f   PxAutoGeneratedMetaDataObjects.obj
 0001:00008980       ?getPxRigidDynamic_SleepThreshold@@YAMPBVPxRigidDynamic@physx@@@Z 10009980 f   PxAutoGeneratedMetaDataObjects.obj
 0001:00008990       ?setPxRigidDynamic_StabilizationThreshold@@YAXPAVPxRigidDynamic@physx@@M@Z 10009990 f   PxAutoGeneratedMetaDataObjects.obj
 0001:000089b0       ?getPxRigidDynamic_StabilizationThreshold@@YAMPBVPxRigidDynamic@physx@@@Z 100099b0 f   PxAutoGeneratedMetaDataObjects.obj
 0001:000089c0       ?setPxRigidDynamic_RigidDynamicLockFlags@@YAXPAVPxRigidDynamic@physx@@V?$PxFlags@W4Enum@PxRigidDynamicLockFlag@physx@@G@2@@Z 100099c0 f   PxAutoGeneratedMetaDataObjects.obj
 0001:000089e0       ?getPxRigidDynamic_RigidDynamicLockFlags@@YA?AV?$PxFlags@W4Enum@PxRigidDynamicLockFlag@physx@@G@physx@@PBVPxRigidDynamic@2@@Z 100099e0 f   PxAutoGeneratedMetaDataObjects.obj
 0001:00008a00       ?setPxRigidDynamic_WakeCounter@@YAXPAVPxRigidDynamic@physx@@M@Z 10009a00 f   PxAutoGeneratedMetaDataObjects.obj
 0001:00008a20       ?getPxRigidDynamic_WakeCounter@@YAMPBVPxRigidDynamic@physx@@@Z 10009a20 f   PxAutoGeneratedMetaDataObjects.obj
 0001:00008a30       ?setPxRigidDynamic_SolverIterationCounts@@YAXPAVPxRigidDynamic@physx@@II@Z 10009a30 f   PxAutoGeneratedMetaDataObjects.obj
 0001:00008a50       ?getPxRigidDynamic_SolverIterationCounts@@YAXPBVPxRigidDynamic@physx@@AAI1@Z 10009a50 f   PxAutoGeneratedMetaDataObjects.obj
 0001:00008a70       ?setPxRigidDynamic_ContactReportThreshold@@YAXPAVPxRigidDynamic@physx@@M@Z 10009a70 f   PxAutoGeneratedMetaDataObjects.obj
 0001:00008a90       ?getPxRigidDynamic_ContactReportThreshold@@YAMPBVPxRigidDynamic@physx@@@Z 10009a90 f   PxAutoGeneratedMetaDataObjects.obj
 0001:00008aa0       ?getPxRigidDynamic_ConcreteTypeName@@YAPBDPBVPxRigidDynamic@physx@@@Z 10009aa0 f   PxAutoGeneratedMetaDataObjects.obj
 0001:00008ab0       ?getPxRigidStatic_ConcreteTypeName@@YAPBDPBVPxRigidStatic@physx@@@Z 10009ab0 f   PxAutoGeneratedMetaDataObjects.obj
 0001:00008ac0       ?getPxArticulationLink_InboundJoint@@YAPAVPxArticulationJointBase@physx@@PBVPxArticulationLink@2@@Z 10009ac0 f   PxAutoGeneratedMetaDataObjects.obj
 0001:00008ad0       ?getPxArticulationLink_InboundJointDof@@YAIPBVPxArticulationLink@physx@@@Z 10009ad0 f   PxAutoGeneratedMetaDataObjects.obj
 0001:00008ae0       ?getPxArticulationLink_LinkIndex@@YAIPBVPxArticulationLink@physx@@@Z 10009ae0 f   PxAutoGeneratedMetaDataObjects.obj
 0001:00008af0       ?getPxArticulationLink_Children@@YAIPBVPxArticulationLink@physx@@PAPAV12@I@Z 10009af0 f   PxAutoGeneratedMetaDataObjects.obj
 0001:00008b10       ?getNbPxArticulationLink_Children@@YAIPBVPxArticulationLink@physx@@@Z 10009b10 f   PxAutoGeneratedMetaDataObjects.obj
 0001:00008b20       ?getPxArticulationLink_ConcreteTypeName@@YAPBDPBVPxArticulationLink@physx@@@Z 10009b20 f   PxAutoGeneratedMetaDataObjects.obj
 0001:00008b30       ?setPxArticulationJointBase_ParentPose@@YAXPAVPxArticulationJointBase@physx@@ABVPxTransform@2@@Z 10009b30 f   PxAutoGeneratedMetaDataObjects.obj
 0001:00008b40       ?getPxArticulationJointBase_ParentPose@@YA?AVPxTransform@physx@@PBVPxArticulationJointBase@2@@Z 10009b40 f   PxAutoGeneratedMetaDataObjects.obj
 0001:00008b60       ?setPxArticulationJointBase_ChildPose@@YAXPAVPxArticulationJointBase@physx@@ABVPxTransform@2@@Z 10009b60 f   PxAutoGeneratedMetaDataObjects.obj
 0001:00008b70       ?getPxArticulationJointBase_ChildPose@@YA?AVPxTransform@physx@@PBVPxArticulationJointBase@2@@Z 10009b70 f   PxAutoGeneratedMetaDataObjects.obj
 0001:00008b90       ?setPxArticulationJoint_TargetOrientation@@YAXPAVPxArticulationJoint@physx@@ABVPxQuat@2@@Z 10009b90 f   PxAutoGeneratedMetaDataObjects.obj
 0001:00008ba0       ?getPxArticulationJoint_TargetOrientation@@YA?AVPxQuat@physx@@PBVPxArticulationJoint@2@@Z 10009ba0 f   PxAutoGeneratedMetaDataObjects.obj
 0001:00008bc0       ?setPxArticulationJoint_TargetVelocity@@YAXPAVPxArticulationJoint@physx@@ABVPxVec3@2@@Z 10009bc0 f   PxAutoGeneratedMetaDataObjects.obj
 0001:00008bd0       ?getPxArticulationJoint_TargetVelocity@@YA?AVPxVec3@physx@@PBVPxArticulationJoint@2@@Z 10009bd0 f   PxAutoGeneratedMetaDataObjects.obj
 0001:00008bf0       ?setPxArticulationJoint_DriveType@@YAXPAVPxArticulationJoint@physx@@W4Enum@PxArticulationJointDriveType@2@@Z 10009bf0 f   PxAutoGeneratedMetaDataObjects.obj
 0001:00008c00       ?getPxArticulationJoint_DriveType@@YA?AW4Enum@PxArticulationJointDriveType@physx@@PBVPxArticulationJoint@3@@Z 10009c00 f   PxAutoGeneratedMetaDataObjects.obj
 0001:00008c10       ?setPxArticulationJoint_Stiffness@@YAXPAVPxArticulationJoint@physx@@M@Z 10009c10 f   PxAutoGeneratedMetaDataObjects.obj
 0001:00008c30       ?getPxArticulationJoint_Stiffness@@YAMPBVPxArticulationJoint@physx@@@Z 10009c30 f   PxAutoGeneratedMetaDataObjects.obj
 0001:00008c40       ?setPxArticulationJoint_Damping@@YAXPAVPxArticulationJoint@physx@@M@Z 10009c40 f   PxAutoGeneratedMetaDataObjects.obj
 0001:00008c60       ?getPxArticulationJoint_Damping@@YAMPBVPxArticulationJoint@physx@@@Z 10009c60 f   PxAutoGeneratedMetaDataObjects.obj
 0001:00008c70       ?setPxArticulationJoint_InternalCompliance@@YAXPAVPxArticulationJoint@physx@@M@Z 10009c70 f   PxAutoGeneratedMetaDataObjects.obj
 0001:00008c90       ?getPxArticulationJoint_InternalCompliance@@YAMPBVPxArticulationJoint@physx@@@Z 10009c90 f   PxAutoGeneratedMetaDataObjects.obj
 0001:00008ca0       ?setPxArticulationJoint_ExternalCompliance@@YAXPAVPxArticulationJoint@physx@@M@Z 10009ca0 f   PxAutoGeneratedMetaDataObjects.obj
 0001:00008cc0       ?getPxArticulationJoint_ExternalCompliance@@YAMPBVPxArticulationJoint@physx@@@Z 10009cc0 f   PxAutoGeneratedMetaDataObjects.obj
 0001:00008cd0       ?setPxArticulationJoint_SwingLimit@@YAXPAVPxArticulationJoint@physx@@MM@Z 10009cd0 f   PxAutoGeneratedMetaDataObjects.obj
 0001:00008d00       ?getPxArticulationJoint_SwingLimit@@YAXPBVPxArticulationJoint@physx@@AAM1@Z 10009d00 f   PxAutoGeneratedMetaDataObjects.obj
 0001:00008d20       ?setPxArticulationJoint_TangentialStiffness@@YAXPAVPxArticulationJoint@physx@@M@Z 10009d20 f   PxAutoGeneratedMetaDataObjects.obj
 0001:00008d40       ?getPxArticulationJoint_TangentialStiffness@@YAMPBVPxArticulationJoint@physx@@@Z 10009d40 f   PxAutoGeneratedMetaDataObjects.obj
 0001:00008d50       ?setPxArticulationJoint_TangentialDamping@@YAXPAVPxArticulationJoint@physx@@M@Z 10009d50 f   PxAutoGeneratedMetaDataObjects.obj
 0001:00008d70       ?getPxArticulationJoint_TangentialDamping@@YAMPBVPxArticulationJoint@physx@@@Z 10009d70 f   PxAutoGeneratedMetaDataObjects.obj
 0001:00008d80       ?setPxArticulationJoint_SwingLimitContactDistance@@YAXPAVPxArticulationJoint@physx@@M@Z 10009d80 f   PxAutoGeneratedMetaDataObjects.obj
 0001:00008da0       ?getPxArticulationJoint_SwingLimitContactDistance@@YAMPBVPxArticulationJoint@physx@@@Z 10009da0 f   PxAutoGeneratedMetaDataObjects.obj
 0001:00008db0       ?setPxArticulationJoint_SwingLimitEnabled@@YAXPAVPxArticulationJoint@physx@@_N@Z 10009db0 f   PxAutoGeneratedMetaDataObjects.obj
 0001:00008dd0       ?getPxArticulationJoint_SwingLimitEnabled@@YA_NPBVPxArticulationJoint@physx@@@Z 10009dd0 f   PxAutoGeneratedMetaDataObjects.obj
 0001:00008de0       ?setPxArticulationJoint_TwistLimit@@YAXPAVPxArticulationJoint@physx@@MM@Z 10009de0 f   PxAutoGeneratedMetaDataObjects.obj
 0001:00008e10       ?getPxArticulationJoint_TwistLimit@@YAXPBVPxArticulationJoint@physx@@AAM1@Z 10009e10 f   PxAutoGeneratedMetaDataObjects.obj
 0001:00008e30       ?setPxArticulationJoint_TwistLimitEnabled@@YAXPAVPxArticulationJoint@physx@@_N@Z 10009e30 f   PxAutoGeneratedMetaDataObjects.obj
 0001:00008e50       ?getPxArticulationJoint_TwistLimitEnabled@@YA_NPBVPxArticulationJoint@physx@@@Z 10009e50 f   PxAutoGeneratedMetaDataObjects.obj
 0001:00008e60       ?setPxArticulationJoint_TwistLimitContactDistance@@YAXPAVPxArticulationJoint@physx@@M@Z 10009e60 f   PxAutoGeneratedMetaDataObjects.obj
 0001:00008e80       ?getPxArticulationJoint_TwistLimitContactDistance@@YAMPBVPxArticulationJoint@physx@@@Z 10009e80 f   PxAutoGeneratedMetaDataObjects.obj
 0001:00008e90       ?getPxArticulationJoint_ConcreteTypeName@@YAPBDPBVPxArticulationJoint@physx@@@Z 10009e90 f   PxAutoGeneratedMetaDataObjects.obj
 0001:00008ea0       ?getPxArticulationBase_Scene@@YAPAVPxScene@physx@@PBVPxArticulationBase@2@@Z 10009ea0 f   PxAutoGeneratedMetaDataObjects.obj
 0001:00008eb0       ?setPxArticulationBase_SolverIterationCounts@@YAXPAVPxArticulationBase@physx@@II@Z 10009eb0 f   PxAutoGeneratedMetaDataObjects.obj
 0001:00008ed0       ?getPxArticulationBase_SolverIterationCounts@@YAXPBVPxArticulationBase@physx@@AAI1@Z 10009ed0 f   PxAutoGeneratedMetaDataObjects.obj
 0001:00008ef0       ?getPxArticulationBase_IsSleeping@@YA_NPBVPxArticulationBase@physx@@@Z 10009ef0 f   PxAutoGeneratedMetaDataObjects.obj
 0001:00008f00       ?setPxArticulationBase_SleepThreshold@@YAXPAVPxArticulationBase@physx@@M@Z 10009f00 f   PxAutoGeneratedMetaDataObjects.obj
 0001:00008f20       ?getPxArticulationBase_SleepThreshold@@YAMPBVPxArticulationBase@physx@@@Z 10009f20 f   PxAutoGeneratedMetaDataObjects.obj
 0001:00008f30       ?setPxArticulationBase_StabilizationThreshold@@YAXPAVPxArticulationBase@physx@@M@Z 10009f30 f   PxAutoGeneratedMetaDataObjects.obj
 0001:00008f50       ?getPxArticulationBase_StabilizationThreshold@@YAMPBVPxArticulationBase@physx@@@Z 10009f50 f   PxAutoGeneratedMetaDataObjects.obj
 0001:00008f60       ?setPxArticulationBase_WakeCounter@@YAXPAVPxArticulationBase@physx@@M@Z 10009f60 f   PxAutoGeneratedMetaDataObjects.obj
 0001:00008f80       ?getPxArticulationBase_WakeCounter@@YAMPBVPxArticulationBase@physx@@@Z 10009f80 f   PxAutoGeneratedMetaDataObjects.obj
 0001:00008f90       ?getPxArticulationBase_Links@@YAIPBVPxArticulationBase@physx@@PAPAVPxArticulationLink@2@I@Z 10009f90 f   PxAutoGeneratedMetaDataObjects.obj
 0001:00008fb0       ?getNbPxArticulationBase_Links@@YAIPBVPxArticulationBase@physx@@@Z 10009fb0 f   PxAutoGeneratedMetaDataObjects.obj
 0001:00008fc0       ?setPxArticulationBase_Name@@YAXPAVPxArticulationBase@physx@@PBD@Z 10009fc0 f   PxAutoGeneratedMetaDataObjects.obj
 0001:00008fd0       ?getPxArticulationBase_Name@@YAPBDPBVPxArticulationBase@physx@@@Z 10009fd0 f   PxAutoGeneratedMetaDataObjects.obj
 0001:00008fe0       ?getPxArticulationBase_Aggregate@@YAPAVPxAggregate@physx@@PBVPxArticulationBase@2@@Z 10009fe0 f   PxAutoGeneratedMetaDataObjects.obj
 0001:00008ff0       ?getPxArticulationBase_Type@@YA?AW4Enum@PxArticulationBase@physx@@PBV23@@Z 10009ff0 f   PxAutoGeneratedMetaDataObjects.obj
 0001:00009000       ?setPxArticulation_MaxProjectionIterations@@YAXPAVPxArticulation@physx@@I@Z 1000a000 f   PxAutoGeneratedMetaDataObjects.obj
 0001:00009010       ?getPxArticulation_MaxProjectionIterations@@YAIPBVPxArticulation@physx@@@Z 1000a010 f   PxAutoGeneratedMetaDataObjects.obj
 0001:00009020       ?setPxArticulation_SeparationTolerance@@YAXPAVPxArticulation@physx@@M@Z 1000a020 f   PxAutoGeneratedMetaDataObjects.obj
 0001:00009040       ?getPxArticulation_SeparationTolerance@@YAMPBVPxArticulation@physx@@@Z 1000a040 f   PxAutoGeneratedMetaDataObjects.obj
 0001:00009050       ?setPxArticulation_InternalDriveIterations@@YAXPAVPxArticulation@physx@@I@Z 1000a050 f   PxAutoGeneratedMetaDataObjects.obj
 0001:00009070       ?getPxArticulation_InternalDriveIterations@@YAIPBVPxArticulation@physx@@@Z 1000a070 f   PxAutoGeneratedMetaDataObjects.obj
 0001:00009080       ?setPxArticulation_ExternalDriveIterations@@YAXPAVPxArticulation@physx@@I@Z 1000a080 f   PxAutoGeneratedMetaDataObjects.obj
 0001:000090a0       ?getPxArticulation_ExternalDriveIterations@@YAIPBVPxArticulation@physx@@@Z 1000a0a0 f   PxAutoGeneratedMetaDataObjects.obj
 0001:000090b0       ?getPxAggregate_MaxNbActors@@YAIPBVPxAggregate@physx@@@Z 1000a0b0 f   PxAutoGeneratedMetaDataObjects.obj
 0001:000090c0       ?getPxAggregate_Actors@@YAIPBVPxAggregate@physx@@PAPAVPxActor@2@I@Z 1000a0c0 f   PxAutoGeneratedMetaDataObjects.obj
 0001:000090e0       ?getNbPxAggregate_Actors@@YAIPBVPxAggregate@physx@@@Z 1000a0e0 f   PxAutoGeneratedMetaDataObjects.obj
 0001:000090f0       ?getPxAggregate_SelfCollision@@YA_NPBVPxAggregate@physx@@@Z 1000a0f0 f   PxAutoGeneratedMetaDataObjects.obj
 0001:00009100       ?getPxAggregate_ConcreteTypeName@@YAPBDPBVPxAggregate@physx@@@Z 1000a100 f   PxAutoGeneratedMetaDataObjects.obj
 0001:00009110       ?getPxConstraint_Scene@@YAPAVPxScene@physx@@PBVPxConstraint@2@@Z 1000a110 f   PxAutoGeneratedMetaDataObjects.obj
 0001:00009120       ?setPxConstraint_Actors@@YAXPAVPxConstraint@physx@@PAVPxRigidActor@2@1@Z 1000a120 f   PxAutoGeneratedMetaDataObjects.obj
 0001:00009140       ?getPxConstraint_Actors@@YAXPBVPxConstraint@physx@@AAPAVPxRigidActor@2@1@Z 1000a140 f   PxAutoGeneratedMetaDataObjects.obj
 0001:00009160       ?setPxConstraint_Flags@@YAXPAVPxConstraint@physx@@V?$PxFlags@W4Enum@PxConstraintFlag@physx@@G@2@@Z 1000a160 f   PxAutoGeneratedMetaDataObjects.obj
 0001:00009180       ?getPxConstraint_Flags@@YA?AV?$PxFlags@W4Enum@PxConstraintFlag@physx@@G@physx@@PBVPxConstraint@2@@Z 1000a180 f   PxAutoGeneratedMetaDataObjects.obj
 0001:000091a0       ?getPxConstraint_IsValid@@YA_NPBVPxConstraint@physx@@@Z 1000a1a0 f   PxAutoGeneratedMetaDataObjects.obj
 0001:000091b0       ?setPxConstraint_BreakForce@@YAXPAVPxConstraint@physx@@MM@Z 1000a1b0 f   PxAutoGeneratedMetaDataObjects.obj
 0001:000091e0       ?getPxConstraint_BreakForce@@YAXPBVPxConstraint@physx@@AAM1@Z 1000a1e0 f   PxAutoGeneratedMetaDataObjects.obj
 0001:00009200       ?setPxConstraint_MinResponseThreshold@@YAXPAVPxConstraint@physx@@M@Z 1000a200 f   PxAutoGeneratedMetaDataObjects.obj
 0001:00009220       ?getPxConstraint_MinResponseThreshold@@YAMPBVPxConstraint@physx@@@Z 1000a220 f   PxAutoGeneratedMetaDataObjects.obj
 0001:00009230       ?getPxConstraint_ConcreteTypeName@@YAPBDPBVPxConstraint@physx@@@Z 1000a230 f   PxAutoGeneratedMetaDataObjects.obj
 0001:00009240       ?getPxShape_ReferenceCount@@YAIPBVPxShape@physx@@@Z 1000a240 f   PxAutoGeneratedMetaDataObjects.obj
 0001:00009250       ?getPxShape_GeometryType@@YA?AW4Enum@PxGeometryType@physx@@PBVPxShape@3@@Z 1000a250 f   PxAutoGeneratedMetaDataObjects.obj
 0001:00009260       ?setPxShape_Geometry@@YAXPAVPxShape@physx@@ABVPxGeometry@2@@Z 1000a260 f   PxAutoGeneratedMetaDataObjects.obj
 0001:00009270       ?getPxShape_Geometry@@YA?AVPxGeometryHolder@physx@@PBVPxShape@2@@Z 1000a270 f   PxAutoGeneratedMetaDataObjects.obj
 0001:00009290       ?setPxShape_LocalPose@@YAXPAVPxShape@physx@@ABVPxTransform@2@@Z 1000a290 f   PxAutoGeneratedMetaDataObjects.obj
 0001:000092a0       ?getPxShape_LocalPose@@YA?AVPxTransform@physx@@PBVPxShape@2@@Z 1000a2a0 f   PxAutoGeneratedMetaDataObjects.obj
 0001:000092c0       ?setPxShape_SimulationFilterData@@YAXPAVPxShape@physx@@ABUPxFilterData@2@@Z 1000a2c0 f   PxAutoGeneratedMetaDataObjects.obj
 0001:000092d0       ?getPxShape_SimulationFilterData@@YA?AUPxFilterData@physx@@PBVPxShape@2@@Z 1000a2d0 f   PxAutoGeneratedMetaDataObjects.obj
 0001:000092f0       ?setPxShape_QueryFilterData@@YAXPAVPxShape@physx@@ABUPxFilterData@2@@Z 1000a2f0 f   PxAutoGeneratedMetaDataObjects.obj
 0001:00009300       ?getPxShape_QueryFilterData@@YA?AUPxFilterData@physx@@PBVPxShape@2@@Z 1000a300 f   PxAutoGeneratedMetaDataObjects.obj
 0001:00009320       ?getPxShape_Materials@@YAIPBVPxShape@physx@@PAPAVPxMaterial@2@I@Z 1000a320 f   PxAutoGeneratedMetaDataObjects.obj
 0001:00009340       ?getNbPxShape_Materials@@YAIPBVPxShape@physx@@@Z 1000a340 f   PxAutoGeneratedMetaDataObjects.obj
 0001:00009350       ?setPxShape_ContactOffset@@YAXPAVPxShape@physx@@M@Z 1000a350 f   PxAutoGeneratedMetaDataObjects.obj
 0001:00009370       ?getPxShape_ContactOffset@@YAMPBVPxShape@physx@@@Z 1000a370 f   PxAutoGeneratedMetaDataObjects.obj
 0001:00009380       ?setPxShape_RestOffset@@YAXPAVPxShape@physx@@M@Z 1000a380 f   PxAutoGeneratedMetaDataObjects.obj
 0001:000093a0       ?getPxShape_RestOffset@@YAMPBVPxShape@physx@@@Z 1000a3a0 f   PxAutoGeneratedMetaDataObjects.obj
 0001:000093b0       ?setPxShape_TorsionalPatchRadius@@YAXPAVPxShape@physx@@M@Z 1000a3b0 f   PxAutoGeneratedMetaDataObjects.obj
 0001:000093d0       ?getPxShape_TorsionalPatchRadius@@YAMPBVPxShape@physx@@@Z 1000a3d0 f   PxAutoGeneratedMetaDataObjects.obj
 0001:000093e0       ?setPxShape_MinTorsionalPatchRadius@@YAXPAVPxShape@physx@@M@Z 1000a3e0 f   PxAutoGeneratedMetaDataObjects.obj
 0001:00009400       ?getPxShape_MinTorsionalPatchRadius@@YAMPBVPxShape@physx@@@Z 1000a400 f   PxAutoGeneratedMetaDataObjects.obj
 0001:00009410       ?setPxShape_Flags@@YAXPAVPxShape@physx@@V?$PxFlags@W4Enum@PxShapeFlag@physx@@E@2@@Z 1000a410 f   PxAutoGeneratedMetaDataObjects.obj
 0001:00009430       ?getPxShape_Flags@@YA?AV?$PxFlags@W4Enum@PxShapeFlag@physx@@E@physx@@PBVPxShape@2@@Z 1000a430 f   PxAutoGeneratedMetaDataObjects.obj
 0001:00009450       ?getPxShape_IsExclusive@@YA_NPBVPxShape@physx@@@Z 1000a450 f   PxAutoGeneratedMetaDataObjects.obj
 0001:00009460       ?setPxShape_Name@@YAXPAVPxShape@physx@@PBD@Z 1000a460 f   PxAutoGeneratedMetaDataObjects.obj
 0001:00009480       ?getPxShape_Name@@YAPBDPBVPxShape@physx@@@Z 1000a480 f   PxAutoGeneratedMetaDataObjects.obj
 0001:00009490       ?getPxShape_ConcreteTypeName@@YAPBDPBVPxShape@physx@@@Z 1000a490 f   PxAutoGeneratedMetaDataObjects.obj
 0001:000094a0       ?getPxPruningStructure_RigidActors@@YAIPBVPxPruningStructure@physx@@PAPAVPxRigidActor@2@I@Z 1000a4a0 f   PxAutoGeneratedMetaDataObjects.obj
 0001:000094c0       ?getNbPxPruningStructure_RigidActors@@YAIPBVPxPruningStructure@physx@@@Z 1000a4c0 f   PxAutoGeneratedMetaDataObjects.obj
 0001:000094d0       ?getPxPruningStructure_ConcreteTypeName@@YAPBDPBVPxPruningStructure@physx@@@Z 1000a4d0 f   PxAutoGeneratedMetaDataObjects.obj
 0001:000094e0       ?getPxTolerancesScale_IsValid@@YA_NPBVPxTolerancesScale@physx@@@Z 1000a4e0 f   PxAutoGeneratedMetaDataObjects.obj
 0001:00009500       ?setPxArticulationJointReducedCoordinate_JointType@@YAXPAVPxArticulationJointReducedCoordinate@physx@@W4Enum@PxArticulationJointType@2@@Z 1000a500 f   PxAutoGeneratedMetaDataObjects.obj
 0001:00009510       ?getPxArticulationJointReducedCoordinate_JointType@@YA?AW4Enum@PxArticulationJointType@physx@@PBVPxArticulationJointReducedCoordinate@3@@Z 1000a510 f   PxAutoGeneratedMetaDataObjects.obj
 0001:00009520       ?setPxArticulationJointReducedCoordinate_Motion@@YAXPAVPxArticulationJointReducedCoordinate@physx@@W4Enum@PxArticulationAxis@2@W43PxArticulationMotion@2@@Z 1000a520 f   PxAutoGeneratedMetaDataObjects.obj
 0001:00009540       ?getPxArticulationJointReducedCoordinate_Motion@@YA?AW4Enum@PxArticulationMotion@physx@@PBVPxArticulationJointReducedCoordinate@3@W41PxArticulationAxis@3@@Z 1000a540 f   PxAutoGeneratedMetaDataObjects.obj
 0001:00009550       ?setPxArticulationJointReducedCoordinate_FrictionCoefficient@@YAXPAVPxArticulationJointReducedCoordinate@physx@@M@Z 1000a550 f   PxAutoGeneratedMetaDataObjects.obj
 0001:00009570       ?getPxArticulationJointReducedCoordinate_FrictionCoefficient@@YAMPBVPxArticulationJointReducedCoordinate@physx@@@Z 1000a570 f   PxAutoGeneratedMetaDataObjects.obj
 0001:00009580       ?getPxArticulationJointReducedCoordinate_ConcreteTypeName@@YAPBDPBVPxArticulationJointReducedCoordinate@physx@@@Z 1000a580 f   PxAutoGeneratedMetaDataObjects.obj
 0001:00009590       ?setPxArticulationJointReducedCoordinate_MaxJointVelocity@@YAXPAVPxArticulationJointReducedCoordinate@physx@@M@Z 1000a590 f   PxAutoGeneratedMetaDataObjects.obj
 0001:000095b0       ?getPxArticulationJointReducedCoordinate_MaxJointVelocity@@YAMPBVPxArticulationJointReducedCoordinate@physx@@@Z 1000a5b0 f   PxAutoGeneratedMetaDataObjects.obj
 0001:000095c0       ?getPxScene_Flags@@YA?AV?$PxFlags@W4Enum@PxSceneFlag@physx@@I@physx@@PBVPxScene@2@@Z 1000a5c0 f   PxAutoGeneratedMetaDataObjects.obj
 0001:000095e0       ?setPxScene_Limits@@YAXPAVPxScene@physx@@ABVPxSceneLimits@2@@Z 1000a5e0 f   PxAutoGeneratedMetaDataObjects.obj
 0001:000095f0       ?getPxScene_Limits@@YA?AVPxSceneLimits@physx@@PBVPxScene@2@@Z 1000a5f0 f   PxAutoGeneratedMetaDataObjects.obj
 0001:00009610       ?getPxScene_Timestamp@@YAIPBVPxScene@physx@@@Z 1000a610 f   PxAutoGeneratedMetaDataObjects.obj
 0001:00009620       ?getPxScene_Actors@@YAIPBVPxScene@physx@@V?$PxFlags@W4Enum@PxActorTypeFlag@physx@@G@2@PAPAVPxActor@2@I@Z 1000a620 f   PxAutoGeneratedMetaDataObjects.obj
 0001:00009640       ?getNbPxScene_Actors@@YAIPBVPxScene@physx@@V?$PxFlags@W4Enum@PxActorTypeFlag@physx@@G@2@@Z 1000a640 f   PxAutoGeneratedMetaDataObjects.obj
 0001:00009660       ?getPxScene_Articulations@@YAIPBVPxScene@physx@@PAPAVPxArticulationBase@2@I@Z 1000a660 f   PxAutoGeneratedMetaDataObjects.obj
 0001:00009680       ?getNbPxScene_Articulations@@YAIPBVPxScene@physx@@@Z 1000a680 f   PxAutoGeneratedMetaDataObjects.obj
 0001:00009690       ?getPxScene_Constraints@@YAIPBVPxScene@physx@@PAPAVPxConstraint@2@I@Z 1000a690 f   PxAutoGeneratedMetaDataObjects.obj
 0001:000096b0       ?getNbPxScene_Constraints@@YAIPBVPxScene@physx@@@Z 1000a6b0 f   PxAutoGeneratedMetaDataObjects.obj
 0001:000096c0       ?getPxScene_Aggregates@@YAIPBVPxScene@physx@@PAPAVPxAggregate@2@I@Z 1000a6c0 f   PxAutoGeneratedMetaDataObjects.obj
 0001:000096e0       ?getNbPxScene_Aggregates@@YAIPBVPxScene@physx@@@Z 1000a6e0 f   PxAutoGeneratedMetaDataObjects.obj
 0001:000096f0       ?getPxScene_CpuDispatcher@@YAPAVPxCpuDispatcher@physx@@PBVPxScene@2@@Z 1000a6f0 f   PxAutoGeneratedMetaDataObjects.obj
 0001:00009700       ?getPxScene_GpuDispatcher@@YAPAVPxGpuDispatcher@physx@@PBVPxScene@2@@Z 1000a700 f   PxAutoGeneratedMetaDataObjects.obj
 0001:00009710       ?setPxScene_SimulationEventCallback@@YAXPAVPxScene@physx@@PAVPxSimulationEventCallback@2@@Z 1000a710 f   PxAutoGeneratedMetaDataObjects.obj
 0001:00009730       ?getPxScene_SimulationEventCallback@@YAPAVPxSimulationEventCallback@physx@@PBVPxScene@2@@Z 1000a730 f   PxAutoGeneratedMetaDataObjects.obj
 0001:00009740       ?setPxScene_ContactModifyCallback@@YAXPAVPxScene@physx@@PAVPxContactModifyCallback@2@@Z 1000a740 f   PxAutoGeneratedMetaDataObjects.obj
 0001:00009760       ?getPxScene_ContactModifyCallback@@YAPAVPxContactModifyCallback@physx@@PBVPxScene@2@@Z 1000a760 f   PxAutoGeneratedMetaDataObjects.obj
 0001:00009770       ?setPxScene_CCDContactModifyCallback@@YAXPAVPxScene@physx@@PAVPxCCDContactModifyCallback@2@@Z 1000a770 f   PxAutoGeneratedMetaDataObjects.obj
 0001:00009790       ?getPxScene_CCDContactModifyCallback@@YAPAVPxCCDContactModifyCallback@physx@@PBVPxScene@2@@Z 1000a790 f   PxAutoGeneratedMetaDataObjects.obj
 0001:000097a0       ?setPxScene_BroadPhaseCallback@@YAXPAVPxScene@physx@@PAVPxBroadPhaseCallback@2@@Z 1000a7a0 f   PxAutoGeneratedMetaDataObjects.obj
 0001:000097c0       ?getPxScene_BroadPhaseCallback@@YAPAVPxBroadPhaseCallback@physx@@PBVPxScene@2@@Z 1000a7c0 f   PxAutoGeneratedMetaDataObjects.obj
 0001:000097d0       ?getPxScene_FilterShaderDataSize@@YAIPBVPxScene@physx@@@Z 1000a7d0 f   PxAutoGeneratedMetaDataObjects.obj
 0001:000097e0       ?getPxScene_FilterShader@@YAP6A?AV?$PxFlags@W4Enum@PxFilterFlag@physx@@G@physx@@IUPxFilterData@2@I0AAV?$PxFlags@W4Enum@PxPairFlag@physx@@G@2@PBXI@ZPBVPxScene@2@@Z 1000a7e0 f   PxAutoGeneratedMetaDataObjects.obj
 0001:000097f0       ?getPxScene_FilterCallback@@YAPAVPxSimulationFilterCallback@physx@@PBVPxScene@2@@Z 1000a7f0 f   PxAutoGeneratedMetaDataObjects.obj
 0001:00009800       ?setPxScene_Gravity@@YAXPAVPxScene@physx@@ABVPxVec3@2@@Z 1000a800 f   PxAutoGeneratedMetaDataObjects.obj
 0001:00009820       ?getPxScene_Gravity@@YA?AVPxVec3@physx@@PBVPxScene@2@@Z 1000a820 f   PxAutoGeneratedMetaDataObjects.obj
 0001:00009840       ?setPxScene_BounceThresholdVelocity@@YAXPAVPxScene@physx@@M@Z 1000a840 f   PxAutoGeneratedMetaDataObjects.obj
 0001:00009860       ?getPxScene_BounceThresholdVelocity@@YAMPBVPxScene@physx@@@Z 1000a860 f   PxAutoGeneratedMetaDataObjects.obj
 0001:00009870       ?setPxScene_CCDMaxPasses@@YAXPAVPxScene@physx@@I@Z 1000a870 f   PxAutoGeneratedMetaDataObjects.obj
 0001:00009890       ?getPxScene_CCDMaxPasses@@YAIPBVPxScene@physx@@@Z 1000a890 f   PxAutoGeneratedMetaDataObjects.obj
 0001:000098a0       ?getPxScene_FrictionOffsetThreshold@@YAMPBVPxScene@physx@@@Z 1000a8a0 f   PxAutoGeneratedMetaDataObjects.obj
 0001:000098b0       ?setPxScene_FrictionType@@YAXPAVPxScene@physx@@W4Enum@PxFrictionType@2@@Z 1000a8b0 f   PxAutoGeneratedMetaDataObjects.obj
 0001:000098d0       ?getPxScene_FrictionType@@YA?AW4Enum@PxFrictionType@physx@@PBVPxScene@3@@Z 1000a8d0 f   PxAutoGeneratedMetaDataObjects.obj
 0001:000098e0       ?setPxScene_VisualizationCullingBox@@YAXPAVPxScene@physx@@ABVPxBounds3@2@@Z 1000a8e0 f   PxAutoGeneratedMetaDataObjects.obj
 0001:00009900       ?getPxScene_VisualizationCullingBox@@YA?AVPxBounds3@physx@@PBVPxScene@2@@Z 1000a900 f   PxAutoGeneratedMetaDataObjects.obj
 0001:00009920       ?getPxScene_StaticStructure@@YA?AW4Enum@PxPruningStructureType@physx@@PBVPxScene@3@@Z 1000a920 f   PxAutoGeneratedMetaDataObjects.obj
 0001:00009930       ?getPxScene_DynamicStructure@@YA?AW4Enum@PxPruningStructureType@physx@@PBVPxScene@3@@Z 1000a930 f   PxAutoGeneratedMetaDataObjects.obj
 0001:00009940       ?setPxScene_DynamicTreeRebuildRateHint@@YAXPAVPxScene@physx@@I@Z 1000a940 f   PxAutoGeneratedMetaDataObjects.obj
 0001:00009960       ?getPxScene_DynamicTreeRebuildRateHint@@YAIPBVPxScene@physx@@@Z 1000a960 f   PxAutoGeneratedMetaDataObjects.obj
 0001:00009970       ?setPxScene_SceneQueryUpdateMode@@YAXPAVPxScene@physx@@W4Enum@PxSceneQueryUpdateMode@2@@Z 1000a970 f   PxAutoGeneratedMetaDataObjects.obj
 0001:00009990       ?getPxScene_SceneQueryUpdateMode@@YA?AW4Enum@PxSceneQueryUpdateMode@physx@@PBVPxScene@3@@Z 1000a990 f   PxAutoGeneratedMetaDataObjects.obj
 0001:000099a0       ?getPxScene_SceneQueryStaticTimestamp@@YAIPBVPxScene@physx@@@Z 1000a9a0 f   PxAutoGeneratedMetaDataObjects.obj
 0001:000099b0       ?getPxScene_BroadPhaseType@@YA?AW4Enum@PxBroadPhaseType@physx@@PBVPxScene@3@@Z 1000a9b0 f   PxAutoGeneratedMetaDataObjects.obj
 0001:000099c0       ?getPxScene_BroadPhaseRegions@@YAIPBVPxScene@physx@@PAUPxBroadPhaseRegionInfo@2@I@Z 1000a9c0 f   PxAutoGeneratedMetaDataObjects.obj
 0001:000099e0       ?getNbPxScene_BroadPhaseRegions@@YAIPBVPxScene@physx@@@Z 1000a9e0 f   PxAutoGeneratedMetaDataObjects.obj
 0001:000099f0       ?getPxScene_TaskManager@@YAPAVPxTaskManager@physx@@PBVPxScene@2@@Z 1000a9f0 f   PxAutoGeneratedMetaDataObjects.obj
 0001:00009a00       ?setPxScene_NbContactDataBlocks@@YAXPAVPxScene@physx@@I@Z 1000aa00 f   PxAutoGeneratedMetaDataObjects.obj
 0001:00009a20       ?getPxScene_MaxNbContactDataBlocksUsed@@YAIPBVPxScene@physx@@@Z 1000aa20 f   PxAutoGeneratedMetaDataObjects.obj
 0001:00009a30       ?getPxScene_ContactReportStreamBufferSize@@YAIPBVPxScene@physx@@@Z 1000aa30 f   PxAutoGeneratedMetaDataObjects.obj
 0001:00009a40       ?setPxScene_SolverBatchSize@@YAXPAVPxScene@physx@@I@Z 1000aa40 f   PxAutoGeneratedMetaDataObjects.obj
 0001:00009a60       ?getPxScene_SolverBatchSize@@YAIPBVPxScene@physx@@@Z 1000aa60 f   PxAutoGeneratedMetaDataObjects.obj
 0001:00009a70       ?getPxScene_WakeCounterResetValue@@YAMPBVPxScene@physx@@@Z 1000aa70 f   PxAutoGeneratedMetaDataObjects.obj
 0001:00009a80       ?setPxSceneDesc_ToDefault@@YAXPAVPxSceneDesc@physx@@ABVPxTolerancesScale@2@@Z 1000aa80 f   PxAutoGeneratedMetaDataObjects.obj
 0001:00009cf0       ??_H@YGXPAXIIP6EPAX0@Z@Z   1000acf0 f i PxAutoGeneratedMetaDataObjects.obj
 0001:00009d20       ?getPxActorUserData@@YAPAXPBVPxActor@physx@@@Z 1000ad20 f i PxAutoGeneratedMetaDataObjects.obj
 0001:00009d30       ?getPxArticulationBaseUserData@@YAPAXPBVPxArticulationBase@physx@@@Z 1000ad30 f i PxAutoGeneratedMetaDataObjects.obj
 0001:00009d40       ?getPxBoxGeometryHalfExtents@@YA?AVPxVec3@physx@@PBVPxBoxGeometry@2@@Z 1000ad40 f i PxAutoGeneratedMetaDataObjects.obj
 0001:00009d60       ?getPxCapsuleGeometryHalfHeight@@YAMPBVPxCapsuleGeometry@physx@@@Z 1000ad60 f i PxAutoGeneratedMetaDataObjects.obj
 0001:00009d70       ?getPxCapsuleGeometryRadius@@YAMPBVPxCapsuleGeometry@physx@@@Z 1000ad70 f i PxAutoGeneratedMetaDataObjects.obj
 0001:00009d80       ?getPxConvexMeshGeometryConvexMesh@@YAPAVPxConvexMesh@physx@@PBVPxConvexMeshGeometry@2@@Z 1000ad80 f i PxAutoGeneratedMetaDataObjects.obj
 0001:00009d90       ?getPxConvexMeshGeometryMeshFlags@@YA?AV?$PxFlags@W4Enum@PxConvexMeshGeometryFlag@physx@@E@physx@@PBVPxConvexMeshGeometry@2@@Z 1000ad90 f i PxAutoGeneratedMetaDataObjects.obj
 0001:00009da0       ?getPxConvexMeshGeometryScale@@YA?AVPxMeshScale@physx@@PBVPxConvexMeshGeometry@2@@Z 1000ada0 f i PxAutoGeneratedMetaDataObjects.obj
 0001:00009de0       ?getPxHeightFieldDescConvexEdgeThreshold@@YAMPBVPxHeightFieldDesc@physx@@@Z 1000ade0 f i PxAutoGeneratedMetaDataObjects.obj
 0001:00009df0       ?getPxHeightFieldDescFlags@@YA?AV?$PxFlags@W4Enum@PxHeightFieldFlag@physx@@G@physx@@PBVPxHeightFieldDesc@2@@Z 1000adf0 f i PxAutoGeneratedMetaDataObjects.obj
 0001:00009e00       ?getPxHeightFieldDescFormat@@YA?AW4Enum@PxHeightFieldFormat@physx@@PBVPxHeightFieldDesc@3@@Z 1000ae00 f i PxAutoGeneratedMetaDataObjects.obj
 0001:00009e10       ?getPxHeightFieldDescNbColumns@@YAIPBVPxHeightFieldDesc@physx@@@Z 1000ae10 f i PxAutoGeneratedMetaDataObjects.obj
 0001:00009e20       ?getPxHeightFieldDescNbRows@@YAIPBVPxHeightFieldDesc@physx@@@Z 1000ae20 f i PxAutoGeneratedMetaDataObjects.obj
 0001:00009e30       ?getPxHeightFieldDescSamples@@YA?AUPxStridedData@physx@@PBVPxHeightFieldDesc@2@@Z 1000ae30 f i PxAutoGeneratedMetaDataObjects.obj
 0001:00009e50       ?getPxHeightFieldGeometryColumnScale@@YAMPBVPxHeightFieldGeometry@physx@@@Z 1000ae50 f i PxAutoGeneratedMetaDataObjects.obj
 0001:00009e60       ?getPxHeightFieldGeometryHeightField@@YAPAVPxHeightField@physx@@PBVPxHeightFieldGeometry@2@@Z 1000ae60 f i PxAutoGeneratedMetaDataObjects.obj
 0001:00009e70       ?getPxHeightFieldGeometryHeightFieldFlags@@YA?AV?$PxFlags@W4Enum@PxMeshGeometryFlag@physx@@E@physx@@PBVPxHeightFieldGeometry@2@@Z 1000ae70 f i PxAutoGeneratedMetaDataObjects.obj
 0001:00009e80       ?getPxHeightFieldGeometryHeightScale@@YAMPBVPxHeightFieldGeometry@physx@@@Z 1000ae80 f i PxAutoGeneratedMetaDataObjects.obj
 0001:00009e90       ?getPxHeightFieldGeometryRowScale@@YAMPBVPxHeightFieldGeometry@physx@@@Z 1000ae90 f i PxAutoGeneratedMetaDataObjects.obj
 0001:00009ea0       ?getPxMaterialUserData@@YAPAXPBVPxMaterial@physx@@@Z 1000aea0 f i PxAutoGeneratedMetaDataObjects.obj
 0001:00009eb0       ?getPxMeshScaleRotation@@YA?AVPxQuat@physx@@PBVPxMeshScale@2@@Z 1000aeb0 f i PxAutoGeneratedMetaDataObjects.obj
 0001:00009ed0       ?getPxMeshScaleScale@@YA?AVPxVec3@physx@@PBVPxMeshScale@2@@Z 1000aed0 f i PxAutoGeneratedMetaDataObjects.obj
 0001:00009ef0       ?getPxSceneDescBounceThresholdVelocity@@YAMPBVPxSceneDesc@physx@@@Z 1000aef0 f i PxAutoGeneratedMetaDataObjects.obj
 0001:00009f00       ?getPxSceneDescBroadPhaseCallback@@YAPAVPxBroadPhaseCallback@physx@@PBVPxSceneDesc@2@@Z 1000af00 f i PxAutoGeneratedMetaDataObjects.obj
 0001:00009f10       ?getPxSceneDescBroadPhaseType@@YA?AW4Enum@PxBroadPhaseType@physx@@PBVPxSceneDesc@3@@Z 1000af10 f i PxAutoGeneratedMetaDataObjects.obj
 0001:00009f20       ?getPxSceneDescCcdContactModifyCallback@@YAPAVPxCCDContactModifyCallback@physx@@PBVPxSceneDesc@2@@Z 1000af20 f i PxAutoGeneratedMetaDataObjects.obj
 0001:00009f30       ?getPxSceneDescCcdMaxPasses@@YAIPBVPxSceneDesc@physx@@@Z 1000af30 f i PxAutoGeneratedMetaDataObjects.obj
 0001:00009f40       ?getPxSceneDescCcdMaxSeparation@@YAMPBVPxSceneDesc@physx@@@Z 1000af40 f i PxAutoGeneratedMetaDataObjects.obj
 0001:00009f50       ?getPxSceneDescCcdThreshold@@YAMPBVPxSceneDesc@physx@@@Z 1000af50 f i PxAutoGeneratedMetaDataObjects.obj
 0001:00009f60       ?getPxSceneDescContactModifyCallback@@YAPAVPxContactModifyCallback@physx@@PBVPxSceneDesc@2@@Z 1000af60 f i PxAutoGeneratedMetaDataObjects.obj
 0001:00009f70       ?getPxSceneDescContactReportStreamBufferSize@@YAIPBVPxSceneDesc@physx@@@Z 1000af70 f i PxAutoGeneratedMetaDataObjects.obj
 0001:00009f80       ?getPxSceneDescCpuDispatcher@@YAPAVPxCpuDispatcher@physx@@PBVPxSceneDesc@2@@Z 1000af80 f i PxAutoGeneratedMetaDataObjects.obj
 0001:00009f90       ?getPxSceneDescDynamicStructure@@YA?AW4Enum@PxPruningStructureType@physx@@PBVPxSceneDesc@3@@Z 1000af90 f i PxAutoGeneratedMetaDataObjects.obj
 0001:00009fa0       ?getPxSceneDescDynamicTreeRebuildRateHint@@YAIPBVPxSceneDesc@physx@@@Z 1000afa0 f i PxAutoGeneratedMetaDataObjects.obj
 0001:00009fb0       ?getPxSceneDescFilterCallback@@YAPAVPxSimulationFilterCallback@physx@@PBVPxSceneDesc@2@@Z 1000afb0 f i PxAutoGeneratedMetaDataObjects.obj
 0001:00009fc0       ?getPxSceneDescFilterShader@@YAP6A?AV?$PxFlags@W4Enum@PxFilterFlag@physx@@G@physx@@IUPxFilterData@2@I0AAV?$PxFlags@W4Enum@PxPairFlag@physx@@G@2@PBXI@ZPBVPxSceneDesc@2@@Z 1000afc0 f i PxAutoGeneratedMetaDataObjects.obj
 0001:00009fd0       ?getPxSceneDescFilterShaderData@@YAPBXPBVPxSceneDesc@physx@@@Z 1000afd0 f i PxAutoGeneratedMetaDataObjects.obj
 0001:00009fe0       ?getPxSceneDescFilterShaderDataSize@@YAIPBVPxSceneDesc@physx@@@Z 1000afe0 f i PxAutoGeneratedMetaDataObjects.obj
 0001:00009ff0       ?getPxSceneDescFlags@@YA?AV?$PxFlags@W4Enum@PxSceneFlag@physx@@I@physx@@PBVPxSceneDesc@2@@Z 1000aff0 f i PxAutoGeneratedMetaDataObjects.obj
 0001:0000a000       ?getPxSceneDescFrictionOffsetThreshold@@YAMPBVPxSceneDesc@physx@@@Z 1000b000 f i PxAutoGeneratedMetaDataObjects.obj
 0001:0000a010       ?getPxSceneDescFrictionType@@YA?AW4Enum@PxFrictionType@physx@@PBVPxSceneDesc@3@@Z 1000b010 f i PxAutoGeneratedMetaDataObjects.obj
 0001:0000a020       ?getPxSceneDescGpuComputeVersion@@YAIPBVPxSceneDesc@physx@@@Z 1000b020 f i PxAutoGeneratedMetaDataObjects.obj
 0001:0000a030       ?getPxSceneDescGpuDispatcher@@YAPAVPxGpuDispatcher@physx@@PBVPxSceneDesc@2@@Z 1000b030 f i PxAutoGeneratedMetaDataObjects.obj
 0001:0000a040       ?getPxSceneDescGpuDynamicsConfig@@YA?AUPxgDynamicsMemoryConfig@physx@@PBVPxSceneDesc@2@@Z 1000b040 f i PxAutoGeneratedMetaDataObjects.obj
 0001:0000a060       ?getPxSceneDescGpuMaxNumPartitions@@YAIPBVPxSceneDesc@physx@@@Z 1000b060 f i PxAutoGeneratedMetaDataObjects.obj
 0001:0000a070       ?getPxSceneDescGravity@@YA?AVPxVec3@physx@@PBVPxSceneDesc@2@@Z 1000b070 f i PxAutoGeneratedMetaDataObjects.obj
 0001:0000a090       ?getPxSceneDescKineKineFilteringMode@@YA?AW4Enum@PxPairFilteringMode@physx@@PBVPxSceneDesc@3@@Z 1000b090 f i PxAutoGeneratedMetaDataObjects.obj
 0001:0000a0a0       ?getPxSceneDescLimits@@YA?AVPxSceneLimits@physx@@PBVPxSceneDesc@2@@Z 1000b0a0 f i PxAutoGeneratedMetaDataObjects.obj
 0001:0000a0c0       ?getPxSceneDescMaxBiasCoefficient@@YAMPBVPxSceneDesc@physx@@@Z 1000b0c0 f i PxAutoGeneratedMetaDataObjects.obj
 0001:0000a0d0       ?getPxSceneDescMaxNbContactDataBlocks@@YAIPBVPxSceneDesc@physx@@@Z 1000b0d0 f i PxAutoGeneratedMetaDataObjects.obj
 0001:0000a0e0       ?getPxSceneDescNbContactDataBlocks@@YAIPBVPxSceneDesc@physx@@@Z 1000b0e0 f i PxAutoGeneratedMetaDataObjects.obj
 0001:0000a0f0       ?getPxSceneDescSanityBounds@@YA?AVPxBounds3@physx@@PBVPxSceneDesc@2@@Z 1000b0f0 f i PxAutoGeneratedMetaDataObjects.obj
 0001:0000a140       ?getPxSceneDescSceneQueryUpdateMode@@YA?AW4Enum@PxSceneQueryUpdateMode@physx@@PBVPxSceneDesc@3@@Z 1000b140 f i PxAutoGeneratedMetaDataObjects.obj
 0001:0000a150       ?getPxSceneDescSimulationEventCallback@@YAPAVPxSimulationEventCallback@physx@@PBVPxSceneDesc@2@@Z 1000b150 f i PxAutoGeneratedMetaDataObjects.obj
 0001:0000a160       ?getPxSceneDescSolverBatchSize@@YAIPBVPxSceneDesc@physx@@@Z 1000b160 f i PxAutoGeneratedMetaDataObjects.obj
 0001:0000a170       ?getPxSceneDescSolverOffsetSlop@@YAMPBVPxSceneDesc@physx@@@Z 1000b170 f i PxAutoGeneratedMetaDataObjects.obj
 0001:0000a180       ?getPxSceneDescSolverType@@YA?AW4Enum@PxSolverType@physx@@PBVPxSceneDesc@3@@Z 1000b180 f i PxAutoGeneratedMetaDataObjects.obj
 0001:0000a190       ?getPxSceneDescStaticKineFilteringMode@@YA?AW4Enum@PxPairFilteringMode@physx@@PBVPxSceneDesc@3@@Z 1000b190 f i PxAutoGeneratedMetaDataObjects.obj
 0001:0000a1a0       ?getPxSceneDescStaticStructure@@YA?AW4Enum@PxPruningStructureType@physx@@PBVPxSceneDesc@3@@Z 1000b1a0 f i PxAutoGeneratedMetaDataObjects.obj
 0001:0000a1b0       ?getPxSceneDescUserData@@YAPAXPBVPxSceneDesc@physx@@@Z 1000b1b0 f i PxAutoGeneratedMetaDataObjects.obj
 0001:0000a1c0       ?getPxSceneDescWakeCounterResetValue@@YAMPBVPxSceneDesc@physx@@@Z 1000b1c0 f i PxAutoGeneratedMetaDataObjects.obj
 0001:0000a1d0       ?getPxSceneLimitsMaxNbActors@@YAIPBVPxSceneLimits@physx@@@Z 1000b1d0 f i PxAutoGeneratedMetaDataObjects.obj
 0001:0000a1e0       ?getPxSceneLimitsMaxNbAggregates@@YAIPBVPxSceneLimits@physx@@@Z 1000b1e0 f i PxAutoGeneratedMetaDataObjects.obj
 0001:0000a1f0       ?getPxSceneLimitsMaxNbBodies@@YAIPBVPxSceneLimits@physx@@@Z 1000b1f0 f i PxAutoGeneratedMetaDataObjects.obj
 0001:0000a200       ?getPxSceneLimitsMaxNbBroadPhaseOverlaps@@YAIPBVPxSceneLimits@physx@@@Z 1000b200 f i PxAutoGeneratedMetaDataObjects.obj
 0001:0000a210       ?getPxSceneLimitsMaxNbConstraints@@YAIPBVPxSceneLimits@physx@@@Z 1000b210 f i PxAutoGeneratedMetaDataObjects.obj
 0001:0000a220       ?getPxSceneLimitsMaxNbDynamicShapes@@YAIPBVPxSceneLimits@physx@@@Z 1000b220 f i PxAutoGeneratedMetaDataObjects.obj
 0001:0000a230       ?getPxSceneLimitsMaxNbRegions@@YAIPBVPxSceneLimits@physx@@@Z 1000b230 f i PxAutoGeneratedMetaDataObjects.obj
 0001:0000a240       ?getPxSceneLimitsMaxNbStaticShapes@@YAIPBVPxSceneLimits@physx@@@Z 1000b240 f i PxAutoGeneratedMetaDataObjects.obj
 0001:0000a250       ?getPxSceneUserData@@YAPAXPBVPxScene@physx@@@Z 1000b250 f i PxAutoGeneratedMetaDataObjects.obj
 0001:0000a260       ?getPxShapeUserData@@YAPAXPBVPxShape@physx@@@Z 1000b260 f i PxAutoGeneratedMetaDataObjects.obj
 0001:0000a270       ?getPxSimulationStatisticsCompressedContactSize@@YAIPBVPxSimulationStatistics@physx@@@Z 1000b270 f i PxAutoGeneratedMetaDataObjects.obj
 0001:0000a280       ?getPxSimulationStatisticsNbActiveConstraints@@YAIPBVPxSimulationStatistics@physx@@@Z 1000b280 f i PxAutoGeneratedMetaDataObjects.obj
 0001:0000a290       ?getPxSimulationStatisticsNbActiveDynamicBodies@@YAIPBVPxSimulationStatistics@physx@@@Z 1000b290 f i PxAutoGeneratedMetaDataObjects.obj
 0001:0000a2a0       ?getPxSimulationStatisticsNbActiveKinematicBodies@@YAIPBVPxSimulationStatistics@physx@@@Z 1000b2a0 f i PxAutoGeneratedMetaDataObjects.obj
 0001:0000a2b0       ?getPxSimulationStatisticsNbAggregates@@YAIPBVPxSimulationStatistics@physx@@@Z 1000b2b0 f i PxAutoGeneratedMetaDataObjects.obj
 0001:0000a2c0       ?getPxSimulationStatisticsNbArticulations@@YAIPBVPxSimulationStatistics@physx@@@Z 1000b2c0 f i PxAutoGeneratedMetaDataObjects.obj
 0001:0000a2d0       ?getPxSimulationStatisticsNbAxisSolverConstraints@@YAIPBVPxSimulationStatistics@physx@@@Z 1000b2d0 f i PxAutoGeneratedMetaDataObjects.obj
 0001:0000a2e0       ?getPxSimulationStatisticsNbBroadPhaseAdds@@YAIPBVPxSimulationStatistics@physx@@@Z 1000b2e0 f i PxAutoGeneratedMetaDataObjects.obj
 0001:0000a2f0       ?getPxSimulationStatisticsNbBroadPhaseRemoves@@YAIPBVPxSimulationStatistics@physx@@@Z 1000b2f0 f i PxAutoGeneratedMetaDataObjects.obj
 0001:0000a300       ?getPxSimulationStatisticsNbDiscreteContactPairsTotal@@YAIPBVPxSimulationStatistics@physx@@@Z 1000b300 f i PxAutoGeneratedMetaDataObjects.obj
 0001:0000a310       ?getPxSimulationStatisticsNbDiscreteContactPairsWithCacheHits@@YAIPBVPxSimulationStatistics@physx@@@Z 1000b310 f i PxAutoGeneratedMetaDataObjects.obj
 0001:0000a320       ?getPxSimulationStatisticsNbDiscreteContactPairsWithContacts@@YAIPBVPxSimulationStatistics@physx@@@Z 1000b320 f i PxAutoGeneratedMetaDataObjects.obj
 0001:0000a330       ?getPxSimulationStatisticsNbDynamicBodies@@YAIPBVPxSimulationStatistics@physx@@@Z 1000b330 f i PxAutoGeneratedMetaDataObjects.obj
 0001:0000a340       ?getPxSimulationStatisticsNbLostPairs@@YAIPBVPxSimulationStatistics@physx@@@Z 1000b340 f i PxAutoGeneratedMetaDataObjects.obj
 0001:0000a350       ?getPxSimulationStatisticsNbLostTouches@@YAIPBVPxSimulationStatistics@physx@@@Z 1000b350 f i PxAutoGeneratedMetaDataObjects.obj
 0001:0000a360       ?getPxSimulationStatisticsNbNewPairs@@YAIPBVPxSimulationStatistics@physx@@@Z 1000b360 f i PxAutoGeneratedMetaDataObjects.obj
 0001:0000a370       ?getPxSimulationStatisticsNbNewTouches@@YAIPBVPxSimulationStatistics@physx@@@Z 1000b370 f i PxAutoGeneratedMetaDataObjects.obj
 0001:0000a380       ?getPxSimulationStatisticsNbPartitions@@YAIPBVPxSimulationStatistics@physx@@@Z 1000b380 f i PxAutoGeneratedMetaDataObjects.obj
 0001:0000a390       ?getPxSimulationStatisticsNbStaticBodies@@YAIPBVPxSimulationStatistics@physx@@@Z 1000b390 f i PxAutoGeneratedMetaDataObjects.obj
 0001:0000a3a0       ?getPxSimulationStatisticsPeakConstraintMemory@@YAIPBVPxSimulationStatistics@physx@@@Z 1000b3a0 f i PxAutoGeneratedMetaDataObjects.obj
 0001:0000a3b0       ?getPxSimulationStatisticsRequiredContactConstraintMemory@@YAIPBVPxSimulationStatistics@physx@@@Z 1000b3b0 f i PxAutoGeneratedMetaDataObjects.obj
 0001:0000a3c0       ?getPxSphereGeometryRadius@@YAMPBVPxSphereGeometry@physx@@@Z 1000b3c0 f i PxAutoGeneratedMetaDataObjects.obj
 0001:0000a3d0       ?getPxTolerancesScaleLength@@YAMPBVPxTolerancesScale@physx@@@Z 1000b3d0 f i PxAutoGeneratedMetaDataObjects.obj
 0001:0000a3e0       ?getPxTolerancesScaleSpeed@@YAMPBVPxTolerancesScale@physx@@@Z 1000b3e0 f i PxAutoGeneratedMetaDataObjects.obj
 0001:0000a3f0       ?getPxTriangleMeshGeometryMeshFlags@@YA?AV?$PxFlags@W4Enum@PxMeshGeometryFlag@physx@@E@physx@@PBVPxTriangleMeshGeometry@2@@Z 1000b3f0 f i PxAutoGeneratedMetaDataObjects.obj
 0001:0000a400       ?getPxTriangleMeshGeometryScale@@YA?AVPxMeshScale@physx@@PBVPxTriangleMeshGeometry@2@@Z 1000b400 f i PxAutoGeneratedMetaDataObjects.obj
 0001:0000a440       ?getPxTriangleMeshGeometryTriangleMesh@@YAPAVPxTriangleMesh@physx@@PBVPxTriangleMeshGeometry@2@@Z 1000b440 f i PxAutoGeneratedMetaDataObjects.obj
 0001:0000a450       ?getPxgDynamicsMemoryConfigConstraintBufferCapacity@@YAIPBUPxgDynamicsMemoryConfig@physx@@@Z 1000b450 f i PxAutoGeneratedMetaDataObjects.obj
 0001:0000a460       ?getPxgDynamicsMemoryConfigContactBufferCapacity@@YAIPBUPxgDynamicsMemoryConfig@physx@@@Z 1000b460 f i PxAutoGeneratedMetaDataObjects.obj
 0001:0000a470       ?getPxgDynamicsMemoryConfigContactStreamSize@@YAIPBUPxgDynamicsMemoryConfig@physx@@@Z 1000b470 f i PxAutoGeneratedMetaDataObjects.obj
 0001:0000a480       ?getPxgDynamicsMemoryConfigForceStreamCapacity@@YAIPBUPxgDynamicsMemoryConfig@physx@@@Z 1000b480 f i PxAutoGeneratedMetaDataObjects.obj
 0001:0000a490       ?getPxgDynamicsMemoryConfigFoundLostPairsCapacity@@YAIPBUPxgDynamicsMemoryConfig@physx@@@Z 1000b490 f i PxAutoGeneratedMetaDataObjects.obj
 0001:0000a4a0       ?getPxgDynamicsMemoryConfigHeapCapacity@@YAIPBUPxgDynamicsMemoryConfig@physx@@@Z 1000b4a0 f i PxAutoGeneratedMetaDataObjects.obj
 0001:0000a4b0       ?getPxgDynamicsMemoryConfigPatchStreamSize@@YAIPBUPxgDynamicsMemoryConfig@physx@@@Z 1000b4b0 f i PxAutoGeneratedMetaDataObjects.obj
 0001:0000a4c0       ?getPxgDynamicsMemoryConfigTempBufferCapacity@@YAIPBUPxgDynamicsMemoryConfig@physx@@@Z 1000b4c0 f i PxAutoGeneratedMetaDataObjects.obj
 0001:0000a4d0       ?setPxActorUserData@@YAXPAVPxActor@physx@@PAX@Z 1000b4d0 f i PxAutoGeneratedMetaDataObjects.obj
 0001:0000a4e0       ?setPxArticulationBaseUserData@@YAXPAVPxArticulationBase@physx@@PAX@Z 1000b4e0 f i PxAutoGeneratedMetaDataObjects.obj
 0001:0000a4f0       ?setPxBoxGeometryHalfExtents@@YAXPAVPxBoxGeometry@physx@@VPxVec3@2@@Z 1000b4f0 f i PxAutoGeneratedMetaDataObjects.obj
 0001:0000a520       ?setPxCapsuleGeometryHalfHeight@@YAXPAVPxCapsuleGeometry@physx@@M@Z 1000b520 f i PxAutoGeneratedMetaDataObjects.obj
 0001:0000a530       ?setPxCapsuleGeometryRadius@@YAXPAVPxCapsuleGeometry@physx@@M@Z 1000b530 f i PxAutoGeneratedMetaDataObjects.obj
 0001:0000a540       ?setPxConvexMeshGeometryConvexMesh@@YAXPAVPxConvexMeshGeometry@physx@@PAVPxConvexMesh@2@@Z 1000b540 f i PxAutoGeneratedMetaDataObjects.obj
 0001:0000a550       ?setPxConvexMeshGeometryMeshFlags@@YAXPAVPxConvexMeshGeometry@physx@@V?$PxFlags@W4Enum@PxConvexMeshGeometryFlag@physx@@E@2@@Z 1000b550 f i PxAutoGeneratedMetaDataObjects.obj
 0001:0000a560       ?setPxConvexMeshGeometryScale@@YAXPAVPxConvexMeshGeometry@physx@@VPxMeshScale@2@@Z 1000b560 f i PxAutoGeneratedMetaDataObjects.obj
 0001:0000a590       ?setPxHeightFieldDescConvexEdgeThreshold@@YAXPAVPxHeightFieldDesc@physx@@M@Z 1000b590 f i PxAutoGeneratedMetaDataObjects.obj
 0001:0000a5a0       ?setPxHeightFieldDescFlags@@YAXPAVPxHeightFieldDesc@physx@@V?$PxFlags@W4Enum@PxHeightFieldFlag@physx@@G@2@@Z 1000b5a0 f i PxAutoGeneratedMetaDataObjects.obj
 0001:0000a5b0       ?setPxHeightFieldDescFormat@@YAXPAVPxHeightFieldDesc@physx@@W4Enum@PxHeightFieldFormat@2@@Z 1000b5b0 f i PxAutoGeneratedMetaDataObjects.obj
 0001:0000a5c0       ?setPxHeightFieldDescNbColumns@@YAXPAVPxHeightFieldDesc@physx@@I@Z 1000b5c0 f i PxAutoGeneratedMetaDataObjects.obj
 0001:0000a5d0       ?setPxHeightFieldDescNbRows@@YAXPAVPxHeightFieldDesc@physx@@I@Z 1000b5d0 f i PxAutoGeneratedMetaDataObjects.obj
 0001:0000a5e0       ?setPxHeightFieldDescSamples@@YAXPAVPxHeightFieldDesc@physx@@UPxStridedData@2@@Z 1000b5e0 f i PxAutoGeneratedMetaDataObjects.obj
 0001:0000a600       ?setPxHeightFieldGeometryColumnScale@@YAXPAVPxHeightFieldGeometry@physx@@M@Z 1000b600 f i PxAutoGeneratedMetaDataObjects.obj
 0001:0000a610       ?setPxHeightFieldGeometryHeightField@@YAXPAVPxHeightFieldGeometry@physx@@PAVPxHeightField@2@@Z 1000b610 f i PxAutoGeneratedMetaDataObjects.obj
 0001:0000a620       ?setPxHeightFieldGeometryHeightFieldFlags@@YAXPAVPxHeightFieldGeometry@physx@@V?$PxFlags@W4Enum@PxMeshGeometryFlag@physx@@E@2@@Z 1000b620 f i PxAutoGeneratedMetaDataObjects.obj
 0001:0000a630       ?setPxHeightFieldGeometryHeightScale@@YAXPAVPxHeightFieldGeometry@physx@@M@Z 1000b630 f i PxAutoGeneratedMetaDataObjects.obj
 0001:0000a640       ?setPxHeightFieldGeometryRowScale@@YAXPAVPxHeightFieldGeometry@physx@@M@Z 1000b640 f i PxAutoGeneratedMetaDataObjects.obj
 0001:0000a650       ?setPxMaterialUserData@@YAXPAVPxMaterial@physx@@PAX@Z 1000b650 f i PxAutoGeneratedMetaDataObjects.obj
 0001:0000a660       ?setPxMeshScaleRotation@@YAXPAVPxMeshScale@physx@@VPxQuat@2@@Z 1000b660 f i PxAutoGeneratedMetaDataObjects.obj
 0001:0000a670       ?setPxMeshScaleScale@@YAXPAVPxMeshScale@physx@@VPxVec3@2@@Z 1000b670 f i PxAutoGeneratedMetaDataObjects.obj
 0001:0000a6a0       ?setPxSceneDescBounceThresholdVelocity@@YAXPAVPxSceneDesc@physx@@M@Z 1000b6a0 f i PxAutoGeneratedMetaDataObjects.obj
 0001:0000a6b0       ?setPxSceneDescBroadPhaseCallback@@YAXPAVPxSceneDesc@physx@@PAVPxBroadPhaseCallback@2@@Z 1000b6b0 f i PxAutoGeneratedMetaDataObjects.obj
 0001:0000a6c0       ?setPxSceneDescBroadPhaseType@@YAXPAVPxSceneDesc@physx@@W4Enum@PxBroadPhaseType@2@@Z 1000b6c0 f i PxAutoGeneratedMetaDataObjects.obj
 0001:0000a6d0       ?setPxSceneDescCcdContactModifyCallback@@YAXPAVPxSceneDesc@physx@@PAVPxCCDContactModifyCallback@2@@Z 1000b6d0 f i PxAutoGeneratedMetaDataObjects.obj
 0001:0000a6e0       ?setPxSceneDescCcdMaxPasses@@YAXPAVPxSceneDesc@physx@@I@Z 1000b6e0 f i PxAutoGeneratedMetaDataObjects.obj
 0001:0000a6f0       ?setPxSceneDescCcdMaxSeparation@@YAXPAVPxSceneDesc@physx@@M@Z 1000b6f0 f i PxAutoGeneratedMetaDataObjects.obj
 0001:0000a700       ?setPxSceneDescCcdThreshold@@YAXPAVPxSceneDesc@physx@@M@Z 1000b700 f i PxAutoGeneratedMetaDataObjects.obj
 0001:0000a720       ?setPxSceneDescContactModifyCallback@@YAXPAVPxSceneDesc@physx@@PAVPxContactModifyCallback@2@@Z 1000b720 f i PxAutoGeneratedMetaDataObjects.obj
 0001:0000a730       ?setPxSceneDescContactReportStreamBufferSize@@YAXPAVPxSceneDesc@physx@@I@Z 1000b730 f i PxAutoGeneratedMetaDataObjects.obj
 0001:0000a740       ?setPxSceneDescCpuDispatcher@@YAXPAVPxSceneDesc@physx@@PAVPxCpuDispatcher@2@@Z 1000b740 f i PxAutoGeneratedMetaDataObjects.obj
 0001:0000a750       ?setPxSceneDescDynamicStructure@@YAXPAVPxSceneDesc@physx@@W4Enum@PxPruningStructureType@2@@Z 1000b750 f i PxAutoGeneratedMetaDataObjects.obj
 0001:0000a760       ?setPxSceneDescDynamicTreeRebuildRateHint@@YAXPAVPxSceneDesc@physx@@I@Z 1000b760 f i PxAutoGeneratedMetaDataObjects.obj
 0001:0000a770       ?setPxSceneDescFilterCallback@@YAXPAVPxSceneDesc@physx@@PAVPxSimulationFilterCallback@2@@Z 1000b770 f i PxAutoGeneratedMetaDataObjects.obj
 0001:0000a780       ?setPxSceneDescFilterShader@@YAXPAVPxSceneDesc@physx@@P6A?AV?$PxFlags@W4Enum@PxFilterFlag@physx@@G@2@IUPxFilterData@2@I1AAV?$PxFlags@W4Enum@PxPairFlag@physx@@G@2@PBXI@Z@Z 1000b780 f i PxAutoGeneratedMetaDataObjects.obj
 0001:0000a790       ?setPxSceneDescFilterShaderData@@YAXPAVPxSceneDesc@physx@@PBX@Z 1000b790 f i PxAutoGeneratedMetaDataObjects.obj
 0001:0000a7a0       ?setPxSceneDescFilterShaderDataSize@@YAXPAVPxSceneDesc@physx@@I@Z 1000b7a0 f i PxAutoGeneratedMetaDataObjects.obj
 0001:0000a7b0       ?setPxSceneDescFlags@@YAXPAVPxSceneDesc@physx@@V?$PxFlags@W4Enum@PxSceneFlag@physx@@I@2@@Z 1000b7b0 f i PxAutoGeneratedMetaDataObjects.obj
 0001:0000a7c0       ?setPxSceneDescFrictionOffsetThreshold@@YAXPAVPxSceneDesc@physx@@M@Z 1000b7c0 f i PxAutoGeneratedMetaDataObjects.obj
 0001:0000a7d0       ?setPxSceneDescFrictionType@@YAXPAVPxSceneDesc@physx@@W4Enum@PxFrictionType@2@@Z 1000b7d0 f i PxAutoGeneratedMetaDataObjects.obj
 0001:0000a7e0       ?setPxSceneDescGpuComputeVersion@@YAXPAVPxSceneDesc@physx@@I@Z 1000b7e0 f i PxAutoGeneratedMetaDataObjects.obj
 0001:0000a7f0       ?setPxSceneDescGpuDispatcher@@YAXPAVPxSceneDesc@physx@@PAVPxGpuDispatcher@2@@Z 1000b7f0 f i PxAutoGeneratedMetaDataObjects.obj
 0001:0000a800       ?setPxSceneDescGpuDynamicsConfig@@YAXPAVPxSceneDesc@physx@@UPxgDynamicsMemoryConfig@2@@Z 1000b800 f i PxAutoGeneratedMetaDataObjects.obj
 0001:0000a820       ?setPxSceneDescGpuMaxNumPartitions@@YAXPAVPxSceneDesc@physx@@I@Z 1000b820 f i PxAutoGeneratedMetaDataObjects.obj
 0001:0000a830       ?setPxSceneDescGravity@@YAXPAVPxSceneDesc@physx@@VPxVec3@2@@Z 1000b830 f i PxAutoGeneratedMetaDataObjects.obj
 0001:0000a860       ?setPxSceneDescKineKineFilteringMode@@YAXPAVPxSceneDesc@physx@@W4Enum@PxPairFilteringMode@2@@Z 1000b860 f i PxAutoGeneratedMetaDataObjects.obj
 0001:0000a870       ?setPxSceneDescLimits@@YAXPAVPxSceneDesc@physx@@VPxSceneLimits@2@@Z 1000b870 f i PxAutoGeneratedMetaDataObjects.obj
 0001:0000a890       ?setPxSceneDescMaxBiasCoefficient@@YAXPAVPxSceneDesc@physx@@M@Z 1000b890 f i PxAutoGeneratedMetaDataObjects.obj
 0001:0000a8b0       ?setPxSceneDescMaxNbContactDataBlocks@@YAXPAVPxSceneDesc@physx@@I@Z 1000b8b0 f i PxAutoGeneratedMetaDataObjects.obj
 0001:0000a8c0       ?setPxSceneDescNbContactDataBlocks@@YAXPAVPxSceneDesc@physx@@I@Z 1000b8c0 f i PxAutoGeneratedMetaDataObjects.obj
 0001:0000a8d0       ?setPxSceneDescSanityBounds@@YAXPAVPxSceneDesc@physx@@VPxBounds3@2@@Z 1000b8d0 f i PxAutoGeneratedMetaDataObjects.obj
 0001:0000a900       ?setPxSceneDescSceneQueryUpdateMode@@YAXPAVPxSceneDesc@physx@@W4Enum@PxSceneQueryUpdateMode@2@@Z 1000b900 f i PxAutoGeneratedMetaDataObjects.obj
 0001:0000a910       ?setPxSceneDescSimulationEventCallback@@YAXPAVPxSceneDesc@physx@@PAVPxSimulationEventCallback@2@@Z 1000b910 f i PxAutoGeneratedMetaDataObjects.obj
 0001:0000a920       ?setPxSceneDescSolverBatchSize@@YAXPAVPxSceneDesc@physx@@I@Z 1000b920 f i PxAutoGeneratedMetaDataObjects.obj
 0001:0000a930       ?setPxSceneDescSolverOffsetSlop@@YAXPAVPxSceneDesc@physx@@M@Z 1000b930 f i PxAutoGeneratedMetaDataObjects.obj
 0001:0000a940       ?setPxSceneDescSolverType@@YAXPAVPxSceneDesc@physx@@W4Enum@PxSolverType@2@@Z 1000b940 f i PxAutoGeneratedMetaDataObjects.obj
 0001:0000a950       ?setPxSceneDescStaticKineFilteringMode@@YAXPAVPxSceneDesc@physx@@W4Enum@PxPairFilteringMode@2@@Z 1000b950 f i PxAutoGeneratedMetaDataObjects.obj
 0001:0000a960       ?setPxSceneDescStaticStructure@@YAXPAVPxSceneDesc@physx@@W4Enum@PxPruningStructureType@2@@Z 1000b960 f i PxAutoGeneratedMetaDataObjects.obj
 0001:0000a970       ?setPxSceneDescUserData@@YAXPAVPxSceneDesc@physx@@PAX@Z 1000b970 f i PxAutoGeneratedMetaDataObjects.obj
 0001:0000a980       ?setPxSceneDescWakeCounterResetValue@@YAXPAVPxSceneDesc@physx@@M@Z 1000b980 f i PxAutoGeneratedMetaDataObjects.obj
 0001:0000a9a0       ?setPxSceneLimitsMaxNbActors@@YAXPAVPxSceneLimits@physx@@I@Z 1000b9a0 f i PxAutoGeneratedMetaDataObjects.obj
 0001:0000a9b0       ?setPxSceneLimitsMaxNbAggregates@@YAXPAVPxSceneLimits@physx@@I@Z 1000b9b0 f i PxAutoGeneratedMetaDataObjects.obj
 0001:0000a9c0       ?setPxSceneLimitsMaxNbBodies@@YAXPAVPxSceneLimits@physx@@I@Z 1000b9c0 f i PxAutoGeneratedMetaDataObjects.obj
 0001:0000a9d0       ?setPxSceneLimitsMaxNbBroadPhaseOverlaps@@YAXPAVPxSceneLimits@physx@@I@Z 1000b9d0 f i PxAutoGeneratedMetaDataObjects.obj
 0001:0000a9e0       ?setPxSceneLimitsMaxNbConstraints@@YAXPAVPxSceneLimits@physx@@I@Z 1000b9e0 f i PxAutoGeneratedMetaDataObjects.obj
 0001:0000a9f0       ?setPxSceneLimitsMaxNbDynamicShapes@@YAXPAVPxSceneLimits@physx@@I@Z 1000b9f0 f i PxAutoGeneratedMetaDataObjects.obj
 0001:0000aa00       ?setPxSceneLimitsMaxNbRegions@@YAXPAVPxSceneLimits@physx@@I@Z 1000ba00 f i PxAutoGeneratedMetaDataObjects.obj
 0001:0000aa10       ?setPxSceneLimitsMaxNbStaticShapes@@YAXPAVPxSceneLimits@physx@@I@Z 1000ba10 f i PxAutoGeneratedMetaDataObjects.obj
 0001:0000aa20       ?setPxSceneUserData@@YAXPAVPxScene@physx@@PAX@Z 1000ba20 f i PxAutoGeneratedMetaDataObjects.obj
 0001:0000aa30       ?setPxShapeUserData@@YAXPAVPxShape@physx@@PAX@Z 1000ba30 f i PxAutoGeneratedMetaDataObjects.obj
 0001:0000aa40       ?setPxSimulationStatisticsCompressedContactSize@@YAXPAVPxSimulationStatistics@physx@@I@Z 1000ba40 f i PxAutoGeneratedMetaDataObjects.obj
 0001:0000aa50       ?setPxSimulationStatisticsNbActiveConstraints@@YAXPAVPxSimulationStatistics@physx@@I@Z 1000ba50 f i PxAutoGeneratedMetaDataObjects.obj
 0001:0000aa60       ?setPxSimulationStatisticsNbActiveDynamicBodies@@YAXPAVPxSimulationStatistics@physx@@I@Z 1000ba60 f i PxAutoGeneratedMetaDataObjects.obj
 0001:0000aa70       ?setPxSimulationStatisticsNbActiveKinematicBodies@@YAXPAVPxSimulationStatistics@physx@@I@Z 1000ba70 f i PxAutoGeneratedMetaDataObjects.obj
 0001:0000aa80       ?setPxSimulationStatisticsNbAggregates@@YAXPAVPxSimulationStatistics@physx@@I@Z 1000ba80 f i PxAutoGeneratedMetaDataObjects.obj
 0001:0000aa90       ?setPxSimulationStatisticsNbArticulations@@YAXPAVPxSimulationStatistics@physx@@I@Z 1000ba90 f i PxAutoGeneratedMetaDataObjects.obj
 0001:0000aaa0       ?setPxSimulationStatisticsNbAxisSolverConstraints@@YAXPAVPxSimulationStatistics@physx@@I@Z 1000baa0 f i PxAutoGeneratedMetaDataObjects.obj
 0001:0000aab0       ?setPxSimulationStatisticsNbBroadPhaseAdds@@YAXPAVPxSimulationStatistics@physx@@I@Z 1000bab0 f i PxAutoGeneratedMetaDataObjects.obj
 0001:0000aac0       ?setPxSimulationStatisticsNbBroadPhaseRemoves@@YAXPAVPxSimulationStatistics@physx@@I@Z 1000bac0 f i PxAutoGeneratedMetaDataObjects.obj
 0001:0000aad0       ?setPxSimulationStatisticsNbDiscreteContactPairsTotal@@YAXPAVPxSimulationStatistics@physx@@I@Z 1000bad0 f i PxAutoGeneratedMetaDataObjects.obj
 0001:0000aae0       ?setPxSimulationStatisticsNbDiscreteContactPairsWithCacheHits@@YAXPAVPxSimulationStatistics@physx@@I@Z 1000bae0 f i PxAutoGeneratedMetaDataObjects.obj
 0001:0000aaf0       ?setPxSimulationStatisticsNbDiscreteContactPairsWithContacts@@YAXPAVPxSimulationStatistics@physx@@I@Z 1000baf0 f i PxAutoGeneratedMetaDataObjects.obj
 0001:0000ab00       ?setPxSimulationStatisticsNbDynamicBodies@@YAXPAVPxSimulationStatistics@physx@@I@Z 1000bb00 f i PxAutoGeneratedMetaDataObjects.obj
 0001:0000ab10       ?setPxSimulationStatisticsNbLostPairs@@YAXPAVPxSimulationStatistics@physx@@I@Z 1000bb10 f i PxAutoGeneratedMetaDataObjects.obj
 0001:0000ab20       ?setPxSimulationStatisticsNbLostTouches@@YAXPAVPxSimulationStatistics@physx@@I@Z 1000bb20 f i PxAutoGeneratedMetaDataObjects.obj
 0001:0000ab30       ?setPxSimulationStatisticsNbNewPairs@@YAXPAVPxSimulationStatistics@physx@@I@Z 1000bb30 f i PxAutoGeneratedMetaDataObjects.obj
 0001:0000ab40       ?setPxSimulationStatisticsNbNewTouches@@YAXPAVPxSimulationStatistics@physx@@I@Z 1000bb40 f i PxAutoGeneratedMetaDataObjects.obj
 0001:0000ab50       ?setPxSimulationStatisticsNbPartitions@@YAXPAVPxSimulationStatistics@physx@@I@Z 1000bb50 f i PxAutoGeneratedMetaDataObjects.obj
 0001:0000ab60       ?setPxSimulationStatisticsNbStaticBodies@@YAXPAVPxSimulationStatistics@physx@@I@Z 1000bb60 f i PxAutoGeneratedMetaDataObjects.obj
 0001:0000ab70       ?setPxSimulationStatisticsPeakConstraintMemory@@YAXPAVPxSimulationStatistics@physx@@I@Z 1000bb70 f i PxAutoGeneratedMetaDataObjects.obj
 0001:0000ab80       ?setPxSimulationStatisticsRequiredContactConstraintMemory@@YAXPAVPxSimulationStatistics@physx@@I@Z 1000bb80 f i PxAutoGeneratedMetaDataObjects.obj
 0001:0000ab90       ?setPxSphereGeometryRadius@@YAXPAVPxSphereGeometry@physx@@M@Z 1000bb90 f i PxAutoGeneratedMetaDataObjects.obj
 0001:0000aba0       ?setPxTolerancesScaleLength@@YAXPAVPxTolerancesScale@physx@@M@Z 1000bba0 f i PxAutoGeneratedMetaDataObjects.obj
 0001:0000abb0       ?setPxTolerancesScaleSpeed@@YAXPAVPxTolerancesScale@physx@@M@Z 1000bbb0 f i PxAutoGeneratedMetaDataObjects.obj
 0001:0000abc0       ?setPxTriangleMeshGeometryMeshFlags@@YAXPAVPxTriangleMeshGeometry@physx@@V?$PxFlags@W4Enum@PxMeshGeometryFlag@physx@@E@2@@Z 1000bbc0 f i PxAutoGeneratedMetaDataObjects.obj
 0001:0000abd0       ?setPxTriangleMeshGeometryScale@@YAXPAVPxTriangleMeshGeometry@physx@@VPxMeshScale@2@@Z 1000bbd0 f i PxAutoGeneratedMetaDataObjects.obj
 0001:0000ac00       ?setPxTriangleMeshGeometryTriangleMesh@@YAXPAVPxTriangleMeshGeometry@physx@@PAVPxTriangleMesh@2@@Z 1000bc00 f i PxAutoGeneratedMetaDataObjects.obj
 0001:0000ac10       ?setPxgDynamicsMemoryConfigConstraintBufferCapacity@@YAXPAUPxgDynamicsMemoryConfig@physx@@I@Z 1000bc10 f i PxAutoGeneratedMetaDataObjects.obj
 0001:0000ac20       ?setPxgDynamicsMemoryConfigContactBufferCapacity@@YAXPAUPxgDynamicsMemoryConfig@physx@@I@Z 1000bc20 f i PxAutoGeneratedMetaDataObjects.obj
 0001:0000ac30       ?setPxgDynamicsMemoryConfigContactStreamSize@@YAXPAUPxgDynamicsMemoryConfig@physx@@I@Z 1000bc30 f i PxAutoGeneratedMetaDataObjects.obj
 0001:0000ac40       ?setPxgDynamicsMemoryConfigForceStreamCapacity@@YAXPAUPxgDynamicsMemoryConfig@physx@@I@Z 1000bc40 f i PxAutoGeneratedMetaDataObjects.obj
 0001:0000ac50       ?setPxgDynamicsMemoryConfigFoundLostPairsCapacity@@YAXPAUPxgDynamicsMemoryConfig@physx@@I@Z 1000bc50 f i PxAutoGeneratedMetaDataObjects.obj
 0001:0000ac60       ?setPxgDynamicsMemoryConfigHeapCapacity@@YAXPAUPxgDynamicsMemoryConfig@physx@@I@Z 1000bc60 f i PxAutoGeneratedMetaDataObjects.obj
 0001:0000ac70       ?setPxgDynamicsMemoryConfigPatchStreamSize@@YAXPAUPxgDynamicsMemoryConfig@physx@@I@Z 1000bc70 f i PxAutoGeneratedMetaDataObjects.obj
 0001:0000ac80       ?setPxgDynamicsMemoryConfigTempBufferCapacity@@YAXPAUPxgDynamicsMemoryConfig@physx@@I@Z 1000bc80 f i PxAutoGeneratedMetaDataObjects.obj
 0001:0000ac90       ?getGeometryType@PxShapeGeometryPropertyHelper@physx@@QBE?AW4Enum@PxGeometryType@2@PBVPxShape@2@@Z 1000bc90 f   PxMetaDataObjects.obj
 0001:0000aca0       ?getGeometry@PxShapeGeometryPropertyHelper@physx@@QBE_NPBVPxShape@2@AAVPxBoxGeometry@2@@Z 1000bca0 f   PxMetaDataObjects.obj
 0001:0000acc0       ?getGeometry@PxShapeGeometryPropertyHelper@physx@@QBE_NPBVPxShape@2@AAVPxSphereGeometry@2@@Z 1000bcc0 f   PxMetaDataObjects.obj
 0001:0000ace0       ?getGeometry@PxShapeGeometryPropertyHelper@physx@@QBE_NPBVPxShape@2@AAVPxCapsuleGeometry@2@@Z 1000bce0 f   PxMetaDataObjects.obj
 0001:0000ad00       ?getGeometry@PxShapeGeometryPropertyHelper@physx@@QBE_NPBVPxShape@2@AAVPxPlaneGeometry@2@@Z 1000bd00 f   PxMetaDataObjects.obj
 0001:0000ad20       ?getGeometry@PxShapeGeometryPropertyHelper@physx@@QBE_NPBVPxShape@2@AAVPxConvexMeshGeometry@2@@Z 1000bd20 f   PxMetaDataObjects.obj
 0001:0000ad40       ?getGeometry@PxShapeGeometryPropertyHelper@physx@@QBE_NPBVPxShape@2@AAVPxTriangleMeshGeometry@2@@Z 1000bd40 f   PxMetaDataObjects.obj
 0001:0000ad60       ?getGeometry@PxShapeGeometryPropertyHelper@physx@@QBE_NPBVPxShape@2@AAVPxHeightFieldGeometry@2@@Z 1000bd60 f   PxMetaDataObjects.obj
 0001:0000ad80       ?setMaterials@PxShapeMaterialsPropertyHelper@physx@@QBEXPAVPxShape@2@PBQAVPxMaterial@2@G@Z 1000bd80 f   PxMetaDataObjects.obj
 0001:0000ada0       ?createShape@PxRigidActorShapeCollectionHelper@physx@@QBEPAVPxShape@2@PAVPxRigidActor@2@ABVPxGeometry@2@AAVPxMaterial@2@V?$PxFlags@W4Enum@PxShapeFlag@physx@@E@2@@Z 1000bda0 f   PxMetaDataObjects.obj
 0001:0000adf0       ?createShape@PxRigidActorShapeCollectionHelper@physx@@QBEPAVPxShape@2@PAVPxRigidActor@2@ABVPxGeometry@2@PBQAVPxMaterial@2@GV?$PxFlags@W4Enum@PxShapeFlag@physx@@E@2@@Z 1000bdf0 f   PxMetaDataObjects.obj
 0001:0000ae30       ?createLink@PxArticulationLinkCollectionPropHelper@physx@@QBEPAVPxArticulationLink@2@PAVPxArticulation@2@PAV32@ABVPxTransform@2@@Z 1000be30 f   PxMetaDataObjects.obj
 0001:0000ae80       ??0NbShapesProperty@physx@@QAE@XZ 1000be80 f   PxMetaDataObjects.obj
 0001:0000aea0       ??0NbDiscreteContactPairsProperty@physx@@QAE@XZ 1000bea0 f   PxMetaDataObjects.obj
 0001:0000aec0       ??0NbModifiedContactPairsProperty@physx@@QAE@XZ 1000bec0 f   PxMetaDataObjects.obj
 0001:0000aee0       ??0NbCCDPairsProperty@physx@@QAE@XZ 1000bee0 f   PxMetaDataObjects.obj
 0001:0000af00       ??0NbTriggerPairsProperty@physx@@QAE@XZ 1000bf00 f   PxMetaDataObjects.obj
 0001:0000af20       ??0SimulationStatisticsProperty@physx@@QAE@XZ 1000bf20 f   PxMetaDataObjects.obj
 0001:0000af40       ??0Allocator@shdfnd@physx@@QAE@PBD@Z 1000bf40 f i PxMetaDataObjects.obj
 0001:0000af50       ??0PxFoundation@physx@@QAE@ABV01@@Z 1000bf50 f i PxMetaDataObjects.obj
 0001:0000af60       ??0PxFoundation@physx@@QAE@XZ 1000bf60 f i PxMetaDataObjects.obj
 0001:0000af70       ??1PxFoundation@physx@@MAE@XZ 1000bf70 f i PxMetaDataObjects.obj
 0001:0000af80       ??4Allocator@shdfnd@physx@@QAEAAV012@$$QAV012@@Z 1000bf80 f i PxMetaDataObjects.obj
 0001:0000af90       ??4Allocator@shdfnd@physx@@QAEAAV012@ABV012@@Z 1000bf90 f i PxMetaDataObjects.obj
 0001:0000afa0       ??4MutexImpl@shdfnd@physx@@QAEAAV012@ABV012@@Z 1000bfa0 f i PxMetaDataObjects.obj
 0001:0000afb0       ??4PxFoundation@physx@@QAEAAV01@ABV01@@Z 1000bfb0 f i PxMetaDataObjects.obj
 0001:0000afc0       ??_EPxFoundation@physx@@MAEPAXI@Z 1000bfc0 f i PxMetaDataObjects.obj
 0001:0000b030       ??_FAllocator@shdfnd@physx@@QAEXXZ 1000c030 f i PxMetaDataObjects.obj
 0001:0000b040       ??_FNamedAllocator@shdfnd@physx@@QAEXXZ 1000c040 f i PxMetaDataObjects.obj
 0001:0000b050       ??_GPxFoundation@physx@@MAEPAXI@Z 1000c050 f i PxMetaDataObjects.obj
 0001:0000b080       ??_I@YGXPAXIIP6EX0@Z@Z     1000c080 f i PxMetaDataObjects.obj
 0001:0000b0c0       ?GetNbCCDPairs@@YAIPBVPxSimulationStatistics@physx@@W4Enum@PxGeometryType@2@1@Z 1000c0c0 f i PxMetaDataObjects.obj
 0001:0000b0e0       ?GetNbDiscreteContactPairs@@YAIPBVPxSimulationStatistics@physx@@W4Enum@PxGeometryType@2@1@Z 1000c0e0 f i PxMetaDataObjects.obj
 0001:0000b100       ?GetNbModifiedContactPairs@@YAIPBVPxSimulationStatistics@physx@@W4Enum@PxGeometryType@2@1@Z 1000c100 f i PxMetaDataObjects.obj
 0001:0000b120       ?GetNbShape@@YAIPBVPxSimulationStatistics@physx@@W4Enum@PxGeometryType@2@@Z 1000c120 f i PxMetaDataObjects.obj
 0001:0000b130       ?GetNbTriggerPairs@@YAIPBVPxSimulationStatistics@physx@@W4Enum@PxGeometryType@2@1@Z 1000c130 f i PxMetaDataObjects.obj
 0001:0000b150       ?GetStats@@YA?AVPxSimulationStatistics@physx@@PBVPxScene@2@@Z 1000c150 f i PxMetaDataObjects.obj
 0001:0000b270       ?SetNbCCDPairs@@YAXPAVPxSimulationStatistics@physx@@W4Enum@PxGeometryType@2@1I@Z 1000c270 f i PxMetaDataObjects.obj
 0001:0000b290       ?SetNbDiscreteContactPairs@@YAXPAVPxSimulationStatistics@physx@@W4Enum@PxGeometryType@2@1I@Z 1000c290 f i PxMetaDataObjects.obj
 0001:0000b2b0       ?SetNbModifiedContactPairs@@YAXPAVPxSimulationStatistics@physx@@W4Enum@PxGeometryType@2@1I@Z 1000c2b0 f i PxMetaDataObjects.obj
 0001:0000b2d0       ?SetNbShape@@YAXPAVPxSimulationStatistics@physx@@W4Enum@PxGeometryType@2@I@Z 1000c2d0 f i PxMetaDataObjects.obj
 0001:0000b2f0       ?SetNbTriggerPairs@@YAXPAVPxSimulationStatistics@physx@@W4Enum@PxGeometryType@2@1I@Z 1000c2f0 f i PxMetaDataObjects.obj
 0001:0000b310       ?__empty_global_delete@@YAXPAX@Z 1000c310 f i PxMetaDataObjects.obj
 0001:0000b320       ?__empty_global_delete@@YAXPAXI@Z 1000c320 f i PxMetaDataObjects.obj
 0001:0000b320       ?__global_array_delete@@YAXPAXI@Z 1000c320 f i PxMetaDataObjects.obj
 0001:0000b320       ?__global_delete@@YAXPAXI@Z 1000c320 f i PxMetaDataObjects.obj
 0001:0000b330       ?getAllocator@Foundation@shdfnd@physx@@QAEAAVPxAllocatorCallback@3@XZ 1000c330 f i PxMetaDataObjects.obj
 0001:0000b340       ?getAllocatorCallback@Foundation@shdfnd@physx@@UAEAAVPxAllocatorCallback@3@XZ 1000c340 f i PxMetaDataObjects.obj
 0001:0000b350       ?getErrorCallback@Foundation@shdfnd@physx@@UAEAAVPxErrorCallback@3@XZ 1000c350 f i PxMetaDataObjects.obj
 0001:0000b360       ?getErrorLevel@Foundation@shdfnd@physx@@UBE?AW4Enum@PxErrorCode@3@XZ 1000c360 f i PxMetaDataObjects.obj
 0001:0000b370       ?getInternalErrorCallback@Foundation@shdfnd@physx@@QAEAAVPxErrorCallback@3@XZ 1000c370 f i PxMetaDataObjects.obj
 0001:0000b380       ?getNamedAllocMap@Foundation@shdfnd@physx@@QAEAAV?$HashMap@PBVNamedAllocator@shdfnd@physx@@PBDU?$Hash@PBVNamedAllocator@shdfnd@physx@@@23@VNonTrackingAllocator@23@@23@XZ 1000c380 f i PxMetaDataObjects.obj
 0001:0000b390       ?getNamedAllocMutex@Foundation@shdfnd@physx@@QAEAAV?$MutexT@VAllocator@shdfnd@physx@@@23@XZ 1000c390 f i PxMetaDataObjects.obj
 0001:0000b3a0       ?getReportAllocationNames@Foundation@shdfnd@physx@@UBE_NXZ 1000c3a0 f i PxMetaDataObjects.obj
 0001:0000b3b0       ?getTempAllocFreeTable@Foundation@shdfnd@physx@@QAEAAV?$Array@PATTempAllocatorChunk@shdfnd@physx@@VAllocator@23@@23@XZ 1000c3b0 f i PxMetaDataObjects.obj
 0001:0000b3c0       ?getTempAllocMutex@Foundation@shdfnd@physx@@QAEAAV?$MutexT@VAllocator@shdfnd@physx@@@23@XZ 1000c3c0 f i PxMetaDataObjects.obj
 0001:0000b3d0       ?isFinite@PxQuat@physx@@QBE_NXZ 1000c3d0 f i PxMetaDataObjects.obj
 0001:0000b460       ?isValid@PxTransform@physx@@QBE_NXZ 1000c460 f i PxMetaDataObjects.obj
 0001:0000b540       ?setErrorLevel@Foundation@shdfnd@physx@@UAEXW4Enum@PxErrorCode@3@@Z 1000c540 f i PxMetaDataObjects.obj
 0001:0000b550       ?setReportAllocationNames@Foundation@shdfnd@physx@@UAEX_N@Z 1000c550 f i PxMetaDataObjects.obj
 0001:0000b560       ?exportExtraData@NpActor@physx@@QAEXAAVPxSerializationContext@2@@Z 1000c560 f   NpActor.obj
 0001:0000b6f0       ?importExtraData@NpActor@physx@@QAEXAAVPxDeserializationContext@2@@Z 1000c6f0 f   NpActor.obj
 0001:0000b780       ?resolveReferences@NpActor@physx@@QAEXAAVPxDeserializationContext@2@@Z 1000c780 f   NpActor.obj
 0001:0000b7e0       ??0NpActor@physx@@QAE@PBD@Z 1000c7e0 f   NpActor.obj
 0001:0000b800       ?releaseConstraints@NpActor@physx@@QAEXAAVPxRigidActor@2@@Z 1000c800 f   NpActor.obj
 0001:0000b8e0       ?release@NpActor@physx@@QAEXAAVPxActor@2@@Z 1000c8e0 f   NpActor.obj
 0001:0000b900       ?getNpAggregate@NpActor@physx@@QBEPAVNpAggregate@2@AAI@Z 1000c900 f   NpActor.obj
 0001:0000b940       ?setAggregate@NpActor@physx@@QAEXPAVNpAggregate@2@AAVPxActor@2@@Z 1000c940 f   NpActor.obj
 0001:0000bae0       ?getAggregate@NpActor@physx@@QBEPAVPxAggregate@2@XZ 1000cae0 f   NpActor.obj
 0001:0000bb10       ?removeConstraintsFromScene@NpActor@physx@@QAEXXZ 1000cb10 f   NpActor.obj
 0001:0000bb90       ?findConnector@NpActor@physx@@QBEIW4Enum@NpConnectorType@2@PAVPxBase@2@@Z 1000cb90 f   NpActor.obj
 0001:0000bbe0       ?addConnector@NpActor@physx@@QAEXW4Enum@NpConnectorType@2@PAVPxBase@2@PBD@Z 1000cbe0 f   NpActor.obj
 0001:0000bd00       ?removeConnector@NpActor@physx@@QAEXAAVPxActor@2@W4Enum@NpConnectorType@2@PAVPxBase@2@PBD@Z 1000cd00 f   NpActor.obj
 0001:0000bd80       ?getNbConnectors@NpActor@physx@@QBEIW4Enum@NpConnectorType@2@@Z 1000cd80 f   NpActor.obj
 0001:0000bdd0       ?getShapeManager@NpActor@physx@@SAPAVNpShapeManager@2@AAVPxRigidActor@2@@Z 1000cdd0 f   NpActor.obj
 0001:0000bdf0       ?getShapeManager@NpActor@physx@@SAPBVNpShapeManager@2@ABVPxRigidActor@2@@Z 1000cdf0 f   NpActor.obj
 0001:0000be10       ?getGlobalPose@NpActor@physx@@SAXAAVPxTransform@2@ABVNpShape@2@ABVPxRigidActor@2@@Z 1000ce10 f   NpActor.obj
 0001:0000be30       ?getGlobalPose@NpActor@physx@@SAXAAVPxTransform@2@ABVShape@Scb@2@ABVActor@52@@Z 1000ce30 f   NpActor.obj
 0001:0000c250       ?getAPIScene@NpActor@physx@@SAPAVNpScene@2@ABVPxActor@2@@Z 1000d250 f   NpActor.obj
 0001:0000c280       ?getOwnerScene@NpActor@physx@@SAPAVNpScene@2@ABVPxActor@2@@Z 1000d280 f   NpActor.obj
 0001:0000c2a0       ?onActorRelease@NpActor@physx@@SAXPAVPxActor@2@@Z 1000d2a0 f   NpActor.obj
 0001:0000c2b0       ??1NpActor@physx@@IAE@XZ   1000d2b0 f   NpActor.obj
 0001:0000c2c0       ?addConstraintsToSceneInternal@NpActor@physx@@AAEXXZ 1000d2c0 f   NpActor.obj
 0001:0000c360       ?removeConnector@NpActor@physx@@AAEXAAVPxActor@2@I@Z 1000d360 f   NpActor.obj
 0001:0000c3c0       ??0Offsets@NpActor@physx@@QAE@XZ 1000d3c0 f   NpActor.obj
 0001:0000c420       ??$exportArray@VNpConnector@physx@@V?$InlineAllocator@$0CA@VNamedAllocator@shdfnd@physx@@@shdfnd@2@@Cm@physx@@YAXABV?$Array@VNpConnector@physx@@V?$InlineAllocator@$0CA@VNamedAllocator@shdfnd@physx@@@shdfnd@2@@shdfnd@1@AAVPxSerializationContext@1@@Z 1000d420 f i NpActor.obj
 0001:0000c450       ??$exportInlineArray@VNpConnector@physx@@$03VNamedAllocator@shdfnd@2@@Cm@physx@@YAXABV?$InlineArray@VNpConnector@physx@@$03VNamedAllocator@shdfnd@2@@shdfnd@1@AAVPxSerializationContext@1@@Z 1000d450 f i NpActor.obj
 0001:0000c490       ??$importArray@VNpConnector@physx@@V?$InlineAllocator@$0CA@VNamedAllocator@shdfnd@physx@@@shdfnd@2@@Cm@physx@@YAXAAV?$Array@VNpConnector@physx@@V?$InlineAllocator@$0CA@VNamedAllocator@shdfnd@physx@@@shdfnd@2@@shdfnd@1@AAVPxDeserializationContext@1@@Z 1000d490 f i NpActor.obj
 0001:0000c4c0       ??$importInlineArray@VNpConnector@physx@@$03VNamedAllocator@shdfnd@2@@Cm@physx@@YAXAAV?$InlineArray@VNpConnector@physx@@$03VNamedAllocator@shdfnd@2@@shdfnd@1@AAVPxDeserializationContext@1@@Z 1000d4c0 f i NpActor.obj
 0001:0000c500       ??$pointerOffset@PBVActor@Scb@physx@@@shdfnd@physx@@YAPBVActor@Scb@1@PBXH@Z 1000d500 f i NpActor.obj
 0001:0000c510       ??0PxTransform@physx@@QAE@XZ 1000d510 f i NpActor.obj
 0001:0000c520       ??0PxVec3@physx@@QAE@XZ    1000d520 f i NpActor.obj
 0001:0000c530       ??4FPUGuard@shdfnd@physx@@QAEAAV012@ABV012@@Z 1000d530 f i NpActor.obj
 0001:0000c550       ??4SyncImpl@shdfnd@physx@@QAEAAV012@ABV012@@Z 1000d550 f i NpActor.obj
 0001:0000c560       ??4ThreadImpl@shdfnd@physx@@QAEAAV012@ABV012@@Z 1000d560 f i NpActor.obj
 0001:0000c570       ?allocate@?$Array@VNpConnector@physx@@V?$InlineAllocator@$0CA@VNamedAllocator@shdfnd@physx@@@shdfnd@2@@shdfnd@physx@@IAEPAVNpConnector@3@I@Z 1000d570 f i NpActor.obj
 0001:0000c5d0       ?copy@?$Array@VNpConnector@physx@@V?$InlineAllocator@$0CA@VNamedAllocator@shdfnd@physx@@@shdfnd@2@@shdfnd@physx@@KAXPAVNpConnector@3@0PBV43@@Z 1000d5d0 f i NpActor.obj
 0001:0000c620       ?create@?$HashBase@PAVPxConstraint@physx@@PAV12@U?$Hash@PAVPxConstraint@physx@@@shdfnd@2@UGetKey@?$HashSetBase@PAVPxConstraint@physx@@U?$Hash@PAVPxConstraint@physx@@@shdfnd@2@VNonTrackingAllocator@42@$00@internal@42@VNonTrackingAllocator@42@$00@internal@shdfnd@physx@@QAEPAPAVPxConstraint@4@ABQAV54@AA_N@Z 1000d620 f i NpActor.obj
 0001:0000c750       ?erase@?$HashBase@PAVPxConstraint@physx@@PAV12@U?$Hash@PAVPxConstraint@physx@@@shdfnd@2@UGetKey@?$HashSetBase@PAVPxConstraint@physx@@U?$Hash@PAVPxConstraint@physx@@@shdfnd@2@VNonTrackingAllocator@42@$00@internal@42@VNonTrackingAllocator@42@$00@internal@shdfnd@physx@@QAE_NABQAVPxConstraint@4@@Z 1000d750 f i NpActor.obj
 0001:0000c870       ?getKinematicTarget@Body@Scb@physx@@QBE_NAAVPxTransform@3@@Z 1000d870 f i NpActor.obj
 0001:0000c8e0       ?growAndPushBack@?$Array@VNpConnector@physx@@V?$InlineAllocator@$0CA@VNamedAllocator@shdfnd@physx@@@shdfnd@2@@shdfnd@physx@@IAEAAVNpConnector@3@ABV43@@Z 1000d8e0 f i NpActor.obj
 0001:0000c970       ?recreate@?$Array@VNpConnector@physx@@V?$InlineAllocator@$0CA@VNamedAllocator@shdfnd@physx@@@shdfnd@2@@shdfnd@physx@@IAEXI@Z 1000d970 f i NpActor.obj
 0001:0000c9d0       ?reserveInternal@?$HashBase@PAVPxConstraint@physx@@PAV12@U?$Hash@PAVPxConstraint@physx@@@shdfnd@2@UGetKey@?$HashSetBase@PAVPxConstraint@physx@@U?$Hash@PAVPxConstraint@physx@@@shdfnd@2@VNonTrackingAllocator@42@$00@internal@42@VNonTrackingAllocator@42@$00@internal@shdfnd@physx@@AAEXI@Z 1000d9d0 f i NpActor.obj
 0001:0000cb60       ?resizeUninitialized@?$Array@VNpConnector@physx@@V?$InlineAllocator@$0CA@VNamedAllocator@shdfnd@physx@@@shdfnd@2@@shdfnd@physx@@QAEXI@Z 1000db60 f i NpActor.obj
 0001:0000cb90       ?exportExtraData@NpAggregate@physx@@UAEXAAVPxSerializationContext@2@@Z 1000db90 f   NpAggregate.obj
 0001:0000cbc0       ?importExtraData@NpAggregate@physx@@QAEXAAVPxDeserializationContext@2@@Z 1000dbc0 f   NpAggregate.obj
 0001:0000cbf0       ?resolveReferences@NpAggregate@physx@@QAEXAAVPxDeserializationContext@2@@Z 1000dbf0 f   NpAggregate.obj
 0001:0000cc90       ?requiresObjects@NpAggregate@physx@@UAEXAAVPxProcessPxBaseCallback@2@@Z 1000dc90 f   NpAggregate.obj
 0001:0000cce0       ?createObject@NpAggregate@physx@@SAPAV12@AAPAEAAVPxDeserializationContext@2@@Z 1000dce0 f   NpAggregate.obj
 0001:0000cdd0       ??0NpAggregate@physx@@QAE@I_N@Z 1000ddd0 f   NpAggregate.obj
 0001:0000ce50       ??1NpAggregate@physx@@UAE@XZ 1000de50 f   NpAggregate.obj
 0001:0000cea0       ?release@NpAggregate@physx@@UAEXXZ 1000dea0 f   NpAggregate.obj
 0001:0000cfe0       ?addActor@NpAggregate@physx@@UAE_NAAVPxActor@2@PBVPxBVHStructure@2@@Z 1000dfe0 f   NpAggregate.obj
 0001:0000d1b0       ?removeActor@NpAggregate@physx@@UAE_NAAVPxActor@2@@Z 1000e1b0 f   NpAggregate.obj
 0001:0000d380       ?addArticulation@NpAggregate@physx@@UAE_NAAVPxArticulationBase@2@@Z 1000e380 f   NpAggregate.obj
 0001:0000d520       ?removeArticulation@NpAggregate@physx@@UAE_NAAVPxArticulationBase@2@@Z 1000e520 f   NpAggregate.obj
 0001:0000d640       ?getNbActors@NpAggregate@physx@@UBEIXZ 1000e640 f   NpAggregate.obj
 0001:0000d680       ?getMaxNbActors@NpAggregate@physx@@UBEIXZ 1000e680 f   NpAggregate.obj
 0001:0000d6c0       ?getActors@NpAggregate@physx@@UBEIPAPAVPxActor@2@II@Z 1000e6c0 f   NpAggregate.obj
 0001:0000d740       ?getScene@NpAggregate@physx@@UAEPAVPxScene@2@XZ 1000e740 f   NpAggregate.obj
 0001:0000d770       ?getSelfCollision@NpAggregate@physx@@UBE_NXZ 1000e770 f   NpAggregate.obj
 0001:0000d7b0       ?getAPIScene@NpAggregate@physx@@QBEPAVNpScene@2@XZ 1000e7b0 f   NpAggregate.obj
 0001:0000d7e0       ?getOwnerScene@NpAggregate@physx@@QBEPAVNpScene@2@XZ 1000e7e0 f   NpAggregate.obj
 0001:0000d7f0       ?addActorInternal@NpAggregate@physx@@QAEXAAVPxActor@2@AAVNpScene@2@PBVPxBVHStructure@2@@Z 1000e7f0 f   NpAggregate.obj
 0001:0000d890       ?removeAndReinsert@NpAggregate@physx@@QAEXAAVPxActor@2@_N@Z 1000e890 f   NpAggregate.obj
 0001:0000d8d0       ?removeActorAndReinsert@NpAggregate@physx@@QAE_NAAVPxActor@2@_N@Z 1000e8d0 f   NpAggregate.obj
 0001:0000d950       ?removeArticulationAndReinsert@NpAggregate@physx@@QAE_NAAVPxArticulationBase@2@_N@Z 1000e950 f   NpAggregate.obj
 0001:0000da10       ??$pointerOffset@PAVActor@Scb@physx@@@shdfnd@physx@@YAPAVActor@Scb@1@PAXH@Z 1000ea10 f i NpAggregate.obj
 0001:0000da20       ??$pointerOffset@PAVNpActor@physx@@@shdfnd@physx@@YAPAVNpActor@1@PAXH@Z 1000ea20 f i NpAggregate.obj
 0001:0000da30       ??1PxAggregate@physx@@MAE@XZ 1000ea30 f i NpAggregate.obj
 0001:0000da40       ??1PxBase@physx@@MAE@XZ    1000ea40 f i NpAggregate.obj
 0001:0000da50       ??_ENpAggregate@physx@@UAEPAXI@Z 1000ea50 f i NpAggregate.obj
 0001:0000da50       ??_GNpAggregate@physx@@UAEPAXI@Z 1000ea50 f i NpAggregate.obj
 0001:0000dac0       ??_EPxAggregate@physx@@MAEPAXI@Z 1000eac0 f i NpAggregate.obj
 0001:0000dac0       ??_GPxAggregate@physx@@MAEPAXI@Z 1000eac0 f i NpAggregate.obj
 0001:0000daf0       ??_EPxBase@physx@@MAEPAXI@Z 1000eaf0 f i NpAggregate.obj
 0001:0000daf0       ??_GPxBase@physx@@MAEPAXI@Z 1000eaf0 f i NpAggregate.obj
 0001:0000db20       ?erase@?$HashBase@PAVPxAggregate@physx@@PAV12@U?$Hash@PAVPxAggregate@physx@@@shdfnd@2@UGetKey@?$HashSetBase@PAVPxAggregate@physx@@U?$Hash@PAVPxAggregate@physx@@@shdfnd@2@VNonTrackingAllocator@42@$00@internal@42@VNonTrackingAllocator@42@$00@internal@shdfnd@physx@@QAE_NABQAVPxAggregate@4@@Z 1000eb20 f i NpAggregate.obj
 0001:0000dc40       ?getConcreteTypeName@PxAggregate@physx@@UBEPBDXZ 1000ec40 f i NpAggregate.obj
 0001:0000dc50       ?isKindOf@PxAggregate@physx@@MBE_NPBD@Z 1000ec50 f i NpAggregate.obj
 0001:0000dcd0       ?isKindOf@PxBase@physx@@MBE_NPBD@Z 1000ecd0 f i NpAggregate.obj
 0001:0000dd20       ?isReleasable@PxBase@physx@@UBE_NXZ 1000ed20 f i NpAggregate.obj
 0001:0000dd30       ??1NpArticulationReducedCoordinate@physx@@UAE@XZ 1000ed30 f   NpArticulationReducedCoordinate.obj
 0001:0000ddc0       ?setArticulationFlags@NpArticulationReducedCoordinate@physx@@UAEXV?$PxFlags@W4Enum@PxArticulationFlag@physx@@E@2@@Z 1000edc0 f   NpArticulationReducedCoordinate.obj
 0001:0000de70       ?setArticulationFlag@NpArticulationReducedCoordinate@physx@@UAEXW4Enum@PxArticulationFlag@2@_N@Z 1000ee70 f   NpArticulationReducedCoordinate.obj
 0001:0000df30       ?getArticulationFlags@NpArticulationReducedCoordinate@physx@@UBE?AV?$PxFlags@W4Enum@PxArticulationFlag@physx@@E@2@XZ 1000ef30 f   NpArticulationReducedCoordinate.obj
 0001:0000df70       ?getDofs@NpArticulationReducedCoordinate@physx@@UBEIXZ 1000ef70 f   NpArticulationReducedCoordinate.obj
 0001:0000dfb0       ?createCache@NpArticulationReducedCoordinate@physx@@UBEPAVPxArticulationCache@2@XZ 1000efb0 f   NpArticulationReducedCoordinate.obj
 0001:0000e080       ?getCacheDataSize@NpArticulationReducedCoordinate@physx@@UBEIXZ 1000f080 f   NpArticulationReducedCoordinate.obj
 0001:0000e140       ?zeroCache@NpArticulationReducedCoordinate@physx@@UAEXAAVPxArticulationCache@2@@Z 1000f140 f   NpArticulationReducedCoordinate.obj
 0001:0000e190       ?applyCache@NpArticulationReducedCoordinate@physx@@UAEXAAVPxArticulationCache@2@V?$PxFlags@W4Enum@PxArticulationCache@physx@@E@2@_N@Z 1000f190 f   NpArticulationReducedCoordinate.obj
 0001:0000e3e0       ?copyInternalStateToCache@NpArticulationReducedCoordinate@physx@@UBEXAAVPxArticulationCache@2@V?$PxFlags@W4Enum@PxArticulationCache@physx@@E@2@@Z 1000f3e0 f   NpArticulationReducedCoordinate.obj
 0001:0000e490       ?releaseCache@NpArticulationReducedCoordinate@physx@@UBEXAAVPxArticulationCache@2@@Z 1000f490 f   NpArticulationReducedCoordinate.obj
 0001:0000e560       ?packJointData@NpArticulationReducedCoordinate@physx@@UBEXPBMPAM@Z 1000f560 f   NpArticulationReducedCoordinate.obj
 0001:0000e630       ?unpackJointData@NpArticulationReducedCoordinate@physx@@UBEXPBMPAM@Z 1000f630 f   NpArticulationReducedCoordinate.obj
 0001:0000e700       ?commonInit@NpArticulationReducedCoordinate@physx@@UBEXXZ 1000f700 f   NpArticulationReducedCoordinate.obj
 0001:0000e7c0       ?computeGeneralizedGravityForce@NpArticulationReducedCoordinate@physx@@UBEXAAVPxArticulationCache@2@@Z 1000f7c0 f   NpArticulationReducedCoordinate.obj
 0001:0000e8c0       ?computeCoriolisAndCentrifugalForce@NpArticulationReducedCoordinate@physx@@UBEXAAVPxArticulationCache@2@@Z 1000f8c0 f   NpArticulationReducedCoordinate.obj
 0001:0000e9c0       ?computeGeneralizedExternalForce@NpArticulationReducedCoordinate@physx@@UBEXAAVPxArticulationCache@2@@Z 1000f9c0 f   NpArticulationReducedCoordinate.obj
 0001:0000eac0       ?computeJointAcceleration@NpArticulationReducedCoordinate@physx@@UBEXAAVPxArticulationCache@2@@Z 1000fac0 f   NpArticulationReducedCoordinate.obj
 0001:0000ebc0       ?computeJointForce@NpArticulationReducedCoordinate@physx@@UBEXAAVPxArticulationCache@2@@Z 1000fbc0 f   NpArticulationReducedCoordinate.obj
 0001:0000ecc0       ?computeKinematicJacobian@NpArticulationReducedCoordinate@physx@@UBEXIAAVPxArticulationCache@2@@Z 1000fcc0 f   NpArticulationReducedCoordinate.obj
 0001:0000edd0       ?computeCoefficentMatrix@NpArticulationReducedCoordinate@physx@@UBEXAAVPxArticulationCache@2@@Z 1000fdd0 f   NpArticulationReducedCoordinate.obj
 0001:0000ef00       ?computeLambda@NpArticulationReducedCoordinate@physx@@UBE_NAAVPxArticulationCache@2@0QBMI@Z 1000ff00 f   NpArticulationReducedCoordinate.obj
 0001:0000f010       ?computeGeneralizedMassMatrix@NpArticulationReducedCoordinate@physx@@UBEXAAVPxArticulationCache@2@@Z 10010010 f   NpArticulationReducedCoordinate.obj
 0001:0000f110       ?addLoopJoint@NpArticulationReducedCoordinate@physx@@UAEXPAVPxJoint@2@@Z 10010110 f   NpArticulationReducedCoordinate.obj
 0001:0000f280       ?removeLoopJoint@NpArticulationReducedCoordinate@physx@@UAEXPAVPxJoint@2@@Z 10010280 f   NpArticulationReducedCoordinate.obj
 0001:0000f310       ?getNbLoopJoints@NpArticulationReducedCoordinate@physx@@UBEIXZ 10010310 f   NpArticulationReducedCoordinate.obj
 0001:0000f350       ?getLoopJoints@NpArticulationReducedCoordinate@physx@@UBEIPAPAVPxJoint@2@II@Z 10010350 f   NpArticulationReducedCoordinate.obj
 0001:0000f3d0       ?getCoefficentMatrixSize@NpArticulationReducedCoordinate@physx@@UBEIXZ 100103d0 f   NpArticulationReducedCoordinate.obj
 0001:0000f410       ?teleportRootLink@NpArticulationReducedCoordinate@physx@@UAEXABVPxTransform@2@_N@Z 10010410 f   NpArticulationReducedCoordinate.obj
 0001:0000f530       ??0NpArticulationReducedCoordinate@physx@@QAE@XZ 10010530 f   NpArticulationReducedCoordinate.obj
 0001:0000f690       ?createArticulationJoint@NpArticulationReducedCoordinate@physx@@UAEPAVPxArticulationJointBase@2@AAVPxArticulationLink@2@ABVPxTransform@2@01@Z 10010690 f   NpArticulationReducedCoordinate.obj
 0001:0000f6a0       ?releaseArticulationJoint@NpArticulationReducedCoordinate@physx@@UAEXPAVPxArticulationJointBase@2@@Z 100106a0 f   NpArticulationReducedCoordinate.obj
 0001:0000f6b0       ??1?$NpArticulationTemplate@VPxArticulationReducedCoordinate@physx@@@physx@@UAE@XZ 100106b0 f i NpArticulationReducedCoordinate.obj
 0001:0000f710       ??1PxArticulationBase@physx@@UAE@XZ 10010710 f i NpArticulationReducedCoordinate.obj
 0001:0000f720       ??1PxArticulationReducedCoordinate@physx@@MAE@XZ 10010720 f i NpArticulationReducedCoordinate.obj
 0001:0000f730       ??_E?$NpArticulationTemplate@VPxArticulationReducedCoordinate@physx@@@physx@@UAEPAXI@Z 10010730 f i NpArticulationReducedCoordinate.obj
 0001:0000f730       ??_G?$NpArticulationTemplate@VPxArticulationReducedCoordinate@physx@@@physx@@UAEPAXI@Z 10010730 f i NpArticulationReducedCoordinate.obj
 0001:0000f7c0       ??_ENpArticulationReducedCoordinate@physx@@UAEPAXI@Z 100107c0 f i NpArticulationReducedCoordinate.obj
 0001:0000f7c0       ??_GNpArticulationReducedCoordinate@physx@@UAEPAXI@Z 100107c0 f i NpArticulationReducedCoordinate.obj
 0001:0000f880       ??_GPxArticulationBase@physx@@UAEPAXI@Z 10010880 f i NpArticulationReducedCoordinate.obj
 0001:0000f880       ??_EPxArticulationBase@physx@@UAEPAXI@Z 10010880 f i NpArticulationReducedCoordinate.obj
 0001:0000f8b0       ??_GPxArticulationReducedCoordinate@physx@@MAEPAXI@Z 100108b0 f i NpArticulationReducedCoordinate.obj
 0001:0000f8b0       ??_EPxArticulationReducedCoordinate@physx@@MAEPAXI@Z 100108b0 f i NpArticulationReducedCoordinate.obj
 0001:0000f8e0       ?allocate@?$Array@PAVNpArticulationLink@physx@@V?$InlineAllocator@$0BA@VNamedAllocator@shdfnd@physx@@@shdfnd@2@@shdfnd@physx@@IAEPAPAVNpArticulationLink@3@I@Z 100108e0 f i NpArticulationReducedCoordinate.obj
 0001:0000f940       ?createLink@?$NpArticulationTemplate@VPxArticulationReducedCoordinate@physx@@@physx@@UAEPAVPxArticulationLink@2@PAV32@ABVPxTransform@2@@Z 10010940 f i NpArticulationReducedCoordinate.obj
 0001:0000fb30       ?erase@?$HashBase@PAVPxArticulationBase@physx@@PAV12@U?$Hash@PAVPxArticulationBase@physx@@@shdfnd@2@UGetKey@?$HashSetBase@PAVPxArticulationBase@physx@@U?$Hash@PAVPxArticulationBase@physx@@@shdfnd@2@VNonTrackingAllocator@42@$00@internal@42@VNonTrackingAllocator@42@$00@internal@shdfnd@physx@@QAE_NABQAVPxArticulationBase@4@@Z 10010b30 f i NpArticulationReducedCoordinate.obj
 0001:0000fc50       ?getAPIScene@PxArticulationImpl@physx@@QBEPAVNpScene@2@XZ 10010c50 f i NpArticulationReducedCoordinate.obj
 0001:0000fc80       ?getAggregate@?$NpArticulationTemplate@VPxArticulationReducedCoordinate@physx@@@physx@@UBEPAVPxAggregate@2@XZ 10010c80 f i NpArticulationReducedCoordinate.obj
 0001:0000fcc0       ?getConcreteTypeName@NpArticulationReducedCoordinate@physx@@UBEPBDXZ 10010cc0 f i NpArticulationReducedCoordinate.obj
 0001:0000fcd0       ?getImpl@?$NpArticulationTemplate@VPxArticulationReducedCoordinate@physx@@@physx@@UAEPAVPxArticulationImpl@2@XZ 10010cd0 f i NpArticulationReducedCoordinate.obj
 0001:0000fce0       ?getImpl@?$NpArticulationTemplate@VPxArticulationReducedCoordinate@physx@@@physx@@UBEPBVPxArticulationImpl@2@XZ 10010ce0 f i NpArticulationReducedCoordinate.obj
 0001:0000fcf0       ?getLinks@?$NpArticulationTemplate@VPxArticulationReducedCoordinate@physx@@@physx@@UBEIPAPAVPxArticulationLink@2@II@Z 10010cf0 f i NpArticulationReducedCoordinate.obj
 0001:0000fd70       ?getName@?$NpArticulationTemplate@VPxArticulationReducedCoordinate@physx@@@physx@@UBEPBDXZ 10010d70 f i NpArticulationReducedCoordinate.obj
 0001:0000fdb0       ?getNbLinks@?$NpArticulationTemplate@VPxArticulationReducedCoordinate@physx@@@physx@@UBEIXZ 10010db0 f i NpArticulationReducedCoordinate.obj
 0001:0000fdf0       ?getScene@?$NpArticulationTemplate@VPxArticulationReducedCoordinate@physx@@@physx@@UBEPAVPxScene@2@XZ 10010df0 f i NpArticulationReducedCoordinate.obj
 0001:0000fe20       ?getSleepThreshold@?$NpArticulationTemplate@VPxArticulationReducedCoordinate@physx@@@physx@@UBEMXZ 10010e20 f i NpArticulationReducedCoordinate.obj
 0001:0000fe80       ?getSolverIterationCounts@?$NpArticulationTemplate@VPxArticulationReducedCoordinate@physx@@@physx@@UBEXAAI0@Z 10010e80 f i NpArticulationReducedCoordinate.obj
 0001:0000fee0       ?getStabilizationThreshold@?$NpArticulationTemplate@VPxArticulationReducedCoordinate@physx@@@physx@@UBEMXZ 10010ee0 f i NpArticulationReducedCoordinate.obj
 0001:0000ff40       ?getType@?$NpArticulationTemplate@VPxArticulationReducedCoordinate@physx@@@physx@@UBE?AW4Enum@PxArticulationBase@2@XZ 10010f40 f i NpArticulationReducedCoordinate.obj
 0001:0000ff50       ?getWakeCounter@?$NpArticulationTemplate@VPxArticulationReducedCoordinate@physx@@@physx@@UBEMXZ 10010f50 f i NpArticulationReducedCoordinate.obj
 0001:0000ffa0       ?getWorldBounds@?$NpArticulationTemplate@VPxArticulationReducedCoordinate@physx@@@physx@@UBE?AVPxBounds3@2@M@Z 10010fa0 f i NpArticulationReducedCoordinate.obj
 0001:0000ffd0       ?getWorldBounds@PxArticulationImpl@physx@@QBE?AVPxBounds3@2@M@Z 10010fd0 f i NpArticulationReducedCoordinate.obj
 0001:000101e0       ?growAndPushBack@?$Array@PAVNpArticulationLink@physx@@V?$InlineAllocator@$0BA@VNamedAllocator@shdfnd@physx@@@shdfnd@2@@shdfnd@physx@@IAEAAPAVNpArticulationLink@3@ABQAV43@@Z 100111e0 f i NpArticulationReducedCoordinate.obj
 0001:000102a0       ?growAndPushBack@?$Array@PAVPxJoint@physx@@VNamedAllocator@shdfnd@2@@shdfnd@physx@@IAEAAPAVPxJoint@3@ABQAV43@@Z 100112a0 f i NpArticulationReducedCoordinate.obj
 0001:00010380       ?isKindOf@NpArticulationReducedCoordinate@physx@@UBE_NPBD@Z 10011380 f i NpArticulationReducedCoordinate.obj
 0001:00010400       ?isSane@PxTransform@physx@@QBE_NXZ 10011400 f i NpArticulationReducedCoordinate.obj
 0001:000104e0       ?isSleeping@?$NpArticulationTemplate@VPxArticulationReducedCoordinate@physx@@@physx@@UBE_NXZ 100114e0 f i NpArticulationReducedCoordinate.obj
 0001:000104f0       ?isSleeping@PxArticulationImpl@physx@@QBE_NXZ 100114f0 f i NpArticulationReducedCoordinate.obj
 0001:000105c0       ?putToSleep@?$NpArticulationTemplate@VPxArticulationReducedCoordinate@physx@@@physx@@UAEXXZ 100115c0 f i NpArticulationReducedCoordinate.obj
 0001:00010700       ?putToSleepInternal@Body@Scb@physx@@QAEXXZ 10011700 f i NpArticulationReducedCoordinate.obj
 0001:000108d0       ?recreate@?$Array@PAVPxJoint@physx@@VNamedAllocator@shdfnd@2@@shdfnd@physx@@IAEXI@Z 100118d0 f i NpArticulationReducedCoordinate.obj
 0001:00010990       ?release@?$NpArticulationTemplate@VPxArticulationReducedCoordinate@physx@@@physx@@UAEXXZ 10011990 f i NpArticulationReducedCoordinate.obj
 0001:00010a70       ?setName@?$NpArticulationTemplate@VPxArticulationReducedCoordinate@physx@@@physx@@UAEXPBD@Z 10011a70 f i NpArticulationReducedCoordinate.obj
 0001:00010ab0       ?setSleepThreshold@?$NpArticulationTemplate@VPxArticulationReducedCoordinate@physx@@@physx@@UAEXM@Z 10011ab0 f i NpArticulationReducedCoordinate.obj
 0001:00010b70       ?setSolverIterationCounts@?$NpArticulationTemplate@VPxArticulationReducedCoordinate@physx@@@physx@@UAEXII@Z 10011b70 f i NpArticulationReducedCoordinate.obj
 0001:00010ca0       ?setStabilizationThreshold@?$NpArticulationTemplate@VPxArticulationReducedCoordinate@physx@@@physx@@UAEXM@Z 10011ca0 f i NpArticulationReducedCoordinate.obj
 0001:00010d60       ?setWakeCounter@?$NpArticulationTemplate@VPxArticulationReducedCoordinate@physx@@@physx@@UAEXM@Z 10011d60 f i NpArticulationReducedCoordinate.obj
 0001:00010d80       ?setWakeCounter@PxArticulationImpl@physx@@QAEXM@Z 10011d80 f i NpArticulationReducedCoordinate.obj
 0001:00010f50       ?wakeUp@?$NpArticulationTemplate@VPxArticulationReducedCoordinate@physx@@@physx@@UAEXXZ 10011f50 f i NpArticulationReducedCoordinate.obj
 0001:00010f60       ?wakeUp@PxArticulationImpl@physx@@QAEXXZ 10011f60 f i NpArticulationReducedCoordinate.obj
 0001:000110f0       ?wakeUpInternal@Body@Scb@physx@@QAEXM@Z 100120f0 f i NpArticulationReducedCoordinate.obj
 0001:00011170       ?wakeUpInternal@PxArticulationImpl@physx@@QAEX_N0@Z 10012170 f i NpArticulationReducedCoordinate.obj
 0001:000112f0       ?NpArticulationGetRootFromScb@physx@@YAPAVBody@Scb@1@AAVArticulation@31@@Z 100122f0 f   NpArticulation.obj
 0001:00011320       ??1NpArticulation@physx@@UAE@XZ 10012320 f   NpArticulation.obj
 0001:00011390       ?exportExtraData@NpArticulation@physx@@UAEXAAVPxSerializationContext@2@@Z 10012390 f   NpArticulation.obj
 0001:000113e0       ?importExtraData@NpArticulation@physx@@QAEXAAVPxDeserializationContext@2@@Z 100123e0 f   NpArticulation.obj
 0001:00011430       ?resolveReferences@NpArticulation@physx@@QAEXAAVPxDeserializationContext@2@@Z 10012430 f   NpArticulation.obj
 0001:00011480       ?requiresObjects@NpArticulation@physx@@UAEXAAVPxProcessPxBaseCallback@2@@Z 10012480 f   NpArticulation.obj
 0001:000114b0       ?createObject@NpArticulation@physx@@SAPAV12@AAPAEAAVPxDeserializationContext@2@@Z 100124b0 f   NpArticulation.obj
 0001:000115c0       ?getInternalDriveIterations@NpArticulation@physx@@UBEIXZ 100125c0 f   NpArticulation.obj
 0001:00011620       ?setInternalDriveIterations@NpArticulation@physx@@UAEXI@Z 10012620 f   NpArticulation.obj
 0001:000116d0       ?getExternalDriveIterations@NpArticulation@physx@@UBEIXZ 100126d0 f   NpArticulation.obj
 0001:00011730       ?setExternalDriveIterations@NpArticulation@physx@@UAEXI@Z 10012730 f   NpArticulation.obj
 0001:000117e0       ?getMaxProjectionIterations@NpArticulation@physx@@UBEIXZ 100127e0 f   NpArticulation.obj
 0001:00011840       ?setMaxProjectionIterations@NpArticulation@physx@@UAEXI@Z 10012840 f   NpArticulation.obj
 0001:000118f0       ?getSeparationTolerance@NpArticulation@physx@@UBEMXZ 100128f0 f   NpArticulation.obj
 0001:00011950       ?setSeparationTolerance@NpArticulation@physx@@UAEXM@Z 10012950 f   NpArticulation.obj
 0001:00011a10       ?createDriveCache@NpArticulation@physx@@UBEPAVPxArticulationDriveCache@2@MI@Z 10012a10 f   NpArticulation.obj
 0001:00011af0       ?updateDriveCache@NpArticulation@physx@@UBEXAAVPxArticulationDriveCache@2@MI@Z 10012af0 f   NpArticulation.obj
 0001:00011c20       ?releaseDriveCache@NpArticulation@physx@@UBEXAAVPxArticulationDriveCache@2@@Z 10012c20 f   NpArticulation.obj
 0001:00011cf0       ?applyImpulse@NpArticulation@physx@@UAEXPAVPxArticulationLink@2@ABVPxArticulationDriveCache@2@ABVPxVec3@2@2@Z 10012cf0 f   NpArticulation.obj
 0001:00011fb0       ?computeImpulseResponse@NpArticulation@physx@@UBEXPAVPxArticulationLink@2@AAVPxVec3@2@1ABVPxArticulationDriveCache@2@ABV42@3@Z 10012fb0 f   NpArticulation.obj
 0001:000121e0       ??0NpArticulation@physx@@QAE@XZ 100131e0 f   NpArticulation.obj
 0001:00012310       ?createArticulationJoint@NpArticulation@physx@@EAEPAVPxArticulationJointBase@2@AAVPxArticulationLink@2@ABVPxTransform@2@01@Z 10013310 f   NpArticulation.obj
 0001:00012320       ?releaseArticulationJoint@NpArticulation@physx@@EAEXPAVPxArticulationJointBase@2@@Z 10013320 f   NpArticulation.obj
 0001:00012330       ??$exportArray@PAVNpArticulationLink@physx@@V?$InlineAllocator@$0BA@VNamedAllocator@shdfnd@physx@@@shdfnd@2@@Cm@physx@@YAXABV?$Array@PAVNpArticulationLink@physx@@V?$InlineAllocator@$0BA@VNamedAllocator@shdfnd@physx@@@shdfnd@2@@shdfnd@1@AAVPxSerializationContext@1@@Z 10013330 f i NpArticulation.obj
 0001:00012360       ??$exportInlineArray@PAVNpArticulationLink@physx@@$03VNamedAllocator@shdfnd@2@@Cm@physx@@YAXABV?$InlineArray@PAVNpArticulationLink@physx@@$03VNamedAllocator@shdfnd@2@@shdfnd@1@AAVPxSerializationContext@1@@Z 10013360 f i NpArticulation.obj
 0001:000123a0       ??$importArray@PAVNpArticulationLink@physx@@V?$InlineAllocator@$0BA@VNamedAllocator@shdfnd@physx@@@shdfnd@2@@Cm@physx@@YAXAAV?$Array@PAVNpArticulationLink@physx@@V?$InlineAllocator@$0BA@VNamedAllocator@shdfnd@physx@@@shdfnd@2@@shdfnd@1@AAVPxDeserializationContext@1@@Z 100133a0 f i NpArticulation.obj
 0001:000123d0       ??$importInlineArray@PAVNpArticulationLink@physx@@$03VNamedAllocator@shdfnd@2@@Cm@physx@@YAXAAV?$InlineArray@PAVNpArticulationLink@physx@@$03VNamedAllocator@shdfnd@2@@shdfnd@1@AAVPxDeserializationContext@1@@Z 100133d0 f i NpArticulation.obj
 0001:00012410       ??1?$NpArticulationTemplate@VPxArticulation@physx@@@physx@@UAE@XZ 10013410 f i NpArticulation.obj
 0001:00012470       ??1PxArticulation@physx@@MAE@XZ 10013470 f i NpArticulation.obj
 0001:00012480       ??_G?$NpArticulationTemplate@VPxArticulation@physx@@@physx@@UAEPAXI@Z 10013480 f i NpArticulation.obj
 0001:00012480       ??_E?$NpArticulationTemplate@VPxArticulation@physx@@@physx@@UAEPAXI@Z 10013480 f i NpArticulation.obj
 0001:00012510       ??_GNpArticulation@physx@@UAEPAXI@Z 10013510 f i NpArticulation.obj
 0001:00012510       ??_ENpArticulation@physx@@UAEPAXI@Z 10013510 f i NpArticulation.obj
 0001:000125b0       ??_EPxArticulation@physx@@MAEPAXI@Z 100135b0 f i NpArticulation.obj
 0001:000125b0       ??_GPxArticulation@physx@@MAEPAXI@Z 100135b0 f i NpArticulation.obj
 0001:000125e0       ?createLink@?$NpArticulationTemplate@VPxArticulation@physx@@@physx@@UAEPAVPxArticulationLink@2@PAV32@ABVPxTransform@2@@Z 100135e0 f i NpArticulation.obj
 0001:000127d0       ?getAggregate@?$NpArticulationTemplate@VPxArticulation@physx@@@physx@@UBEPAVPxAggregate@2@XZ 100137d0 f i NpArticulation.obj
 0001:00012810       ?getConcreteTypeName@NpArticulation@physx@@UBEPBDXZ 10013810 f i NpArticulation.obj
 0001:00012820       ?getImpl@?$NpArticulationTemplate@VPxArticulation@physx@@@physx@@UAEPAVPxArticulationImpl@2@XZ 10013820 f i NpArticulation.obj
 0001:00012830       ?getImpl@?$NpArticulationTemplate@VPxArticulation@physx@@@physx@@UBEPBVPxArticulationImpl@2@XZ 10013830 f i NpArticulation.obj
 0001:00012840       ?getLinks@?$NpArticulationTemplate@VPxArticulation@physx@@@physx@@UBEIPAPAVPxArticulationLink@2@II@Z 10013840 f i NpArticulation.obj
 0001:000128c0       ?getName@?$NpArticulationTemplate@VPxArticulation@physx@@@physx@@UBEPBDXZ 100138c0 f i NpArticulation.obj
 0001:00012900       ?getNbLinks@?$NpArticulationTemplate@VPxArticulation@physx@@@physx@@UBEIXZ 10013900 f i NpArticulation.obj
 0001:00012940       ?getScene@?$NpArticulationTemplate@VPxArticulation@physx@@@physx@@UBEPAVPxScene@2@XZ 10013940 f i NpArticulation.obj
 0001:00012970       ?getSleepThreshold@?$NpArticulationTemplate@VPxArticulation@physx@@@physx@@UBEMXZ 10013970 f i NpArticulation.obj
 0001:000129d0       ?getSolverIterationCounts@?$NpArticulationTemplate@VPxArticulation@physx@@@physx@@UBEXAAI0@Z 100139d0 f i NpArticulation.obj
 0001:00012a30       ?getStabilizationThreshold@?$NpArticulationTemplate@VPxArticulation@physx@@@physx@@UBEMXZ 10013a30 f i NpArticulation.obj
 0001:00012a90       ?getType@?$NpArticulationTemplate@VPxArticulation@physx@@@physx@@UBE?AW4Enum@PxArticulationBase@2@XZ 10013a90 f i NpArticulation.obj
 0001:00012aa0       ?getWakeCounter@?$NpArticulationTemplate@VPxArticulation@physx@@@physx@@UBEMXZ 10013aa0 f i NpArticulation.obj
 0001:00012af0       ?getWorldBounds@?$NpArticulationTemplate@VPxArticulation@physx@@@physx@@UBE?AVPxBounds3@2@M@Z 10013af0 f i NpArticulation.obj
 0001:00012b10       ?isFinite@PxVec3@physx@@QBE_NXZ 10013b10 f i NpArticulation.obj
 0001:00012b80       ?isKindOf@NpArticulation@physx@@UBE_NPBD@Z 10013b80 f i NpArticulation.obj
 0001:00012c00       ?isSleeping@?$NpArticulationTemplate@VPxArticulation@physx@@@physx@@UBE_NXZ 10013c00 f i NpArticulation.obj
 0001:00012c10       ?putToSleep@?$NpArticulationTemplate@VPxArticulation@physx@@@physx@@UAEXXZ 10013c10 f i NpArticulation.obj
 0001:00012d50       ?release@?$NpArticulationTemplate@VPxArticulation@physx@@@physx@@UAEXXZ 10013d50 f i NpArticulation.obj
 0001:00012e30       ?setName@?$NpArticulationTemplate@VPxArticulation@physx@@@physx@@UAEXPBD@Z 10013e30 f i NpArticulation.obj
 0001:00012e70       ?setSleepThreshold@?$NpArticulationTemplate@VPxArticulation@physx@@@physx@@UAEXM@Z 10013e70 f i NpArticulation.obj
 0001:00012f30       ?setSolverIterationCounts@?$NpArticulationTemplate@VPxArticulation@physx@@@physx@@UAEXII@Z 10013f30 f i NpArticulation.obj
 0001:00013060       ?setStabilizationThreshold@?$NpArticulationTemplate@VPxArticulation@physx@@@physx@@UAEXM@Z 10014060 f i NpArticulation.obj
 0001:00013120       ?setWakeCounter@?$NpArticulationTemplate@VPxArticulation@physx@@@physx@@UAEXM@Z 10014120 f i NpArticulation.obj
 0001:00013140       ?wakeUp@?$NpArticulationTemplate@VPxArticulation@physx@@@physx@@UAEXXZ 10014140 f i NpArticulation.obj
 0001:00013150       ?NpArticulationJointGetBodiesFromScb@physx@@YAXAAVArticulationJoint@Scb@1@AAPAVBody@31@1@Z 10014150 f   NpArticulationJoint.obj
 0001:00013180       ?resolveReferences@NpArticulationJoint@physx@@UAEXAAVPxDeserializationContext@2@@Z 10014180 f   NpArticulationJoint.obj
 0001:000131d0       ?createObject@NpArticulationJoint@physx@@SAPAV12@AAPAEAAVPxDeserializationContext@2@@Z 100141d0 f   NpArticulationJoint.obj
 0001:00013250       ??0NpArticulationJoint@physx@@QAE@AAVNpArticulationLink@1@ABVPxTransform@1@01@Z 10014250 f   NpArticulationJoint.obj
 0001:000132e0       ??1NpArticulationJoint@physx@@UAE@XZ 100142e0 f   NpArticulationJoint.obj
 0001:00013300       ?setTargetOrientation@NpArticulationJoint@physx@@UAEXABVPxQuat@2@@Z 10014300 f   NpArticulationJoint.obj
 0001:00013630       ?getTargetOrientation@NpArticulationJoint@physx@@UBE?AVPxQuat@2@XZ 10014630 f   NpArticulationJoint.obj
 0001:000136a0       ?setTargetVelocity@NpArticulationJoint@physx@@UAEXABVPxVec3@2@@Z 100146a0 f   NpArticulationJoint.obj
 0001:00013860       ?getTargetVelocity@NpArticulationJoint@physx@@UBE?AVPxVec3@2@XZ 10014860 f   NpArticulationJoint.obj
 0001:000138c0       ?setDriveType@NpArticulationJoint@physx@@UAEXW4Enum@PxArticulationJointDriveType@2@@Z 100148c0 f   NpArticulationJoint.obj
 0001:00013990       ?getDriveType@NpArticulationJoint@physx@@UBE?AW4Enum@PxArticulationJointDriveType@2@XZ 10014990 f   NpArticulationJoint.obj
 0001:000139f0       ?setStiffness@NpArticulationJoint@physx@@UAEXM@Z 100149f0 f   NpArticulationJoint.obj
 0001:00013b50       ?getStiffness@NpArticulationJoint@physx@@UBEMXZ 10014b50 f   NpArticulationJoint.obj
 0001:00013bb0       ?setDamping@NpArticulationJoint@physx@@UAEXM@Z 10014bb0 f   NpArticulationJoint.obj
 0001:00013d10       ?getDamping@NpArticulationJoint@physx@@UBEMXZ 10014d10 f   NpArticulationJoint.obj
 0001:00013d70       ?setInternalCompliance@NpArticulationJoint@physx@@UAEXM@Z 10014d70 f   NpArticulationJoint.obj
 0001:00013ed0       ?getInternalCompliance@NpArticulationJoint@physx@@UBEMXZ 10014ed0 f   NpArticulationJoint.obj
 0001:00013f30       ?setExternalCompliance@NpArticulationJoint@physx@@UAEXM@Z 10014f30 f   NpArticulationJoint.obj
 0001:00014090       ?getExternalCompliance@NpArticulationJoint@physx@@UBEMXZ 10015090 f   NpArticulationJoint.obj
 0001:000140f0       ?setSwingLimit@NpArticulationJoint@physx@@UAEXMM@Z 100150f0 f   NpArticulationJoint.obj
 0001:000142f0       ?getSwingLimit@NpArticulationJoint@physx@@UBEXAAM0@Z 100152f0 f   NpArticulationJoint.obj
 0001:00014360       ?setTangentialStiffness@NpArticulationJoint@physx@@UAEXM@Z 10015360 f   NpArticulationJoint.obj
 0001:000144c0       ?getTangentialStiffness@NpArticulationJoint@physx@@UBEMXZ 100154c0 f   NpArticulationJoint.obj
 0001:00014520       ?setTangentialDamping@NpArticulationJoint@physx@@UAEXM@Z 10015520 f   NpArticulationJoint.obj
 0001:00014680       ?getTangentialDamping@NpArticulationJoint@physx@@UBEMXZ 10015680 f   NpArticulationJoint.obj
 0001:000146e0       ?setSwingLimitEnabled@NpArticulationJoint@physx@@UAEX_N@Z 100156e0 f   NpArticulationJoint.obj
 0001:000147b0       ?getSwingLimitEnabled@NpArticulationJoint@physx@@UBE_NXZ 100157b0 f   NpArticulationJoint.obj
 0001:00014810       ?setSwingLimitContactDistance@NpArticulationJoint@physx@@UAEXM@Z 10015810 f   NpArticulationJoint.obj
 0001:00014970       ?getSwingLimitContactDistance@NpArticulationJoint@physx@@UBEMXZ 10015970 f   NpArticulationJoint.obj
 0001:000149d0       ?setTwistLimit@NpArticulationJoint@physx@@UAEXMM@Z 100159d0 f   NpArticulationJoint.obj
 0001:00014bd0       ?getTwistLimit@NpArticulationJoint@physx@@UBEXAAM0@Z 10015bd0 f   NpArticulationJoint.obj
 0001:00014c40       ?setTwistLimitEnabled@NpArticulationJoint@physx@@UAEX_N@Z 10015c40 f   NpArticulationJoint.obj
 0001:00014d10       ?getTwistLimitEnabled@NpArticulationJoint@physx@@UBE_NXZ 10015d10 f   NpArticulationJoint.obj
 0001:00014d70       ?setTwistLimitContactDistance@NpArticulationJoint@physx@@UAEXM@Z 10015d70 f   NpArticulationJoint.obj
 0001:00014ed0       ?getTwistLimitContactDistance@NpArticulationJoint@physx@@UBEMXZ 10015ed0 f   NpArticulationJoint.obj
 0001:00014f30       ?setJointType@NpArticulationJoint@physx@@UAEXW4Enum@PxArticulationJointType@2@@Z 10015f30 f   NpArticulationJoint.obj
 0001:00015000       ?getJointType@NpArticulationJoint@physx@@UBE?AW4Enum@PxArticulationJointType@2@XZ 10016000 f   NpArticulationJoint.obj
 0001:00015070       ?setMotion@NpArticulationJoint@physx@@UAEXW4Enum@PxArticulationAxis@2@W43PxArticulationMotion@2@@Z 10016070 f   NpArticulationJoint.obj
 0001:00015180       ?getMotion@NpArticulationJoint@physx@@UBE?AW4Enum@PxArticulationMotion@2@W43PxArticulationAxis@2@@Z 10016180 f   NpArticulationJoint.obj
 0001:000151f0       ?setFrictionCoefficient@NpArticulationJoint@physx@@UAEXM@Z 100161f0 f   NpArticulationJoint.obj
 0001:000152c0       ?getFrictionCoefficient@NpArticulationJoint@physx@@UBEMXZ 100162c0 f   NpArticulationJoint.obj
 0001:00015340       ??0?$NpArticulationJointTemplate@VPxArticulationJoint@physx@@@physx@@QAE@AAVNpArticulationLink@1@ABVPxTransform@1@01W4Enum@PxArticulationBase@1@@Z 10016340 f i NpArticulationJoint.obj
 0001:000153d0       ??0?$PxFlags@W4Enum@PxArticulationMotion@physx@@E@physx@@QAE@XZ 100163d0 f i NpArticulationJoint.obj
 0001:000153e0       ??1?$NpArticulationJointTemplate@VPxArticulationJoint@physx@@@physx@@UAE@XZ 100163e0 f i NpArticulationJoint.obj
 0001:00015400       ??1PxArticulationJoint@physx@@MAE@XZ 10016400 f i NpArticulationJoint.obj
 0001:00015410       ??1PxArticulationJointBase@physx@@UAE@XZ 10016410 f i NpArticulationJoint.obj
 0001:00015420       ??_E?$NpArticulationJointTemplate@VPxArticulationJoint@physx@@@physx@@UAEPAXI@Z 10016420 f i NpArticulationJoint.obj
 0001:00015420       ??_G?$NpArticulationJointTemplate@VPxArticulationJoint@physx@@@physx@@UAEPAXI@Z 10016420 f i NpArticulationJoint.obj
 0001:00015470       ??_ENpArticulationJoint@physx@@UAEPAXI@Z 10016470 f i NpArticulationJoint.obj
 0001:00015470       ??_GNpArticulationJoint@physx@@UAEPAXI@Z 10016470 f i NpArticulationJoint.obj
 0001:000154c0       ??_EPxArticulationJoint@physx@@MAEPAXI@Z 100164c0 f i NpArticulationJoint.obj
 0001:000154c0       ??_GPxArticulationJoint@physx@@MAEPAXI@Z 100164c0 f i NpArticulationJoint.obj
 0001:000154f0       ??_GPxArticulationJointBase@physx@@UAEPAXI@Z 100164f0 f i NpArticulationJoint.obj
 0001:000154f0       ??_EPxArticulationJointBase@physx@@UAEPAXI@Z 100164f0 f i NpArticulationJoint.obj
 0001:00015520       ?getChildArticulationLink@?$NpArticulationJointTemplate@VPxArticulationJoint@physx@@@physx@@UBEAAVPxArticulationLink@2@XZ 10016520 f i NpArticulationJoint.obj
 0001:00015530       ?getChildPose@?$NpArticulationJointTemplate@VPxArticulationJoint@physx@@@physx@@UBE?AVPxTransform@2@XZ 10016530 f i NpArticulationJoint.obj
 0001:00015550       ?getChildPose@PxArticulationJointImpl@physx@@QBE?AVPxTransform@2@XZ 10016550 f i NpArticulationJoint.obj
 0001:00015860       ?getConcreteTypeName@PxArticulationJoint@physx@@UBEPBDXZ 10016860 f i NpArticulationJoint.obj
 0001:00015870       ?getImpl@?$NpArticulationJointTemplate@VPxArticulationJoint@physx@@@physx@@UAEPAVPxArticulationJointImpl@2@XZ 10016870 f i NpArticulationJoint.obj
 0001:00015880       ?getImpl@?$NpArticulationJointTemplate@VPxArticulationJoint@physx@@@physx@@UBEPBVPxArticulationJointImpl@2@XZ 10016880 f i NpArticulationJoint.obj
 0001:00015890       ?getParentArticulationLink@?$NpArticulationJointTemplate@VPxArticulationJoint@physx@@@physx@@UBEAAVPxArticulationLink@2@XZ 10016890 f i NpArticulationJoint.obj
 0001:000158a0       ?getParentPose@?$NpArticulationJointTemplate@VPxArticulationJoint@physx@@@physx@@UBE?AVPxTransform@2@XZ 100168a0 f i NpArticulationJoint.obj
 0001:000158c0       ?getParentPose@PxArticulationJointImpl@physx@@QBE?AVPxTransform@2@XZ 100168c0 f i NpArticulationJoint.obj
 0001:00015930       ?isKindOf@PxArticulationJoint@physx@@MBE_NPBD@Z 10016930 f i NpArticulationJoint.obj
 0001:000159e0       ?isKindOf@PxArticulationJointBase@physx@@MBE_NPBD@Z 100169e0 f i NpArticulationJoint.obj
 0001:00015a60       ?isSubordinate@NpArticulationJoint@physx@@UBE_NXZ 10016a60 f i NpArticulationJoint.obj
 0001:00015a70       ?release@?$NpArticulationJointTemplate@VPxArticulationJoint@physx@@@physx@@UAEXXZ 10016a70 f i NpArticulationJoint.obj
 0001:00015ac0       ?requiresObjects@NpArticulationJoint@physx@@UAEXAAVPxProcessPxBaseCallback@2@@Z 10016ac0 f i NpArticulationJoint.obj
 0001:00015ad0       ?setChildPose@?$NpArticulationJointTemplate@VPxArticulationJoint@physx@@@physx@@UAEXABVPxTransform@2@@Z 10016ad0 f i NpArticulationJoint.obj
 0001:00015ae0       ?setChildPose@PxArticulationJointImpl@physx@@QAEXABVPxTransform@2@@Z 10016ae0 f i NpArticulationJoint.obj
 0001:00015f30       ?setParentPose@?$NpArticulationJointTemplate@VPxArticulationJoint@physx@@@physx@@UAEXABVPxTransform@2@@Z 10016f30 f i NpArticulationJoint.obj
 0001:00015f40       ?setParentPose@PxArticulationJointImpl@physx@@QAEXABVPxTransform@2@@Z 10016f40 f i NpArticulationJoint.obj
 0001:000163a0       ?createObject@NpArticulationJointReducedCoordinate@physx@@SAPAV12@AAPAEAAVPxDeserializationContext@2@@Z 100173a0 f   NpArticulationJointReducedCoordinate.obj
 0001:00016410       ?getBinaryMetaData@NpArticulationJointReducedCoordinate@physx@@SAXAAVPxOutputStream@2@@Z 10017410 f   NpArticulationJointReducedCoordinate.obj
 0001:00016510       ??0NpArticulationJointReducedCoordinate@physx@@QAE@AAVNpArticulationLink@1@ABVPxTransform@1@01@Z 10017510 f   NpArticulationJointReducedCoordinate.obj
 0001:000165a0       ??1NpArticulationJointReducedCoordinate@physx@@UAE@XZ 100175a0 f   NpArticulationJointReducedCoordinate.obj
 0001:000165c0       ?setJointType@NpArticulationJointReducedCoordinate@physx@@UAEXW4Enum@PxArticulationJointType@2@@Z 100175c0 f   NpArticulationJointReducedCoordinate.obj
 0001:000166c0       ?getJointType@NpArticulationJointReducedCoordinate@physx@@UBE?AW4Enum@PxArticulationJointType@2@XZ 100176c0 f   NpArticulationJointReducedCoordinate.obj
 0001:00016730       ?setMotion@NpArticulationJointReducedCoordinate@physx@@UAEXW4Enum@PxArticulationAxis@2@W43PxArticulationMotion@2@@Z 10017730 f   NpArticulationJointReducedCoordinate.obj
 0001:000168e0       ?getMotion@NpArticulationJointReducedCoordinate@physx@@UBE?AW4Enum@PxArticulationMotion@2@W43PxArticulationAxis@2@@Z 100178e0 f   NpArticulationJointReducedCoordinate.obj
 0001:00016950       ?setFrictionCoefficient@NpArticulationJointReducedCoordinate@physx@@UAEXM@Z 10017950 f   NpArticulationJointReducedCoordinate.obj
 0001:00016a20       ?getFrictionCoefficient@NpArticulationJointReducedCoordinate@physx@@UBEMXZ 10017a20 f   NpArticulationJointReducedCoordinate.obj
 0001:00016aa0       ?setMaxJointVelocity@NpArticulationJointReducedCoordinate@physx@@UAEXM@Z 10017aa0 f   NpArticulationJointReducedCoordinate.obj
 0001:00016b70       ?getMaxJointVelocity@NpArticulationJointReducedCoordinate@physx@@UBEMXZ 10017b70 f   NpArticulationJointReducedCoordinate.obj
 0001:00016bf0       ?setLimit@NpArticulationJointReducedCoordinate@physx@@UAEXW4Enum@PxArticulationAxis@2@MM@Z 10017bf0 f   NpArticulationJointReducedCoordinate.obj
 0001:00016d40       ?getLimit@NpArticulationJointReducedCoordinate@physx@@UAEXW4Enum@PxArticulationAxis@2@AAM1@Z 10017d40 f   NpArticulationJointReducedCoordinate.obj
 0001:00016da0       ?setDrive@NpArticulationJointReducedCoordinate@physx@@UAEXW4Enum@PxArticulationAxis@2@MMM_N@Z 10017da0 f   NpArticulationJointReducedCoordinate.obj
 0001:00016de0       ?getDrive@NpArticulationJointReducedCoordinate@physx@@UAEXW4Enum@PxArticulationAxis@2@AAM11AA_N@Z 10017de0 f   NpArticulationJointReducedCoordinate.obj
 0001:00016e80       ?setDriveTarget@NpArticulationJointReducedCoordinate@physx@@UAEXW4Enum@PxArticulationAxis@2@M@Z 10017e80 f   NpArticulationJointReducedCoordinate.obj
 0001:00016fd0       ?setDriveVelocity@NpArticulationJointReducedCoordinate@physx@@UAEXW4Enum@PxArticulationAxis@2@M@Z 10017fd0 f   NpArticulationJointReducedCoordinate.obj
 0001:00017120       ?getDriveTarget@NpArticulationJointReducedCoordinate@physx@@UAEMW4Enum@PxArticulationAxis@2@@Z 10018120 f   NpArticulationJointReducedCoordinate.obj
 0001:00017160       ?getDriveVelocity@NpArticulationJointReducedCoordinate@physx@@UAEMW4Enum@PxArticulationAxis@2@@Z 10018160 f   NpArticulationJointReducedCoordinate.obj
 0001:000171a0       ?isValidMotion@NpArticulationJointReducedCoordinate@physx@@AAE_NW4Enum@PxArticulationAxis@2@W43PxArticulationMotion@2@@Z 100181a0 f   NpArticulationJointReducedCoordinate.obj
 0001:000172b0       ??0?$NpArticulationJointTemplate@VPxArticulationJointReducedCoordinate@physx@@@physx@@QAE@AAVNpArticulationLink@1@ABVPxTransform@1@01W4Enum@PxArticulationBase@1@@Z 100182b0 f i NpArticulationJointReducedCoordinate.obj
 0001:00017340       ??1?$NpArticulationJointTemplate@VPxArticulationJointReducedCoordinate@physx@@@physx@@UAE@XZ 10018340 f i NpArticulationJointReducedCoordinate.obj
 0001:00017360       ??1PxArticulationJointReducedCoordinate@physx@@MAE@XZ 10018360 f i NpArticulationJointReducedCoordinate.obj
 0001:00017370       ??_E?$NpArticulationJointTemplate@VPxArticulationJointReducedCoordinate@physx@@@physx@@UAEPAXI@Z 10018370 f i NpArticulationJointReducedCoordinate.obj
 0001:00017370       ??_G?$NpArticulationJointTemplate@VPxArticulationJointReducedCoordinate@physx@@@physx@@UAEPAXI@Z 10018370 f i NpArticulationJointReducedCoordinate.obj
 0001:000173c0       ??_ENpArticulationJointReducedCoordinate@physx@@UAEPAXI@Z 100183c0 f i NpArticulationJointReducedCoordinate.obj
 0001:000173c0       ??_GNpArticulationJointReducedCoordinate@physx@@UAEPAXI@Z 100183c0 f i NpArticulationJointReducedCoordinate.obj
 0001:00017410       ??_GPxArticulationJointReducedCoordinate@physx@@MAEPAXI@Z 10018410 f i NpArticulationJointReducedCoordinate.obj
 0001:00017410       ??_EPxArticulationJointReducedCoordinate@physx@@MAEPAXI@Z 10018410 f i NpArticulationJointReducedCoordinate.obj
 0001:00017440       ?getChildArticulationLink@?$NpArticulationJointTemplate@VPxArticulationJointReducedCoordinate@physx@@@physx@@UBEAAVPxArticulationLink@2@XZ 10018440 f i NpArticulationJointReducedCoordinate.obj
 0001:00017450       ?getChildPose@?$NpArticulationJointTemplate@VPxArticulationJointReducedCoordinate@physx@@@physx@@UBE?AVPxTransform@2@XZ 10018450 f i NpArticulationJointReducedCoordinate.obj
 0001:00017470       ?getConcreteTypeName@PxArticulationJointReducedCoordinate@physx@@UBEPBDXZ 10018470 f i NpArticulationJointReducedCoordinate.obj
 0001:00017480       ?getImpl@?$NpArticulationJointTemplate@VPxArticulationJointReducedCoordinate@physx@@@physx@@UAEPAVPxArticulationJointImpl@2@XZ 10018480 f i NpArticulationJointReducedCoordinate.obj
 0001:00017490       ?getImpl@?$NpArticulationJointTemplate@VPxArticulationJointReducedCoordinate@physx@@@physx@@UBEPBVPxArticulationJointImpl@2@XZ 10018490 f i NpArticulationJointReducedCoordinate.obj
 0001:000174a0       ?getParentArticulationLink@?$NpArticulationJointTemplate@VPxArticulationJointReducedCoordinate@physx@@@physx@@UBEAAVPxArticulationLink@2@XZ 100184a0 f i NpArticulationJointReducedCoordinate.obj
 0001:000174b0       ?getParentPose@?$NpArticulationJointTemplate@VPxArticulationJointReducedCoordinate@physx@@@physx@@UBE?AVPxTransform@2@XZ 100184b0 f i NpArticulationJointReducedCoordinate.obj
 0001:000174d0       ?isKindOf@PxArticulationJointReducedCoordinate@physx@@MBE_NPBD@Z 100184d0 f i NpArticulationJointReducedCoordinate.obj
 0001:00017550       ?isSubordinate@NpArticulationJointReducedCoordinate@physx@@UBE_NXZ 10018550 f i NpArticulationJointReducedCoordinate.obj
 0001:00017560       ?release@?$NpArticulationJointTemplate@VPxArticulationJointReducedCoordinate@physx@@@physx@@UAEXXZ 10018560 f i NpArticulationJointReducedCoordinate.obj
 0001:000175b0       ?requiresObjects@NpArticulationJointReducedCoordinate@physx@@UAEXAAVPxProcessPxBaseCallback@2@@Z 100185b0 f i NpArticulationJointReducedCoordinate.obj
 0001:000175c0       ?resolveReferences@NpArticulationJointReducedCoordinate@physx@@UAEXAAVPxDeserializationContext@2@@Z 100185c0 f i NpArticulationJointReducedCoordinate.obj
 0001:00017610       ?setChildPose@?$NpArticulationJointTemplate@VPxArticulationJointReducedCoordinate@physx@@@physx@@UAEXABVPxTransform@2@@Z 10018610 f i NpArticulationJointReducedCoordinate.obj
 0001:00017620       ?setDrive@ArticulationJoint@Scb@physx@@QAEXW4Enum@PxArticulationAxis@3@MMM_N@Z 10018620 f i NpArticulationJointReducedCoordinate.obj
 0001:00017890       ?setParentPose@?$NpArticulationJointTemplate@VPxArticulationJointReducedCoordinate@physx@@@physx@@UAEXABVPxTransform@2@@Z 10018890 f i NpArticulationJointReducedCoordinate.obj
 0001:000178a0       ?exportData@NpArticulationLink@physx@@UBEXAAVPxSerializationContext@2@@Z 100188a0 f   NpArticulationLink.obj
 0001:00017900       ?exportExtraData@NpArticulationLink@physx@@UAEXAAVPxSerializationContext@2@@Z 10018900 f   NpArticulationLink.obj
 0001:00017960       ?importExtraData@NpArticulationLink@physx@@UAEXAAVPxDeserializationContext@2@@Z 10018960 f   NpArticulationLink.obj
 0001:000179c0       ?resolveReferences@NpArticulationLink@physx@@UAEXAAVPxDeserializationContext@2@@Z 100189c0 f   NpArticulationLink.obj
 0001:00017ab0       ?requiresObjects@NpArticulationLink@physx@@UAEXAAVPxProcessPxBaseCallback@2@@Z 10018ab0 f   NpArticulationLink.obj
 0001:00017b10       ?createObject@NpArticulationLink@physx@@SAPAV12@AAPAEAAVPxDeserializationContext@2@@Z 10018b10 f   NpArticulationLink.obj
 0001:00017be0       ??1NpArticulationLink@physx@@UAE@XZ 10018be0 f   NpArticulationLink.obj
 0001:00017c60       ?release@NpArticulationLink@physx@@UAEXXZ 10018c60 f   NpArticulationLink.obj
 0001:00017d10       ?setGlobalPose@NpArticulationLink@physx@@UAEXABVPxTransform@2@@Z 10018d10 f   NpArticulationLink.obj
 0001:00017d20       ?setGlobalPose@NpArticulationLink@physx@@UAEXABVPxTransform@2@_N@Z 10018d20 f   NpArticulationLink.obj
 0001:00017d80       ?getGlobalPose@NpArticulationLink@physx@@UBE?AVPxTransform@2@XZ 10018d80 f   NpArticulationLink.obj
 0001:00018170       ?setLinearDamping@NpArticulationLink@physx@@UAEXM@Z 10019170 f   NpArticulationLink.obj
 0001:000182c0       ?getLinearDamping@NpArticulationLink@physx@@UBEMXZ 100192c0 f   NpArticulationLink.obj
 0001:00018330       ?setAngularDamping@NpArticulationLink@physx@@UAEXM@Z 10019330 f   NpArticulationLink.obj
 0001:00018480       ?getAngularDamping@NpArticulationLink@physx@@UBEMXZ 10019480 f   NpArticulationLink.obj
 0001:000184f0       ?setLinearVelocity@NpArticulationLink@physx@@UAEXABVPxVec3@2@_N@Z 100194f0 f   NpArticulationLink.obj
 0001:00018670       ?setAngularVelocity@NpArticulationLink@physx@@UAEXABVPxVec3@2@_N@Z 10019670 f   NpArticulationLink.obj
 0001:000187f0       ?setMaxAngularVelocity@NpArticulationLink@physx@@UAEXM@Z 100197f0 f   NpArticulationLink.obj
 0001:00018940       ?getMaxAngularVelocity@NpArticulationLink@physx@@UBEMXZ 10019940 f   NpArticulationLink.obj
 0001:000189b0       ?setMaxLinearVelocity@NpArticulationLink@physx@@UAEXM@Z 100199b0 f   NpArticulationLink.obj
 0001:00018b00       ?getMaxLinearVelocity@NpArticulationLink@physx@@UBEMXZ 10019b00 f   NpArticulationLink.obj
 0001:00018b70       ?getArticulation@NpArticulationLink@physx@@UBEAAVPxArticulationBase@2@XZ 10019b70 f   NpArticulationLink.obj
 0001:00018bb0       ?getArticulationReducedCoordinate@NpArticulationLink@physx@@UBEAAVPxArticulationReducedCoordinate@2@XZ 10019bb0 f   NpArticulationLink.obj
 0001:00018be0       ?getInboundJoint@NpArticulationLink@physx@@UBEPAVPxArticulationJointBase@2@XZ 10019be0 f   NpArticulationLink.obj
 0001:00018c20       ?getInboundJointDof@NpArticulationLink@physx@@UBEIXZ 10019c20 f   NpArticulationLink.obj
 0001:00018c60       ?getNbChildren@NpArticulationLink@physx@@UBEIXZ 10019c60 f   NpArticulationLink.obj
 0001:00018ca0       ?getChildren@NpArticulationLink@physx@@UBEIPAPAVPxArticulationLink@2@II@Z 10019ca0 f   NpArticulationLink.obj
 0001:00018d20       ?getLinkIndex@NpArticulationLink@physx@@UBEIXZ 10019d20 f   NpArticulationLink.obj
 0001:00018d60       ?setCMassLocalPose@NpArticulationLink@physx@@UAEXABVPxTransform@2@@Z 10019d60 f   NpArticulationLink.obj
 0001:000196b0       ?addForce@NpArticulationLink@physx@@UAEXABVPxVec3@2@W4Enum@PxForceMode@2@_N@Z 1001a6b0 f   NpArticulationLink.obj
 0001:00019870       ?addTorque@NpArticulationLink@physx@@UAEXABVPxVec3@2@W4Enum@PxForceMode@2@_N@Z 1001a870 f   NpArticulationLink.obj
 0001:00019a30       ?setForceAndTorque@NpArticulationLink@physx@@UAEXABVPxVec3@2@0W4Enum@PxForceMode@2@@Z 1001aa30 f   NpArticulationLink.obj
 0001:00019c80       ?clearForce@NpArticulationLink@physx@@UAEXW4Enum@PxForceMode@2@@Z 1001ac80 f   NpArticulationLink.obj
 0001:00019d00       ?clearTorque@NpArticulationLink@physx@@UAEXW4Enum@PxForceMode@2@@Z 1001ad00 f   NpArticulationLink.obj
 0001:00019d80       ??0NpArticulationLink@physx@@QAE@ABVPxTransform@1@AAVPxArticulationBase@1@PAV01@@Z 1001ad80 f   NpArticulationLink.obj
 0001:00019fe0       ?releaseInternal@NpArticulationLink@physx@@QAEXXZ 1001afe0 f   NpArticulationLink.obj
 0001:0001a100       ?setGlobalPoseInternal@NpArticulationLink@physx@@QAEXABVPxTransform@2@_N@Z 1001b100 f   NpArticulationLink.obj
 0001:0001a3f0       ?visualize@NpArticulationLink@physx@@QAEXAAVRenderOutput@Cm@2@PAVNpScene@2@@Z 1001b3f0 f   NpArticulationLink.obj
 0001:0001a6c0       ?visualizeJoint@NpArticulationLink@physx@@QAEXAAVPxConstraintVisualizer@2@@Z 1001b6c0 f   NpArticulationLink.obj
 0001:0001c000       ??0?$NpActorTemplate@VPxArticulationLink@physx@@@physx@@QAE@GV?$PxFlags@W4Enum@PxBaseFlag@physx@@G@1@PBDPAX@Z 1001d000 f i NpArticulationLink.obj
 0001:0001c050       ??0?$NpRigidActorTemplate@VPxArticulationLink@physx@@@physx@@QAE@GV?$PxFlags@W4Enum@PxBaseFlag@physx@@G@1@@Z 1001d050 f i NpArticulationLink.obj
 0001:0001c0a0       ??0?$NpRigidBodyTemplate@VPxArticulationLink@physx@@@physx@@QAE@GV?$PxFlags@W4Enum@PxBaseFlag@physx@@G@1@W4Enum@PxActorType@1@ABVPxTransform@1@@Z 1001d0a0 f i NpArticulationLink.obj
 0001:0001c1d0       ??0PxMat44@physx@@QAE@W4PxIDENTITY@1@@Z 1001d1d0 f i NpArticulationLink.obj
 0001:0001c250       ??1?$NpActorTemplate@VPxArticulationLink@physx@@@physx@@UAE@XZ 1001d250 f i NpArticulationLink.obj
 0001:0001c280       ??1?$NpRigidActorTemplate@VPxArticulationLink@physx@@@physx@@UAE@XZ 1001d280 f i NpArticulationLink.obj
 0001:0001c2b0       ??1?$NpRigidBodyTemplate@VPxArticulationLink@physx@@@physx@@UAE@XZ 1001d2b0 f i NpArticulationLink.obj
 0001:0001c2f0       ??1PxActor@physx@@MAE@XZ   1001d2f0 f i NpArticulationLink.obj
 0001:0001c300       ??1PxArticulationLink@physx@@MAE@XZ 1001d300 f i NpArticulationLink.obj
 0001:0001c310       ??1PxConstraintVisualizer@physx@@MAE@XZ 1001d310 f i NpArticulationLink.obj
 0001:0001c320       ??1PxRigidActor@physx@@MAE@XZ 1001d320 f i NpArticulationLink.obj
 0001:0001c330       ??1PxRigidBody@physx@@MAE@XZ 1001d330 f i NpArticulationLink.obj
 0001:0001c340       ??_G?$NpActorTemplate@VPxArticulationLink@physx@@@physx@@UAEPAXI@Z 1001d340 f i NpArticulationLink.obj
 0001:0001c340       ??_E?$NpActorTemplate@VPxArticulationLink@physx@@@physx@@UAEPAXI@Z 1001d340 f i NpArticulationLink.obj
 0001:0001c390       ??_G?$NpRigidActorTemplate@VPxArticulationLink@physx@@@physx@@UAEPAXI@Z 1001d390 f i NpArticulationLink.obj
 0001:0001c390       ??_E?$NpRigidActorTemplate@VPxArticulationLink@physx@@@physx@@UAEPAXI@Z 1001d390 f i NpArticulationLink.obj
 0001:0001c3f0       ??_G?$NpRigidBodyTemplate@VPxArticulationLink@physx@@@physx@@UAEPAXI@Z 1001d3f0 f i NpArticulationLink.obj
 0001:0001c3f0       ??_E?$NpRigidBodyTemplate@VPxArticulationLink@physx@@@physx@@UAEPAXI@Z 1001d3f0 f i NpArticulationLink.obj
 0001:0001c460       ??_GConstraintImmediateVisualizer@Cm@physx@@UAEPAXI@Z 1001d460 f i NpArticulationLink.obj
 0001:0001c460       ??_EConstraintImmediateVisualizer@Cm@physx@@UAEPAXI@Z 1001d460 f i NpArticulationLink.obj
 0001:0001c490       ??_GNpArticulationLink@physx@@UAEPAXI@Z 1001d490 f i NpArticulationLink.obj
 0001:0001c490       ??_ENpArticulationLink@physx@@UAEPAXI@Z 1001d490 f i NpArticulationLink.obj
 0001:0001c540       ??_EPxActor@physx@@MAEPAXI@Z 1001d540 f i NpArticulationLink.obj
 0001:0001c540       ??_GPxActor@physx@@MAEPAXI@Z 1001d540 f i NpArticulationLink.obj
 0001:0001c570       ??_EPxArticulationLink@physx@@MAEPAXI@Z 1001d570 f i NpArticulationLink.obj
 0001:0001c570       ??_GPxArticulationLink@physx@@MAEPAXI@Z 1001d570 f i NpArticulationLink.obj
 0001:0001c5a0       ??_EPxConstraintVisualizer@physx@@MAEPAXI@Z 1001d5a0 f i NpArticulationLink.obj
 0001:0001c5a0       ??_GPxConstraintVisualizer@physx@@MAEPAXI@Z 1001d5a0 f i NpArticulationLink.obj
 0001:0001c5d0       ??_GPxRigidActor@physx@@MAEPAXI@Z 1001d5d0 f i NpArticulationLink.obj
 0001:0001c5d0       ??_EPxRigidActor@physx@@MAEPAXI@Z 1001d5d0 f i NpArticulationLink.obj
 0001:0001c600       ??_GPxRigidBody@physx@@MAEPAXI@Z 1001d600 f i NpArticulationLink.obj
 0001:0001c600       ??_EPxRigidBody@physx@@MAEPAXI@Z 1001d600 f i NpArticulationLink.obj
 0001:0001c630       ?addSpatialAcceleration@Body@Scb@physx@@QAEXPBVPxVec3@3@0@Z 1001d630 f i NpArticulationLink.obj
 0001:0001c740       ?addSpatialForce@?$NpRigidBodyTemplate@VPxArticulationLink@physx@@@physx@@IAEXPBVPxVec3@2@0W4Enum@PxForceMode@2@@Z 1001d740 f i NpArticulationLink.obj
 0001:0001c9d0       ?addSpatialVelocity@Body@Scb@physx@@QAEXPBVPxVec3@3@0@Z 1001d9d0 f i NpArticulationLink.obj
 0001:0001cb10       ?attachShape@?$NpRigidActorTemplate@VPxArticulationLink@physx@@@physx@@UAE_NAAVPxShape@2@@Z 1001db10 f i NpArticulationLink.obj
 0001:0001cc10       ?attachShape@?$NpRigidBodyTemplate@VPxArticulationLink@physx@@@physx@@UAE_NAAVPxShape@2@@Z 1001dc10 f i NpArticulationLink.obj
 0001:0001ce80       ?clearSpatialForce@?$NpRigidBodyTemplate@VPxArticulationLink@physx@@@physx@@IAEXW4Enum@PxForceMode@2@_N1@Z 1001de80 f i NpArticulationLink.obj
 0001:0001d060       ?copy@?$Array@UPxDebugLine@physx@@VNamedAllocator@shdfnd@2@@shdfnd@physx@@KAXPAUPxDebugLine@3@0PBU43@@Z 1001e060 f i NpArticulationLink.obj
 0001:0001d0d0       ?detachShape@?$NpRigidActorTemplate@VPxArticulationLink@physx@@@physx@@UAEXAAVPxShape@2@_N@Z 1001e0d0 f i NpArticulationLink.obj
 0001:0001d170       ?exportExtraData@?$NpActorTemplate@VPxArticulationLink@physx@@@physx@@UAEXAAVPxSerializationContext@2@@Z 1001e170 f i NpArticulationLink.obj
 0001:0001d180       ?exportExtraData@?$NpRigidActorTemplate@VPxArticulationLink@physx@@@physx@@UAEXAAVPxSerializationContext@2@@Z 1001e180 f i NpArticulationLink.obj
 0001:0001d1a0       ?getActorFlags@?$NpActorTemplate@VPxArticulationLink@physx@@@physx@@UBE?AV?$PxFlags@W4Enum@PxActorFlag@physx@@E@2@XZ 1001e1a0 f i NpArticulationLink.obj
 0001:0001d210       ?getAggregate@?$NpActorTemplate@VPxArticulationLink@physx@@@physx@@UBEPAVPxAggregate@2@XZ 1001e210 f i NpArticulationLink.obj
 0001:0001d220       ?getAngularVelocity@?$NpRigidBodyTemplate@VPxArticulationLink@physx@@@physx@@UBE?AVPxVec3@2@XZ 1001e220 f i NpArticulationLink.obj
 0001:0001d270       ?getCMassLocalPose@?$NpRigidBodyTemplate@VPxArticulationLink@physx@@@physx@@UBE?AVPxTransform@2@XZ 1001e270 f i NpArticulationLink.obj
 0001:0001d2f0       ?getConcreteTypeName@PxArticulationLink@physx@@UBEPBDXZ 1001e2f0 f i NpArticulationLink.obj
 0001:0001d300       ?getConstraints@?$NpRigidActorTemplate@VPxArticulationLink@physx@@@physx@@UBEIPAPAVPxConstraint@2@II@Z 1001e300 f i NpArticulationLink.obj
 0001:0001d380       ?getDominanceGroup@?$NpActorTemplate@VPxArticulationLink@physx@@@physx@@UBEEXZ 1001e380 f i NpArticulationLink.obj
 0001:0001d3f0       ?getGlobalInertiaTensorInverse@Body@Scb@physx@@QBE?AVPxMat33@3@XZ 1001e3f0 f i NpArticulationLink.obj
 0001:0001d650       ?getInternalIslandNodeIndex@?$NpRigidBodyTemplate@VPxArticulationLink@physx@@@physx@@UBEIXZ 1001e650 f i NpArticulationLink.obj
 0001:0001d690       ?getInvMass@?$NpRigidBodyTemplate@VPxArticulationLink@physx@@@physx@@UBEMXZ 1001e690 f i NpArticulationLink.obj
 0001:0001d700       ?getLinearVelocity@?$NpRigidBodyTemplate@VPxArticulationLink@physx@@@physx@@UBE?AVPxVec3@2@XZ 1001e700 f i NpArticulationLink.obj
 0001:0001d750       ?getMass@?$NpRigidBodyTemplate@VPxArticulationLink@physx@@@physx@@UBEMXZ 1001e750 f i NpArticulationLink.obj
 0001:0001d7e0       ?getMassSpaceInertiaTensor@?$NpRigidBodyTemplate@VPxArticulationLink@physx@@@physx@@UBE?AVPxVec3@2@XZ 1001e7e0 f i NpArticulationLink.obj
 0001:0001d890       ?getMassSpaceInvInertiaTensor@?$NpRigidBodyTemplate@VPxArticulationLink@physx@@@physx@@UBE?AVPxVec3@2@XZ 1001e890 f i NpArticulationLink.obj
 0001:0001d8f0       ?getMaxContactImpulse@?$NpRigidBodyTemplate@VPxArticulationLink@physx@@@physx@@UBEMXZ 1001e8f0 f i NpArticulationLink.obj
 0001:0001d950       ?getMaxDepenetrationVelocity@?$NpRigidBodyTemplate@VPxArticulationLink@physx@@@physx@@UBEMXZ 1001e950 f i NpArticulationLink.obj
 0001:0001d9c0       ?getMinCCDAdvanceCoefficient@?$NpRigidBodyTemplate@VPxArticulationLink@physx@@@physx@@UBEMXZ 1001e9c0 f i NpArticulationLink.obj
 0001:0001da20       ?getName@?$NpActorTemplate@VPxArticulationLink@physx@@@physx@@UBEPBDXZ 1001ea20 f i NpArticulationLink.obj
 0001:0001da60       ?getNbConstraints@?$NpRigidActorTemplate@VPxArticulationLink@physx@@@physx@@UBEIXZ 1001ea60 f i NpArticulationLink.obj
 0001:0001daa0       ?getNbShapes@?$NpRigidActorTemplate@VPxArticulationLink@physx@@@physx@@UBEIXZ 1001eaa0 f i NpArticulationLink.obj
 0001:0001dae0       ?getOwnerClient@?$NpActorTemplate@VPxArticulationLink@physx@@@physx@@UBEEXZ 1001eae0 f i NpArticulationLink.obj
 0001:0001db10       ?getRigidBodyFlags@?$NpRigidBodyTemplate@VPxArticulationLink@physx@@@physx@@UBE?AV?$PxFlags@W4Enum@PxRigidBodyFlag@physx@@E@2@XZ 1001eb10 f i NpArticulationLink.obj
 0001:0001db60       ?getScene@?$NpActorTemplate@VPxArticulationLink@physx@@@physx@@UBEPAVPxScene@2@XZ 1001eb60 f i NpArticulationLink.obj
 0001:0001db70       ?getShapes@?$NpRigidActorTemplate@VPxArticulationLink@physx@@@physx@@UBEIPAPAVPxShape@2@II@Z 1001eb70 f i NpArticulationLink.obj
 0001:0001dbc0       ?getType@NpArticulationLink@physx@@UBE?AW4Enum@PxActorType@2@XZ 1001ebc0 f i NpArticulationLink.obj
 0001:0001dbd0       ?getWorldBounds@?$NpRigidActorTemplate@VPxArticulationLink@physx@@@physx@@UBE?AVPxBounds3@2@M@Z 1001ebd0 f i NpArticulationLink.obj
 0001:0001dd20       ?importExtraData@?$NpActorTemplate@VPxArticulationLink@physx@@@physx@@UAEXAAVPxDeserializationContext@2@@Z 1001ed20 f i NpArticulationLink.obj
 0001:0001dd30       ?importExtraData@?$NpRigidActorTemplate@VPxArticulationLink@physx@@@physx@@UAEXAAVPxDeserializationContext@2@@Z 1001ed30 f i NpArticulationLink.obj
 0001:0001dd50       ?invertDiagInertia@physx@@YA?AVPxVec3@1@ABV21@@Z 1001ed50 f i NpArticulationLink.obj
 0001:0001ddc0       ?isKindOf@PxActor@physx@@MBE_NPBD@Z 1001edc0 f i NpArticulationLink.obj
 0001:0001de40       ?isKindOf@PxArticulationLink@physx@@MBE_NPBD@Z 1001ee40 f i NpArticulationLink.obj
 0001:0001dea0       ?isKindOf@PxRigidActor@physx@@MBE_NPBD@Z 1001eea0 f i NpArticulationLink.obj
 0001:0001df50       ?isKindOf@PxRigidBody@physx@@MBE_NPBD@Z 1001ef50 f i NpArticulationLink.obj
 0001:0001e030       ?isSubordinate@NpArticulationLink@physx@@UBE_NXZ 1001f030 f i NpArticulationLink.obj
 0001:0001e040       ?recreate@?$Array@UPxDebugLine@physx@@VNamedAllocator@shdfnd@2@@shdfnd@physx@@IAEXI@Z 1001f040 f i NpArticulationLink.obj
 0001:0001e0c0       ?release@?$NpActorTemplate@VPxArticulationLink@physx@@@physx@@UAEXXZ 1001f0c0 f i NpArticulationLink.obj
 0001:0001e0d0       ?release@?$NpRigidActorTemplate@VPxArticulationLink@physx@@@physx@@UAEXXZ 1001f0d0 f i NpArticulationLink.obj
 0001:0001e130       ?requiresObjects@?$NpRigidActorTemplate@VPxArticulationLink@physx@@@physx@@UAEXAAVPxProcessPxBaseCallback@2@@Z 1001f130 f i NpArticulationLink.obj
 0001:0001e170       ?resolveReferences@?$NpActorTemplate@VPxArticulationLink@physx@@@physx@@UAEXAAVPxDeserializationContext@2@@Z 1001f170 f i NpArticulationLink.obj
 0001:0001e180       ?resolveReferences@?$NpRigidActorTemplate@VPxArticulationLink@physx@@@physx@@UAEXAAVPxDeserializationContext@2@@Z 1001f180 f i NpArticulationLink.obj
 0001:0001e1e0       ?setActorFlag@?$NpActorTemplate@VPxArticulationLink@physx@@@physx@@UAEXW4Enum@PxActorFlag@2@_N@Z 1001f1e0 f i NpArticulationLink.obj
 0001:0001e290       ?setActorFlag@?$NpRigidActorTemplate@VPxArticulationLink@physx@@@physx@@UAEXW4Enum@PxActorFlag@2@_N@Z 1001f290 f i NpArticulationLink.obj
 0001:0001e460       ?setActorFlags@?$NpActorTemplate@VPxArticulationLink@physx@@@physx@@UAEXV?$PxFlags@W4Enum@PxActorFlag@physx@@E@2@@Z 1001f460 f i NpArticulationLink.obj
 0001:0001e4b0       ?setActorFlags@?$NpRigidActorTemplate@VPxArticulationLink@physx@@@physx@@UAEXV?$PxFlags@W4Enum@PxActorFlag@physx@@E@2@@Z 1001f4b0 f i NpArticulationLink.obj
 0001:0001e600       ?setActorFlags@Actor@Scb@physx@@QAEXV?$PxFlags@W4Enum@PxActorFlag@physx@@E@3@@Z 1001f600 f i NpArticulationLink.obj
 0001:0001e710       ?setAngularVelocity@Body@Scb@physx@@QAEXABVPxVec3@3@@Z 1001f710 f i NpArticulationLink.obj
 0001:0001e7a0       ?setBody2World@Body@Scb@physx@@QAEXABVPxTransform@3@_N@Z 1001f7a0 f i NpArticulationLink.obj
 0001:0001e870       ?setCMassLocalPoseInternal@?$NpRigidBodyTemplate@VPxArticulationLink@physx@@@physx@@IAEXABVPxTransform@2@@Z 1001f870 f i NpArticulationLink.obj
 0001:0001ec10       ?setChildPose@ArticulationJoint@Scb@physx@@QAEXABVPxTransform@3@@Z 1001fc10 f i NpArticulationLink.obj
 0001:0001ecc0       ?setDominanceGroup@?$NpActorTemplate@VPxArticulationLink@physx@@@physx@@UAEXE@Z 1001fcc0 f i NpArticulationLink.obj
 0001:0001ed90       ?setFlags@Body@Scb@physx@@QAEXV?$PxFlags@W4Enum@PxRigidBodyFlag@physx@@E@3@@Z 1001fd90 f i NpArticulationLink.obj
 0001:0001ef10       ?setGlobalPose@PxArticulationImpl@physx@@QAEXXZ 1001ff10 f i NpArticulationLink.obj
 0001:0001f190       ?setLinearVelocity@Body@Scb@physx@@QAEXABVPxVec3@3@@Z 10020190 f i NpArticulationLink.obj
 0001:0001f220       ?setMass@?$NpRigidBodyTemplate@VPxArticulationLink@physx@@@physx@@UAEXM@Z 10020220 f i NpArticulationLink.obj
 0001:0001f3f0       ?setMassSpaceInertiaTensor@?$NpRigidBodyTemplate@VPxArticulationLink@physx@@@physx@@UAEXABVPxVec3@2@@Z 100203f0 f i NpArticulationLink.obj
 0001:0001f680       ?setMaxContactImpulse@?$NpRigidBodyTemplate@VPxArticulationLink@physx@@@physx@@UAEXM@Z 10020680 f i NpArticulationLink.obj
 0001:0001f780       ?setMaxDepenetrationVelocity@?$NpRigidBodyTemplate@VPxArticulationLink@physx@@@physx@@UAEXM@Z 10020780 f i NpArticulationLink.obj
 0001:0001f880       ?setMinCCDAdvanceCoefficient@?$NpRigidBodyTemplate@VPxArticulationLink@physx@@@physx@@UAEXM@Z 10020880 f i NpArticulationLink.obj
 0001:0001f940       ?setName@?$NpActorTemplate@VPxArticulationLink@physx@@@physx@@UAEXPBD@Z 10020940 f i NpArticulationLink.obj
 0001:0001f9b0       ?setOwnerClient@?$NpActorTemplate@VPxArticulationLink@physx@@@physx@@UAEXE@Z 100209b0 f i NpArticulationLink.obj
 0001:0001fa90       ?setRigidBodyFlag@?$NpRigidBodyTemplate@VPxArticulationLink@physx@@@physx@@UAEXW4Enum@PxRigidBodyFlag@2@_N@Z 10020a90 f i NpArticulationLink.obj
 0001:0001fdc0       ?setRigidBodyFlags@?$NpRigidBodyTemplate@VPxArticulationLink@physx@@@physx@@UAEXV?$PxFlags@W4Enum@PxRigidBodyFlag@physx@@E@2@@Z 10020dc0 f i NpArticulationLink.obj
 0001:000200e0       ?setSpatialAcceleration@Body@Scb@physx@@QAEXPBVPxVec3@3@0@Z 100210e0 f i NpArticulationLink.obj
 0001:000201c0       ?setSpatialForce@?$NpRigidBodyTemplate@VPxArticulationLink@physx@@@physx@@IAEXPBVPxVec3@2@0W4Enum@PxForceMode@2@@Z 100211c0 f i NpArticulationLink.obj
 0001:00020450       ?switchFromNoSim@?$NpRigidActorTemplate@VPxArticulationLink@physx@@@physx@@UAEXXZ 10021450 f i NpArticulationLink.obj
 0001:00020460       ?switchToNoSim@?$NpRigidActorTemplate@VPxArticulationLink@physx@@@physx@@UAEXXZ 10021460 f i NpArticulationLink.obj
 0001:00020470       ?updateShaderComs@?$NpRigidActorTemplate@VPxArticulationLink@physx@@@physx@@QAEXXZ 10021470 f i NpArticulationLink.obj
 0001:000204d0       ?visualize@?$NpRigidActorTemplate@VPxArticulationLink@physx@@@physx@@QAEXAAVRenderOutput@Cm@2@PAVNpScene@2@@Z 100214d0 f i NpArticulationLink.obj
 0001:000204f0       ?visualize@?$NpRigidBodyTemplate@VPxArticulationLink@physx@@@physx@@QAEXAAVRenderOutput@Cm@2@PAVNpScene@2@@Z 100214f0 f i NpArticulationLink.obj
 0001:00020880       ?visualizeAngularLimit@ConstraintImmediateVisualizer@Cm@physx@@UAEXABVPxTransform@3@MM_N@Z 10021880 f i NpArticulationLink.obj
 0001:000208c0       ?visualizeDoubleCone@ConstraintImmediateVisualizer@Cm@physx@@UAEXABVPxTransform@3@M_N@Z 100218c0 f i NpArticulationLink.obj
 0001:000208f0       ?visualizeJointFrames@ConstraintImmediateVisualizer@Cm@physx@@UAEXABVPxTransform@3@0@Z 100218f0 f i NpArticulationLink.obj
 0001:00020920       ?visualizeLimitCone@ConstraintImmediateVisualizer@Cm@physx@@UAEXABVPxTransform@3@MM_N@Z 10021920 f i NpArticulationLink.obj
 0001:00020960       ?visualizeLine@ConstraintImmediateVisualizer@Cm@physx@@UAEXABVPxVec3@3@0I@Z 10021960 f i NpArticulationLink.obj
 0001:000209c0       ?visualizeLinearLimit@ConstraintImmediateVisualizer@Cm@physx@@UAEXABVPxTransform@3@0M_N@Z 100219c0 f i NpArticulationLink.obj
 0001:00020a00       ??0NpBatchQuery@physx@@QAE@AAVNpScene@1@ABVPxBatchQueryDesc@1@@Z 10021a00 f   NpBatchQuery.obj
 0001:00020b00       ??1NpBatchQuery@physx@@UAE@XZ 10021b00 f   NpBatchQuery.obj
 0001:00020b50       ?execute@NpBatchQuery@physx@@UAEXXZ 10021b50 f   NpBatchQuery.obj
 0001:000215b0       ?release@NpBatchQuery@physx@@UAEXXZ 100225b0 f   NpBatchQuery.obj
 0001:00021600       ?getPreFilterShader@NpBatchQuery@physx@@UBEP6A?AW4Enum@PxQueryHitType@2@UPxFilterData@2@0PBXIAAV?$PxFlags@W4Enum@PxHitFlag@physx@@G@2@@ZXZ 10022600 f   NpBatchQuery.obj
 0001:00021610       ?getPostFilterShader@NpBatchQuery@physx@@UBEP6A?AW4Enum@PxQueryHitType@2@UPxFilterData@2@0PBXIABUPxQueryHit@2@@ZXZ 10022610 f   NpBatchQuery.obj
 0001:00021620       ?getFilterShaderData@NpBatchQuery@physx@@UBEPBXXZ 10022620 f   NpBatchQuery.obj
 0001:00021630       ?getFilterShaderDataSize@NpBatchQuery@physx@@UBEIXZ 10022630 f   NpBatchQuery.obj
 0001:00021640       ?setUserMemory@NpBatchQuery@physx@@UAEXABUPxBatchQueryMemory@2@@Z 10022640 f   NpBatchQuery.obj
 0001:000216a0       ?getUserMemory@NpBatchQuery@physx@@UAEABUPxBatchQueryMemory@2@XZ 100226a0 f   NpBatchQuery.obj
 0001:000216b0       ?raycast@NpBatchQuery@physx@@UAEXABVPxVec3@2@0MGV?$PxFlags@W4Enum@PxHitFlag@physx@@G@2@ABUPxQueryFilterData@2@PAXPBUPxQueryCache@2@@Z 100226b0 f   NpBatchQuery.obj
 0001:00021960       ?overlap@NpBatchQuery@physx@@UAEXABVPxGeometry@2@ABVPxTransform@2@GABUPxQueryFilterData@2@PAXPBUPxQueryCache@2@@Z 10022960 f   NpBatchQuery.obj
 0001:00021a70       ?sweep@NpBatchQuery@physx@@UAEXABVPxGeometry@2@ABVPxTransform@2@ABVPxVec3@2@MGV?$PxFlags@W4Enum@PxHitFlag@physx@@G@2@ABUPxQueryFilterData@2@PAXPBUPxQueryCache@2@M@Z 10022a70 f   NpBatchQuery.obj
 0001:00021eb0       ?resetResultBuffers@NpBatchQuery@physx@@AAEXXZ 10022eb0 f   NpBatchQuery.obj
 0001:00021f90       ?finalizeExecute@NpBatchQuery@physx@@AAEXXZ 10022f90 f   NpBatchQuery.obj
 0001:00021fd0       ?writeBatchHeader@NpBatchQuery@physx@@AAEXABUBatchStreamHeader@2@@Z 10022fd0 f   NpBatchQuery.obj
 0001:00022070       ??$writeStatus@U?$PxBatchQueryResult@UPxOverlapHit@physx@@@physx@@UPxOverlapHit@2@@@YAXPAU?$PxBatchQueryResult@UPxOverlapHit@physx@@@physx@@ABU?$PxHitBuffer@UPxOverlapHit@physx@@@1@PAX_N@Z 10023070 f i NpBatchQuery.obj
 0001:000220c0       ??$writeStatus@U?$PxBatchQueryResult@UPxRaycastHit@physx@@@physx@@UPxRaycastHit@2@@@YAXPAU?$PxBatchQueryResult@UPxRaycastHit@physx@@@physx@@ABU?$PxHitBuffer@UPxRaycastHit@physx@@@1@PAX_N@Z 100230c0 f i NpBatchQuery.obj
 0001:00022160       ??$writeStatus@U?$PxBatchQueryResult@UPxSweepHit@physx@@@physx@@UPxSweepHit@2@@@YAXPAU?$PxBatchQueryResult@UPxSweepHit@physx@@@physx@@ABU?$PxHitBuffer@UPxSweepHit@physx@@@1@PAX_N@Z 10023160 f i NpBatchQuery.obj
 0001:000221f0       ??0BatchStreamHeader@physx@@QAE@V?$PxFlags@W4Enum@PxHitFlag@physx@@G@1@PBUPxQueryCache@1@ABUPxQueryFilterData@1@PAXGW4Enum@QTypeROS@@@Z 100231f0 f i NpBatchQuery.obj
 0001:00022250       ??1?$PxHitBuffer@UPxOverlapHit@physx@@@physx@@UAE@XZ 10023250 f i NpBatchQuery.obj
 0001:00022260       ??1?$PxHitBuffer@UPxRaycastHit@physx@@@physx@@UAE@XZ 10023260 f i NpBatchQuery.obj
 0001:00022270       ??1?$PxHitBuffer@UPxSweepHit@physx@@@physx@@UAE@XZ 10023270 f i NpBatchQuery.obj
 0001:00022280       ??1?$PxHitCallback@UPxOverlapHit@physx@@@physx@@UAE@XZ 10023280 f i NpBatchQuery.obj
 0001:00022290       ??1?$PxHitCallback@UPxRaycastHit@physx@@@physx@@UAE@XZ 10023290 f i NpBatchQuery.obj
 0001:000222a0       ??1?$PxHitCallback@UPxSweepHit@physx@@@physx@@UAE@XZ 100232a0 f i NpBatchQuery.obj
 0001:000222b0       ??1PxBatchQuery@physx@@MAE@XZ 100232b0 f i NpBatchQuery.obj
 0001:000222c0       ??_G?$PxHitBuffer@UPxOverlapHit@physx@@@physx@@UAEPAXI@Z 100232c0 f i NpBatchQuery.obj
 0001:000222c0       ??_E?$PxHitBuffer@UPxOverlapHit@physx@@@physx@@UAEPAXI@Z 100232c0 f i NpBatchQuery.obj
 0001:000222f0       ??_E?$PxHitBuffer@UPxRaycastHit@physx@@@physx@@UAEPAXI@Z 100232f0 f i NpBatchQuery.obj
 0001:000222f0       ??_G?$PxHitBuffer@UPxRaycastHit@physx@@@physx@@UAEPAXI@Z 100232f0 f i NpBatchQuery.obj
 0001:00022320       ??_E?$PxHitBuffer@UPxSweepHit@physx@@@physx@@UAEPAXI@Z 10023320 f i NpBatchQuery.obj
 0001:00022320       ??_G?$PxHitBuffer@UPxSweepHit@physx@@@physx@@UAEPAXI@Z 10023320 f i NpBatchQuery.obj
 0001:00022350       ??_E?$PxHitCallback@UPxOverlapHit@physx@@@physx@@UAEPAXI@Z 10023350 f i NpBatchQuery.obj
 0001:00022350       ??_G?$PxHitCallback@UPxOverlapHit@physx@@@physx@@UAEPAXI@Z 10023350 f i NpBatchQuery.obj
 0001:00022380       ??_G?$PxHitCallback@UPxRaycastHit@physx@@@physx@@UAEPAXI@Z 10023380 f i NpBatchQuery.obj
 0001:00022380       ??_E?$PxHitCallback@UPxRaycastHit@physx@@@physx@@UAEPAXI@Z 10023380 f i NpBatchQuery.obj
 0001:000223b0       ??_E?$PxHitCallback@UPxSweepHit@physx@@@physx@@UAEPAXI@Z 100233b0 f i NpBatchQuery.obj
 0001:000223b0       ??_G?$PxHitCallback@UPxSweepHit@physx@@@physx@@UAEPAXI@Z 100233b0 f i NpBatchQuery.obj
 0001:000223e0       ??_G?$PxOverflowBuffer@UPxOverlapHit@physx@@@@UAEPAXI@Z 100233e0 f i NpBatchQuery.obj
 0001:000223e0       ??_E?$PxOverflowBuffer@UPxOverlapHit@physx@@@@UAEPAXI@Z 100233e0 f i NpBatchQuery.obj
 0001:00022410       ??_E?$PxOverflowBuffer@UPxRaycastHit@physx@@@@UAEPAXI@Z 10023410 f i NpBatchQuery.obj
 0001:00022410       ??_G?$PxOverflowBuffer@UPxRaycastHit@physx@@@@UAEPAXI@Z 10023410 f i NpBatchQuery.obj
 0001:00022440       ??_E?$PxOverflowBuffer@UPxSweepHit@physx@@@@UAEPAXI@Z 10023440 f i NpBatchQuery.obj
 0001:00022440       ??_G?$PxOverflowBuffer@UPxSweepHit@physx@@@@UAEPAXI@Z 10023440 f i NpBatchQuery.obj
 0001:00022470       ??_ENpBatchQuery@physx@@UAEPAXI@Z 10023470 f i NpBatchQuery.obj
 0001:00022470       ??_GNpBatchQuery@physx@@UAEPAXI@Z 10023470 f i NpBatchQuery.obj
 0001:000224f0       ??_GPxBatchQuery@physx@@MAEPAXI@Z 100234f0 f i NpBatchQuery.obj
 0001:000224f0       ??_EPxBatchQuery@physx@@MAEPAXI@Z 100234f0 f i NpBatchQuery.obj
 0001:00022520       ?finalizeQuery@?$PxHitCallback@UPxOverlapHit@physx@@@physx@@UAEXXZ 10023520 f i NpBatchQuery.obj
 0001:00022530       ?finalizeQuery@?$PxHitCallback@UPxRaycastHit@physx@@@physx@@UAEXXZ 10023530 f i NpBatchQuery.obj
 0001:00022540       ?finalizeQuery@?$PxHitCallback@UPxSweepHit@physx@@@physx@@UAEXXZ 10023540 f i NpBatchQuery.obj
 0001:00022550       ?finalizeQuery@?$PxOverflowBuffer@UPxOverlapHit@physx@@@@UAEXXZ 10023550 f i NpBatchQuery.obj
 0001:00022570       ?finalizeQuery@?$PxOverflowBuffer@UPxRaycastHit@physx@@@@UAEXXZ 10023570 f i NpBatchQuery.obj
 0001:000225a0       ?finalizeQuery@?$PxOverflowBuffer@UPxSweepHit@physx@@@@UAEXXZ 100235a0 f i NpBatchQuery.obj
 0001:000225c0       ?getDesc@NpBatchQuery@physx@@UBEABVPxBatchQueryDesc@2@XZ 100235c0 f i NpBatchQuery.obj
 0001:000225d0       ?processTouches@?$PxHitBuffer@UPxOverlapHit@physx@@@physx@@MAE_NPBUPxOverlapHit@2@I@Z 100235d0 f i NpBatchQuery.obj
 0001:000225e0       ?processTouches@?$PxHitBuffer@UPxRaycastHit@physx@@@physx@@MAE_NPBUPxRaycastHit@2@I@Z 100235e0 f i NpBatchQuery.obj
 0001:000225f0       ?processTouches@?$PxHitBuffer@UPxSweepHit@physx@@@physx@@MAE_NPBUPxSweepHit@2@I@Z 100235f0 f i NpBatchQuery.obj
 0001:00022600       ?processTouches@?$PxOverflowBuffer@UPxOverlapHit@physx@@@@UAE_NPBUPxOverlapHit@physx@@I@Z 10023600 f i NpBatchQuery.obj
 0001:00022630       ?processTouches@?$PxOverflowBuffer@UPxRaycastHit@physx@@@@UAE_NPBUPxRaycastHit@physx@@I@Z 10023630 f i NpBatchQuery.obj
 0001:00022670       ?processTouches@?$PxOverflowBuffer@UPxSweepHit@physx@@@@UAE_NPBUPxSweepHit@physx@@I@Z 10023670 f i NpBatchQuery.obj
 0001:000226b0       ?recreate@?$Array@DVNamedAllocator@shdfnd@physx@@@shdfnd@physx@@IAEXI@Z 100236b0 f i NpBatchQuery.obj
 0001:00022780       ?resizeUninitialized@?$Array@DVNamedAllocator@shdfnd@physx@@@shdfnd@physx@@QAEXI@Z 10023780 f i NpBatchQuery.obj
 0001:00022ab0       ?NpConstraintGetRigidObjectsFromScb@physx@@YAXABVConstraint@Scb@1@AAPAVRigidObject@31@1@Z 10023ab0 f   NpConstraint.obj
 0001:00022b00       ?setConstraintFunctions@NpConstraint@physx@@UAEXAAVPxConstraintConnector@2@ABUPxConstraintShaderTable@2@@Z 10023b00 f   NpConstraint.obj
 0001:00022cc0       ?createObject@NpConstraint@physx@@SAPAV12@AAPAEAAVPxDeserializationContext@2@@Z 10023cc0 f   NpConstraint.obj
 0001:00022d40       ?resolveReferences@NpConstraint@physx@@QAEXAAVPxDeserializationContext@2@@Z 10023d40 f   NpConstraint.obj
 0001:00022d80       ??0NpConstraint@physx@@QAE@PAVPxRigidActor@1@0AAVPxConstraintConnector@1@ABUPxConstraintShaderTable@1@I@Z 10023d80 f   NpConstraint.obj
 0001:00022f30       ??1NpConstraint@physx@@UAE@XZ 10023f30 f   NpConstraint.obj
 0001:00022f70       ?release@NpConstraint@physx@@UAEXXZ 10023f70 f   NpConstraint.obj
 0001:00023050       ?getScene@NpConstraint@physx@@UBEPAVPxScene@2@XZ 10024050 f   NpConstraint.obj
 0001:00023080       ?getActors@NpConstraint@physx@@UBEXAAPAVPxRigidActor@2@0@Z 10024080 f   NpConstraint.obj
 0001:000230f0       ?setActors@NpConstraint@physx@@UAEXPAVPxRigidActor@2@0@Z 100240f0 f   NpConstraint.obj
 0001:00023450       ?getFlags@NpConstraint@physx@@UBE?AV?$PxFlags@W4Enum@PxConstraintFlag@physx@@G@2@XZ 10024450 f   NpConstraint.obj
 0001:000234d0       ?setFlags@NpConstraint@physx@@UAEXV?$PxFlags@W4Enum@PxConstraintFlag@physx@@G@2@@Z 100244d0 f   NpConstraint.obj
 0001:000235d0       ?setFlag@NpConstraint@physx@@UAEXW4Enum@PxConstraintFlag@2@_N@Z 100245d0 f   NpConstraint.obj
 0001:00023730       ?getForce@NpConstraint@physx@@UBEXAAVPxVec3@2@0@Z 10024730 f   NpConstraint.obj
 0001:000237b0       ?markDirty@NpConstraint@physx@@UAEXXZ 100247b0 f   NpConstraint.obj
 0001:000237c0       ?setBreakForce@NpConstraint@physx@@UAEXMM@Z 100247c0 f   NpConstraint.obj
 0001:00023900       ?getBreakForce@NpConstraint@physx@@UBEXAAM0@Z 10024900 f   NpConstraint.obj
 0001:000239c0       ?setMinResponseThreshold@NpConstraint@physx@@UAEXM@Z 100249c0 f   NpConstraint.obj
 0001:00023b70       ?getMinResponseThreshold@NpConstraint@physx@@UBEMXZ 10024b70 f   NpConstraint.obj
 0001:00023c10       ?isValid@NpConstraint@physx@@UBE_NXZ 10024c10 f   NpConstraint.obj
 0001:00023cc0       ?getExternalReference@NpConstraint@physx@@UAEPAXAAI@Z 10024cc0 f   NpConstraint.obj
 0001:00023d30       ?updateConstants@NpConstraint@physx@@QAEXXZ 10024d30 f   NpConstraint.obj
 0001:00023d90       ?comShift@NpConstraint@physx@@QAEXPAVPxRigidActor@2@@Z 10024d90 f   NpConstraint.obj
 0001:00023dc0       ?actorDeleted@NpConstraint@physx@@QAEXPAVPxRigidActor@2@@Z 10024dc0 f   NpConstraint.obj
 0001:00023de0       ?getNpScene@NpConstraint@physx@@QBEPAVNpScene@2@XZ 10024de0 f   NpConstraint.obj
 0001:00023e10       ?getSceneFromActors@NpConstraint@physx@@QBEPAVNpScene@2@XZ 10024e10 f   NpConstraint.obj
 0001:00023eb0       ?getScbRigidObject@NpConstraint@physx@@SAPAVRigidObject@Scb@2@PAVPxRigidActor@2@@Z 10024eb0 f   NpConstraint.obj
 0001:00023ec0       ??1PxConstraint@physx@@MAE@XZ 10024ec0 f i NpConstraint.obj
 0001:00023ed0       ??_GNpConstraint@physx@@UAEPAXI@Z 10024ed0 f i NpConstraint.obj
 0001:00023ed0       ??_ENpConstraint@physx@@UAEPAXI@Z 10024ed0 f i NpConstraint.obj
 0001:00023f40       ??_GPxConstraint@physx@@MAEPAXI@Z 10024f40 f i NpConstraint.obj
 0001:00023f40       ??_EPxConstraint@physx@@MAEPAXI@Z 10024f40 f i NpConstraint.obj
 0001:00023f70       ?getConcreteTypeName@PxConstraint@physx@@UBEPBDXZ 10024f70 f i NpConstraint.obj
 0001:00023f80       ?isKindOf@PxConstraint@physx@@MBE_NPBD@Z 10024f80 f i NpConstraint.obj
 0001:00024000       ?isSubordinate@NpConstraint@physx@@UBE_NXZ 10025000 f i NpConstraint.obj
 0001:00024010       ?requiresObjects@NpConstraint@physx@@UAEXAAVPxProcessPxBaseCallback@2@@Z 10025010 f i NpConstraint.obj
 0001:00024020       ?setBodies@Constraint@Scb@physx@@QAEXPAVRigidObject@23@0@Z 10025020 f i NpConstraint.obj
 0001:00024110       ?setFlags@Constraint@Scb@physx@@QAEXV?$PxFlags@W4Enum@PxConstraintFlag@physx@@G@3@@Z 10025110 f i NpConstraint.obj
 0001:000241a0       ??0NpFactory@physx@@QAE@XZ 100251a0 f   NpFactory.obj
 0001:000249a0       ??1NpFactory@physx@@EAE@XZ 100259a0 f   NpFactory.obj
 0001:00024c60       ?createInstance@NpFactory@physx@@SAXXZ 10025c60 f   NpFactory.obj
 0001:00024cd0       ?destroyInstance@NpFactory@physx@@SAXXZ 10025cd0 f   NpFactory.obj
 0001:00024cf0       ?registerArticulations@NpFactory@physx@@SAXXZ 10025cf0 f   NpFactory.obj
 0001:00024d10       ?registerArticulationRCs@NpFactory@physx@@SAXXZ 10025d10 f   NpFactory.obj
 0001:00024d30       ?release@NpFactory@physx@@QAEXXZ 10025d30 f   NpFactory.obj
 0001:000251b0       ?addCollection@NpFactory@physx@@QAEXABVCollection@Cm@2@@Z 100261b0 f   NpFactory.obj
 0001:00025400       ?createRigidDynamic@NpFactory@physx@@QAEPAVPxRigidDynamic@2@ABVPxTransform@2@@Z 10026400 f   NpFactory.obj
 0001:00025570       ?addRigidDynamic@NpFactory@physx@@QAEXPAVPxRigidDynamic@2@_N@Z 10026570 f   NpFactory.obj
 0001:000255d0       ?releaseRigidDynamicToPool@NpFactory@physx@@QAEXAAVNpRigidDynamic@2@@Z 100265d0 f   NpFactory.obj
 0001:00025620       ?createRigidStatic@NpFactory@physx@@QAEPAVPxRigidStatic@2@ABVPxTransform@2@@Z 10026620 f   NpFactory.obj
 0001:000257a0       ?addRigidStatic@NpFactory@physx@@QAEXPAVPxRigidStatic@2@_N@Z 100267a0 f   NpFactory.obj
 0001:00025800       ?releaseRigidStaticToPool@NpFactory@physx@@QAEXAAVNpRigidStatic@2@@Z 10026800 f   NpFactory.obj
 0001:00025850       ?createShape@NpFactory@physx@@QAEPAVNpShape@2@ABVPxGeometry@2@V?$PxFlags@W4Enum@PxShapeFlag@physx@@E@2@PBQAVPxMaterial@2@G_N@Z 10026850 f   NpFactory.obj
 0001:00025ca0       ?addShape@NpFactory@physx@@QAEXPAVPxShape@2@_N@Z 10026ca0 f   NpFactory.obj
 0001:00025d00       ?releaseShapeToPool@NpFactory@physx@@QAEXAAVNpShape@2@@Z 10026d00 f   NpFactory.obj
 0001:00025d50       ?getNbShapes@NpFactory@physx@@QBEIXZ 10026d50 f   NpFactory.obj
 0001:00025d60       ?getShapes@NpFactory@physx@@QBEIPAPAVPxShape@2@II@Z 10026d60 f   NpFactory.obj
 0001:00025db0       ?createConstraint@NpFactory@physx@@QAEPAVPxConstraint@2@PAVPxRigidActor@2@0AAVPxConstraintConnector@2@ABUPxConstraintShaderTable@2@I@Z 10026db0 f   NpFactory.obj
 0001:00025f80       ?addConstraint@NpFactory@physx@@QAEXPAVPxConstraint@2@_N@Z 10026f80 f   NpFactory.obj
 0001:00025fe0       ?releaseConstraintToPool@NpFactory@physx@@QAEXAAVNpConstraint@2@@Z 10026fe0 f   NpFactory.obj
 0001:00026030       ?createArticulation@NpFactory@physx@@QAEPAVPxArticulation@2@XZ 10027030 f   NpFactory.obj
 0001:000260b0       ?addArticulation@NpFactory@physx@@QAEXPAVPxArticulationBase@2@_N@Z 100270b0 f   NpFactory.obj
 0001:00026110       ?releaseArticulationToPool@NpFactory@physx@@QAEXAAVPxArticulationBase@2@@Z 10027110 f   NpFactory.obj
 0001:000261a0       ?createArticulationRC@NpFactory@physx@@QAEPAVPxArticulationReducedCoordinate@2@XZ 100271a0 f   NpFactory.obj
 0001:00026220       ?createNpArticulation@NpFactory@physx@@QAEPAVNpArticulation@2@XZ 10027220 f   NpFactory.obj
 0001:00026340       ?createNpArticulationRC@NpFactory@physx@@QAEPAVNpArticulationReducedCoordinate@2@XZ 10027340 f   NpFactory.obj
 0001:00026460       ?createNpArticulationLink@NpFactory@physx@@QAEPAVNpArticulationLink@2@AAVPxArticulationBase@2@PAV32@ABVPxTransform@2@@Z 10027460 f   NpFactory.obj
 0001:00026570       ?releaseArticulationLinkToPool@NpFactory@physx@@QAEXAAVNpArticulationLink@2@@Z 10027570 f   NpFactory.obj
 0001:000265c0       ?createArticulationLink@NpFactory@physx@@QAEPAVPxArticulationLink@2@AAVPxArticulationBase@2@PAVNpArticulationLink@2@ABVPxTransform@2@@Z 100275c0 f   NpFactory.obj
 0001:00026610       ?createNpArticulationJoint@NpFactory@physx@@QAEPAVNpArticulationJoint@2@AAVNpArticulationLink@2@ABVPxTransform@2@01@Z 10027610 f   NpFactory.obj
 0001:00026720       ?releaseArticulationJointToPool@NpFactory@physx@@QAEXAAVNpArticulationJoint@2@@Z 10027720 f   NpFactory.obj
 0001:00026770       ?createNpArticulationJointRC@NpFactory@physx@@QAEPAVNpArticulationJointReducedCoordinate@2@AAVNpArticulationLink@2@ABVPxTransform@2@01@Z 10027770 f   NpFactory.obj
 0001:00026880       ?releaseArticulationJointRCToPool@NpFactory@physx@@QAEXAAVNpArticulationJointReducedCoordinate@2@@Z 10027880 f   NpFactory.obj
 0001:000268d0       ?createAggregate@NpFactory@physx@@QAEPAVPxAggregate@2@I_N@Z 100278d0 f   NpFactory.obj
 0001:00026a10       ?addAggregate@NpFactory@physx@@QAEXPAVPxAggregate@2@_N@Z 10027a10 f   NpFactory.obj
 0001:00026a70       ?releaseAggregateToPool@NpFactory@physx@@QAEXAAVNpAggregate@2@@Z 10027a70 f   NpFactory.obj
 0001:00026ac0       ?createMaterial@NpFactory@physx@@QAEPAVPxMaterial@2@MMM@Z 10027ac0 f   NpFactory.obj
 0001:00026c70       ?releaseMaterialToPool@NpFactory@physx@@QAEXAAVNpMaterial@2@@Z 10027c70 f   NpFactory.obj
 0001:00026cc0       ?onActorRelease@NpFactory@physx@@QAEXPAVPxActor@2@@Z 10027cc0 f   NpFactory.obj
 0001:00026d90       ?onConstraintRelease@NpFactory@physx@@QAEXPAVPxConstraint@2@@Z 10027d90 f   NpFactory.obj
 0001:00026e60       ?onAggregateRelease@NpFactory@physx@@QAEXPAVPxAggregate@2@@Z 10027e60 f   NpFactory.obj
 0001:00026f30       ?onArticulationRelease@NpFactory@physx@@QAEXPAVPxArticulationBase@2@@Z 10027f30 f   NpFactory.obj
 0001:00027000       ?onShapeRelease@NpFactory@physx@@QAEXPAVPxShape@2@@Z 10028000 f   NpFactory.obj
 0001:00027030       ?acquireConnectorArray@NpFactory@physx@@QAEPAVNpConnectorArray@2@XZ 10028030 f   NpFactory.obj
 0001:00027060       ?releaseConnectorArray@NpFactory@physx@@QAEXPAVNpConnectorArray@2@@Z 10028060 f   NpFactory.obj
 0001:000270d0       ?setNpFactoryListener@NpFactory@physx@@QAEXAAVNpFactoryListener@2@@Z 100280d0 f   NpFactory.obj
 0001:000270f0       ?NpDestroy@physx@@YAXAAVBase@Scb@1@@Z 100280f0 f   NpFactory.obj
 0001:00027be0       ??$sort@PAXU?$Less@PAX@shdfnd@physx@@VNamedAllocator@23@@shdfnd@physx@@YAXPAPAXIABU?$Less@PAX@01@ABVNamedAllocator@01@I@Z 10028be0 f i NpFactory.obj
 0001:00027ee0       ??0?$InlineArray@PAX$0EA@VNamedAllocator@shdfnd@physx@@@shdfnd@physx@@QAE@ABVNamedAllocator@12@@Z 10028ee0 f i NpFactory.obj
 0001:00027fa0       ??0?$MutexT@V?$ReflectionAllocator@VMutexImpl@shdfnd@physx@@@shdfnd@physx@@@shdfnd@physx@@QAE@ABV?$ReflectionAllocator@VMutexImpl@shdfnd@physx@@@12@@Z 10028fa0 f i NpFactory.obj
 0001:00028020       ??1?$PoolBase@V?$PtrBlock@$03@NpPtrTableStorageManager@physx@@VNamedAllocator@shdfnd@3@@shdfnd@physx@@QAE@XZ 10029020 f i NpFactory.obj
 0001:000281e0       ??1?$PoolBase@V?$PtrBlock@$0BA@@NpPtrTableStorageManager@physx@@VNamedAllocator@shdfnd@3@@shdfnd@physx@@QAE@XZ 100291e0 f i NpFactory.obj
 0001:000283a0       ??1?$PoolBase@V?$PtrBlock@$0EA@@NpPtrTableStorageManager@physx@@VNamedAllocator@shdfnd@3@@shdfnd@physx@@QAE@XZ 100293a0 f i NpFactory.obj
 0001:00028560       ??1?$PoolBase@VNpAggregate@physx@@VNamedAllocator@shdfnd@2@@shdfnd@physx@@QAE@XZ 10029560 f i NpFactory.obj
 0001:00028730       ??1?$PoolBase@VNpArticulation@physx@@VNamedAllocator@shdfnd@2@@shdfnd@physx@@QAE@XZ 10029730 f i NpFactory.obj
 0001:00028900       ??1?$PoolBase@VNpArticulationJoint@physx@@VNamedAllocator@shdfnd@2@@shdfnd@physx@@QAE@XZ 10029900 f i NpFactory.obj
 0001:00028ae0       ??1?$PoolBase@VNpArticulationJointReducedCoordinate@physx@@VNamedAllocator@shdfnd@2@@shdfnd@physx@@QAE@XZ 10029ae0 f i NpFactory.obj
 0001:00028cc0       ??1?$PoolBase@VNpArticulationLink@physx@@VNamedAllocator@shdfnd@2@@shdfnd@physx@@QAE@XZ 10029cc0 f i NpFactory.obj
 0001:00028ea0       ??1?$PoolBase@VNpArticulationReducedCoordinate@physx@@VNamedAllocator@shdfnd@2@@shdfnd@physx@@QAE@XZ 10029ea0 f i NpFactory.obj
 0001:00029080       ??1?$PoolBase@VNpConnectorArray@physx@@VNamedAllocator@shdfnd@2@@shdfnd@physx@@QAE@XZ 1002a080 f i NpFactory.obj
 0001:00029130       ??1?$PoolBase@VNpConstraint@physx@@VNamedAllocator@shdfnd@2@@shdfnd@physx@@QAE@XZ 1002a130 f i NpFactory.obj
 0001:00029300       ??1?$PoolBase@VNpMaterial@physx@@VNamedAllocator@shdfnd@2@@shdfnd@physx@@QAE@XZ 1002a300 f i NpFactory.obj
 0001:000294d0       ??1?$PoolBase@VNpRigidDynamic@physx@@VNamedAllocator@shdfnd@2@@shdfnd@physx@@QAE@XZ 1002a4d0 f i NpFactory.obj
 0001:000296b0       ??1?$PoolBase@VNpRigidStatic@physx@@VNamedAllocator@shdfnd@2@@shdfnd@physx@@QAE@XZ 1002a6b0 f i NpFactory.obj
 0001:00029880       ??1?$PoolBase@VNpShape@physx@@VNamedAllocator@shdfnd@2@@shdfnd@physx@@QAE@XZ 1002a880 f i NpFactory.obj
 0001:00029a60       ??1PtrTableStorageManager@Cm@physx@@MAE@XZ 1002aa60 f i NpFactory.obj
 0001:00029a70       ??_ENpFactory@physx@@EAEPAXI@Z 1002aa70 f i NpFactory.obj
 0001:00029a70       ??_GNpFactory@physx@@EAEPAXI@Z 1002aa70 f i NpFactory.obj
 0001:00029ab0       ??_ENpPtrTableStorageManager@physx@@UAEPAXI@Z 1002aab0 f i NpFactory.obj
 0001:00029ab0       ??_GNpPtrTableStorageManager@physx@@UAEPAXI@Z 1002aab0 f i NpFactory.obj
 0001:00029b30       ??_EPtrTableStorageManager@Cm@physx@@MAEPAXI@Z 1002ab30 f i NpFactory.obj
 0001:00029b30       ??_GPtrTableStorageManager@Cm@physx@@MAEPAXI@Z 1002ab30 f i NpFactory.obj
 0001:00029b60       ?allocate@?$Array@GV?$InlineAllocator@$07VNamedAllocator@shdfnd@physx@@@shdfnd@physx@@@shdfnd@physx@@IAEPAGI@Z 1002ab60 f i NpFactory.obj
 0001:00029bc0       ?allocate@?$Array@PAVPxActor@physx@@V?$ReflectionAllocator@PAVPxActor@physx@@@shdfnd@2@@shdfnd@physx@@IAEPAPAVPxActor@3@I@Z 1002abc0 f i NpFactory.obj
 0001:00029c50       ?allocate@?$Array@PAVPxAggregate@physx@@V?$ReflectionAllocator@PAVPxAggregate@physx@@@shdfnd@2@@shdfnd@physx@@IAEPAPAVPxAggregate@3@I@Z 1002ac50 f i NpFactory.obj
 0001:00029ce0       ?allocate@?$Array@PAVPxArticulationBase@physx@@V?$ReflectionAllocator@PAVPxArticulationBase@physx@@@shdfnd@2@@shdfnd@physx@@IAEPAPAVPxArticulationBase@3@I@Z 1002ace0 f i NpFactory.obj
 0001:00029d70       ?allocate@?$Array@PAVPxConstraint@physx@@V?$ReflectionAllocator@PAVPxConstraint@physx@@@shdfnd@2@@shdfnd@physx@@IAEPAPAVPxConstraint@3@I@Z 1002ad70 f i NpFactory.obj
 0001:00029e00       ?allocate@?$Array@PAXV?$InlineAllocator@$0BAA@VNamedAllocator@shdfnd@physx@@@shdfnd@physx@@@shdfnd@physx@@IAEPAPAXI@Z 1002ae00 f i NpFactory.obj
 0001:00029e70       ?allocate@NpPtrTableStorageManager@physx@@UAEPAPAXI@Z 1002ae70 f i NpFactory.obj
 0001:0002a160       ?canReuse@NpPtrTableStorageManager@physx@@UAE_NII@Z 1002b160 f i NpFactory.obj
 0001:0002a1c0       ?construct@?$PoolBase@VNpConnectorArray@physx@@VNamedAllocator@shdfnd@2@@shdfnd@physx@@QAEPAVNpConnectorArray@3@XZ 1002b1c0 f i NpFactory.obj
 0001:0002a340       ?create@?$HashBase@PAVPxActor@physx@@PAV12@U?$Hash@PAVPxActor@physx@@@shdfnd@2@UGetKey@?$HashSetBase@PAVPxActor@physx@@U?$Hash@PAVPxActor@physx@@@shdfnd@2@VNonTrackingAllocator@42@$0A@@internal@42@VNonTrackingAllocator@42@$0A@@internal@shdfnd@physx@@QAEPAPAVPxActor@4@ABQAV54@AA_N@Z 1002b340 f i NpFactory.obj
 0001:0002a470       ?create@?$HashBase@PAVPxAggregate@physx@@PAV12@U?$Hash@PAVPxAggregate@physx@@@shdfnd@2@UGetKey@?$HashSetBase@PAVPxAggregate@physx@@U?$Hash@PAVPxAggregate@physx@@@shdfnd@2@VNonTrackingAllocator@42@$0A@@internal@42@VNonTrackingAllocator@42@$0A@@internal@shdfnd@physx@@QAEPAPAVPxAggregate@4@ABQAV54@AA_N@Z 1002b470 f i NpFactory.obj
 0001:0002a5a0       ?create@?$HashBase@PAVPxArticulationBase@physx@@PAV12@U?$Hash@PAVPxArticulationBase@physx@@@shdfnd@2@UGetKey@?$HashSetBase@PAVPxArticulationBase@physx@@U?$Hash@PAVPxArticulationBase@physx@@@shdfnd@2@VNonTrackingAllocator@42@$0A@@internal@42@VNonTrackingAllocator@42@$0A@@internal@shdfnd@physx@@QAEPAPAVPxArticulationBase@4@ABQAV54@AA_N@Z 1002b5a0 f i NpFactory.obj
 0001:0002a6d0       ?create@?$HashBase@PAVPxConstraint@physx@@PAV12@U?$Hash@PAVPxConstraint@physx@@@shdfnd@2@UGetKey@?$HashSetBase@PAVPxConstraint@physx@@U?$Hash@PAVPxConstraint@physx@@@shdfnd@2@VNonTrackingAllocator@42@$0A@@internal@42@VNonTrackingAllocator@42@$0A@@internal@shdfnd@physx@@QAEPAPAVPxConstraint@4@ABQAV54@AA_N@Z 1002b6d0 f i NpFactory.obj
 0001:0002a800       ?create@?$HashBase@PAVPxShape@physx@@PAV12@U?$Hash@PAVPxShape@physx@@@shdfnd@2@UGetKey@?$HashSetBase@PAVPxShape@physx@@U?$Hash@PAVPxShape@physx@@@shdfnd@2@VNonTrackingAllocator@42@$00@internal@42@VNonTrackingAllocator@42@$00@internal@shdfnd@physx@@QAEPAPAVPxShape@4@ABQAV54@AA_N@Z 1002b800 f i NpFactory.obj
 0001:0002a930       ?deallocate@NpPtrTableStorageManager@physx@@UAEXPAPAXI@Z 1002b930 f i NpFactory.obj
 0001:0002a9e0       ?disposeElements@?$PoolBase@VNpConnectorArray@physx@@VNamedAllocator@shdfnd@2@@shdfnd@physx@@IAEXXZ 1002b9e0 f i NpFactory.obj
 0001:0002ab60       ?erase@?$HashBase@PAVPxShape@physx@@PAV12@U?$Hash@PAVPxShape@physx@@@shdfnd@2@UGetKey@?$HashSetBase@PAVPxShape@physx@@U?$Hash@PAVPxShape@physx@@@shdfnd@2@VNonTrackingAllocator@42@$00@internal@42@VNonTrackingAllocator@42@$00@internal@shdfnd@physx@@QAE_NABQAVPxShape@4@@Z 1002bb60 f i NpFactory.obj
 0001:0002ac80       ?growAndPushBack@?$Array@PAVPxActor@physx@@V?$ReflectionAllocator@PAVPxActor@physx@@@shdfnd@2@@shdfnd@physx@@IAEAAPAVPxActor@3@ABQAV43@@Z 1002bc80 f i NpFactory.obj
 0001:0002ad30       ?growAndPushBack@?$Array@PAVPxAggregate@physx@@V?$ReflectionAllocator@PAVPxAggregate@physx@@@shdfnd@2@@shdfnd@physx@@IAEAAPAVPxAggregate@3@ABQAV43@@Z 1002bd30 f i NpFactory.obj
 0001:0002ade0       ?growAndPushBack@?$Array@PAVPxArticulationBase@physx@@V?$ReflectionAllocator@PAVPxArticulationBase@physx@@@shdfnd@2@@shdfnd@physx@@IAEAAPAVPxArticulationBase@3@ABQAV43@@Z 1002bde0 f i NpFactory.obj
 0001:0002ae90       ?growAndPushBack@?$Array@PAVPxConstraint@physx@@V?$ReflectionAllocator@PAVPxConstraint@physx@@@shdfnd@2@@shdfnd@physx@@IAEAAPAVPxConstraint@3@ABQAV43@@Z 1002be90 f i NpFactory.obj
 0001:0002af40       ?growAndPushBack@?$Array@PAXV?$InlineAllocator@$0BAA@VNamedAllocator@shdfnd@physx@@@shdfnd@physx@@@shdfnd@physx@@IAEAAPAXABQAX@Z 1002bf40 f i NpFactory.obj
 0001:0002b020       ?growAndPushBack@?$Array@PAXVNamedAllocator@shdfnd@physx@@@shdfnd@physx@@IAEAAPAXABQAX@Z 1002c020 f i NpFactory.obj
 0001:0002b100       ?isValid@PxBoxGeometry@physx@@QBE_NXZ 1002c100 f i NpFactory.obj
 0001:0002b190       ?isValid@PxCapsuleGeometry@physx@@QBE_NXZ 1002c190 f i NpFactory.obj
 0001:0002b1f0       ?isValid@PxConvexMeshGeometry@physx@@QBE_NXZ 1002c1f0 f i NpFactory.obj
 0001:0002b320       ?isValid@PxHeightFieldGeometry@physx@@QBE_NXZ 1002c320 f i NpFactory.obj
 0001:0002b3c0       ?isValid@PxSphereGeometry@physx@@QBE_NXZ 1002c3c0 f i NpFactory.obj
 0001:0002b400       ?isValid@PxTriangleMeshGeometry@physx@@QBE_NXZ 1002c400 f i NpFactory.obj
 0001:0002b530       ?recreate@?$Array@GV?$InlineAllocator@$07VNamedAllocator@shdfnd@physx@@@shdfnd@physx@@@shdfnd@physx@@IAEXI@Z 1002c530 f i NpFactory.obj
 0001:0002b5d0       ?recreate@?$Array@PAVPxActor@physx@@V?$ReflectionAllocator@PAVPxActor@physx@@@shdfnd@2@@shdfnd@physx@@IAEXI@Z 1002c5d0 f i NpFactory.obj
 0001:0002b660       ?recreate@?$Array@PAVPxAggregate@physx@@V?$ReflectionAllocator@PAVPxAggregate@physx@@@shdfnd@2@@shdfnd@physx@@IAEXI@Z 1002c660 f i NpFactory.obj
 0001:0002b6f0       ?recreate@?$Array@PAVPxArticulationBase@physx@@V?$ReflectionAllocator@PAVPxArticulationBase@physx@@@shdfnd@2@@shdfnd@physx@@IAEXI@Z 1002c6f0 f i NpFactory.obj
 0001:0002b780       ?recreate@?$Array@PAVPxConstraint@physx@@V?$ReflectionAllocator@PAVPxConstraint@physx@@@shdfnd@2@@shdfnd@physx@@IAEXI@Z 1002c780 f i NpFactory.obj
 0001:0002b810       ?reserveInternal@?$HashBase@PAVPxActor@physx@@PAV12@U?$Hash@PAVPxActor@physx@@@shdfnd@2@UGetKey@?$HashSetBase@PAVPxActor@physx@@U?$Hash@PAVPxActor@physx@@@shdfnd@2@VNonTrackingAllocator@42@$0A@@internal@42@VNonTrackingAllocator@42@$0A@@internal@shdfnd@physx@@AAEXI@Z 1002c810 f i NpFactory.obj
 0001:0002bb80       ?reserveInternal@?$HashBase@PAVPxAggregate@physx@@PAV12@U?$Hash@PAVPxAggregate@physx@@@shdfnd@2@UGetKey@?$HashSetBase@PAVPxAggregate@physx@@U?$Hash@PAVPxAggregate@physx@@@shdfnd@2@VNonTrackingAllocator@42@$0A@@internal@42@VNonTrackingAllocator@42@$0A@@internal@shdfnd@physx@@AAEXI@Z 1002cb80 f i NpFactory.obj
 0001:0002bef0       ?reserveInternal@?$HashBase@PAVPxArticulationBase@physx@@PAV12@U?$Hash@PAVPxArticulationBase@physx@@@shdfnd@2@UGetKey@?$HashSetBase@PAVPxArticulationBase@physx@@U?$Hash@PAVPxArticulationBase@physx@@@shdfnd@2@VNonTrackingAllocator@42@$0A@@internal@42@VNonTrackingAllocator@42@$0A@@internal@shdfnd@physx@@AAEXI@Z 1002cef0 f i NpFactory.obj
 0001:0002c260       ?reserveInternal@?$HashBase@PAVPxConstraint@physx@@PAV12@U?$Hash@PAVPxConstraint@physx@@@shdfnd@2@UGetKey@?$HashSetBase@PAVPxConstraint@physx@@U?$Hash@PAVPxConstraint@physx@@@shdfnd@2@VNonTrackingAllocator@42@$0A@@internal@42@VNonTrackingAllocator@42@$0A@@internal@shdfnd@physx@@AAEXI@Z 1002d260 f i NpFactory.obj
 0001:0002c5d0       ?reserveInternal@?$HashBase@PAVPxShape@physx@@PAV12@U?$Hash@PAVPxShape@physx@@@shdfnd@2@UGetKey@?$HashSetBase@PAVPxShape@physx@@U?$Hash@PAVPxShape@physx@@@shdfnd@2@VNonTrackingAllocator@42@$00@internal@42@VNonTrackingAllocator@42@$00@internal@shdfnd@physx@@AAEXI@Z 1002d5d0 f i NpFactory.obj
 0001:0002c760       ?resize@?$Array@GV?$InlineAllocator@$07VNamedAllocator@shdfnd@physx@@@shdfnd@physx@@@shdfnd@physx@@QAEXIABG@Z 1002d760 f i NpFactory.obj
 0001:0002c830       ?onRefCountZero@NpMaterial@physx@@UAEXXZ 1002d830 f   NpMaterial.obj
 0001:0002c880       ?resolveReferences@NpMaterial@physx@@UAEXAAVPxDeserializationContext@2@@Z 1002d880 f   NpMaterial.obj
 0001:0002c8a0       ?createObject@NpMaterial@physx@@SAPAV12@AAPAEAAVPxDeserializationContext@2@@Z 1002d8a0 f   NpMaterial.obj
 0001:0002c920       ??0NpMaterial@physx@@QAE@ABVMaterialCore@Sc@1@@Z 1002d920 f   NpMaterial.obj
 0001:0002c9a0       ??1NpMaterial@physx@@UAE@XZ 1002d9a0 f   NpMaterial.obj
 0001:0002c9d0       ?release@NpMaterial@physx@@UAEXXZ 1002d9d0 f   NpMaterial.obj
 0001:0002c9f0       ?acquireReference@NpMaterial@physx@@UAEXXZ 1002d9f0 f   NpMaterial.obj
 0001:0002ca00       ?getReferenceCount@NpMaterial@physx@@UBEIXZ 1002da00 f   NpMaterial.obj
 0001:0002ca10       ?setDynamicFriction@NpMaterial@physx@@UAEXM@Z 1002da10 f   NpMaterial.obj
 0001:0002ca90       ?getDynamicFriction@NpMaterial@physx@@UBEMXZ 1002da90 f   NpMaterial.obj
 0001:0002caa0       ?setStaticFriction@NpMaterial@physx@@UAEXM@Z 1002daa0 f   NpMaterial.obj
 0001:0002cb20       ?getStaticFriction@NpMaterial@physx@@UBEMXZ 1002db20 f   NpMaterial.obj
 0001:0002cb30       ?setRestitution@NpMaterial@physx@@UAEXM@Z 1002db30 f   NpMaterial.obj
 0001:0002cc40       ?getRestitution@NpMaterial@physx@@UBEMXZ 1002dc40 f   NpMaterial.obj
 0001:0002cc50       ?setFlag@NpMaterial@physx@@UAEXW4Enum@PxMaterialFlag@2@_N@Z 1002dc50 f   NpMaterial.obj
 0001:0002cc90       ?setFlags@NpMaterial@physx@@UAEXV?$PxFlags@W4Enum@PxMaterialFlag@physx@@G@2@@Z 1002dc90 f   NpMaterial.obj
 0001:0002ccb0       ?getFlags@NpMaterial@physx@@UBE?AV?$PxFlags@W4Enum@PxMaterialFlag@physx@@G@2@XZ 1002dcb0 f   NpMaterial.obj
 0001:0002ccc0       ?setFrictionCombineMode@NpMaterial@physx@@UAEXW4Enum@PxCombineMode@2@@Z 1002dcc0 f   NpMaterial.obj
 0001:0002ccf0       ?getFrictionCombineMode@NpMaterial@physx@@UBE?AW4Enum@PxCombineMode@2@XZ 1002dcf0 f   NpMaterial.obj
 0001:0002cd00       ?setRestitutionCombineMode@NpMaterial@physx@@UAEXW4Enum@PxCombineMode@2@@Z 1002dd00 f   NpMaterial.obj
 0001:0002cd20       ?getRestitutionCombineMode@NpMaterial@physx@@UBE?AW4Enum@PxCombineMode@2@XZ 1002dd20 f   NpMaterial.obj
 0001:0002cd30       ??1PxMaterial@physx@@MAE@XZ 1002dd30 f i NpMaterial.obj
 0001:0002cd40       ??1RefCountable@Cm@physx@@UAE@XZ 1002dd40 f i NpMaterial.obj
 0001:0002cd47       ??_ENpMaterial@physx@@WM@AEPAXI@Z 1002dd47 f i NpMaterial.obj
 0001:0002cd50       ??_ENpMaterial@physx@@UAEPAXI@Z 1002dd50 f i NpMaterial.obj
 0001:0002cd50       ??_GNpMaterial@physx@@UAEPAXI@Z 1002dd50 f i NpMaterial.obj
 0001:0002cdb0       ??_GPxMaterial@physx@@MAEPAXI@Z 1002ddb0 f i NpMaterial.obj
 0001:0002cdb0       ??_EPxMaterial@physx@@MAEPAXI@Z 1002ddb0 f i NpMaterial.obj
 0001:0002cde0       ??_ERefCountable@Cm@physx@@UAEPAXI@Z 1002dde0 f i NpMaterial.obj
 0001:0002cde0       ??_GRefCountable@Cm@physx@@UAEPAXI@Z 1002dde0 f i NpMaterial.obj
 0001:0002ce10       ?getConcreteTypeName@PxMaterial@physx@@UBEPBDXZ 1002de10 f i NpMaterial.obj
 0001:0002ce20       ?isKindOf@PxMaterial@physx@@MBE_NPBD@Z 1002de20 f i NpMaterial.obj
 0001:0002cea0       ?onRefCountZero@RefCountable@Cm@physx@@UAEXXZ 1002dea0 f i NpMaterial.obj
 0001:0002ceb0       ?requiresObjects@NpMaterial@physx@@UAEXAAVPxProcessPxBaseCallback@2@@Z 1002deb0 f i NpMaterial.obj
 0001:0002cec0       _PxGetPhysicsBinaryMetaData 1002dec0 f   NpMetaData.obj
 0001:0002db70       ?getBinaryMetaData_PxBase@physx@@YAXAAVPxOutputStream@1@@Z 1002eb70 f   NpMetaData.obj
 0001:0002dd00       ?getBinaryMetaData@RefCountable@Cm@physx@@SAXAAVPxOutputStream@3@@Z 1002ed00 f   NpMetaData.obj
 0001:0002ddb0       ?getBinaryMetaData@NpMaterial@physx@@SAXAAVPxOutputStream@2@@Z 1002edb0 f   NpMetaData.obj
 0001:0002df40       ?getBinaryMetaData@NpShape@physx@@SAXAAVPxOutputStream@2@@Z 1002ef40 f   NpMetaData.obj
 0001:0002e250       ?getBinaryMetaData@NpShapeManager@physx@@SAXAAVPxOutputStream@2@@Z 1002f250 f   NpMetaData.obj
 0001:0002e3e0       ?getBinaryMetaData@NpConstraint@physx@@SAXAAVPxOutputStream@2@@Z 1002f3e0 f   NpMetaData.obj
 0001:0002e610       ?getBinaryMetaData@NpConnector@physx@@SAXAAVPxOutputStream@2@@Z 1002f610 f   NpMetaData.obj
 0001:0002e760       ?getBinaryMetaData@NpConnectorArray@physx@@SAXAAVPxOutputStream@2@@Z 1002f760 f   NpMetaData.obj
 0001:0002e9e0       ?getBinaryMetaData@NpActor@physx@@SAXAAVPxOutputStream@2@@Z 1002f9e0 f   NpMetaData.obj
 0001:0002eae0       ?getBinaryMetaData@NpRigidStatic@physx@@SAXAAVPxOutputStream@2@@Z 1002fae0 f   NpMetaData.obj
 0001:0002edb0       ?getBinaryMetaData@NpRigidDynamic@physx@@SAXAAVPxOutputStream@2@@Z 1002fdb0 f   NpMetaData.obj
 0001:0002f080       ?getBinaryMetaData@NpArticulationLinkArray@physx@@SAXAAVPxOutputStream@2@@Z 10030080 f   NpMetaData.obj
 0001:0002f300       ?getBinaryMetaData@NpArticulationLink@physx@@SAXAAVPxOutputStream@2@@Z 10030300 f   NpMetaData.obj
 0001:0002f790       ?getBinaryMetaData@NpAggregate@physx@@SAXAAVPxOutputStream@2@@Z 10030790 f   NpMetaData.obj
 0001:0002f970       ?getBinaryMetaData@NpArticulationJoint@physx@@SAXAAVPxOutputStream@2@@Z 10030970 f   NpMetaData.obj
 0001:0002fb50       ?getBinaryMetaData@NpArticulation@physx@@SAXAAVPxOutputStream@2@@Z 10030b50 f   NpMetaData.obj
 0001:000310b0       _PxRegisterArticulations   100320b0 f   NpPhysics.obj
 0001:000310c0       _PxRegisterArticulationsReducedCoordinate 100320c0 f   NpPhysics.obj
 0001:000310d0       _PxRegisterHeightFields    100320d0 f   NpPhysics.obj
 0001:00031110       _PxCreateBasePhysics       10032110 f   NpPhysics.obj
 0001:00031310       _PxGetPhysics              10032310 f   NpPhysics.obj
 0001:00031320       ??0NpPhysics@physx@@AAE@ABVPxTolerancesScale@1@ABUPxvOffsetTable@1@_NPAVPsPvd@pvdsdk@1@@Z 10032320 f   NpPhysics.obj
 0001:00031550       ??1NpPhysics@physx@@EAE@XZ 10032550 f   NpPhysics.obj
 0001:00031810       ?createInstance@NpPhysics@physx@@SAPAV12@IAAVPxFoundation@2@ABVPxTolerancesScale@2@_NPAVPsPvd@pvdsdk@2@@Z 10032810 f   NpPhysics.obj
 0001:00031a10       ?releaseInstance@NpPhysics@physx@@SAIXZ 10032a10 f   NpPhysics.obj
 0001:00031a70       ?release@NpPhysics@physx@@UAEXXZ 10032a70 f   NpPhysics.obj
 0001:00031ad0       ?createScene@NpPhysics@physx@@UAEPAVPxScene@2@ABVPxSceneDesc@2@@Z 10032ad0 f   NpPhysics.obj
 0001:00031cf0       ?releaseSceneInternal@NpPhysics@physx@@QAEXAAVPxScene@2@@Z 10032cf0 f   NpPhysics.obj
 0001:00031d50       ?getNbScenes@NpPhysics@physx@@UBEIXZ 10032d50 f   NpPhysics.obj
 0001:00031d70       ?getScenes@NpPhysics@physx@@UBEIPAPAVPxScene@2@II@Z 10032d70 f   NpPhysics.obj
 0001:00031dd0       ?createRigidStatic@NpPhysics@physx@@UAEPAVPxRigidStatic@2@ABVPxTransform@2@@Z 10032dd0 f   NpPhysics.obj
 0001:00031ed0       ?createRigidDynamic@NpPhysics@physx@@UAEPAVPxRigidDynamic@2@ABVPxTransform@2@@Z 10032ed0 f   NpPhysics.obj
 0001:00031fd0       ?createArticulation@NpPhysics@physx@@UAEPAVPxArticulation@2@XZ 10032fd0 f   NpPhysics.obj
 0001:00031fe0       ?createArticulationReducedCoordinate@NpPhysics@physx@@UAEPAVPxArticulationReducedCoordinate@2@XZ 10032fe0 f   NpPhysics.obj
 0001:00031ff0       ?createConstraint@NpPhysics@physx@@UAEPAVPxConstraint@2@PAVPxRigidActor@2@0AAVPxConstraintConnector@2@ABUPxConstraintShaderTable@2@I@Z 10032ff0 f   NpPhysics.obj
 0001:00032000       ?createAggregate@NpPhysics@physx@@UAEPAVPxAggregate@2@I_N@Z 10033000 f   NpPhysics.obj
 0001:00032010       ?createShape@NpPhysics@physx@@UAEPAVPxShape@2@ABVPxGeometry@2@PBQAVPxMaterial@2@G_NV?$PxFlags@W4Enum@PxShapeFlag@physx@@E@2@@Z 10033010 f   NpPhysics.obj
 0001:000320d0       ?getNbShapes@NpPhysics@physx@@UBEIXZ 100330d0 f   NpPhysics.obj
 0001:000320e0       ?getShapes@NpPhysics@physx@@UBEIPAPAVPxShape@2@II@Z 100330e0 f   NpPhysics.obj
 0001:000320f0       ?createMaterial@NpPhysics@physx@@UAEPAVPxMaterial@2@MMM@Z 100330f0 f   NpPhysics.obj
 0001:00032220       ?getNbMaterials@NpPhysics@physx@@UBEIXZ 10033220 f   NpPhysics.obj
 0001:00032240       ?getMaterials@NpPhysics@physx@@UBEIPAPAVPxMaterial@2@II@Z 10033240 f   NpPhysics.obj
 0001:000322b0       ?createTriangleMesh@NpPhysics@physx@@UAEPAVPxTriangleMesh@2@AAVPxInputStream@2@@Z 100332b0 f   NpPhysics.obj
 0001:000322c0       ?getNbTriangleMeshes@NpPhysics@physx@@UBEIXZ 100332c0 f   NpPhysics.obj
 0001:000322d0       ?getTriangleMeshes@NpPhysics@physx@@UBEIPAPAVPxTriangleMesh@2@II@Z 100332d0 f   NpPhysics.obj
 0001:000322e0       ?createHeightField@NpPhysics@physx@@UAEPAVPxHeightField@2@AAVPxInputStream@2@@Z 100332e0 f   NpPhysics.obj
 0001:000322f0       ?getNbHeightFields@NpPhysics@physx@@UBEIXZ 100332f0 f   NpPhysics.obj
 0001:00032300       ?getHeightFields@NpPhysics@physx@@UBEIPAPAVPxHeightField@2@II@Z 10033300 f   NpPhysics.obj
 0001:00032310       ?createConvexMesh@NpPhysics@physx@@UAEPAVPxConvexMesh@2@AAVPxInputStream@2@@Z 10033310 f   NpPhysics.obj
 0001:00032320       ?getNbConvexMeshes@NpPhysics@physx@@UBEIXZ 10033320 f   NpPhysics.obj
 0001:00032330       ?getConvexMeshes@NpPhysics@physx@@UBEIPAPAVPxConvexMesh@2@II@Z 10033330 f   NpPhysics.obj
 0001:00032340       ?createBVHStructure@NpPhysics@physx@@UAEPAVPxBVHStructure@2@AAVPxInputStream@2@@Z 10033340 f   NpPhysics.obj
 0001:00032350       ?getNbBVHStructures@NpPhysics@physx@@UBEIXZ 10033350 f   NpPhysics.obj
 0001:00032360       ?getBVHStructures@NpPhysics@physx@@UBEIPAPAVPxBVHStructure@2@II@Z 10033360 f   NpPhysics.obj
 0001:00032370       ?registerPhysXIndicatorGpuClient@NpPhysics@physx@@QAEXXZ 10033370 f   NpPhysics.obj
 0001:000323a0       ?unregisterPhysXIndicatorGpuClient@NpPhysics@physx@@QAEXXZ 100333a0 f   NpPhysics.obj
 0001:000323d0       ?createPruningStructure@NpPhysics@physx@@UAEPAVPxPruningStructure@2@PBQAVPxRigidActor@2@I@Z 100333d0 f   NpPhysics.obj
 0001:00032480       ?getTolerancesScale@NpPhysics@physx@@UBEABVPxTolerancesScale@2@XZ 10033480 f   NpPhysics.obj
 0001:00032490       ?getFoundation@NpPhysics@physx@@UAEAAVPxFoundation@2@XZ 10033490 f   NpPhysics.obj
 0001:000324a0       ?registerDeletionListener@NpPhysics@physx@@UAEXAAVPxDeletionListener@2@ABV?$PxFlags@W4Enum@PxDeletionEventFlag@physx@@E@2@_N@Z 100334a0 f   NpPhysics.obj
 0001:000325e0       ?unregisterDeletionListener@NpPhysics@physx@@UAEXAAVPxDeletionListener@2@@Z 100335e0 f   NpPhysics.obj
 0001:00032660       ?registerDeletionListenerObjects@NpPhysics@physx@@UAEXAAVPxDeletionListener@2@PBQBVPxBase@2@I@Z 10033660 f   NpPhysics.obj
 0001:00032720       ?unregisterDeletionListenerObjects@NpPhysics@physx@@UAEXAAVPxDeletionListener@2@PBQBVPxBase@2@I@Z 10033720 f   NpPhysics.obj
 0001:00032860       ?notifyDeletionListeners@NpPhysics@physx@@QAEXPBVPxBase@2@PAXW4Enum@PxDeletionEventFlag@2@@Z 10033860 f   NpPhysics.obj
 0001:00032980       ?removeMaterialFromTable@NpPhysics@physx@@QAEXAAVNpMaterial@2@@Z 10033980 f   NpPhysics.obj
 0001:00032a20       ?updateMaterial@NpPhysics@physx@@QAEXAAVNpMaterial@2@@Z 10033a20 f   NpPhysics.obj
 0001:00032a70       ?sendMaterialTable@NpPhysics@physx@@QAE_NAAVNpScene@2@@Z 10033a70 f   NpPhysics.obj
 0001:00032ac0       ?addMaterial@NpPhysics@physx@@QAEPAVNpMaterial@2@PAV32@@Z 10033ac0 f   NpPhysics.obj
 0001:00032bd0       ?initOffsetTables@NpPhysics@physx@@SAXAAUPxvOffsetTable@2@@Z 10033bd0 f   NpPhysics.obj
 0001:00032c50       _PxAddCollectionToPhysics  10033c50 f   NpPhysics.obj
 0001:00032c60       ??1GuMeshFactoryListener@physx@@MAE@XZ 10033c60 f i NpPhysics.obj
 0001:00032c70       ??1PxPhysics@physx@@UAE@XZ 10033c70 f i NpPhysics.obj
 0001:00032c80       ??1PxPhysicsInsertionCallback@physx@@MAE@XZ 10033c80 f i NpPhysics.obj
 0001:00032c90       ??_GGuMeshFactoryListener@physx@@MAEPAXI@Z 10033c90 f i NpPhysics.obj
 0001:00032c90       ??_EGuMeshFactoryListener@physx@@MAEPAXI@Z 10033c90 f i NpPhysics.obj
 0001:00032cc0       ??_EMeshDeletionListener@NpPhysics@physx@@UAEPAXI@Z 10033cc0 f i NpPhysics.obj
 0001:00032cc0       ??_GMeshDeletionListener@NpPhysics@physx@@UAEPAXI@Z 10033cc0 f i NpPhysics.obj
 0001:00032cf0       ??_GNpPhysics@physx@@EAEPAXI@Z 10033cf0 f i NpPhysics.obj
 0001:00032cf0       ??_ENpPhysics@physx@@EAEPAXI@Z 10033cf0 f i NpPhysics.obj
 0001:00032d30       ??_GNpPhysicsInsertionCallback@physx@@UAEPAXI@Z 10033d30 f i NpPhysics.obj
 0001:00032d30       ??_ENpPhysicsInsertionCallback@physx@@UAEPAXI@Z 10033d30 f i NpPhysics.obj
 0001:00032d60       ??_EPxPhysics@physx@@UAEPAXI@Z 10033d60 f i NpPhysics.obj
 0001:00032d60       ??_GPxPhysics@physx@@UAEPAXI@Z 10033d60 f i NpPhysics.obj
 0001:00032d90       ??_GPxPhysicsInsertionCallback@physx@@MAEPAXI@Z 10033d90 f i NpPhysics.obj
 0001:00032d90       ??_EPxPhysicsInsertionCallback@physx@@MAEPAXI@Z 10033d90 f i NpPhysics.obj
 0001:00032dc0       ?buildObjectFromData@NpPhysicsInsertionCallback@physx@@UAEPAVPxBase@2@W4Enum@PxConcreteType@2@PAX@Z 10033dc0 f i NpPhysics.obj
 0001:00032e50       ?create@?$HashBase@PBVPxBase@physx@@PBV12@U?$Hash@PBVPxBase@physx@@@shdfnd@2@UGetKey@?$HashSetBase@PBVPxBase@physx@@U?$Hash@PBVPxBase@physx@@@shdfnd@2@VNonTrackingAllocator@42@$0A@@internal@42@VNonTrackingAllocator@42@$0A@@internal@shdfnd@physx@@QAEPAPBVPxBase@4@ABQBV54@AA_N@Z 10033e50 f i NpPhysics.obj
 0001:00032f80       ?create@?$HashBase@V?$Pair@QAVPxDeletionListener@physx@@PAUNpDelListenerEntry@NpPhysics@2@@shdfnd@physx@@PAVPxDeletionListener@3@U?$Hash@PAVPxDeletionListener@physx@@@23@UGetKey@?$HashMapBase@PAVPxDeletionListener@physx@@PAUNpDelListenerEntry@NpPhysics@2@U?$Hash@PAVPxDeletionListener@physx@@@shdfnd@2@VNonTrackingAllocator@62@@internal@23@VNonTrackingAllocator@23@$00@internal@shdfnd@physx@@QAEPAV?$Pair@QAVPxDeletionListener@physx@@PAUNpDelListenerEntry@NpPhysics@2@@34@ABQAVPxDeletionListener@4@AA_N@Z 10033f80 f i NpPhysics.obj
 0001:00033090       ?erase@?$HashBase@V?$Pair@QAVPxDeletionListener@physx@@PAUNpDelListenerEntry@NpPhysics@2@@shdfnd@physx@@PAVPxDeletionListener@3@U?$Hash@PAVPxDeletionListener@physx@@@23@UGetKey@?$HashMapBase@PAVPxDeletionListener@physx@@PAUNpDelListenerEntry@NpPhysics@2@U?$Hash@PAVPxDeletionListener@physx@@@shdfnd@2@VNonTrackingAllocator@62@@internal@23@VNonTrackingAllocator@23@$00@internal@shdfnd@physx@@QAE_NABQAVPxDeletionListener@4@@Z 10034090 f i NpPhysics.obj
 0001:000331b0       ?find@?$HashMapBase@PAVPxDeletionListener@physx@@PAUNpDelListenerEntry@NpPhysics@2@U?$Hash@PAVPxDeletionListener@physx@@@shdfnd@2@VNonTrackingAllocator@62@@internal@shdfnd@physx@@QBEPBV?$Pair@QAVPxDeletionListener@physx@@PAUNpDelListenerEntry@NpPhysics@2@@34@ABQAVPxDeletionListener@4@@Z 100341b0 f i NpPhysics.obj
 0001:00033230       ?getPhysicsInsertionCallback@NpPhysics@physx@@UAEAAVPxPhysicsInsertionCallback@2@XZ 10034230 f i NpPhysics.obj
 0001:00033240       ?growAndPushBack@?$Array@IVNamedAllocator@shdfnd@physx@@@shdfnd@physx@@IAEAAIABI@Z 10034240 f i NpPhysics.obj
 0001:00033320       ?growAndPushBack@?$Array@PAVNpScene@physx@@VNamedAllocator@shdfnd@2@@shdfnd@physx@@IAEAAPAVNpScene@3@ABQAV43@@Z 10034320 f i NpPhysics.obj
 0001:00033400       ?isValid@PxSceneDesc@physx@@QBE_NXZ 10034400 f i NpPhysics.obj
 0001:00033660       ?onGuMeshFactoryBufferRelease@MeshDeletionListener@NpPhysics@physx@@UAEXPBVPxBase@3@G@Z 10034660 f i NpPhysics.obj
 0001:00033680       ?reserveInternal@?$HashBase@PBVPxBase@physx@@PBV12@U?$Hash@PBVPxBase@physx@@@shdfnd@2@UGetKey@?$HashSetBase@PBVPxBase@physx@@U?$Hash@PBVPxBase@physx@@@shdfnd@2@VNonTrackingAllocator@42@$0A@@internal@42@VNonTrackingAllocator@42@$0A@@internal@shdfnd@physx@@AAEXI@Z 10034680 f i NpPhysics.obj
 0001:000339f0       ?reserveInternal@?$HashBase@V?$Pair@QAVPxDeletionListener@physx@@PAUNpDelListenerEntry@NpPhysics@2@@shdfnd@physx@@PAVPxDeletionListener@3@U?$Hash@PAVPxDeletionListener@physx@@@23@UGetKey@?$HashMapBase@PAVPxDeletionListener@physx@@PAUNpDelListenerEntry@NpPhysics@2@U?$Hash@PAVPxDeletionListener@physx@@@shdfnd@2@VNonTrackingAllocator@62@@internal@23@VNonTrackingAllocator@23@$00@internal@shdfnd@physx@@AAEXI@Z 100349f0 f i NpPhysics.obj
 0001:00033b80       ??0PvdSceneQueryCollector@Vd@physx@@QAE@AAVScene@Scb@2@_N@Z 10034b80 f   NpPvdSceneQueryCollector.obj
 0001:00033e20       ?release@PvdSceneQueryCollector@Vd@physx@@QAEXXZ 10034e20 f   NpPvdSceneQueryCollector.obj
 0001:00033eb0       ?raycast@PvdSceneQueryCollector@Vd@physx@@QAEXABVPxVec3@3@0MPBUPxRaycastHit@3@IABUPxQueryFilterData@3@_N@Z 10034eb0 f   NpPvdSceneQueryCollector.obj
 0001:00034140       ?sweep@PvdSceneQueryCollector@Vd@physx@@QAEXABVPxGeometry@3@ABVPxTransform@3@ABVPxVec3@3@MPBUPxSweepHit@3@IABUPxQueryFilterData@3@_N@Z 10035140 f   NpPvdSceneQueryCollector.obj
 0001:00034560       ?overlapMultiple@PvdSceneQueryCollector@Vd@physx@@QAEXABVPxGeometry@3@ABVPxTransform@3@PBUPxOverlapHit@3@IABUPxQueryFilterData@3@@Z 10035560 f   NpPvdSceneQueryCollector.obj
 0001:000348d0       ?collectAllBatchedHits@PvdSceneQueryCollector@Vd@physx@@QAEXPBU?$PxBatchQueryResult@UPxRaycastHit@physx@@@3@IIPBU?$PxBatchQueryResult@UPxOverlapHit@physx@@@3@IIPBU?$PxBatchQueryResult@UPxSweepHit@physx@@@3@II@Z 100358d0 f   NpPvdSceneQueryCollector.obj
 0001:00034eb0       ??$put@VPxConvexMeshGeometry@physx@@@PxGeometryHolder@physx@@AAEXABVPxGeometry@1@@Z 10035eb0 f i NpPvdSceneQueryCollector.obj
 0001:00034f10       ??$put@VPxHeightFieldGeometry@physx@@@PxGeometryHolder@physx@@AAEXABVPxGeometry@1@@Z 10035f10 f i NpPvdSceneQueryCollector.obj
 0001:00034f50       ??$put@VPxTriangleMeshGeometry@physx@@@PxGeometryHolder@physx@@AAEXABVPxGeometry@1@@Z 10035f50 f i NpPvdSceneQueryCollector.obj
 0001:00034fb0       ??0PvdOverlap@Vd@physx@@QAE@ABU012@@Z 10035fb0 f i NpPvdSceneQueryCollector.obj
 0001:00035030       ??0PvdRaycast@Vd@physx@@QAE@ABU012@@Z 10036030 f i NpPvdSceneQueryCollector.obj
 0001:000350a0       ??0PvdSweep@Vd@physx@@QAE@ABU012@@Z 100360a0 f i NpPvdSceneQueryCollector.obj
 0001:00035110       ?growAndPushBack@?$Array@UPvdOverlap@Vd@physx@@VNamedAllocator@shdfnd@3@@shdfnd@physx@@IAEAAUPvdOverlap@Vd@3@ABU453@@Z 10036110 f i NpPvdSceneQueryCollector.obj
 0001:00035260       ?growAndPushBack@?$Array@UPvdRaycast@Vd@physx@@VNamedAllocator@shdfnd@3@@shdfnd@physx@@IAEAAUPvdRaycast@Vd@3@ABU453@@Z 10036260 f i NpPvdSceneQueryCollector.obj
 0001:000353a0       ?growAndPushBack@?$Array@UPvdSqHit@Vd@physx@@VNamedAllocator@shdfnd@3@@shdfnd@physx@@IAEAAUPvdSqHit@Vd@3@ABU453@@Z 100363a0 f i NpPvdSceneQueryCollector.obj
 0001:00035520       ?growAndPushBack@?$Array@UPvdSweep@Vd@physx@@VNamedAllocator@shdfnd@3@@shdfnd@physx@@IAEAAUPvdSweep@Vd@3@ABU453@@Z 10036520 f i NpPvdSceneQueryCollector.obj
 0001:00035670       ?growAndPushBack@?$Array@UPxFilterData@physx@@VNamedAllocator@shdfnd@2@@shdfnd@physx@@IAEAAUPxFilterData@3@ABU43@@Z 10036670 f i NpPvdSceneQueryCollector.obj
 0001:00035760       ?growAndPushBack@?$Array@VPxGeometryHolder@physx@@VNamedAllocator@shdfnd@2@@shdfnd@physx@@IAEAAVPxGeometryHolder@3@ABV43@@Z 10036760 f i NpPvdSceneQueryCollector.obj
 0001:00035850       ?growAndPushBack@?$Array@VPxTransform@physx@@VNamedAllocator@shdfnd@2@@shdfnd@physx@@IAEAAVPxTransform@3@ABV43@@Z 10036850 f i NpPvdSceneQueryCollector.obj
 0001:000359b0       ??0NpReadCheck@physx@@QAE@PBVNpScene@1@PBD@Z 100369b0 f   NpReadCheck.obj
 0001:00035a40       ??1NpReadCheck@physx@@QAE@XZ 10036a40 f   NpReadCheck.obj
 0001:00035ab0       ?NpRigidDynamicGetShapes@physx@@YAIAAVBody@Scb@1@AAPBQAXPA_N@Z 10036ab0 f   NpRigidDynamic.obj
 0001:00035af0       ?exportData@NpRigidDynamic@physx@@UBEXAAVPxSerializationContext@2@@Z 10036af0 f   NpRigidDynamic.obj
 0001:00035bb0       ?requiresObjects@NpRigidDynamic@physx@@UAEXAAVPxProcessPxBaseCallback@2@@Z 10036bb0 f   NpRigidDynamic.obj
 0001:00035bf0       ?createObject@NpRigidDynamic@physx@@SAPAV12@AAPAEAAVPxDeserializationContext@2@@Z 10036bf0 f   NpRigidDynamic.obj
 0001:00035c90       ??1NpRigidDynamic@physx@@UAE@XZ 10036c90 f   NpRigidDynamic.obj
 0001:00035cd0       ?release@NpRigidDynamic@physx@@UAEXXZ 10036cd0 f   NpRigidDynamic.obj
 0001:00035da0       ?setGlobalPose@NpRigidDynamic@physx@@UAEXABVPxTransform@2@_N@Z 10036da0 f   NpRigidDynamic.obj
 0001:000361b0       ?setKinematicTarget@NpRigidDynamic@physx@@UAEXABVPxTransform@2@@Z 100371b0 f   NpRigidDynamic.obj
 0001:000365f0       ?getKinematicTarget@NpRigidDynamic@physx@@UBE_NAAVPxTransform@2@@Z 100375f0 f   NpRigidDynamic.obj
 0001:00036a50       ?setCMassLocalPose@NpRigidDynamic@physx@@UAEXABVPxTransform@2@@Z 10037a50 f   NpRigidDynamic.obj
 0001:00037370       ?setLinearDamping@NpRigidDynamic@physx@@UAEXM@Z 10038370 f   NpRigidDynamic.obj
 0001:000374c0       ?getLinearDamping@NpRigidDynamic@physx@@UBEMXZ 100384c0 f   NpRigidDynamic.obj
 0001:00037530       ?setAngularDamping@NpRigidDynamic@physx@@UAEXM@Z 10038530 f   NpRigidDynamic.obj
 0001:00037680       ?getAngularDamping@NpRigidDynamic@physx@@UBEMXZ 10038680 f   NpRigidDynamic.obj
 0001:000376f0       ?setLinearVelocity@NpRigidDynamic@physx@@UAEXABVPxVec3@2@_N@Z 100386f0 f   NpRigidDynamic.obj
 0001:00037930       ?setAngularVelocity@NpRigidDynamic@physx@@UAEXABVPxVec3@2@_N@Z 10038930 f   NpRigidDynamic.obj
 0001:00037b70       ?setMaxAngularVelocity@NpRigidDynamic@physx@@UAEXM@Z 10038b70 f   NpRigidDynamic.obj
 0001:00037cc0       ?getMaxAngularVelocity@NpRigidDynamic@physx@@UBEMXZ 10038cc0 f   NpRigidDynamic.obj
 0001:00037d30       ?setMaxLinearVelocity@NpRigidDynamic@physx@@UAEXM@Z 10038d30 f   NpRigidDynamic.obj
 0001:00037e80       ?getMaxLinearVelocity@NpRigidDynamic@physx@@UBEMXZ 10038e80 f   NpRigidDynamic.obj
 0001:00037ef0       ?addForce@NpRigidDynamic@physx@@UAEXABVPxVec3@2@W4Enum@PxForceMode@2@_N@Z 10038ef0 f   NpRigidDynamic.obj
 0001:00038150       ?clearForce@NpRigidDynamic@physx@@UAEXW4Enum@PxForceMode@2@@Z 10039150 f   NpRigidDynamic.obj
 0001:000382a0       ?addTorque@NpRigidDynamic@physx@@UAEXABVPxVec3@2@W4Enum@PxForceMode@2@_N@Z 100392a0 f   NpRigidDynamic.obj
 0001:00038500       ?clearTorque@NpRigidDynamic@physx@@UAEXW4Enum@PxForceMode@2@@Z 10039500 f   NpRigidDynamic.obj
 0001:00038650       ?setForceAndTorque@NpRigidDynamic@physx@@UAEXABVPxVec3@2@0W4Enum@PxForceMode@2@@Z 10039650 f   NpRigidDynamic.obj
 0001:00038910       ?isSleeping@NpRigidDynamic@physx@@UBE_NXZ 10039910 f   NpRigidDynamic.obj
 0001:000389a0       ?getSleepThreshold@NpRigidDynamic@physx@@UBEMXZ 100399a0 f   NpRigidDynamic.obj
 0001:00038a00       ?setSleepThreshold@NpRigidDynamic@physx@@UAEXM@Z 10039a00 f   NpRigidDynamic.obj
 0001:00038b50       ?getStabilizationThreshold@NpRigidDynamic@physx@@UBEMXZ 10039b50 f   NpRigidDynamic.obj
 0001:00038bb0       ?setStabilizationThreshold@NpRigidDynamic@physx@@UAEXM@Z 10039bb0 f   NpRigidDynamic.obj
 0001:00038d00       ?setWakeCounter@NpRigidDynamic@physx@@UAEXM@Z 10039d00 f   NpRigidDynamic.obj
 0001:00038f00       ?getWakeCounter@NpRigidDynamic@physx@@UBEMXZ 10039f00 f   NpRigidDynamic.obj
 0001:00038f40       ?wakeUp@NpRigidDynamic@physx@@UAEXXZ 10039f40 f   NpRigidDynamic.obj
 0001:00039070       ?putToSleep@NpRigidDynamic@physx@@UAEXXZ 1003a070 f   NpRigidDynamic.obj
 0001:00039190       ?setSolverIterationCounts@NpRigidDynamic@physx@@UAEXII@Z 1003a190 f   NpRigidDynamic.obj
 0001:000392d0       ?getSolverIterationCounts@NpRigidDynamic@physx@@UBEXAAI0@Z 1003a2d0 f   NpRigidDynamic.obj
 0001:00039340       ?setContactReportThreshold@NpRigidDynamic@physx@@UAEXM@Z 1003a340 f   NpRigidDynamic.obj
 0001:00039490       ?getContactReportThreshold@NpRigidDynamic@physx@@UBEMXZ 1003a490 f   NpRigidDynamic.obj
 0001:000394f0       ?getRigidDynamicLockFlags@NpRigidDynamic@physx@@UBE?AV?$PxFlags@W4Enum@PxRigidDynamicLockFlag@physx@@G@2@XZ 1003a4f0 f   NpRigidDynamic.obj
 0001:00039530       ?setRigidDynamicLockFlags@NpRigidDynamic@physx@@UAEXV?$PxFlags@W4Enum@PxRigidDynamicLockFlag@physx@@G@2@@Z 1003a530 f   NpRigidDynamic.obj
 0001:00039550       ?setRigidDynamicLockFlag@NpRigidDynamic@physx@@UAEXW4Enum@PxRigidDynamicLockFlag@2@_N@Z 1003a550 f   NpRigidDynamic.obj
 0001:000395b0       ??0NpRigidDynamic@physx@@QAE@ABVPxTransform@1@@Z 1003a5b0 f   NpRigidDynamic.obj
 0001:000396e0       ?switchToNoSim@NpRigidDynamic@physx@@UAEXXZ 1003a6e0 f   NpRigidDynamic.obj
 0001:000397f0       ?switchFromNoSim@NpRigidDynamic@physx@@UAEXXZ 1003a7f0 f   NpRigidDynamic.obj
 0001:00039810       ?wakeUpInternalNoKinematicTest@NpRigidDynamic@physx@@QAEXAAVBody@Scb@2@_N1@Z 1003a810 f   NpRigidDynamic.obj
 0001:00039880       ?visualize@NpRigidDynamic@physx@@QAEXAAVRenderOutput@Cm@2@PAVNpScene@2@@Z 1003a880 f   NpRigidDynamic.obj
 0001:00039af0       ??0?$NpActorTemplate@VPxRigidDynamic@physx@@@physx@@QAE@GV?$PxFlags@W4Enum@PxBaseFlag@physx@@G@1@PBDPAX@Z 1003aaf0 f i NpRigidDynamic.obj
 0001:00039b40       ??0?$NpRigidActorTemplate@VPxRigidDynamic@physx@@@physx@@QAE@GV?$PxFlags@W4Enum@PxBaseFlag@physx@@G@1@@Z 1003ab40 f i NpRigidDynamic.obj
 0001:00039b90       ??0?$NpRigidBodyTemplate@VPxRigidDynamic@physx@@@physx@@QAE@GV?$PxFlags@W4Enum@PxBaseFlag@physx@@G@1@W4Enum@PxActorType@1@ABVPxTransform@1@@Z 1003ab90 f i NpRigidDynamic.obj
 0001:00039cc0       ??1?$NpActorTemplate@VPxRigidDynamic@physx@@@physx@@UAE@XZ 1003acc0 f i NpRigidDynamic.obj
 0001:00039cf0       ??1?$NpRigidActorTemplate@VPxRigidDynamic@physx@@@physx@@UAE@XZ 1003acf0 f i NpRigidDynamic.obj
 0001:00039d20       ??1?$NpRigidBodyTemplate@VPxRigidDynamic@physx@@@physx@@UAE@XZ 1003ad20 f i NpRigidDynamic.obj
 0001:00039d60       ??1PxRigidDynamic@physx@@MAE@XZ 1003ad60 f i NpRigidDynamic.obj
 0001:00039d70       ??_G?$NpActorTemplate@VPxRigidDynamic@physx@@@physx@@UAEPAXI@Z 1003ad70 f i NpRigidDynamic.obj
 0001:00039d70       ??_E?$NpActorTemplate@VPxRigidDynamic@physx@@@physx@@UAEPAXI@Z 1003ad70 f i NpRigidDynamic.obj
 0001:00039dc0       ??_G?$NpRigidActorTemplate@VPxRigidDynamic@physx@@@physx@@UAEPAXI@Z 1003adc0 f i NpRigidDynamic.obj
 0001:00039dc0       ??_E?$NpRigidActorTemplate@VPxRigidDynamic@physx@@@physx@@UAEPAXI@Z 1003adc0 f i NpRigidDynamic.obj
 0001:00039e20       ??_G?$NpRigidBodyTemplate@VPxRigidDynamic@physx@@@physx@@UAEPAXI@Z 1003ae20 f i NpRigidDynamic.obj
 0001:00039e20       ??_E?$NpRigidBodyTemplate@VPxRigidDynamic@physx@@@physx@@UAEPAXI@Z 1003ae20 f i NpRigidDynamic.obj
 0001:00039e90       ??_GNpRigidDynamic@physx@@UAEPAXI@Z 1003ae90 f i NpRigidDynamic.obj
 0001:00039e90       ??_ENpRigidDynamic@physx@@UAEPAXI@Z 1003ae90 f i NpRigidDynamic.obj
 0001:00039f00       ??_GPxRigidDynamic@physx@@MAEPAXI@Z 1003af00 f i NpRigidDynamic.obj
 0001:00039f00       ??_EPxRigidDynamic@physx@@MAEPAXI@Z 1003af00 f i NpRigidDynamic.obj
 0001:00039f30       ?addSpatialForce@?$NpRigidBodyTemplate@VPxRigidDynamic@physx@@@physx@@IAEXPBVPxVec3@2@0W4Enum@PxForceMode@2@@Z 1003af30 f i NpRigidDynamic.obj
 0001:0003a1c0       ?attachShape@?$NpRigidActorTemplate@VPxRigidDynamic@physx@@@physx@@UAE_NAAVPxShape@2@@Z 1003b1c0 f i NpRigidDynamic.obj
 0001:0003a2c0       ?attachShape@?$NpRigidBodyTemplate@VPxRigidDynamic@physx@@@physx@@UAE_NAAVPxShape@2@@Z 1003b2c0 f i NpRigidDynamic.obj
 0001:0003a530       ?clearSpatialForce@?$NpRigidBodyTemplate@VPxRigidDynamic@physx@@@physx@@IAEXW4Enum@PxForceMode@2@_N1@Z 1003b530 f i NpRigidDynamic.obj
 0001:0003a710       ?detachShape@?$NpRigidActorTemplate@VPxRigidDynamic@physx@@@physx@@UAEXAAVPxShape@2@_N@Z 1003b710 f i NpRigidDynamic.obj
 0001:0003a7b0       ?exportExtraData@?$NpActorTemplate@VPxRigidDynamic@physx@@@physx@@UAEXAAVPxSerializationContext@2@@Z 1003b7b0 f i NpRigidDynamic.obj
 0001:0003a7c0       ?exportExtraData@?$NpRigidActorTemplate@VPxRigidDynamic@physx@@@physx@@UAEXAAVPxSerializationContext@2@@Z 1003b7c0 f i NpRigidDynamic.obj
 0001:0003a7e0       ?getActorFlags@?$NpActorTemplate@VPxRigidDynamic@physx@@@physx@@UBE?AV?$PxFlags@W4Enum@PxActorFlag@physx@@E@2@XZ 1003b7e0 f i NpRigidDynamic.obj
 0001:0003a850       ?getActorFlags@Actor@Scb@physx@@QBE?AV?$PxFlags@W4Enum@PxActorFlag@physx@@E@3@XZ 1003b850 f i NpRigidDynamic.obj
 0001:0003a880       ?getAggregate@?$NpActorTemplate@VPxRigidDynamic@physx@@@physx@@UBEPAVPxAggregate@2@XZ 1003b880 f i NpRigidDynamic.obj
 0001:0003a890       ?getAngularVelocity@?$NpRigidBodyTemplate@VPxRigidDynamic@physx@@@physx@@UBE?AVPxVec3@2@XZ 1003b890 f i NpRigidDynamic.obj
 0001:0003a8e0       ?getCMassLocalPose@?$NpRigidBodyTemplate@VPxRigidDynamic@physx@@@physx@@UBE?AVPxTransform@2@XZ 1003b8e0 f i NpRigidDynamic.obj
 0001:0003a960       ?getConcreteTypeName@PxRigidDynamic@physx@@UBEPBDXZ 1003b960 f i NpRigidDynamic.obj
 0001:0003a970       ?getConstraints@?$NpRigidActorTemplate@VPxRigidDynamic@physx@@@physx@@UBEIPAPAVPxConstraint@2@II@Z 1003b970 f i NpRigidDynamic.obj
 0001:0003a9f0       ?getDominanceGroup@?$NpActorTemplate@VPxRigidDynamic@physx@@@physx@@UBEEXZ 1003b9f0 f i NpRigidDynamic.obj
 0001:0003aa60       ?getFlags@Body@Scb@physx@@QBE?AV?$PxFlags@W4Enum@PxRigidBodyFlag@physx@@E@3@XZ 1003ba60 f i NpRigidDynamic.obj
 0001:0003aa90       ?getGlobalPose@NpRigidDynamic@physx@@UBE?AVPxTransform@2@XZ 1003ba90 f i NpRigidDynamic.obj
 0001:0003ae90       ?getInternalIslandNodeIndex@?$NpRigidBodyTemplate@VPxRigidDynamic@physx@@@physx@@UBEIXZ 1003be90 f i NpRigidDynamic.obj
 0001:0003aed0       ?getInvMass@?$NpRigidBodyTemplate@VPxRigidDynamic@physx@@@physx@@UBEMXZ 1003bed0 f i NpRigidDynamic.obj
 0001:0003af40       ?getLinearVelocity@?$NpRigidBodyTemplate@VPxRigidDynamic@physx@@@physx@@UBE?AVPxVec3@2@XZ 1003bf40 f i NpRigidDynamic.obj
 0001:0003af90       ?getMass@?$NpRigidBodyTemplate@VPxRigidDynamic@physx@@@physx@@UBEMXZ 1003bf90 f i NpRigidDynamic.obj
 0001:0003b020       ?getMassSpaceInertiaTensor@?$NpRigidBodyTemplate@VPxRigidDynamic@physx@@@physx@@UBE?AVPxVec3@2@XZ 1003c020 f i NpRigidDynamic.obj
 0001:0003b0d0       ?getMassSpaceInvInertiaTensor@?$NpRigidBodyTemplate@VPxRigidDynamic@physx@@@physx@@UBE?AVPxVec3@2@XZ 1003c0d0 f i NpRigidDynamic.obj
 0001:0003b130       ?getMaxContactImpulse@?$NpRigidBodyTemplate@VPxRigidDynamic@physx@@@physx@@UBEMXZ 1003c130 f i NpRigidDynamic.obj
 0001:0003b190       ?getMaxDepenetrationVelocity@?$NpRigidBodyTemplate@VPxRigidDynamic@physx@@@physx@@UBEMXZ 1003c190 f i NpRigidDynamic.obj
 0001:0003b200       ?getMinCCDAdvanceCoefficient@?$NpRigidBodyTemplate@VPxRigidDynamic@physx@@@physx@@UBEMXZ 1003c200 f i NpRigidDynamic.obj
 0001:0003b260       ?getName@?$NpActorTemplate@VPxRigidDynamic@physx@@@physx@@UBEPBDXZ 1003c260 f i NpRigidDynamic.obj
 0001:0003b2a0       ?getNbConstraints@?$NpRigidActorTemplate@VPxRigidDynamic@physx@@@physx@@UBEIXZ 1003c2a0 f i NpRigidDynamic.obj
 0001:0003b2e0       ?getNbShapes@?$NpRigidActorTemplate@VPxRigidDynamic@physx@@@physx@@UBEIXZ 1003c2e0 f i NpRigidDynamic.obj
 0001:0003b320       ?getOwnerClient@?$NpActorTemplate@VPxRigidDynamic@physx@@@physx@@UBEEXZ 1003c320 f i NpRigidDynamic.obj
 0001:0003b350       ?getRigidBodyFlags@?$NpRigidBodyTemplate@VPxRigidDynamic@physx@@@physx@@UBE?AV?$PxFlags@W4Enum@PxRigidBodyFlag@physx@@E@2@XZ 1003c350 f i NpRigidDynamic.obj
 0001:0003b3a0       ?getScene@?$NpActorTemplate@VPxRigidDynamic@physx@@@physx@@UBEPAVPxScene@2@XZ 1003c3a0 f i NpRigidDynamic.obj
 0001:0003b3b0       ?getShapes@?$NpRigidActorTemplate@VPxRigidDynamic@physx@@@physx@@UBEIPAPAVPxShape@2@II@Z 1003c3b0 f i NpRigidDynamic.obj
 0001:0003b400       ?getType@NpRigidDynamic@physx@@UBE?AW4Enum@PxActorType@2@XZ 1003c400 f i NpRigidDynamic.obj
 0001:0003b410       ?getWorldBounds@?$NpRigidActorTemplate@VPxRigidDynamic@physx@@@physx@@UBE?AVPxBounds3@2@M@Z 1003c410 f i NpRigidDynamic.obj
 0001:0003b560       ?importExtraData@?$NpActorTemplate@VPxRigidDynamic@physx@@@physx@@UAEXAAVPxDeserializationContext@2@@Z 1003c560 f i NpRigidDynamic.obj
 0001:0003b570       ?importExtraData@?$NpRigidActorTemplate@VPxRigidDynamic@physx@@@physx@@UAEXAAVPxDeserializationContext@2@@Z 1003c570 f i NpRigidDynamic.obj
 0001:0003b590       ?isKindOf@PxRigidDynamic@physx@@MBE_NPBD@Z 1003c590 f i NpRigidDynamic.obj
 0001:0003b6a0       ?release@?$NpActorTemplate@VPxRigidDynamic@physx@@@physx@@UAEXXZ 1003c6a0 f i NpRigidDynamic.obj
 0001:0003b6b0       ?release@?$NpRigidActorTemplate@VPxRigidDynamic@physx@@@physx@@UAEXXZ 1003c6b0 f i NpRigidDynamic.obj
 0001:0003b710       ?requiresObjects@?$NpRigidActorTemplate@VPxRigidDynamic@physx@@@physx@@UAEXAAVPxProcessPxBaseCallback@2@@Z 1003c710 f i NpRigidDynamic.obj
 0001:0003b750       ?resolveReferences@?$NpActorTemplate@VPxRigidDynamic@physx@@@physx@@UAEXAAVPxDeserializationContext@2@@Z 1003c750 f i NpRigidDynamic.obj
 0001:0003b760       ?resolveReferences@?$NpRigidActorTemplate@VPxRigidDynamic@physx@@@physx@@UAEXAAVPxDeserializationContext@2@@Z 1003c760 f i NpRigidDynamic.obj
 0001:0003b7c0       ?setActorFlag@?$NpActorTemplate@VPxRigidDynamic@physx@@@physx@@UAEXW4Enum@PxActorFlag@2@_N@Z 1003c7c0 f i NpRigidDynamic.obj
 0001:0003b870       ?setActorFlag@?$NpRigidActorTemplate@VPxRigidDynamic@physx@@@physx@@UAEXW4Enum@PxActorFlag@2@_N@Z 1003c870 f i NpRigidDynamic.obj
 0001:0003ba40       ?setActorFlags@?$NpActorTemplate@VPxRigidDynamic@physx@@@physx@@UAEXV?$PxFlags@W4Enum@PxActorFlag@physx@@E@2@@Z 1003ca40 f i NpRigidDynamic.obj
 0001:0003ba90       ?setActorFlags@?$NpRigidActorTemplate@VPxRigidDynamic@physx@@@physx@@UAEXV?$PxFlags@W4Enum@PxActorFlag@physx@@E@2@@Z 1003ca90 f i NpRigidDynamic.obj
 0001:0003bbe0       ?setCMassLocalPoseInternal@?$NpRigidBodyTemplate@VPxRigidDynamic@physx@@@physx@@IAEXABVPxTransform@2@@Z 1003cbe0 f i NpRigidDynamic.obj
 0001:0003bf80       ?setDominanceGroup@?$NpActorTemplate@VPxRigidDynamic@physx@@@physx@@UAEXE@Z 1003cf80 f i NpRigidDynamic.obj
 0001:0003c050       ?setKinematicTarget@Body@Scb@physx@@QAEXABVPxTransform@3@@Z 1003d050 f i NpRigidDynamic.obj
 0001:0003c190       ?setLockFlags@Body@Scb@physx@@QAEXV?$PxFlags@W4Enum@PxRigidDynamicLockFlag@physx@@G@3@@Z 1003d190 f i NpRigidDynamic.obj
 0001:0003c220       ?setMass@?$NpRigidBodyTemplate@VPxRigidDynamic@physx@@@physx@@UAEXM@Z 1003d220 f i NpRigidDynamic.obj
 0001:0003c3f0       ?setMassSpaceInertiaTensor@?$NpRigidBodyTemplate@VPxRigidDynamic@physx@@@physx@@UAEXABVPxVec3@2@@Z 1003d3f0 f i NpRigidDynamic.obj
 0001:0003c680       ?setMaxContactImpulse@?$NpRigidBodyTemplate@VPxRigidDynamic@physx@@@physx@@UAEXM@Z 1003d680 f i NpRigidDynamic.obj
 0001:0003c780       ?setMaxDepenetrationVelocity@?$NpRigidBodyTemplate@VPxRigidDynamic@physx@@@physx@@UAEXM@Z 1003d780 f i NpRigidDynamic.obj
 0001:0003c880       ?setMinCCDAdvanceCoefficient@?$NpRigidBodyTemplate@VPxRigidDynamic@physx@@@physx@@UAEXM@Z 1003d880 f i NpRigidDynamic.obj
 0001:0003c940       ?setName@?$NpActorTemplate@VPxRigidDynamic@physx@@@physx@@UAEXPBD@Z 1003d940 f i NpRigidDynamic.obj
 0001:0003c9b0       ?setOwnerClient@?$NpActorTemplate@VPxRigidDynamic@physx@@@physx@@UAEXE@Z 1003d9b0 f i NpRigidDynamic.obj
 0001:0003ca90       ?setRigidBodyFlag@?$NpRigidBodyTemplate@VPxRigidDynamic@physx@@@physx@@UAEXW4Enum@PxRigidBodyFlag@2@_N@Z 1003da90 f i NpRigidDynamic.obj
 0001:0003cdc0       ?setRigidBodyFlags@?$NpRigidBodyTemplate@VPxRigidDynamic@physx@@@physx@@UAEXV?$PxFlags@W4Enum@PxRigidBodyFlag@physx@@E@2@@Z 1003ddc0 f i NpRigidDynamic.obj
 0001:0003d0e0       ?setSpatialForce@?$NpRigidBodyTemplate@VPxRigidDynamic@physx@@@physx@@IAEXPBVPxVec3@2@0W4Enum@PxForceMode@2@@Z 1003e0e0 f i NpRigidDynamic.obj
 0001:0003d370       ?switchFromNoSim@?$NpRigidActorTemplate@VPxRigidDynamic@physx@@@physx@@UAEXXZ 1003e370 f i NpRigidDynamic.obj
 0001:0003d380       ?switchToNoSim@?$NpRigidActorTemplate@VPxRigidDynamic@physx@@@physx@@UAEXXZ 1003e380 f i NpRigidDynamic.obj
 0001:0003d390       ?updateShaderComs@?$NpRigidActorTemplate@VPxRigidDynamic@physx@@@physx@@QAEXXZ 1003e390 f i NpRigidDynamic.obj
 0001:0003d3f0       ?visualize@?$NpRigidActorTemplate@VPxRigidDynamic@physx@@@physx@@QAEXAAVRenderOutput@Cm@2@PAVNpScene@2@@Z 1003e3f0 f i NpRigidDynamic.obj
 0001:0003d410       ?visualize@?$NpRigidBodyTemplate@VPxRigidDynamic@physx@@@physx@@QAEXAAVRenderOutput@Cm@2@PAVNpScene@2@@Z 1003e410 f i NpRigidDynamic.obj
 0001:0003d7a0       ?NpRigidStaticGetShapes@physx@@YAIAAVRigidStatic@Scb@1@AAPBQAX@Z 1003e7a0 f   NpRigidStatic.obj
 0001:0003d7e0       ?exportData@NpRigidStatic@physx@@UBEXAAVPxSerializationContext@2@@Z 1003e7e0 f   NpRigidStatic.obj
 0001:0003d840       ?requiresObjects@NpRigidStatic@physx@@UAEXAAVPxProcessPxBaseCallback@2@@Z 1003e840 f   NpRigidStatic.obj
 0001:0003d880       ?createObject@NpRigidStatic@physx@@SAPAV12@AAPAEAAVPxDeserializationContext@2@@Z 1003e880 f   NpRigidStatic.obj
 0001:0003d900       ??1NpRigidStatic@physx@@UAE@XZ 1003e900 f   NpRigidStatic.obj
 0001:0003d940       ?release@NpRigidStatic@physx@@UAEXXZ 1003e940 f   NpRigidStatic.obj
 0001:0003da10       ?setGlobalPose@NpRigidStatic@physx@@UAEXABVPxTransform@2@_N@Z 1003ea10 f   NpRigidStatic.obj
 0001:0003dcc0       ?getGlobalPose@NpRigidStatic@physx@@UBE?AVPxTransform@2@XZ 1003ecc0 f   NpRigidStatic.obj
 0001:0003dd30       ??0NpRigidStatic@physx@@QAE@ABVPxTransform@1@@Z 1003ed30 f   NpRigidStatic.obj
 0001:0003dde0       ?switchToNoSim@NpRigidStatic@physx@@UAEXXZ 1003ede0 f   NpRigidStatic.obj
 0001:0003de00       ?switchFromNoSim@NpRigidStatic@physx@@UAEXXZ 1003ee00 f   NpRigidStatic.obj
 0001:0003de20       ?checkConstraintValidity@NpRigidStatic@physx@@QBE_NXZ 1003ee20 f   NpRigidStatic.obj
 0001:0003de70       ?visualize@NpRigidStatic@physx@@QAEXAAVRenderOutput@Cm@2@PAVNpScene@2@@Z 1003ee70 f   NpRigidStatic.obj
 0001:0003df90       ??0?$NpActorTemplate@VPxRigidStatic@physx@@@physx@@QAE@GV?$PxFlags@W4Enum@PxBaseFlag@physx@@G@1@PBDPAX@Z 1003ef90 f i NpRigidStatic.obj
 0001:0003dfe0       ??0?$NpRigidActorTemplate@VPxRigidStatic@physx@@@physx@@QAE@GV?$PxFlags@W4Enum@PxBaseFlag@physx@@G@1@@Z 1003efe0 f i NpRigidStatic.obj
 0001:0003e030       ??1?$NpActorTemplate@VPxRigidStatic@physx@@@physx@@UAE@XZ 1003f030 f i NpRigidStatic.obj
 0001:0003e060       ??1?$NpRigidActorTemplate@VPxRigidStatic@physx@@@physx@@UAE@XZ 1003f060 f i NpRigidStatic.obj
 0001:0003e090       ??1PxRigidStatic@physx@@MAE@XZ 1003f090 f i NpRigidStatic.obj
 0001:0003e0a0       ??_G?$NpActorTemplate@VPxRigidStatic@physx@@@physx@@UAEPAXI@Z 1003f0a0 f i NpRigidStatic.obj
 0001:0003e0a0       ??_E?$NpActorTemplate@VPxRigidStatic@physx@@@physx@@UAEPAXI@Z 1003f0a0 f i NpRigidStatic.obj
 0001:0003e0f0       ??_G?$NpRigidActorTemplate@VPxRigidStatic@physx@@@physx@@UAEPAXI@Z 1003f0f0 f i NpRigidStatic.obj
 0001:0003e0f0       ??_E?$NpRigidActorTemplate@VPxRigidStatic@physx@@@physx@@UAEPAXI@Z 1003f0f0 f i NpRigidStatic.obj
 0001:0003e150       ??_ENpRigidStatic@physx@@UAEPAXI@Z 1003f150 f i NpRigidStatic.obj
 0001:0003e150       ??_GNpRigidStatic@physx@@UAEPAXI@Z 1003f150 f i NpRigidStatic.obj
 0001:0003e1c0       ??_GPxRigidStatic@physx@@MAEPAXI@Z 1003f1c0 f i NpRigidStatic.obj
 0001:0003e1c0       ??_EPxRigidStatic@physx@@MAEPAXI@Z 1003f1c0 f i NpRigidStatic.obj
 0001:0003e1f0       ?attachShape@?$NpRigidActorTemplate@VPxRigidStatic@physx@@@physx@@UAE_NAAVPxShape@2@@Z 1003f1f0 f i NpRigidStatic.obj
 0001:0003e2f0       ?detachShape@?$NpRigidActorTemplate@VPxRigidStatic@physx@@@physx@@UAEXAAVPxShape@2@_N@Z 1003f2f0 f i NpRigidStatic.obj
 0001:0003e390       ?exportExtraData@?$NpActorTemplate@VPxRigidStatic@physx@@@physx@@UAEXAAVPxSerializationContext@2@@Z 1003f390 f i NpRigidStatic.obj
 0001:0003e3a0       ?exportExtraData@?$NpRigidActorTemplate@VPxRigidStatic@physx@@@physx@@UAEXAAVPxSerializationContext@2@@Z 1003f3a0 f i NpRigidStatic.obj
 0001:0003e3c0       ?getActorFlags@?$NpActorTemplate@VPxRigidStatic@physx@@@physx@@UBE?AV?$PxFlags@W4Enum@PxActorFlag@physx@@E@2@XZ 1003f3c0 f i NpRigidStatic.obj
 0001:0003e430       ?getAggregate@?$NpActorTemplate@VPxRigidStatic@physx@@@physx@@UBEPAVPxAggregate@2@XZ 1003f430 f i NpRigidStatic.obj
 0001:0003e440       ?getConcreteTypeName@PxRigidStatic@physx@@UBEPBDXZ 1003f440 f i NpRigidStatic.obj
 0001:0003e450       ?getConstraints@?$NpRigidActorTemplate@VPxRigidStatic@physx@@@physx@@UBEIPAPAVPxConstraint@2@II@Z 1003f450 f i NpRigidStatic.obj
 0001:0003e4d0       ?getDominanceGroup@?$NpActorTemplate@VPxRigidStatic@physx@@@physx@@UBEEXZ 1003f4d0 f i NpRigidStatic.obj
 0001:0003e540       ?getName@?$NpActorTemplate@VPxRigidStatic@physx@@@physx@@UBEPBDXZ 1003f540 f i NpRigidStatic.obj
 0001:0003e580       ?getNbConstraints@?$NpRigidActorTemplate@VPxRigidStatic@physx@@@physx@@UBEIXZ 1003f580 f i NpRigidStatic.obj
 0001:0003e5c0       ?getNbShapes@?$NpRigidActorTemplate@VPxRigidStatic@physx@@@physx@@UBEIXZ 1003f5c0 f i NpRigidStatic.obj
 0001:0003e600       ?getOwnerClient@?$NpActorTemplate@VPxRigidStatic@physx@@@physx@@UBEEXZ 1003f600 f i NpRigidStatic.obj
 0001:0003e630       ?getScene@?$NpActorTemplate@VPxRigidStatic@physx@@@physx@@UBEPAVPxScene@2@XZ 1003f630 f i NpRigidStatic.obj
 0001:0003e640       ?getShapes@?$NpRigidActorTemplate@VPxRigidStatic@physx@@@physx@@UBEIPAPAVPxShape@2@II@Z 1003f640 f i NpRigidStatic.obj
 0001:0003e690       ?getType@NpRigidStatic@physx@@UBE?AW4Enum@PxActorType@2@XZ 1003f690 f i NpRigidStatic.obj
 0001:0003e6a0       ?getWorldBounds@?$NpRigidActorTemplate@VPxRigidStatic@physx@@@physx@@UBE?AVPxBounds3@2@M@Z 1003f6a0 f i NpRigidStatic.obj
 0001:0003e7f0       ?importExtraData@?$NpActorTemplate@VPxRigidStatic@physx@@@physx@@UAEXAAVPxDeserializationContext@2@@Z 1003f7f0 f i NpRigidStatic.obj
 0001:0003e800       ?importExtraData@?$NpRigidActorTemplate@VPxRigidStatic@physx@@@physx@@UAEXAAVPxDeserializationContext@2@@Z 1003f800 f i NpRigidStatic.obj
 0001:0003e820       ?isKindOf@PxRigidStatic@physx@@MBE_NPBD@Z 1003f820 f i NpRigidStatic.obj
 0001:0003e880       ?release@?$NpActorTemplate@VPxRigidStatic@physx@@@physx@@UAEXXZ 1003f880 f i NpRigidStatic.obj
 0001:0003e890       ?release@?$NpRigidActorTemplate@VPxRigidStatic@physx@@@physx@@UAEXXZ 1003f890 f i NpRigidStatic.obj
 0001:0003e8f0       ?requiresObjects@?$NpRigidActorTemplate@VPxRigidStatic@physx@@@physx@@UAEXAAVPxProcessPxBaseCallback@2@@Z 1003f8f0 f i NpRigidStatic.obj
 0001:0003e930       ?resolveReferences@?$NpActorTemplate@VPxRigidStatic@physx@@@physx@@UAEXAAVPxDeserializationContext@2@@Z 1003f930 f i NpRigidStatic.obj
 0001:0003e940       ?resolveReferences@?$NpRigidActorTemplate@VPxRigidStatic@physx@@@physx@@UAEXAAVPxDeserializationContext@2@@Z 1003f940 f i NpRigidStatic.obj
 0001:0003e9a0       ?setActorFlag@?$NpActorTemplate@VPxRigidStatic@physx@@@physx@@UAEXW4Enum@PxActorFlag@2@_N@Z 1003f9a0 f i NpRigidStatic.obj
 0001:0003ea50       ?setActorFlag@?$NpRigidActorTemplate@VPxRigidStatic@physx@@@physx@@UAEXW4Enum@PxActorFlag@2@_N@Z 1003fa50 f i NpRigidStatic.obj
 0001:0003ec10       ?setActorFlags@?$NpActorTemplate@VPxRigidStatic@physx@@@physx@@UAEXV?$PxFlags@W4Enum@PxActorFlag@physx@@E@2@@Z 1003fc10 f i NpRigidStatic.obj
 0001:0003ec60       ?setActorFlags@?$NpRigidActorTemplate@VPxRigidStatic@physx@@@physx@@UAEXV?$PxFlags@W4Enum@PxActorFlag@physx@@E@2@@Z 1003fc60 f i NpRigidStatic.obj
 0001:0003edb0       ?setDominanceGroup@?$NpActorTemplate@VPxRigidStatic@physx@@@physx@@UAEXE@Z 1003fdb0 f i NpRigidStatic.obj
 0001:0003ee80       ?setName@?$NpActorTemplate@VPxRigidStatic@physx@@@physx@@UAEXPBD@Z 1003fe80 f i NpRigidStatic.obj
 0001:0003eef0       ?setOwnerClient@?$NpActorTemplate@VPxRigidStatic@physx@@@physx@@UAEXE@Z 1003fef0 f i NpRigidStatic.obj
 0001:0003efd0       ?switchFromNoSim@?$NpRigidActorTemplate@VPxRigidStatic@physx@@@physx@@UAEXXZ 1003ffd0 f i NpRigidStatic.obj
 0001:0003efe0       ?switchToNoSim@?$NpRigidActorTemplate@VPxRigidStatic@physx@@@physx@@UAEXXZ 1003ffe0 f i NpRigidStatic.obj
 0001:0003eff0       ?updateShaderComs@?$NpRigidActorTemplate@VPxRigidStatic@physx@@@physx@@QAEXXZ 1003fff0 f i NpRigidStatic.obj
 0001:0003f050       ?visualize@?$NpRigidActorTemplate@VPxRigidStatic@physx@@@physx@@QAEXAAVRenderOutput@Cm@2@PAVNpScene@2@@Z 10040050 f i NpRigidStatic.obj
 0001:0003f070       ??0NpSceneQueries@physx@@QAE@ABVPxSceneDesc@1@@Z 10040070 f   NpScene.obj
 0001:0003f1f0       ??1NpSceneQueries@physx@@UAE@XZ 100401f0 f   NpScene.obj
 0001:0003f260       ?setData@NpContactCallbackTask@physx@@QAEXPAVNpScene@2@PBUPxContactPairHeader@2@I@Z 10040260 f   NpScene.obj
 0001:0003f280       ?run@NpContactCallbackTask@physx@@UAEXXZ 10040280 f   NpScene.obj
 0001:0003f2e0       ?release@NpScene@physx@@UAEXXZ 100402e0 f   NpScene.obj
 0001:0003f390       ?setFlag@NpScene@physx@@UAEXW4Enum@PxSceneFlag@2@_N@Z 10040390 f   NpScene.obj
 0001:0003f490       ?getFlags@NpScene@physx@@UBE?AV?$PxFlags@W4Enum@PxSceneFlag@physx@@I@2@XZ 10040490 f   NpScene.obj
 0001:0003f4e0       ?setGravity@NpScene@physx@@UAEXABVPxVec3@2@@Z 100404e0 f   NpScene.obj
 0001:0003f590       ?getGravity@NpScene@physx@@UBE?AVPxVec3@2@XZ 10040590 f   NpScene.obj
 0001:0003f610       ?setBounceThresholdVelocity@NpScene@physx@@UAEXM@Z 10040610 f   NpScene.obj
 0001:0003f6a0       ?getBounceThresholdVelocity@NpScene@physx@@UBEMXZ 100406a0 f   NpScene.obj
 0001:0003f700       ?getFrictionOffsetThreshold@NpScene@physx@@UBEMXZ 10040700 f   NpScene.obj
 0001:0003f710       ?setLimits@NpScene@physx@@UAEXABVPxSceneLimits@2@@Z 10040710 f   NpScene.obj
 0001:0003f7a0       ?getLimits@NpScene@physx@@UBE?AVPxSceneLimits@2@XZ 100407a0 f   NpScene.obj
 0001:0003f7f0       ?addActor@NpScene@physx@@UAEXAAVPxActor@2@PBVPxBVHStructure@2@@Z 100407f0 f   NpScene.obj
 0001:0003fa70       ?removeActor@NpScene@physx@@UAEXAAVPxActor@2@_N@Z 10040a70 f   NpScene.obj
 0001:0003fb50       ?getNbConstraints@NpScene@physx@@UBEIXZ 10040b50 f   NpScene.obj
 0001:0003fb80       ?getConstraints@NpScene@physx@@UBEIPAPAVPxConstraint@2@II@Z 10040b80 f   NpScene.obj
 0001:0003fc00       ?addArticulation@NpScene@physx@@UAEXAAVPxArticulationBase@2@@Z 10040c00 f   NpScene.obj
 0001:0003fd90       ?removeArticulation@NpScene@physx@@UAEXAAVPxArticulationBase@2@_N@Z 10040d90 f   NpScene.obj
 0001:0003fe70       ?getNbArticulations@NpScene@physx@@UBEIXZ 10040e70 f   NpScene.obj
 0001:0003fea0       ?getArticulations@NpScene@physx@@UBEIPAPAVPxArticulationBase@2@II@Z 10040ea0 f   NpScene.obj
 0001:0003ff20       ?addAggregate@NpScene@physx@@UAEXAAVPxAggregate@2@@Z 10040f20 f   NpScene.obj
 0001:00040180       ?removeAggregate@NpScene@physx@@UAEXAAVPxAggregate@2@_N@Z 10041180 f   NpScene.obj
 0001:00040360       ?getNbAggregates@NpScene@physx@@UBEIXZ 10041360 f   NpScene.obj
 0001:00040390       ?getAggregates@NpScene@physx@@UBEIPAPAVPxAggregate@2@II@Z 10041390 f   NpScene.obj
 0001:00040410       ?addCollection@NpScene@physx@@UAEXABVPxCollection@2@@Z 10041410 f   NpScene.obj
 0001:00040680       ?setDominanceGroupPair@NpScene@physx@@UAEXEEABUPxDominanceGroupPair@2@@Z 10041680 f   NpScene.obj
 0001:000408c0       ?getDominanceGroupPair@NpScene@physx@@UBE?AUPxDominanceGroupPair@2@EE@Z 100418c0 f   NpScene.obj
 0001:000409f0       ?getNbActors@NpScene@physx@@UBEIV?$PxFlags@W4Enum@PxActorTypeFlag@physx@@G@2@@Z 100419f0 f   NpScene.obj
 0001:00040aa0       ?getActors@NpScene@physx@@UBEIV?$PxFlags@W4Enum@PxActorTypeFlag@physx@@G@2@PAPAVPxActor@2@II@Z 10041aa0 f   NpScene.obj
 0001:00040b40       ?getActiveActors@NpScene@physx@@UAEPAPAVPxActor@2@AAI@Z 10041b40 f   NpScene.obj
 0001:00040bc0       ?getSimulationStatistics@NpScene@physx@@UBEXAAVPxSimulationStatistics@2@@Z 10041bc0 f   NpScene.obj
 0001:00040c30       ?createClient@NpScene@physx@@UAEEXZ 10041c30 f   NpScene.obj
 0001:00040ce0       ?setFrictionType@NpScene@physx@@UAEXW4Enum@PxFrictionType@2@@Z 10041ce0 f   NpScene.obj
 0001:00040d50       ?getFrictionType@NpScene@physx@@UBE?AW4Enum@PxFrictionType@2@XZ 10041d50 f   NpScene.obj
 0001:00040d80       ?setSimulationEventCallback@NpScene@physx@@UAEXPAVPxSimulationEventCallback@2@@Z 10041d80 f   NpScene.obj
 0001:00040df0       ?getSimulationEventCallback@NpScene@physx@@UBEPAVPxSimulationEventCallback@2@XZ 10041df0 f   NpScene.obj
 0001:00040e20       ?setContactModifyCallback@NpScene@physx@@UAEXPAVPxContactModifyCallback@2@@Z 10041e20 f   NpScene.obj
 0001:00040e90       ?getContactModifyCallback@NpScene@physx@@UBEPAVPxContactModifyCallback@2@XZ 10041e90 f   NpScene.obj
 0001:00040ec0       ?setCCDContactModifyCallback@NpScene@physx@@UAEXPAVPxCCDContactModifyCallback@2@@Z 10041ec0 f   NpScene.obj
 0001:00040f30       ?getCCDContactModifyCallback@NpScene@physx@@UBEPAVPxCCDContactModifyCallback@2@XZ 10041f30 f   NpScene.obj
 0001:00040f60       ?setBroadPhaseCallback@NpScene@physx@@UAEXPAVPxBroadPhaseCallback@2@@Z 10041f60 f   NpScene.obj
 0001:00040fd0       ?getBroadPhaseCallback@NpScene@physx@@UBEPAVPxBroadPhaseCallback@2@XZ 10041fd0 f   NpScene.obj
 0001:00041000       ?setCCDMaxPasses@NpScene@physx@@UAEXI@Z 10042000 f   NpScene.obj
 0001:00041070       ?getCCDMaxPasses@NpScene@physx@@UBEIXZ 10042070 f   NpScene.obj
 0001:000410a0       ?setFilterShaderData@NpScene@physx@@UAEXPBXI@Z 100420a0 f   NpScene.obj
 0001:00041140       ?getFilterShaderData@NpScene@physx@@UBEPBXXZ 10042140 f   NpScene.obj
 0001:00041170       ?getFilterShaderDataSize@NpScene@physx@@UBEIXZ 10042170 f   NpScene.obj
 0001:000411a0       ?getFilterShader@NpScene@physx@@UBEP6A?AV?$PxFlags@W4Enum@PxFilterFlag@physx@@G@2@IUPxFilterData@2@I0AAV?$PxFlags@W4Enum@PxPairFlag@physx@@G@2@PBXI@ZXZ 100421a0 f   NpScene.obj
 0001:000411d0       ?getFilterCallback@NpScene@physx@@UBEPAVPxSimulationFilterCallback@2@XZ 100421d0 f   NpScene.obj
 0001:00041200       ?resetFiltering@NpScene@physx@@UAEXAAVPxActor@2@@Z 10042200 f   NpScene.obj
 0001:00041360       ?resetFiltering@NpScene@physx@@UAEXAAVPxRigidActor@2@PBQAVPxShape@2@I@Z 10042360 f   NpScene.obj
 0001:00041510       ?getPhysics@NpScene@physx@@UAEAAVPxPhysics@2@XZ 10042510 f   NpScene.obj
 0001:00041520       ?simulate@NpScene@physx@@UAEXMPAVPxBaseTask@2@PAXI_N@Z 10042520 f   NpScene.obj
 0001:00041550       ?advance@NpScene@physx@@UAEXPAVPxBaseTask@2@@Z 10042550 f   NpScene.obj
 0001:00041690       ?collide@NpScene@physx@@UAEXMPAVPxBaseTask@2@PAXI_N@Z 10042690 f   NpScene.obj
 0001:000416c0       ?checkResults@NpScene@physx@@UAE_N_N@Z 100426c0 f   NpScene.obj
 0001:000416d0       ?checkCollision@NpScene@physx@@UAE_N_N@Z 100426d0 f   NpScene.obj
 0001:000416e0       ?fetchCollision@NpScene@physx@@UAE_N_N@Z 100426e0 f   NpScene.obj
 0001:00041760       ?fetchResults@NpScene@physx@@UAE_N_NPAI@Z 10042760 f   NpScene.obj
 0001:00041950       ?fetchResultsStart@NpScene@physx@@UAE_NAAPBUPxContactPairHeader@2@AAI_N@Z 10042950 f   NpScene.obj
 0001:00041aa0       ?processCallbacks@NpScene@physx@@UAEXPAVPxBaseTask@2@@Z 10042aa0 f   NpScene.obj
 0001:00041d10       ?fetchResultsFinish@NpScene@physx@@UAEXPAI@Z 10042d10 f   NpScene.obj
 0001:00041e60       ?flushSimulation@NpScene@physx@@UAEX_N@Z 10042e60 f   NpScene.obj
 0001:00041fe0       ?flushQueryUpdates@NpScene@physx@@UAEXXZ 10042fe0 f   NpScene.obj
 0001:000420d0       ?getRenderBuffer@NpScene@physx@@UAEABVPxRenderBuffer@2@XZ 100430d0 f   NpScene.obj
 0001:00042110       ?createBatchQuery@NpScene@physx@@UAEPAVPxBatchQuery@2@ABVPxBatchQueryDesc@2@@Z 10043110 f   NpScene.obj
 0001:00042250       ?releaseBatchQuery@NpScene@physx@@QAEXPAVPxBatchQuery@2@@Z 10043250 f   NpScene.obj
 0001:00042320       ?setDynamicTreeRebuildRateHint@NpScene@physx@@UAEXI@Z 10043320 f   NpScene.obj
 0001:00042360       ?getDynamicTreeRebuildRateHint@NpScene@physx@@UBEIXZ 10043360 f   NpScene.obj
 0001:00042390       ?forceDynamicTreeRebuild@NpScene@physx@@UAEX_N0@Z 10043390 f   NpScene.obj
 0001:00042460       ?sceneQueriesUpdate@NpScene@physx@@UAEXPAVPxBaseTask@2@_N@Z 10043460 f   NpScene.obj
 0001:00042720       ?checkQueries@NpScene@physx@@UAE_N_N@Z 10043720 f   NpScene.obj
 0001:00042730       ?fetchQueries@NpScene@physx@@UAE_N_N@Z 10043730 f   NpScene.obj
 0001:00042840       ?setSceneQueryUpdateMode@NpScene@physx@@UAEXW4Enum@PxSceneQueryUpdateMode@2@@Z 10043840 f   NpScene.obj
 0001:00042880       ?getSceneQueryUpdateMode@NpScene@physx@@UBE?AW4Enum@PxSceneQueryUpdateMode@2@XZ 10043880 f   NpScene.obj
 0001:000428b0       ?setSolverBatchSize@NpScene@physx@@UAEXI@Z 100438b0 f   NpScene.obj
 0001:00042930       ?getSolverBatchSize@NpScene@physx@@UBEIXZ 10043930 f   NpScene.obj
 0001:00042980       ?setVisualizationParameter@NpScene@physx@@UAE_NW4Enum@PxVisualizationParameter@2@M@Z 10043980 f   NpScene.obj
 0001:00042aa0       ?getVisualizationParameter@NpScene@physx@@UBEMW4Enum@PxVisualizationParameter@2@@Z 10043aa0 f   NpScene.obj
 0001:00042b10       ?setVisualizationCullingBox@NpScene@physx@@UAEXABVPxBounds3@2@@Z 10043b10 f   NpScene.obj
 0001:00042d10       ?getVisualizationCullingBox@NpScene@physx@@UBE?AVPxBounds3@2@XZ 10043d10 f   NpScene.obj
 0001:00042d80       ?setNbContactDataBlocks@NpScene@physx@@UAEXI@Z 10043d80 f   NpScene.obj
 0001:00042dc0       ?getNbContactDataBlocksUsed@NpScene@physx@@UBEIXZ 10043dc0 f   NpScene.obj
 0001:00042e00       ?getMaxNbContactDataBlocksUsed@NpScene@physx@@UBEIXZ 10043e00 f   NpScene.obj
 0001:00042e40       ?getContactReportStreamBufferSize@NpScene@physx@@UBEIXZ 10043e40 f   NpScene.obj
 0001:00042e50       ?getTimestamp@NpScene@physx@@UBEIXZ 10043e50 f   NpScene.obj
 0001:00042e60       ?getSceneQueryStaticTimestamp@NpScene@physx@@UBEIXZ 10043e60 f   NpScene.obj
 0001:00042e70       ?getCpuDispatcher@NpScene@physx@@UBEPAVPxCpuDispatcher@2@XZ 10043e70 f   NpScene.obj
 0001:00042e80       ?getGpuDispatcher@NpScene@physx@@UBEPAVPxGpuDispatcher@2@XZ 10043e80 f   NpScene.obj
 0001:00042e90       ?getStaticStructure@NpScene@physx@@UBE?AW4Enum@PxPruningStructureType@2@XZ 10043e90 f   NpScene.obj
 0001:00042ea0       ?getDynamicStructure@NpScene@physx@@UBE?AW4Enum@PxPruningStructureType@2@XZ 10043ea0 f   NpScene.obj
 0001:00042eb0       ?getBroadPhaseType@NpScene@physx@@UBE?AW4Enum@PxBroadPhaseType@2@XZ 10043eb0 f   NpScene.obj
 0001:00042ee0       ?getBroadPhaseCaps@NpScene@physx@@UBE_NAAUPxBroadPhaseCaps@2@@Z 10043ee0 f   NpScene.obj
 0001:00042f20       ?getNbBroadPhaseRegions@NpScene@physx@@UBEIXZ 10043f20 f   NpScene.obj
 0001:00042f50       ?getBroadPhaseRegions@NpScene@physx@@UBEIPAUPxBroadPhaseRegionInfo@2@II@Z 10043f50 f   NpScene.obj
 0001:00042f90       ?addBroadPhaseRegion@NpScene@physx@@UAEIABUPxBroadPhaseRegion@2@_N@Z 10043f90 f   NpScene.obj
 0001:000431e0       ?removeBroadPhaseRegion@NpScene@physx@@UAE_NI@Z 100441e0 f   NpScene.obj
 0001:00043220       ?addActors@NpScene@physx@@UAEXPBQAVPxActor@2@I@Z 10044220 f   NpScene.obj
 0001:00043240       ?addActors@NpScene@physx@@UAEXABVPxPruningStructure@2@@Z 10044240 f   NpScene.obj
 0001:00043280       ?removeActors@NpScene@physx@@UAEXPBQAVPxActor@2@I_N@Z 10044280 f   NpScene.obj
 0001:00043930       ?lockRead@NpScene@physx@@UAEXPBDI@Z 10044930 f   NpScene.obj
 0001:000439b0       ?unlockRead@NpScene@physx@@UAEXXZ 100449b0 f   NpScene.obj
 0001:00043a40       ?lockWrite@NpScene@physx@@UAEXPBDI@Z 10044a40 f   NpScene.obj
 0001:00043b10       ?unlockWrite@NpScene@physx@@UAEXXZ 10044b10 f   NpScene.obj
 0001:00043bb0       ?getWakeCounterResetValue@NpScene@physx@@UBEMXZ 10044bb0 f   NpScene.obj
 0001:00043bf0       ?shiftOrigin@NpScene@physx@@UAEXABVPxVec3@2@@Z 10044bf0 f   NpScene.obj
 0001:00044130       ?getScenePvdClient@NpScene@physx@@UAEPAVPxPvdSceneClient@2@XZ 10045130 f   NpScene.obj
 0001:00044140       ?getSimulationController@NpScene@physx@@UAEPAVPxsSimulationController@2@XZ 10045140 f   NpScene.obj
 0001:00044150       ?setActiveActors@NpScene@physx@@UAEXPAPAVPxActor@2@I@Z 10045150 f   NpScene.obj
 0001:00044190       ?getFrozenActors@NpScene@physx@@UAEPAPAVPxActor@2@AAI@Z 10045190 f   NpScene.obj
 0001:00044210       ?setFrozenActorFlag@NpScene@physx@@UAEX_N@Z 10045210 f   NpScene.obj
 0001:00044280       ?forceSceneQueryRebuild@NpScene@physx@@UAEXXZ 10045280 f   NpScene.obj
 0001:000442c0       ?frameEnd@NpScene@physx@@UAEXXZ 100452c0 f   NpScene.obj
 0001:000442d0       ??0NpScene@physx@@QAE@ABVPxSceneDesc@1@@Z 100452d0 f   NpScene.obj
 0001:00044970       ??1NpScene@physx@@UAE@XZ   10045970 f   NpScene.obj
 0001:00044e60       ?addActorInternal@NpScene@physx@@QAEXAAVPxActor@2@PBVPxBVHStructure@2@@Z 10045e60 f   NpScene.obj
 0001:00044f70       ?removeActorInternal@NpScene@physx@@QAEXAAVPxActor@2@_N1@Z 10045f70 f   NpScene.obj
 0001:00045140       ?addActorsInternal@NpScene@physx@@QAEXPIBQAVPxActor@2@IPBVPruningStructure@Sq@2@@Z 10046140 f   NpScene.obj
 0001:000458f0       ?addArticulationInternal@NpScene@physx@@QAEXAAVPxArticulationBase@2@@Z 100468f0 f   NpScene.obj
 0001:00045e40       ?removeArticulationInternal@NpScene@physx@@QAEXAAVPxArticulationBase@2@_N1@Z 10046e40 f   NpScene.obj
 0001:00046040       ?addMaterial@NpScene@physx@@QAEXABVNpMaterial@2@@Z 10047040 f   NpScene.obj
 0001:00046050       ?updateMaterial@NpScene@physx@@QAEXABVNpMaterial@2@@Z 10047050 f   NpScene.obj
 0001:00046060       ?removeMaterial@NpScene@physx@@QAEXABVNpMaterial@2@@Z 10047060 f   NpScene.obj
 0001:00046070       ?executeScene@NpScene@physx@@QAEXPAVPxBaseTask@2@@Z 10047070 f   NpScene.obj
 0001:00046090       ?executeCollide@NpScene@physx@@QAEXPAVPxBaseTask@2@@Z 10047090 f   NpScene.obj
 0001:000460b0       ?executeAdvance@NpScene@physx@@QAEXPAVPxBaseTask@2@@Z 100470b0 f   NpScene.obj
 0001:000460d0       ?loadFromDesc@NpScene@physx@@QAE_NABVPxSceneDesc@2@@Z 100470d0 f   NpScene.obj
 0001:00046130       ?removeFromRigidActorList@NpScene@physx@@QAEXABI@Z 10047130 f   NpScene.obj
 0001:00046190       ?addArticulationLink@NpScene@physx@@QAEXAAVNpArticulationLink@2@@Z 10047190 f   NpScene.obj
 0001:000461f0       ?addArticulationLinkBody@NpScene@physx@@QAEXAAVNpArticulationLink@2@@Z 100471f0 f   NpScene.obj
 0001:00046220       ?addArticulationLinkConstraint@NpScene@physx@@QAEXAAVNpArticulationLink@2@@Z 10047220 f   NpScene.obj
 0001:00046260       ?removeArticulationLink@NpScene@physx@@QAEXAAVNpArticulationLink@2@_N@Z 10047260 f   NpScene.obj
 0001:000462c0       ?startWrite@NpScene@physx@@QAE?AW4Enum@StartWriteResult@12@_N@Z 100472c0 f   NpScene.obj
 0001:000463d0       ?stopWrite@NpScene@physx@@QAEX_N@Z 100473d0 f   NpScene.obj
 0001:00046450       ?startRead@NpScene@physx@@QBE_NXZ 10047450 f   NpScene.obj
 0001:00046520       ?stopRead@NpScene@physx@@QBEXXZ 10047520 f   NpScene.obj
 0001:000465a0       ?checkPositionSanity@NpScene@physx@@QBEXABVPxRigidActor@2@ABVPxTransform@2@PBD@Z 100475a0 f   NpScene.obj
 0001:00046620       ?updatePhysXIndicator@NpScene@physx@@QAEXXZ 10047620 f   NpScene.obj
 0001:00046640       ?checkResultsInternal@NpScene@physx@@AAE_N_N@Z 10047640 f   NpScene.obj
 0001:000466d0       ?checkCollisionInternal@NpScene@physx@@AAE_N_N@Z 100476d0 f   NpScene.obj
 0001:00046760       ?checkSceneQueriesInternal@NpScene@physx@@AAE_N_N@Z 10047760 f   NpScene.obj
 0001:000467f0       ?simulateOrCollide@NpScene@physx@@AAEXMPAVPxBaseTask@2@PAXI_NPBDW4Enum@SimulationStage@Sc@2@@Z 100477f0 f   NpScene.obj
 0001:00046c20       ?addRigidStatic@NpScene@physx@@AAEXAAVNpRigidStatic@2@PBVBVHStructure@Gu@2@_N@Z 10047c20 f   NpScene.obj
 0001:00046d10       ?removeRigidStatic@NpScene@physx@@AAEXAAVNpRigidStatic@2@_N1@Z 10047d10 f   NpScene.obj
 0001:00046e00       ?addRigidDynamic@NpScene@physx@@AAEXAAVNpRigidDynamic@2@PBVBVHStructure@Gu@2@_N@Z 10047e00 f   NpScene.obj
 0001:00046ef0       ?removeRigidDynamic@NpScene@physx@@AAEXAAVNpRigidDynamic@2@_N1@Z 10047ef0 f   NpScene.obj
 0001:00046fe0       ?visualize@NpScene@physx@@AAEXXZ 10047fe0 f   NpScene.obj
 0001:000473f0       ?updateDirtyShaders@NpScene@physx@@AAEXXZ 100483f0 f   NpScene.obj
 0001:000474a0       ?fireOutOfBoundsCallbacks@NpScene@physx@@AAEXXZ 100484a0 f   NpScene.obj
 0001:000475c0       ?fetchResultsPreContactCallbacks@NpScene@physx@@AAEXXZ 100485c0 f   NpScene.obj
 0001:00047790       ?fetchResultsPostContactCallbacks@NpScene@physx@@AAEXXZ 10048790 f   NpScene.obj
 0001:00047a10       ?updateScbStateAndSetupSq@NpScene@physx@@AAEXABVPxRigidActor@2@AAVActor@Scb@2@AAVNpShapeManager@2@_NPBVPxBounds3@2@3@Z 10048a10 f   NpScene.obj
 0001:00047af0       ??$allocArrayBuffer@PAVShape@Scb@physx@@@Scene@Scb@physx@@AAEPAPAVShape@12@AAV?$Array@PAVShape@Scb@physx@@VNamedAllocator@shdfnd@3@@shdfnd@2@IAAI@Z 10048af0 f i NpScene.obj
 0001:00047b30       ??0?$SyncT@V?$ReflectionAllocator@VSyncImpl@shdfnd@physx@@@shdfnd@physx@@@shdfnd@physx@@QAE@ABV?$ReflectionAllocator@VSyncImpl@shdfnd@physx@@@12@@Z 10048b30 f i NpScene.obj
 0001:00047bb0       ??0PxBounds3@physx@@QAE@XZ 10048bb0 f i NpScene.obj
 0001:00047bc0       ??1?$Array@IVNamedAllocator@shdfnd@physx@@@shdfnd@physx@@QAE@XZ 10048bc0 f i NpScene.obj
 0001:00047be0       ??1?$Array@PAVInteraction@Sc@physx@@VNamedAllocator@shdfnd@3@@shdfnd@physx@@QAE@XZ 10048be0 f i NpScene.obj
 0001:00047c00       ??1?$PoolBase@U?$Block@E$0BAA@@Scene@Sc@physx@@VNamedAllocator@shdfnd@4@@shdfnd@physx@@QAE@XZ 10048c00 f i NpScene.obj
 0001:00047dc0       ??1?$PoolBase@U?$Block@E$0BIA@@Scene@Sc@physx@@VNamedAllocator@shdfnd@4@@shdfnd@physx@@QAE@XZ 10048dc0 f i NpScene.obj
 0001:00047f80       ??1?$PoolBase@U?$Block@E$0IA@@Scene@Sc@physx@@VNamedAllocator@shdfnd@4@@shdfnd@physx@@QAE@XZ 10048f80 f i NpScene.obj
 0001:00048140       ??1?$PoolBase@U?$Block@PAX$07@Scene@Sc@physx@@VNamedAllocator@shdfnd@4@@shdfnd@physx@@QAE@XZ 10049140 f i NpScene.obj
 0001:00048300       ??1?$PoolBase@U?$Block@PAX$0BA@@Scene@Sc@physx@@VNamedAllocator@shdfnd@4@@shdfnd@physx@@QAE@XZ 10049300 f i NpScene.obj
 0001:000484c0       ??1?$PoolBase@U?$Block@PAX$0CA@@Scene@Sc@physx@@VNamedAllocator@shdfnd@4@@shdfnd@physx@@QAE@XZ 100494c0 f i NpScene.obj
 0001:00048680       ??1FanoutTask@Cm@physx@@UAE@XZ 10049680 f i NpScene.obj
 0001:00048720       ??1FlushPool@Cm@physx@@QAE@XZ 10049720 f i NpScene.obj
 0001:00048790       ??1NpSceneAccessor@physx@@UAE@XZ 10049790 f i NpScene.obj
 0001:000487a0       ??1PvdSceneQueryCollector@Vd@physx@@QAE@XZ 100497a0 f i NpScene.obj
 0001:000488e0       ??1PxBaseTask@physx@@UAE@XZ 100498e0 f i NpScene.obj
 0001:000488f0       ??1PxLightCpuTask@physx@@UAE@XZ 100498f0 f i NpScene.obj
 0001:00048900       ??1PxRenderBuffer@physx@@UAE@XZ 10049900 f i NpScene.obj
 0001:00048910       ??1PxScene@physx@@MAE@XZ   10049910 f i NpScene.obj
 0001:00048920       ??1RenderBuffer@Cm@physx@@UAE@XZ 10049920 f i NpScene.obj
 0001:000489e0       ??1Scene@Sc@physx@@QAE@XZ  100499e0 f i NpScene.obj
 0001:00049450       ??1Scene@Scb@physx@@QAE@XZ 1004a450 f i NpScene.obj
 0001:000495f0       ??1SqRefFinder@Sc@physx@@UAE@XZ 1004a5f0 f i NpScene.obj
 0001:00049600       ??_E?$DelegateTask@VNpScene@physx@@$H?executeAdvance@12@QAEXPAVPxBaseTask@2@@ZA@@Cm@physx@@UAEPAXI@Z 1004a600 f i NpScene.obj
 0001:00049600       ??_G?$DelegateTask@VNpScene@physx@@$H?executeAdvance@12@QAEXPAVPxBaseTask@2@@ZA@@Cm@physx@@UAEPAXI@Z 1004a600 f i NpScene.obj
 0001:00049640       ??_G?$DelegateTask@VNpScene@physx@@$H?executeCollide@12@QAEXPAVPxBaseTask@2@@ZA@@Cm@physx@@UAEPAXI@Z 1004a640 f i NpScene.obj
 0001:00049640       ??_E?$DelegateTask@VNpScene@physx@@$H?executeCollide@12@QAEXPAVPxBaseTask@2@@ZA@@Cm@physx@@UAEPAXI@Z 1004a640 f i NpScene.obj
 0001:00049680       ??_E?$DelegateTask@VNpScene@physx@@$H?executeScene@12@QAEXPAVPxBaseTask@2@@ZA@@Cm@physx@@UAEPAXI@Z 1004a680 f i NpScene.obj
 0001:00049680       ??_G?$DelegateTask@VNpScene@physx@@$H?executeScene@12@QAEXPAVPxBaseTask@2@@ZA@@Cm@physx@@UAEPAXI@Z 1004a680 f i NpScene.obj
 0001:000496c0       ??_G?$DelegateTask@VNpSceneQueries@physx@@$1?sceneQueriesDynamicPrunerUpdate@12@QAEXPAVPxBaseTask@2@@Z@Cm@physx@@UAEPAXI@Z 1004a6c0 f i NpScene.obj
 0001:000496c0       ??_E?$DelegateTask@VNpSceneQueries@physx@@$1?sceneQueriesDynamicPrunerUpdate@12@QAEXPAVPxBaseTask@2@@Z@Cm@physx@@UAEPAXI@Z 1004a6c0 f i NpScene.obj
 0001:00049700       ??_G?$DelegateTask@VNpSceneQueries@physx@@$1?sceneQueriesStaticPrunerUpdate@12@QAEXPAVPxBaseTask@2@@Z@Cm@physx@@UAEPAXI@Z 1004a700 f i NpScene.obj
 0001:00049700       ??_E?$DelegateTask@VNpSceneQueries@physx@@$1?sceneQueriesStaticPrunerUpdate@12@QAEXPAVPxBaseTask@2@@Z@Cm@physx@@UAEPAXI@Z 1004a700 f i NpScene.obj
 0001:00049740       ??_ENpContactCallbackTask@physx@@UAEPAXI@Z 1004a740 f i NpScene.obj
 0001:00049740       ??_GNpContactCallbackTask@physx@@UAEPAXI@Z 1004a740 f i NpScene.obj
 0001:00049770       ??_GNpScene@physx@@UAEPAXI@Z 1004a770 f i NpScene.obj
 0001:00049770       ??_ENpScene@physx@@UAEPAXI@Z 1004a770 f i NpScene.obj
 0001:000497b0       ??_ENpSceneAccessor@physx@@UAEPAXI@Z 1004a7b0 f i NpScene.obj
 0001:000497b0       ??_GNpSceneAccessor@physx@@UAEPAXI@Z 1004a7b0 f i NpScene.obj
 0001:000497e0       ??_GNpSceneQueries@physx@@UAEPAXI@Z 1004a7e0 f i NpScene.obj
 0001:000497e0       ??_ENpSceneQueries@physx@@UAEPAXI@Z 1004a7e0 f i NpScene.obj
 0001:00049810       ??_GPxBaseTask@physx@@UAEPAXI@Z 1004a810 f i NpScene.obj
 0001:00049810       ??_EPxBaseTask@physx@@UAEPAXI@Z 1004a810 f i NpScene.obj
 0001:00049840       ??_EPxLightCpuTask@physx@@UAEPAXI@Z 1004a840 f i NpScene.obj
 0001:00049840       ??_GPxLightCpuTask@physx@@UAEPAXI@Z 1004a840 f i NpScene.obj
 0001:00049870       ??_EPxRenderBuffer@physx@@UAEPAXI@Z 1004a870 f i NpScene.obj
 0001:00049870       ??_GPxRenderBuffer@physx@@UAEPAXI@Z 1004a870 f i NpScene.obj
 0001:000498a0       ??_EPxScene@physx@@MAEPAXI@Z 1004a8a0 f i NpScene.obj
 0001:000498a0       ??_GPxScene@physx@@MAEPAXI@Z 1004a8a0 f i NpScene.obj
 0001:000498d0       ??_ERenderBuffer@Cm@physx@@UAEPAXI@Z 1004a8d0 f i NpScene.obj
 0001:000498d0       ??_GRenderBuffer@Cm@physx@@UAEPAXI@Z 1004a8d0 f i NpScene.obj
 0001:00049910       ??_ESceneCompletion@NpScene@physx@@UAEPAXI@Z 1004a910 f i NpScene.obj
 0001:00049910       ??_GSceneCompletion@NpScene@physx@@UAEPAXI@Z 1004a910 f i NpScene.obj
 0001:00049940       ??_ESqRefFinder@@UAEPAXI@Z 1004a940 f i NpScene.obj
 0001:00049940       ??_GSqRefFinder@@UAEPAXI@Z 1004a940 f i NpScene.obj
 0001:00049970       ??_ESqRefFinder@Sc@physx@@UAEPAXI@Z 1004a970 f i NpScene.obj
 0001:00049970       ??_GSqRefFinder@Sc@physx@@UAEPAXI@Z 1004a970 f i NpScene.obj
 0001:000499a0       ??_GTask@Cm@physx@@UAEPAXI@Z 1004a9a0 f i NpScene.obj
 0001:000499a0       ??_ETask@Cm@physx@@UAEPAXI@Z 1004a9a0 f i NpScene.obj
 0001:000499d0       ?addReference@PxLightCpuTask@physx@@UAEXXZ 1004a9d0 f i NpScene.obj
 0001:000499e0       ?allocate@?$Array@VPxBounds3@physx@@V?$InlineAllocator@$0MA@VNamedAllocator@shdfnd@physx@@@shdfnd@2@@shdfnd@physx@@IAEPAVPxBounds3@3@I@Z 1004a9e0 f i NpScene.obj
 0001:00049a50       ?append@RenderBuffer@Cm@physx@@UAEXABVPxRenderBuffer@3@@Z 1004aa50 f i NpScene.obj
 0001:00049e60       ?clear@RenderBuffer@Cm@physx@@UAEXXZ 1004ae60 f i NpScene.obj
 0001:00049e90       ?copy@?$Array@UPxDebugPoint@physx@@VNamedAllocator@shdfnd@2@@shdfnd@physx@@KAXPAUPxDebugPoint@3@0PBU43@@Z 1004ae90 f i NpScene.obj
 0001:00049ee0       ?copy@?$Array@UPxDebugText@physx@@VNamedAllocator@shdfnd@2@@shdfnd@physx@@KAXPAUPxDebugText@3@0PBU43@@Z 1004aee0 f i NpScene.obj
 0001:00049f40       ?copy@?$Array@UPxDebugTriangle@physx@@VNamedAllocator@shdfnd@2@@shdfnd@physx@@KAXPAUPxDebugTriangle@3@0PBU43@@Z 1004af40 f i NpScene.obj
 0001:00049fc0       ?create@?$HashBase@PAVPxAggregate@physx@@PAV12@U?$Hash@PAVPxAggregate@physx@@@shdfnd@2@UGetKey@?$HashSetBase@PAVPxAggregate@physx@@U?$Hash@PAVPxAggregate@physx@@@shdfnd@2@VNonTrackingAllocator@42@$00@internal@42@VNonTrackingAllocator@42@$00@internal@shdfnd@physx@@QAEPAPAVPxAggregate@4@ABQAV54@AA_N@Z 1004afc0 f i NpScene.obj
 0001:0004a0f0       ?create@?$HashBase@PAVPxArticulationBase@physx@@PAV12@U?$Hash@PAVPxArticulationBase@physx@@@shdfnd@2@UGetKey@?$HashSetBase@PAVPxArticulationBase@physx@@U?$Hash@PAVPxArticulationBase@physx@@@shdfnd@2@VNonTrackingAllocator@42@$00@internal@42@VNonTrackingAllocator@42@$00@internal@shdfnd@physx@@QAEPAPAVPxArticulationBase@4@ABQAV54@AA_N@Z 1004b0f0 f i NpScene.obj
 0001:0004a220       ?find@SqRefFinder@@UAEIPBVPxRigidBody@physx@@PBVPxShape@3@@Z 1004b220 f i NpScene.obj
 0001:0004a240       ?flush@NpScene@physx@@UAEX_N@Z 1004b240 f i NpScene.obj
 0001:0004a250       ?getLines@RenderBuffer@Cm@physx@@UBEPBUPxDebugLine@3@XZ 1004b250 f i NpScene.obj
 0001:0004a260       ?getName@?$DelegateTask@VNpScene@physx@@$H?executeAdvance@12@QAEXPAVPxBaseTask@2@@ZA@@Cm@physx@@UBEPBDXZ 1004b260 f i NpScene.obj
 0001:0004a270       ?getName@?$DelegateTask@VNpScene@physx@@$H?executeCollide@12@QAEXPAVPxBaseTask@2@@ZA@@Cm@physx@@UBEPBDXZ 1004b270 f i NpScene.obj
 0001:0004a280       ?getName@?$DelegateTask@VNpScene@physx@@$H?executeScene@12@QAEXPAVPxBaseTask@2@@ZA@@Cm@physx@@UBEPBDXZ 1004b280 f i NpScene.obj
 0001:0004a290       ?getName@?$DelegateTask@VNpSceneQueries@physx@@$1?sceneQueriesDynamicPrunerUpdate@12@QAEXPAVPxBaseTask@2@@Z@Cm@physx@@UBEPBDXZ 1004b290 f i NpScene.obj
 0001:0004a2a0       ?getName@?$DelegateTask@VNpSceneQueries@physx@@$1?sceneQueriesStaticPrunerUpdate@12@QAEXPAVPxBaseTask@2@@Z@Cm@physx@@UBEPBDXZ 1004b2a0 f i NpScene.obj
 0001:0004a2b0       ?getName@NpContactCallbackTask@physx@@UBEPBDXZ 1004b2b0 f i NpScene.obj
 0001:0004a2c0       ?getName@SceneCompletion@NpScene@physx@@UBEPBDXZ 1004b2c0 f i NpScene.obj
 0001:0004a2d0       ?getNbLines@RenderBuffer@Cm@physx@@UBEIXZ 1004b2d0 f i NpScene.obj
 0001:0004a2e0       ?getNbPoints@RenderBuffer@Cm@physx@@UBEIXZ 1004b2e0 f i NpScene.obj
 0001:0004a2f0       ?getNbTexts@RenderBuffer@Cm@physx@@UBEIXZ 1004b2f0 f i NpScene.obj
 0001:0004a300       ?getNbTriangles@RenderBuffer@Cm@physx@@UBEIXZ 1004b300 f i NpScene.obj
 0001:0004a310       ?getPoints@RenderBuffer@Cm@physx@@UBEPBUPxDebugPoint@3@XZ 1004b310 f i NpScene.obj
 0001:0004a320       ?getReference@PxLightCpuTask@physx@@UBEHXZ 1004b320 f i NpScene.obj
 0001:0004a330       ?getTaskManager@NpScene@physx@@UAEPAVPxTaskManager@2@XZ 1004b330 f i NpScene.obj
 0001:0004a340       ?getTaskManager@NpScene@physx@@UBEPAVPxTaskManager@2@XZ 1004b340 f i NpScene.obj
 0001:0004a350       ?getTexts@RenderBuffer@Cm@physx@@UBEPBUPxDebugText@3@XZ 1004b350 f i NpScene.obj
 0001:0004a360       ?getTriangles@RenderBuffer@Cm@physx@@UBEPBUPxDebugTriangle@3@XZ 1004b360 f i NpScene.obj
 0001:0004a370       ?growAndPushBack@?$Array@PAEVNamedAllocator@shdfnd@physx@@@shdfnd@physx@@IAEAAPAEABQAE@Z 1004b370 f i NpScene.obj
 0001:0004a450       ?growAndPushBack@?$Array@PAVNpBatchQuery@physx@@VNamedAllocator@shdfnd@2@@shdfnd@physx@@IAEAAPAVNpBatchQuery@3@ABQAV43@@Z 1004b450 f i NpScene.obj
 0001:0004a530       ?growAndPushBack@?$Array@PAVPxActor@physx@@VNamedAllocator@shdfnd@2@@shdfnd@physx@@IAEAAPAVPxActor@3@ABQAV43@@Z 1004b530 f i NpScene.obj
 0001:0004a610       ?growAndPushBack@?$Array@PAVPxRigidActor@physx@@VNamedAllocator@shdfnd@2@@shdfnd@physx@@IAEAAPAVPxRigidActor@3@ABQAV43@@Z 1004b610 f i NpScene.obj
 0001:0004a6f0       ?growAndPushBack@?$Array@UPxDebugLine@physx@@VNamedAllocator@shdfnd@2@@shdfnd@physx@@IAEAAUPxDebugLine@3@ABU43@@Z 1004b6f0 f i NpScene.obj
 0001:0004a7c0       ?growAndPushBack@?$Array@UPxDebugPoint@physx@@VNamedAllocator@shdfnd@2@@shdfnd@physx@@IAEAAUPxDebugPoint@3@ABU43@@Z 1004b7c0 f i NpScene.obj
 0001:0004a880       ?growAndPushBack@?$Array@UPxDebugText@physx@@VNamedAllocator@shdfnd@2@@shdfnd@physx@@IAEAAUPxDebugText@3@ABU43@@Z 1004b880 f i NpScene.obj
 0001:0004a950       ?growAndPushBack@?$Array@UPxDebugTriangle@physx@@VNamedAllocator@shdfnd@2@@shdfnd@physx@@IAEAAUPxDebugTriangle@3@ABU43@@Z 1004b950 f i NpScene.obj
 0001:0004aa50       ?isAddedShape@RigidObject@Scb@physx@@QAE_NAAVShape@23@@Z 1004ba50 f i NpScene.obj
 0001:0004aac0       ?recreate@?$Array@GVNamedAllocator@shdfnd@physx@@@shdfnd@physx@@IAEXI@Z 1004bac0 f i NpScene.obj
 0001:0004ab80       ?recreate@?$Array@PAVActor@Scb@physx@@VNamedAllocator@shdfnd@3@@shdfnd@physx@@IAEXI@Z 1004bb80 f i NpScene.obj
 0001:0004ac40       ?recreate@?$Array@PAVPxActor@physx@@VNamedAllocator@shdfnd@2@@shdfnd@physx@@IAEXI@Z 1004bc40 f i NpScene.obj
 0001:0004ad00       ?recreate@?$Array@PAVPxRigidActor@physx@@VNamedAllocator@shdfnd@2@@shdfnd@physx@@IAEXI@Z 1004bd00 f i NpScene.obj
 0001:0004adc0       ?recreate@?$Array@PAVShape@Scb@physx@@VNamedAllocator@shdfnd@3@@shdfnd@physx@@IAEXI@Z 1004bdc0 f i NpScene.obj
 0001:0004ae80       ?recreate@?$Array@UPxDebugPoint@physx@@VNamedAllocator@shdfnd@2@@shdfnd@physx@@IAEXI@Z 1004be80 f i NpScene.obj
 0001:0004af00       ?recreate@?$Array@UPxDebugText@physx@@VNamedAllocator@shdfnd@2@@shdfnd@physx@@IAEXI@Z 1004bf00 f i NpScene.obj
 0001:0004af80       ?recreate@?$Array@UPxDebugTriangle@physx@@VNamedAllocator@shdfnd@2@@shdfnd@physx@@IAEXI@Z 1004bf80 f i NpScene.obj
 0001:0004b010       ?recreate@?$Array@VPxBounds3@physx@@V?$InlineAllocator@$0MA@VNamedAllocator@shdfnd@physx@@@shdfnd@2@@shdfnd@physx@@IAEXI@Z 1004c010 f i NpScene.obj
 0001:0004b0f0       ?release@PxLightCpuTask@physx@@UAEXXZ 1004c0f0 f i NpScene.obj
 0001:0004b100       ?release@SceneCompletion@NpScene@physx@@UAEXXZ 1004c100 f i NpScene.obj
 0001:0004b120       ?removeReference@PxLightCpuTask@physx@@UAEXXZ 1004c120 f i NpScene.obj
 0001:0004b130       ?reserveInternal@?$HashBase@PAVPxAggregate@physx@@PAV12@U?$Hash@PAVPxAggregate@physx@@@shdfnd@2@UGetKey@?$HashSetBase@PAVPxAggregate@physx@@U?$Hash@PAVPxAggregate@physx@@@shdfnd@2@VNonTrackingAllocator@42@$00@internal@42@VNonTrackingAllocator@42@$00@internal@shdfnd@physx@@AAEXI@Z 1004c130 f i NpScene.obj
 0001:0004b2c0       ?reserveInternal@?$HashBase@PAVPxArticulationBase@physx@@PAV12@U?$Hash@PAVPxArticulationBase@physx@@@shdfnd@2@UGetKey@?$HashSetBase@PAVPxArticulationBase@physx@@U?$Hash@PAVPxArticulationBase@physx@@@shdfnd@2@VNonTrackingAllocator@42@$00@internal@42@VNonTrackingAllocator@42@$00@internal@shdfnd@physx@@AAEXI@Z 1004c2c0 f i NpScene.obj
 0001:0004b450       ?resetFiltering@?$NpRigidActorTemplate@VPxArticulationLink@physx@@@physx@@QAE_NAAVRigidObject@Scb@2@PBQAVPxShape@2@I@Z 1004c450 f i NpScene.obj
 0001:0004b6a0       ?resetFiltering@?$NpRigidActorTemplate@VPxRigidDynamic@physx@@@physx@@QAE_NAAVRigidObject@Scb@2@PBQAVPxShape@2@I@Z 1004c6a0 f i NpScene.obj
 0001:0004b8f0       ?resetFiltering@?$NpRigidActorTemplate@VPxRigidStatic@physx@@@physx@@QAE_NAAVRigidObject@Scb@2@PBQAVPxShape@2@I@Z 1004c8f0 f i NpScene.obj
 0001:0004bb40       ?resetFiltering@RigidObject@Scb@physx@@QAEXPBQAVShape@23@I@Z 1004cb40 f i NpScene.obj
 0001:0004bd50       ?resize@?$Array@GVNamedAllocator@shdfnd@physx@@@shdfnd@physx@@QAEXIABG@Z 1004cd50 f i NpScene.obj
 0001:0004be20       ?resize@?$Array@PAVActor@Scb@physx@@VNamedAllocator@shdfnd@3@@shdfnd@physx@@QAEXIABQAVActor@Scb@3@@Z 1004ce20 f i NpScene.obj
 0001:0004bee0       ?resize@?$Array@PAVShape@Scb@physx@@VNamedAllocator@shdfnd@3@@shdfnd@physx@@QAEXIABQAVShape@Scb@3@@Z 1004cee0 f i NpScene.obj
 0001:0004bfa0       ?resizeUninitialized@?$Array@VPxBounds3@physx@@V?$InlineAllocator@$0MA@VNamedAllocator@shdfnd@physx@@@shdfnd@2@@shdfnd@physx@@QAEXI@Z 1004cfa0 f i NpScene.obj
 0001:0004bfd0       ?run@Task@Cm@physx@@UAEXXZ 1004cfd0 f i NpScene.obj
 0001:0004c000       ?runInternal@?$DelegateTask@VNpScene@physx@@$H?executeAdvance@12@QAEXPAVPxBaseTask@2@@ZA@@Cm@physx@@UAEXXZ 1004d000 f i NpScene.obj
 0001:0004c010       ?runInternal@?$DelegateTask@VNpScene@physx@@$H?executeCollide@12@QAEXPAVPxBaseTask@2@@ZA@@Cm@physx@@UAEXXZ 1004d010 f i NpScene.obj
 0001:0004c020       ?runInternal@?$DelegateTask@VNpScene@physx@@$H?executeScene@12@QAEXPAVPxBaseTask@2@@ZA@@Cm@physx@@UAEXXZ 1004d020 f i NpScene.obj
 0001:0004c030       ?runInternal@?$DelegateTask@VNpSceneQueries@physx@@$1?sceneQueriesDynamicPrunerUpdate@12@QAEXPAVPxBaseTask@2@@Z@Cm@physx@@UAEXXZ 1004d030 f i NpScene.obj
 0001:0004c040       ?runInternal@?$DelegateTask@VNpSceneQueries@physx@@$1?sceneQueriesStaticPrunerUpdate@12@QAEXPAVPxBaseTask@2@@Z@Cm@physx@@UAEXXZ 1004d040 f i NpScene.obj
 0001:0004c050       ?runInternal@SceneCompletion@NpScene@physx@@UAEXXZ 1004d050 f i NpScene.obj
 0001:0004c060       ?setContinuation@PxLightCpuTask@physx@@QAEXAAVPxTaskManager@2@PAVPxBaseTask@2@@Z 1004d060 f i NpScene.obj
 0001:0004c090       ?setContinuation@PxLightCpuTask@physx@@QAEXPAVPxBaseTask@2@@Z 1004d090 f i NpScene.obj
 0001:0004c0c0       ?shift@RenderBuffer@Cm@physx@@QAEXABVPxVec3@3@@Z 1004d0c0 f i NpScene.obj
 0001:0004c280       ?raycast@NpSceneQueries@physx@@UBE_NABVPxVec3@2@0MAAU?$PxHitCallback@UPxRaycastHit@physx@@@2@V?$PxFlags@W4Enum@PxHitFlag@physx@@G@2@ABUPxQueryFilterData@2@PAVPxQueryFilterCallback@2@PBUPxQueryCache@2@@Z 1004d280 f   NpSceneQueries.obj
 0001:0004c3b0       ?sweep@NpSceneQueries@physx@@UBE_NABVPxGeometry@2@ABVPxTransform@2@ABVPxVec3@2@MAAU?$PxHitCallback@UPxSweepHit@physx@@@2@V?$PxFlags@W4Enum@PxHitFlag@physx@@G@2@ABUPxQueryFilterData@2@PAVPxQueryFilterCallback@2@PBUPxQueryCache@2@M@Z 1004d3b0 f   NpSceneQueries.obj
 0001:0004c5e0       ?overlap@NpSceneQueries@physx@@UBE_NABVPxGeometry@2@ABVPxTransform@2@AAU?$PxHitCallback@UPxOverlapHit@physx@@@2@ABUPxQueryFilterData@2@PAVPxQueryFilterCallback@2@@Z 1004d5e0 f   NpSceneQueries.obj
 0001:0004c6f0       ?sceneQueriesStaticPrunerUpdate@NpSceneQueries@physx@@QAEXPAVPxBaseTask@2@@Z 1004d6f0 f   NpSceneQueries.obj
 0001:0004c770       ?sceneQueriesDynamicPrunerUpdate@NpSceneQueries@physx@@QAEXPAVPxBaseTask@2@@Z 1004d770 f   NpSceneQueries.obj
 0001:0004c970       ??$multiQuery@UPxOverlapHit@physx@@@NpSceneQueries@physx@@QBE_NABUMultiQueryInput@1@AAU?$PxHitCallback@UPxOverlapHit@physx@@@1@V?$PxFlags@W4Enum@PxHitFlag@physx@@G@1@PBUPxQueryCache@1@ABUPxQueryFilterData@1@PAVPxQueryFilterCallback@1@PAUBatchQueryFilterData@1@@Z 1004d970 f i NpSceneQueries.obj
 0001:0004cdd0       ??$multiQuery@UPxRaycastHit@physx@@@NpSceneQueries@physx@@QBE_NABUMultiQueryInput@1@AAU?$PxHitCallback@UPxRaycastHit@physx@@@1@V?$PxFlags@W4Enum@PxHitFlag@physx@@G@1@PBUPxQueryCache@1@ABUPxQueryFilterData@1@PAVPxQueryFilterCallback@1@PAUBatchQueryFilterData@1@@Z 1004ddd0 f i NpSceneQueries.obj
 0001:0004d4a0       ??$multiQuery@UPxSweepHit@physx@@@NpSceneQueries@physx@@QBE_NABUMultiQueryInput@1@AAU?$PxHitCallback@UPxSweepHit@physx@@@1@V?$PxFlags@W4Enum@PxHitFlag@physx@@G@1@PBUPxQueryCache@1@ABUPxQueryFilterData@1@PAVPxQueryFilterCallback@1@PAUBatchQueryFilterData@1@@Z 1004e4a0 f i NpSceneQueries.obj
 0001:0004dc70       ??0Capsule@Gu@physx@@QAE@ABVPxVec3@2@0M@Z 1004ec70 f i NpSceneQueries.obj
 0001:0004dcb0       ??0PxOverlapHit@physx@@QAE@XZ 1004ecb0 f i NpSceneQueries.obj
 0001:0004dcd0       ??0PxQueryFilterData@physx@@QAE@ABU01@@Z 1004ecd0 f i NpSceneQueries.obj
 0001:0004dd00       ??0PxRaycastHit@physx@@QAE@ABU01@@Z 1004ed00 f i NpSceneQueries.obj
 0001:0004dd70       ??0PxRaycastHit@physx@@QAE@XZ 1004ed70 f i NpSceneQueries.obj
 0001:0004ddb0       ??0PxSweepHit@physx@@QAE@XZ 1004edb0 f i NpSceneQueries.obj
 0001:0004ddf0       ??1?$CapturePvdOnReturn@UPxOverlapHit@physx@@@@UAE@XZ 1004edf0 f i NpSceneQueries.obj
 0001:0004df20       ??1?$CapturePvdOnReturn@UPxRaycastHit@physx@@@@UAE@XZ 1004ef20 f i NpSceneQueries.obj
 0001:0004e060       ??1?$CapturePvdOnReturn@UPxSweepHit@physx@@@@UAE@XZ 1004f060 f i NpSceneQueries.obj
 0001:0004e240       ??1PrunerCallback@Sq@physx@@UAE@XZ 1004f240 f i NpSceneQueries.obj
 0001:0004e250       ??4PxBounds3@physx@@QAEAAV01@ABV01@@Z 1004f250 f i NpSceneQueries.obj
 0001:0004e280       ??4PxRaycastHit@physx@@QAEAAU01@ABU01@@Z 1004f280 f i NpSceneQueries.obj
 0001:0004e2f0       ??4PxSweepHit@physx@@QAEAAU01@ABU01@@Z 1004f2f0 f i NpSceneQueries.obj
 0001:0004e340       ??_G?$CapturePvdOnReturn@UPxOverlapHit@physx@@@@UAEPAXI@Z 1004f340 f i NpSceneQueries.obj
 0001:0004e340       ??_E?$CapturePvdOnReturn@UPxOverlapHit@physx@@@@UAEPAXI@Z 1004f340 f i NpSceneQueries.obj
 0001:0004e360       ??_G?$CapturePvdOnReturn@UPxRaycastHit@physx@@@@UAEPAXI@Z 1004f360 f i NpSceneQueries.obj
 0001:0004e360       ??_E?$CapturePvdOnReturn@UPxRaycastHit@physx@@@@UAEPAXI@Z 1004f360 f i NpSceneQueries.obj
 0001:0004e390       ??_G?$CapturePvdOnReturn@UPxSweepHit@physx@@@@UAEPAXI@Z 1004f390 f i NpSceneQueries.obj
 0001:0004e390       ??_E?$CapturePvdOnReturn@UPxSweepHit@physx@@@@UAEPAXI@Z 1004f390 f i NpSceneQueries.obj
 0001:0004e3b0       ??_G?$MultiQueryCallback@UPxOverlapHit@physx@@@@UAEPAXI@Z 1004f3b0 f i NpSceneQueries.obj
 0001:0004e3b0       ??_E?$MultiQueryCallback@UPxOverlapHit@physx@@@@UAEPAXI@Z 1004f3b0 f i NpSceneQueries.obj
 0001:0004e3e0       ??_E?$MultiQueryCallback@UPxRaycastHit@physx@@@@UAEPAXI@Z 1004f3e0 f i NpSceneQueries.obj
 0001:0004e3e0       ??_G?$MultiQueryCallback@UPxRaycastHit@physx@@@@UAEPAXI@Z 1004f3e0 f i NpSceneQueries.obj
 0001:0004e410       ??_G?$MultiQueryCallback@UPxSweepHit@physx@@@@UAEPAXI@Z 1004f410 f i NpSceneQueries.obj
 0001:0004e410       ??_E?$MultiQueryCallback@UPxSweepHit@physx@@@@UAEPAXI@Z 1004f410 f i NpSceneQueries.obj
 0001:0004e440       ??_GPrunerCallback@Sq@physx@@UAEPAXI@Z 1004f440 f i NpSceneQueries.obj
 0001:0004e440       ??_EPrunerCallback@Sq@physx@@UAEPAXI@Z 1004f440 f i NpSceneQueries.obj
 0001:0004e470       ?growAndPushBack@?$Array@UPxOverlapHit@physx@@VNamedAllocator@shdfnd@2@@shdfnd@physx@@IAEAAUPxOverlapHit@3@ABU43@@Z 1004f470 f i NpSceneQueries.obj
 0001:0004e530       ?growAndPushBack@?$Array@UPxRaycastHit@physx@@VNamedAllocator@shdfnd@2@@shdfnd@physx@@IAEAAUPxRaycastHit@3@ABU43@@Z 1004f530 f i NpSceneQueries.obj
 0001:0004e670       ?growAndPushBack@?$Array@UPxSweepHit@physx@@VNamedAllocator@shdfnd@2@@shdfnd@physx@@IAEAAUPxSweepHit@3@ABU43@@Z 1004f670 f i NpSceneQueries.obj
 0001:0004e7f0       ?invoke@?$MultiQueryCallback@UPxOverlapHit@physx@@@@UAE_NAAMABUPrunerPayload@Sq@physx@@@Z 1004f7f0 f i NpSceneQueries.obj
 0001:0004ecd0       ?invoke@?$MultiQueryCallback@UPxRaycastHit@physx@@@@UAE_NAAMABUPrunerPayload@Sq@physx@@@Z 1004fcd0 f i NpSceneQueries.obj
 0001:0004f4b0       ?invoke@?$MultiQueryCallback@UPxSweepHit@physx@@@@UAE_NAAMABUPrunerPayload@Sq@physx@@@Z 100504b0 f i NpSceneQueries.obj
 0001:000501a0       ?processTouches@?$CapturePvdOnReturn@UPxOverlapHit@physx@@@@UAE_NPBUPxOverlapHit@physx@@I@Z 100511a0 f i NpSceneQueries.obj
 0001:00050200       ?processTouches@?$CapturePvdOnReturn@UPxRaycastHit@physx@@@@UAE_NPBUPxRaycastHit@physx@@I@Z 10051200 f i NpSceneQueries.obj
 0001:00050260       ?processTouches@?$CapturePvdOnReturn@UPxSweepHit@physx@@@@UAE_NPBUPxSweepHit@physx@@I@Z 10051260 f i NpSceneQueries.obj
 0001:00050310       _PxRegisterPhysicsSerializers 10051310 f   NpSerializerAdapter.obj
 0001:00050650       _PxUnregisterPhysicsSerializers 10051650 f   NpSerializerAdapter.obj
 0001:000508d0       ??1PxProcessPxBaseCallback@physx@@UAE@XZ 100518d0 f i NpSerializerAdapter.obj
 0001:000508e0       ??1PxSerializer@physx@@UAE@XZ 100518e0 f i NpSerializerAdapter.obj
 0001:000508f0       ??_G?$PxSerializerDefaultAdapter@VBV4TriangleMesh@Gu@physx@@@physx@@UAEPAXI@Z 100518f0 f i NpSerializerAdapter.obj
 0001:000508f0       ??_E?$PxSerializerDefaultAdapter@VBV4TriangleMesh@Gu@physx@@@physx@@UAEPAXI@Z 100518f0 f i NpSerializerAdapter.obj
 0001:00050920       ??_E?$PxSerializerDefaultAdapter@VConvexMesh@Gu@physx@@@physx@@UAEPAXI@Z 10051920 f i NpSerializerAdapter.obj
 0001:00050920       ??_G?$PxSerializerDefaultAdapter@VConvexMesh@Gu@physx@@@physx@@UAEPAXI@Z 10051920 f i NpSerializerAdapter.obj
 0001:00050950       ??_E?$PxSerializerDefaultAdapter@VHeightField@Gu@physx@@@physx@@UAEPAXI@Z 10051950 f i NpSerializerAdapter.obj
 0001:00050950       ??_G?$PxSerializerDefaultAdapter@VHeightField@Gu@physx@@@physx@@UAEPAXI@Z 10051950 f i NpSerializerAdapter.obj
 0001:00050980       ??_E?$PxSerializerDefaultAdapter@VNpAggregate@physx@@@physx@@UAEPAXI@Z 10051980 f i NpSerializerAdapter.obj
 0001:00050980       ??_G?$PxSerializerDefaultAdapter@VNpAggregate@physx@@@physx@@UAEPAXI@Z 10051980 f i NpSerializerAdapter.obj
 0001:000509b0       ??_E?$PxSerializerDefaultAdapter@VNpArticulation@physx@@@physx@@UAEPAXI@Z 100519b0 f i NpSerializerAdapter.obj
 0001:000509b0       ??_G?$PxSerializerDefaultAdapter@VNpArticulation@physx@@@physx@@UAEPAXI@Z 100519b0 f i NpSerializerAdapter.obj
 0001:000509e0       ??_G?$PxSerializerDefaultAdapter@VNpArticulationJoint@physx@@@physx@@UAEPAXI@Z 100519e0 f i NpSerializerAdapter.obj
 0001:000509e0       ??_E?$PxSerializerDefaultAdapter@VNpArticulationJoint@physx@@@physx@@UAEPAXI@Z 100519e0 f i NpSerializerAdapter.obj
 0001:00050a10       ??_G?$PxSerializerDefaultAdapter@VNpArticulationLink@physx@@@physx@@UAEPAXI@Z 10051a10 f i NpSerializerAdapter.obj
 0001:00050a10       ??_E?$PxSerializerDefaultAdapter@VNpArticulationLink@physx@@@physx@@UAEPAXI@Z 10051a10 f i NpSerializerAdapter.obj
 0001:00050a40       ??_E?$PxSerializerDefaultAdapter@VNpConstraint@physx@@@physx@@UAEPAXI@Z 10051a40 f i NpSerializerAdapter.obj
 0001:00050a40       ??_G?$PxSerializerDefaultAdapter@VNpConstraint@physx@@@physx@@UAEPAXI@Z 10051a40 f i NpSerializerAdapter.obj
 0001:00050a70       ??_E?$PxSerializerDefaultAdapter@VNpMaterial@physx@@@physx@@UAEPAXI@Z 10051a70 f i NpSerializerAdapter.obj
 0001:00050a70       ??_G?$PxSerializerDefaultAdapter@VNpMaterial@physx@@@physx@@UAEPAXI@Z 10051a70 f i NpSerializerAdapter.obj
 0001:00050aa0       ??_E?$PxSerializerDefaultAdapter@VNpRigidDynamic@physx@@@physx@@UAEPAXI@Z 10051aa0 f i NpSerializerAdapter.obj
 0001:00050aa0       ??_G?$PxSerializerDefaultAdapter@VNpRigidDynamic@physx@@@physx@@UAEPAXI@Z 10051aa0 f i NpSerializerAdapter.obj
 0001:00050ad0       ??_G?$PxSerializerDefaultAdapter@VNpRigidStatic@physx@@@physx@@UAEPAXI@Z 10051ad0 f i NpSerializerAdapter.obj
 0001:00050ad0       ??_E?$PxSerializerDefaultAdapter@VNpRigidStatic@physx@@@physx@@UAEPAXI@Z 10051ad0 f i NpSerializerAdapter.obj
 0001:00050b00       ??_E?$PxSerializerDefaultAdapter@VNpShape@physx@@@physx@@UAEPAXI@Z 10051b00 f i NpSerializerAdapter.obj
 0001:00050b00       ??_G?$PxSerializerDefaultAdapter@VNpShape@physx@@@physx@@UAEPAXI@Z 10051b00 f i NpSerializerAdapter.obj
 0001:00050b30       ??_E?$PxSerializerDefaultAdapter@VPruningStructure@Sq@physx@@@physx@@UAEPAXI@Z 10051b30 f i NpSerializerAdapter.obj
 0001:00050b30       ??_G?$PxSerializerDefaultAdapter@VPruningStructure@Sq@physx@@@physx@@UAEPAXI@Z 10051b30 f i NpSerializerAdapter.obj
 0001:00050b60       ??_G?$PxSerializerDefaultAdapter@VRTreeTriangleMesh@Gu@physx@@@physx@@UAEPAXI@Z 10051b60 f i NpSerializerAdapter.obj
 0001:00050b60       ??_E?$PxSerializerDefaultAdapter@VRTreeTriangleMesh@Gu@physx@@@physx@@UAEPAXI@Z 10051b60 f i NpSerializerAdapter.obj
 0001:00050b90       ??_GPxProcessPxBaseCallback@physx@@UAEPAXI@Z 10051b90 f i NpSerializerAdapter.obj
 0001:00050b90       ??_EPxProcessPxBaseCallback@physx@@UAEPAXI@Z 10051b90 f i NpSerializerAdapter.obj
 0001:00050bc0       ??_GPxSerializer@physx@@UAEPAXI@Z 10051bc0 f i NpSerializerAdapter.obj
 0001:00050bc0       ??_EPxSerializer@physx@@UAEPAXI@Z 10051bc0 f i NpSerializerAdapter.obj
 0001:00050bf0       ??_ERequiresCallback@?1??registerReferences@?$PxSerializerDefaultAdapter@VBV4TriangleMesh@Gu@physx@@@physx@@UBEXAAVPxBase@3@AAVPxSerializationContext@3@@Z@UAEPAXI@Z 10051bf0 f i NpSerializerAdapter.obj
 0001:00050bf0       ??_GRequiresCallback@?1??registerReferences@?$PxSerializerDefaultAdapter@VBV4TriangleMesh@Gu@physx@@@physx@@UBEXAAVPxBase@3@AAVPxSerializationContext@3@@Z@UAEPAXI@Z 10051bf0 f i NpSerializerAdapter.obj
 0001:00050c20       ??_ERequiresCallback@?1??registerReferences@?$PxSerializerDefaultAdapter@VConvexMesh@Gu@physx@@@physx@@UBEXAAVPxBase@3@AAVPxSerializationContext@3@@Z@UAEPAXI@Z 10051c20 f i NpSerializerAdapter.obj
 0001:00050c20       ??_GRequiresCallback@?1??registerReferences@?$PxSerializerDefaultAdapter@VConvexMesh@Gu@physx@@@physx@@UBEXAAVPxBase@3@AAVPxSerializationContext@3@@Z@UAEPAXI@Z 10051c20 f i NpSerializerAdapter.obj
 0001:00050c50       ??_ERequiresCallback@?1??registerReferences@?$PxSerializerDefaultAdapter@VHeightField@Gu@physx@@@physx@@UBEXAAVPxBase@3@AAVPxSerializationContext@3@@Z@UAEPAXI@Z 10051c50 f i NpSerializerAdapter.obj
 0001:00050c50       ??_GRequiresCallback@?1??registerReferences@?$PxSerializerDefaultAdapter@VHeightField@Gu@physx@@@physx@@UBEXAAVPxBase@3@AAVPxSerializationContext@3@@Z@UAEPAXI@Z 10051c50 f i NpSerializerAdapter.obj
 0001:00050c80       ??_ERequiresCallback@?1??registerReferences@?$PxSerializerDefaultAdapter@VNpAggregate@physx@@@physx@@UBEXAAVPxBase@3@AAVPxSerializationContext@3@@Z@UAEPAXI@Z 10051c80 f i NpSerializerAdapter.obj
 0001:00050c80       ??_GRequiresCallback@?1??registerReferences@?$PxSerializerDefaultAdapter@VNpAggregate@physx@@@physx@@UBEXAAVPxBase@3@AAVPxSerializationContext@3@@Z@UAEPAXI@Z 10051c80 f i NpSerializerAdapter.obj
 0001:00050cb0       ??_ERequiresCallback@?1??registerReferences@?$PxSerializerDefaultAdapter@VNpArticulation@physx@@@physx@@UBEXAAVPxBase@3@AAVPxSerializationContext@3@@Z@UAEPAXI@Z 10051cb0 f i NpSerializerAdapter.obj
 0001:00050cb0       ??_GRequiresCallback@?1??registerReferences@?$PxSerializerDefaultAdapter@VNpArticulation@physx@@@physx@@UBEXAAVPxBase@3@AAVPxSerializationContext@3@@Z@UAEPAXI@Z 10051cb0 f i NpSerializerAdapter.obj
 0001:00050ce0       ??_GRequiresCallback@?1??registerReferences@?$PxSerializerDefaultAdapter@VNpArticulationJoint@physx@@@physx@@UBEXAAVPxBase@3@AAVPxSerializationContext@3@@Z@UAEPAXI@Z 10051ce0 f i NpSerializerAdapter.obj
 0001:00050ce0       ??_ERequiresCallback@?1??registerReferences@?$PxSerializerDefaultAdapter@VNpArticulationJoint@physx@@@physx@@UBEXAAVPxBase@3@AAVPxSerializationContext@3@@Z@UAEPAXI@Z 10051ce0 f i NpSerializerAdapter.obj
 0001:00050d10       ??_GRequiresCallback@?1??registerReferences@?$PxSerializerDefaultAdapter@VNpArticulationLink@physx@@@physx@@UBEXAAVPxBase@3@AAVPxSerializationContext@3@@Z@UAEPAXI@Z 10051d10 f i NpSerializerAdapter.obj
 0001:00050d10       ??_ERequiresCallback@?1??registerReferences@?$PxSerializerDefaultAdapter@VNpArticulationLink@physx@@@physx@@UBEXAAVPxBase@3@AAVPxSerializationContext@3@@Z@UAEPAXI@Z 10051d10 f i NpSerializerAdapter.obj
 0001:00050d40       ??_ERequiresCallback@?1??registerReferences@?$PxSerializerDefaultAdapter@VNpConstraint@physx@@@physx@@UBEXAAVPxBase@3@AAVPxSerializationContext@3@@Z@UAEPAXI@Z 10051d40 f i NpSerializerAdapter.obj
 0001:00050d40       ??_GRequiresCallback@?1??registerReferences@?$PxSerializerDefaultAdapter@VNpConstraint@physx@@@physx@@UBEXAAVPxBase@3@AAVPxSerializationContext@3@@Z@UAEPAXI@Z 10051d40 f i NpSerializerAdapter.obj
 0001:00050d70       ??_GRequiresCallback@?1??registerReferences@?$PxSerializerDefaultAdapter@VNpMaterial@physx@@@physx@@UBEXAAVPxBase@3@AAVPxSerializationContext@3@@Z@UAEPAXI@Z 10051d70 f i NpSerializerAdapter.obj
 0001:00050d70       ??_ERequiresCallback@?1??registerReferences@?$PxSerializerDefaultAdapter@VNpMaterial@physx@@@physx@@UBEXAAVPxBase@3@AAVPxSerializationContext@3@@Z@UAEPAXI@Z 10051d70 f i NpSerializerAdapter.obj
 0001:00050da0       ??_ERequiresCallback@?1??registerReferences@?$PxSerializerDefaultAdapter@VNpRigidDynamic@physx@@@physx@@UBEXAAVPxBase@3@AAVPxSerializationContext@3@@Z@UAEPAXI@Z 10051da0 f i NpSerializerAdapter.obj
 0001:00050da0       ??_GRequiresCallback@?1??registerReferences@?$PxSerializerDefaultAdapter@VNpRigidDynamic@physx@@@physx@@UBEXAAVPxBase@3@AAVPxSerializationContext@3@@Z@UAEPAXI@Z 10051da0 f i NpSerializerAdapter.obj
 0001:00050dd0       ??_ERequiresCallback@?1??registerReferences@?$PxSerializerDefaultAdapter@VNpRigidStatic@physx@@@physx@@UBEXAAVPxBase@3@AAVPxSerializationContext@3@@Z@UAEPAXI@Z 10051dd0 f i NpSerializerAdapter.obj
 0001:00050dd0       ??_GRequiresCallback@?1??registerReferences@?$PxSerializerDefaultAdapter@VNpRigidStatic@physx@@@physx@@UBEXAAVPxBase@3@AAVPxSerializationContext@3@@Z@UAEPAXI@Z 10051dd0 f i NpSerializerAdapter.obj
 0001:00050e00       ??_ERequiresCallback@?1??registerReferences@?$PxSerializerDefaultAdapter@VNpShape@physx@@@physx@@UBEXAAVPxBase@3@AAVPxSerializationContext@3@@Z@UAEPAXI@Z 10051e00 f i NpSerializerAdapter.obj
 0001:00050e00       ??_GRequiresCallback@?1??registerReferences@?$PxSerializerDefaultAdapter@VNpShape@physx@@@physx@@UBEXAAVPxBase@3@AAVPxSerializationContext@3@@Z@UAEPAXI@Z 10051e00 f i NpSerializerAdapter.obj
 0001:00050e30       ??_ERequiresCallback@?1??registerReferences@?$PxSerializerDefaultAdapter@VPruningStructure@Sq@physx@@@physx@@UBEXAAVPxBase@3@AAVPxSerializationContext@3@@Z@UAEPAXI@Z 10051e30 f i NpSerializerAdapter.obj
 0001:00050e30       ??_GRequiresCallback@?1??registerReferences@?$PxSerializerDefaultAdapter@VPruningStructure@Sq@physx@@@physx@@UBEXAAVPxBase@3@AAVPxSerializationContext@3@@Z@UAEPAXI@Z 10051e30 f i NpSerializerAdapter.obj
 0001:00050e60       ??_ERequiresCallback@?1??registerReferences@?$PxSerializerDefaultAdapter@VRTreeTriangleMesh@Gu@physx@@@physx@@UBEXAAVPxBase@3@AAVPxSerializationContext@3@@Z@UAEPAXI@Z 10051e60 f i NpSerializerAdapter.obj
 0001:00050e60       ??_GRequiresCallback@?1??registerReferences@?$PxSerializerDefaultAdapter@VRTreeTriangleMesh@Gu@physx@@@physx@@UBEXAAVPxBase@3@AAVPxSerializationContext@3@@Z@UAEPAXI@Z 10051e60 f i NpSerializerAdapter.obj
 0001:00050e90       ?createObject@?$PxSerializerDefaultAdapter@VBV4TriangleMesh@Gu@physx@@@physx@@UBEPAVPxBase@2@AAPAEAAVPxDeserializationContext@2@@Z 10051e90 f i NpSerializerAdapter.obj
 0001:00050eb0       ?createObject@?$PxSerializerDefaultAdapter@VConvexMesh@Gu@physx@@@physx@@UBEPAVPxBase@2@AAPAEAAVPxDeserializationContext@2@@Z 10051eb0 f i NpSerializerAdapter.obj
 0001:00050ed0       ?createObject@?$PxSerializerDefaultAdapter@VHeightField@Gu@physx@@@physx@@UBEPAVPxBase@2@AAPAEAAVPxDeserializationContext@2@@Z 10051ed0 f i NpSerializerAdapter.obj
 0001:00050ef0       ?createObject@?$PxSerializerDefaultAdapter@VNpAggregate@physx@@@physx@@UBEPAVPxBase@2@AAPAEAAVPxDeserializationContext@2@@Z 10051ef0 f i NpSerializerAdapter.obj
 0001:00050f10       ?createObject@?$PxSerializerDefaultAdapter@VNpArticulation@physx@@@physx@@UBEPAVPxBase@2@AAPAEAAVPxDeserializationContext@2@@Z 10051f10 f i NpSerializerAdapter.obj
 0001:00050f30       ?createObject@?$PxSerializerDefaultAdapter@VNpArticulationJoint@physx@@@physx@@UBEPAVPxBase@2@AAPAEAAVPxDeserializationContext@2@@Z 10051f30 f i NpSerializerAdapter.obj
 0001:00050f50       ?createObject@?$PxSerializerDefaultAdapter@VNpArticulationLink@physx@@@physx@@UBEPAVPxBase@2@AAPAEAAVPxDeserializationContext@2@@Z 10051f50 f i NpSerializerAdapter.obj
 0001:00050f70       ?createObject@?$PxSerializerDefaultAdapter@VNpConstraint@physx@@@physx@@UBEPAVPxBase@2@AAPAEAAVPxDeserializationContext@2@@Z 10051f70 f i NpSerializerAdapter.obj
 0001:00050f90       ?createObject@?$PxSerializerDefaultAdapter@VNpMaterial@physx@@@physx@@UBEPAVPxBase@2@AAPAEAAVPxDeserializationContext@2@@Z 10051f90 f i NpSerializerAdapter.obj
 0001:00050fb0       ?createObject@?$PxSerializerDefaultAdapter@VNpRigidDynamic@physx@@@physx@@UBEPAVPxBase@2@AAPAEAAVPxDeserializationContext@2@@Z 10051fb0 f i NpSerializerAdapter.obj
 0001:00050fd0       ?createObject@?$PxSerializerDefaultAdapter@VNpRigidStatic@physx@@@physx@@UBEPAVPxBase@2@AAPAEAAVPxDeserializationContext@2@@Z 10051fd0 f i NpSerializerAdapter.obj
 0001:00050ff0       ?createObject@?$PxSerializerDefaultAdapter@VNpShape@physx@@@physx@@UBEPAVPxBase@2@AAPAEAAVPxDeserializationContext@2@@Z 10051ff0 f i NpSerializerAdapter.obj
 0001:00051010       ?createObject@?$PxSerializerDefaultAdapter@VPruningStructure@Sq@physx@@@physx@@UBEPAVPxBase@2@AAPAEAAVPxDeserializationContext@2@@Z 10052010 f i NpSerializerAdapter.obj
 0001:00051030       ?createObject@?$PxSerializerDefaultAdapter@VRTreeTriangleMesh@Gu@physx@@@physx@@UBEPAVPxBase@2@AAPAEAAVPxDeserializationContext@2@@Z 10052030 f i NpSerializerAdapter.obj
 0001:00051050       ?exportData@?$PxSerializerDefaultAdapter@VBV4TriangleMesh@Gu@physx@@@physx@@UBEXAAVPxBase@2@AAVPxSerializationContext@2@@Z 10052050 f i NpSerializerAdapter.obj
 0001:00051070       ?exportData@?$PxSerializerDefaultAdapter@VConvexMesh@Gu@physx@@@physx@@UBEXAAVPxBase@2@AAVPxSerializationContext@2@@Z 10052070 f i NpSerializerAdapter.obj
 0001:00051090       ?exportData@?$PxSerializerDefaultAdapter@VHeightField@Gu@physx@@@physx@@UBEXAAVPxBase@2@AAVPxSerializationContext@2@@Z 10052090 f i NpSerializerAdapter.obj
 0001:000510b0       ?exportData@?$PxSerializerDefaultAdapter@VNpAggregate@physx@@@physx@@UBEXAAVPxBase@2@AAVPxSerializationContext@2@@Z 100520b0 f i NpSerializerAdapter.obj
 0001:000510d0       ?exportData@?$PxSerializerDefaultAdapter@VNpArticulation@physx@@@physx@@UBEXAAVPxBase@2@AAVPxSerializationContext@2@@Z 100520d0 f i NpSerializerAdapter.obj
 0001:000510f0       ?exportData@?$PxSerializerDefaultAdapter@VNpArticulationJoint@physx@@@physx@@UBEXAAVPxBase@2@AAVPxSerializationContext@2@@Z 100520f0 f i NpSerializerAdapter.obj
 0001:00051110       ?exportData@?$PxSerializerDefaultAdapter@VNpArticulationLink@physx@@@physx@@UBEXAAVPxBase@2@AAVPxSerializationContext@2@@Z 10052110 f i NpSerializerAdapter.obj
 0001:00051130       ?exportData@?$PxSerializerDefaultAdapter@VNpConstraint@physx@@@physx@@UBEXAAVPxBase@2@AAVPxSerializationContext@2@@Z 10052130 f i NpSerializerAdapter.obj
 0001:00051150       ?exportData@?$PxSerializerDefaultAdapter@VNpMaterial@physx@@@physx@@UBEXAAVPxBase@2@AAVPxSerializationContext@2@@Z 10052150 f i NpSerializerAdapter.obj
 0001:00051170       ?exportData@?$PxSerializerDefaultAdapter@VNpRigidDynamic@physx@@@physx@@UBEXAAVPxBase@2@AAVPxSerializationContext@2@@Z 10052170 f i NpSerializerAdapter.obj
 0001:00051190       ?exportData@?$PxSerializerDefaultAdapter@VNpRigidStatic@physx@@@physx@@UBEXAAVPxBase@2@AAVPxSerializationContext@2@@Z 10052190 f i NpSerializerAdapter.obj
 0001:000511a0       ?exportData@?$PxSerializerDefaultAdapter@VNpShape@physx@@@physx@@UBEXAAVPxBase@2@AAVPxSerializationContext@2@@Z 100521a0 f i NpSerializerAdapter.obj
 0001:000511c0       ?exportData@?$PxSerializerDefaultAdapter@VPruningStructure@Sq@physx@@@physx@@UBEXAAVPxBase@2@AAVPxSerializationContext@2@@Z 100521c0 f i NpSerializerAdapter.obj
 0001:000511e0       ?exportData@?$PxSerializerDefaultAdapter@VRTreeTriangleMesh@Gu@physx@@@physx@@UBEXAAVPxBase@2@AAVPxSerializationContext@2@@Z 100521e0 f i NpSerializerAdapter.obj
 0001:00051200       ?exportExtraData@?$PxSerializerDefaultAdapter@VBV4TriangleMesh@Gu@physx@@@physx@@UBEXAAVPxBase@2@AAVPxSerializationContext@2@@Z 10052200 f i NpSerializerAdapter.obj
 0001:00051210       ?exportExtraData@?$PxSerializerDefaultAdapter@VConvexMesh@Gu@physx@@@physx@@UBEXAAVPxBase@2@AAVPxSerializationContext@2@@Z 10052210 f i NpSerializerAdapter.obj
 0001:00051220       ?exportExtraData@?$PxSerializerDefaultAdapter@VHeightField@Gu@physx@@@physx@@UBEXAAVPxBase@2@AAVPxSerializationContext@2@@Z 10052220 f i NpSerializerAdapter.obj
 0001:00051230       ?exportExtraData@?$PxSerializerDefaultAdapter@VNpAggregate@physx@@@physx@@UBEXAAVPxBase@2@AAVPxSerializationContext@2@@Z 10052230 f i NpSerializerAdapter.obj
 0001:00051240       ?exportExtraData@?$PxSerializerDefaultAdapter@VNpArticulation@physx@@@physx@@UBEXAAVPxBase@2@AAVPxSerializationContext@2@@Z 10052240 f i NpSerializerAdapter.obj
 0001:00051260       ?exportExtraData@?$PxSerializerDefaultAdapter@VNpArticulationJoint@physx@@@physx@@UBEXAAVPxBase@2@AAVPxSerializationContext@2@@Z 10052260 f i NpSerializerAdapter.obj
 0001:00051270       ?exportExtraData@?$PxSerializerDefaultAdapter@VNpArticulationLink@physx@@@physx@@UBEXAAVPxBase@2@AAVPxSerializationContext@2@@Z 10052270 f i NpSerializerAdapter.obj
 0001:00051290       ?exportExtraData@?$PxSerializerDefaultAdapter@VNpConstraint@physx@@@physx@@UBEXAAVPxBase@2@AAVPxSerializationContext@2@@Z 10052290 f i NpSerializerAdapter.obj
 0001:000512a0       ?exportExtraData@?$PxSerializerDefaultAdapter@VNpMaterial@physx@@@physx@@UBEXAAVPxBase@2@AAVPxSerializationContext@2@@Z 100522a0 f i NpSerializerAdapter.obj
 0001:000512b0       ?exportExtraData@?$PxSerializerDefaultAdapter@VNpRigidDynamic@physx@@@physx@@UBEXAAVPxBase@2@AAVPxSerializationContext@2@@Z 100522b0 f i NpSerializerAdapter.obj
 0001:000512d0       ?exportExtraData@?$PxSerializerDefaultAdapter@VNpRigidStatic@physx@@@physx@@UBEXAAVPxBase@2@AAVPxSerializationContext@2@@Z 100522d0 f i NpSerializerAdapter.obj
 0001:000512e0       ?exportExtraData@?$PxSerializerDefaultAdapter@VNpShape@physx@@@physx@@UBEXAAVPxBase@2@AAVPxSerializationContext@2@@Z 100522e0 f i NpSerializerAdapter.obj
 0001:00051300       ?exportExtraData@?$PxSerializerDefaultAdapter@VPruningStructure@Sq@physx@@@physx@@UBEXAAVPxBase@2@AAVPxSerializationContext@2@@Z 10052300 f i NpSerializerAdapter.obj
 0001:00051310       ?exportExtraData@?$PxSerializerDefaultAdapter@VRTreeTriangleMesh@Gu@physx@@@physx@@UBEXAAVPxBase@2@AAVPxSerializationContext@2@@Z 10052310 f i NpSerializerAdapter.obj
 0001:00051320       ?getClassSize@?$PxSerializerDefaultAdapter@VBV4TriangleMesh@Gu@physx@@@physx@@UBEIXZ 10052320 f i NpSerializerAdapter.obj
 0001:00051330       ?getClassSize@?$PxSerializerDefaultAdapter@VConvexMesh@Gu@physx@@@physx@@UBEIXZ 10052330 f i NpSerializerAdapter.obj
 0001:00051340       ?getClassSize@?$PxSerializerDefaultAdapter@VHeightField@Gu@physx@@@physx@@UBEIXZ 10052340 f i NpSerializerAdapter.obj
 0001:00051350       ?getClassSize@?$PxSerializerDefaultAdapter@VNpAggregate@physx@@@physx@@UBEIXZ 10052350 f i NpSerializerAdapter.obj
 0001:00051360       ?getClassSize@?$PxSerializerDefaultAdapter@VNpArticulation@physx@@@physx@@UBEIXZ 10052360 f i NpSerializerAdapter.obj
 0001:00051370       ?getClassSize@?$PxSerializerDefaultAdapter@VNpArticulationJoint@physx@@@physx@@UBEIXZ 10052370 f i NpSerializerAdapter.obj
 0001:00051380       ?getClassSize@?$PxSerializerDefaultAdapter@VNpArticulationLink@physx@@@physx@@UBEIXZ 10052380 f i NpSerializerAdapter.obj
 0001:00051390       ?getClassSize@?$PxSerializerDefaultAdapter@VNpConstraint@physx@@@physx@@UBEIXZ 10052390 f i NpSerializerAdapter.obj
 0001:000513a0       ?getClassSize@?$PxSerializerDefaultAdapter@VNpMaterial@physx@@@physx@@UBEIXZ 100523a0 f i NpSerializerAdapter.obj
 0001:000513b0       ?getClassSize@?$PxSerializerDefaultAdapter@VNpRigidDynamic@physx@@@physx@@UBEIXZ 100523b0 f i NpSerializerAdapter.obj
 0001:000513c0       ?getClassSize@?$PxSerializerDefaultAdapter@VNpRigidStatic@physx@@@physx@@UBEIXZ 100523c0 f i NpSerializerAdapter.obj
 0001:000513d0       ?getClassSize@?$PxSerializerDefaultAdapter@VNpShape@physx@@@physx@@UBEIXZ 100523d0 f i NpSerializerAdapter.obj
 0001:000513e0       ?getClassSize@?$PxSerializerDefaultAdapter@VPruningStructure@Sq@physx@@@physx@@UBEIXZ 100523e0 f i NpSerializerAdapter.obj
 0001:000513f0       ?getClassSize@?$PxSerializerDefaultAdapter@VRTreeTriangleMesh@Gu@physx@@@physx@@UBEIXZ 100523f0 f i NpSerializerAdapter.obj
 0001:00051400       ?getConcreteTypeName@?$PxSerializerDefaultAdapter@VBV4TriangleMesh@Gu@physx@@@physx@@UBEPBDXZ 10052400 f i NpSerializerAdapter.obj
 0001:00051410       ?getConcreteTypeName@?$PxSerializerDefaultAdapter@VConvexMesh@Gu@physx@@@physx@@UBEPBDXZ 10052410 f i NpSerializerAdapter.obj
 0001:00051420       ?getConcreteTypeName@?$PxSerializerDefaultAdapter@VHeightField@Gu@physx@@@physx@@UBEPBDXZ 10052420 f i NpSerializerAdapter.obj
 0001:00051430       ?getConcreteTypeName@?$PxSerializerDefaultAdapter@VNpAggregate@physx@@@physx@@UBEPBDXZ 10052430 f i NpSerializerAdapter.obj
 0001:00051440       ?getConcreteTypeName@?$PxSerializerDefaultAdapter@VNpArticulation@physx@@@physx@@UBEPBDXZ 10052440 f i NpSerializerAdapter.obj
 0001:00051450       ?getConcreteTypeName@?$PxSerializerDefaultAdapter@VNpArticulationJoint@physx@@@physx@@UBEPBDXZ 10052450 f i NpSerializerAdapter.obj
 0001:00051460       ?getConcreteTypeName@?$PxSerializerDefaultAdapter@VNpArticulationLink@physx@@@physx@@UBEPBDXZ 10052460 f i NpSerializerAdapter.obj
 0001:00051470       ?getConcreteTypeName@?$PxSerializerDefaultAdapter@VNpConstraint@physx@@@physx@@UBEPBDXZ 10052470 f i NpSerializerAdapter.obj
 0001:00051480       ?getConcreteTypeName@?$PxSerializerDefaultAdapter@VNpMaterial@physx@@@physx@@UBEPBDXZ 10052480 f i NpSerializerAdapter.obj
 0001:00051490       ?getConcreteTypeName@?$PxSerializerDefaultAdapter@VNpRigidDynamic@physx@@@physx@@UBEPBDXZ 10052490 f i NpSerializerAdapter.obj
 0001:000514a0       ?getConcreteTypeName@?$PxSerializerDefaultAdapter@VNpRigidStatic@physx@@@physx@@UBEPBDXZ 100524a0 f i NpSerializerAdapter.obj
 0001:000514b0       ?getConcreteTypeName@?$PxSerializerDefaultAdapter@VNpShape@physx@@@physx@@UBEPBDXZ 100524b0 f i NpSerializerAdapter.obj
 0001:000514c0       ?getConcreteTypeName@?$PxSerializerDefaultAdapter@VPruningStructure@Sq@physx@@@physx@@UBEPBDXZ 100524c0 f i NpSerializerAdapter.obj
 0001:000514d0       ?getConcreteTypeName@?$PxSerializerDefaultAdapter@VRTreeTriangleMesh@Gu@physx@@@physx@@UBEPBDXZ 100524d0 f i NpSerializerAdapter.obj
 0001:000514e0       ?isSubordinate@?$PxSerializerDefaultAdapter@VBV4TriangleMesh@Gu@physx@@@physx@@UBE_NXZ 100524e0 f i NpSerializerAdapter.obj
 0001:000514f0       ?isSubordinate@?$PxSerializerDefaultAdapter@VConvexMesh@Gu@physx@@@physx@@UBE_NXZ 100524f0 f i NpSerializerAdapter.obj
 0001:00051500       ?isSubordinate@?$PxSerializerDefaultAdapter@VHeightField@Gu@physx@@@physx@@UBE_NXZ 10052500 f i NpSerializerAdapter.obj
 0001:00051510       ?isSubordinate@?$PxSerializerDefaultAdapter@VNpAggregate@physx@@@physx@@UBE_NXZ 10052510 f i NpSerializerAdapter.obj
 0001:00051520       ?isSubordinate@?$PxSerializerDefaultAdapter@VNpArticulation@physx@@@physx@@UBE_NXZ 10052520 f i NpSerializerAdapter.obj
 0001:00051530       ?isSubordinate@?$PxSerializerDefaultAdapter@VNpArticulationJoint@physx@@@physx@@UBE_NXZ 10052530 f i NpSerializerAdapter.obj
 0001:00051540       ?isSubordinate@?$PxSerializerDefaultAdapter@VNpArticulationLink@physx@@@physx@@UBE_NXZ 10052540 f i NpSerializerAdapter.obj
 0001:00051550       ?isSubordinate@?$PxSerializerDefaultAdapter@VNpConstraint@physx@@@physx@@UBE_NXZ 10052550 f i NpSerializerAdapter.obj
 0001:00051560       ?isSubordinate@?$PxSerializerDefaultAdapter@VNpMaterial@physx@@@physx@@UBE_NXZ 10052560 f i NpSerializerAdapter.obj
 0001:00051570       ?isSubordinate@?$PxSerializerDefaultAdapter@VNpRigidDynamic@physx@@@physx@@UBE_NXZ 10052570 f i NpSerializerAdapter.obj
 0001:00051580       ?isSubordinate@?$PxSerializerDefaultAdapter@VNpRigidStatic@physx@@@physx@@UBE_NXZ 10052580 f i NpSerializerAdapter.obj
 0001:00051590       ?isSubordinate@?$PxSerializerDefaultAdapter@VNpShape@physx@@@physx@@UBE_NXZ 10052590 f i NpSerializerAdapter.obj
 0001:000515a0       ?isSubordinate@?$PxSerializerDefaultAdapter@VPruningStructure@Sq@physx@@@physx@@UBE_NXZ 100525a0 f i NpSerializerAdapter.obj
 0001:000515b0       ?isSubordinate@?$PxSerializerDefaultAdapter@VRTreeTriangleMesh@Gu@physx@@@physx@@UBE_NXZ 100525b0 f i NpSerializerAdapter.obj
 0001:000515c0       ?process@RequiresCallback@?1??registerReferences@?$PxSerializerDefaultAdapter@VBV4TriangleMesh@Gu@physx@@@physx@@UBEXAAVPxBase@4@AAVPxSerializationContext@4@@Z@UAEX0@Z 100525c0 f i NpSerializerAdapter.obj
 0001:000515e0       ?process@RequiresCallback@?1??registerReferences@?$PxSerializerDefaultAdapter@VConvexMesh@Gu@physx@@@physx@@UBEXAAVPxBase@4@AAVPxSerializationContext@4@@Z@UAEX0@Z 100525e0 f i NpSerializerAdapter.obj
 0001:00051600       ?process@RequiresCallback@?1??registerReferences@?$PxSerializerDefaultAdapter@VHeightField@Gu@physx@@@physx@@UBEXAAVPxBase@4@AAVPxSerializationContext@4@@Z@UAEX0@Z 10052600 f i NpSerializerAdapter.obj
 0001:00051620       ?process@RequiresCallback@?1??registerReferences@?$PxSerializerDefaultAdapter@VNpAggregate@physx@@@physx@@UBEXAAVPxBase@4@AAVPxSerializationContext@4@@Z@UAEX0@Z 10052620 f i NpSerializerAdapter.obj
 0001:00051640       ?process@RequiresCallback@?1??registerReferences@?$PxSerializerDefaultAdapter@VNpArticulation@physx@@@physx@@UBEXAAVPxBase@4@AAVPxSerializationContext@4@@Z@UAEX0@Z 10052640 f i NpSerializerAdapter.obj
 0001:00051660       ?process@RequiresCallback@?1??registerReferences@?$PxSerializerDefaultAdapter@VNpArticulationJoint@physx@@@physx@@UBEXAAVPxBase@4@AAVPxSerializationContext@4@@Z@UAEX0@Z 10052660 f i NpSerializerAdapter.obj
 0001:00051680       ?process@RequiresCallback@?1??registerReferences@?$PxSerializerDefaultAdapter@VNpArticulationLink@physx@@@physx@@UBEXAAVPxBase@4@AAVPxSerializationContext@4@@Z@UAEX0@Z 10052680 f i NpSerializerAdapter.obj
 0001:000516a0       ?process@RequiresCallback@?1??registerReferences@?$PxSerializerDefaultAdapter@VNpConstraint@physx@@@physx@@UBEXAAVPxBase@4@AAVPxSerializationContext@4@@Z@UAEX0@Z 100526a0 f i NpSerializerAdapter.obj
 0001:000516c0       ?process@RequiresCallback@?1??registerReferences@?$PxSerializerDefaultAdapter@VNpMaterial@physx@@@physx@@UBEXAAVPxBase@4@AAVPxSerializationContext@4@@Z@UAEX0@Z 100526c0 f i NpSerializerAdapter.obj
 0001:000516e0       ?process@RequiresCallback@?1??registerReferences@?$PxSerializerDefaultAdapter@VNpRigidDynamic@physx@@@physx@@UBEXAAVPxBase@4@AAVPxSerializationContext@4@@Z@UAEX0@Z 100526e0 f i NpSerializerAdapter.obj
 0001:00051700       ?process@RequiresCallback@?1??registerReferences@?$PxSerializerDefaultAdapter@VNpRigidStatic@physx@@@physx@@UBEXAAVPxBase@4@AAVPxSerializationContext@4@@Z@UAEX0@Z 10052700 f i NpSerializerAdapter.obj
 0001:00051720       ?process@RequiresCallback@?1??registerReferences@?$PxSerializerDefaultAdapter@VNpShape@physx@@@physx@@UBEXAAVPxBase@4@AAVPxSerializationContext@4@@Z@UAEX0@Z 10052720 f i NpSerializerAdapter.obj
 0001:00051760       ?process@RequiresCallback@?1??registerReferences@?$PxSerializerDefaultAdapter@VPruningStructure@Sq@physx@@@physx@@UBEXAAVPxBase@4@AAVPxSerializationContext@4@@Z@UAEX0@Z 10052760 f i NpSerializerAdapter.obj
 0001:00051780       ?process@RequiresCallback@?1??registerReferences@?$PxSerializerDefaultAdapter@VRTreeTriangleMesh@Gu@physx@@@physx@@UBEXAAVPxBase@4@AAVPxSerializationContext@4@@Z@UAEX0@Z 10052780 f i NpSerializerAdapter.obj
 0001:000517a0       ?registerReferences@?$PxSerializerDefaultAdapter@VBV4TriangleMesh@Gu@physx@@@physx@@UBEXAAVPxBase@2@AAVPxSerializationContext@2@@Z 100527a0 f i NpSerializerAdapter.obj
 0001:000517e0       ?registerReferences@?$PxSerializerDefaultAdapter@VConvexMesh@Gu@physx@@@physx@@UBEXAAVPxBase@2@AAVPxSerializationContext@2@@Z 100527e0 f i NpSerializerAdapter.obj
 0001:00051820       ?registerReferences@?$PxSerializerDefaultAdapter@VHeightField@Gu@physx@@@physx@@UBEXAAVPxBase@2@AAVPxSerializationContext@2@@Z 10052820 f i NpSerializerAdapter.obj
 0001:00051860       ?registerReferences@?$PxSerializerDefaultAdapter@VNpAggregate@physx@@@physx@@UBEXAAVPxBase@2@AAVPxSerializationContext@2@@Z 10052860 f i NpSerializerAdapter.obj
 0001:000518a0       ?registerReferences@?$PxSerializerDefaultAdapter@VNpArticulation@physx@@@physx@@UBEXAAVPxBase@2@AAVPxSerializationContext@2@@Z 100528a0 f i NpSerializerAdapter.obj
 0001:000518e0       ?registerReferences@?$PxSerializerDefaultAdapter@VNpArticulationJoint@physx@@@physx@@UBEXAAVPxBase@2@AAVPxSerializationContext@2@@Z 100528e0 f i NpSerializerAdapter.obj
 0001:00051920       ?registerReferences@?$PxSerializerDefaultAdapter@VNpArticulationLink@physx@@@physx@@UBEXAAVPxBase@2@AAVPxSerializationContext@2@@Z 10052920 f i NpSerializerAdapter.obj
 0001:00051960       ?registerReferences@?$PxSerializerDefaultAdapter@VNpConstraint@physx@@@physx@@UBEXAAVPxBase@2@AAVPxSerializationContext@2@@Z 10052960 f i NpSerializerAdapter.obj
 0001:000519a0       ?registerReferences@?$PxSerializerDefaultAdapter@VNpMaterial@physx@@@physx@@UBEXAAVPxBase@2@AAVPxSerializationContext@2@@Z 100529a0 f i NpSerializerAdapter.obj
 0001:000519e0       ?registerReferences@?$PxSerializerDefaultAdapter@VNpRigidDynamic@physx@@@physx@@UBEXAAVPxBase@2@AAVPxSerializationContext@2@@Z 100529e0 f i NpSerializerAdapter.obj
 0001:00051a20       ?registerReferences@?$PxSerializerDefaultAdapter@VNpRigidStatic@physx@@@physx@@UBEXAAVPxBase@2@AAVPxSerializationContext@2@@Z 10052a20 f i NpSerializerAdapter.obj
 0001:00051a60       ?registerReferences@?$PxSerializerDefaultAdapter@VNpShape@physx@@@physx@@UBEXAAVPxBase@2@AAVPxSerializationContext@2@@Z 10052a60 f i NpSerializerAdapter.obj
 0001:00051aa0       ?registerReferences@?$PxSerializerDefaultAdapter@VPruningStructure@Sq@physx@@@physx@@UBEXAAVPxBase@2@AAVPxSerializationContext@2@@Z 10052aa0 f i NpSerializerAdapter.obj
 0001:00051ae0       ?registerReferences@?$PxSerializerDefaultAdapter@VRTreeTriangleMesh@Gu@physx@@@physx@@UBEXAAVPxBase@2@AAVPxSerializationContext@2@@Z 10052ae0 f i NpSerializerAdapter.obj
 0001:00051b20       ?requiresObjects@?$PxSerializerDefaultAdapter@VBV4TriangleMesh@Gu@physx@@@physx@@UBEXAAVPxBase@2@AAVPxProcessPxBaseCallback@2@@Z 10052b20 f i NpSerializerAdapter.obj
 0001:00051b30       ?requiresObjects@?$PxSerializerDefaultAdapter@VConvexMesh@Gu@physx@@@physx@@UBEXAAVPxBase@2@AAVPxProcessPxBaseCallback@2@@Z 10052b30 f i NpSerializerAdapter.obj
 0001:00051b40       ?requiresObjects@?$PxSerializerDefaultAdapter@VHeightField@Gu@physx@@@physx@@UBEXAAVPxBase@2@AAVPxProcessPxBaseCallback@2@@Z 10052b40 f i NpSerializerAdapter.obj
 0001:00051b50       ?requiresObjects@?$PxSerializerDefaultAdapter@VNpAggregate@physx@@@physx@@UBEXAAVPxBase@2@AAVPxProcessPxBaseCallback@2@@Z 10052b50 f i NpSerializerAdapter.obj
 0001:00051b60       ?requiresObjects@?$PxSerializerDefaultAdapter@VNpArticulation@physx@@@physx@@UBEXAAVPxBase@2@AAVPxProcessPxBaseCallback@2@@Z 10052b60 f i NpSerializerAdapter.obj
 0001:00051b80       ?requiresObjects@?$PxSerializerDefaultAdapter@VNpArticulationJoint@physx@@@physx@@UBEXAAVPxBase@2@AAVPxProcessPxBaseCallback@2@@Z 10052b80 f i NpSerializerAdapter.obj
 0001:00051ba0       ?requiresObjects@?$PxSerializerDefaultAdapter@VNpArticulationLink@physx@@@physx@@UBEXAAVPxBase@2@AAVPxProcessPxBaseCallback@2@@Z 10052ba0 f i NpSerializerAdapter.obj
 0001:00051bc0       ?requiresObjects@?$PxSerializerDefaultAdapter@VNpConstraint@physx@@@physx@@UBEXAAVPxBase@2@AAVPxProcessPxBaseCallback@2@@Z 10052bc0 f i NpSerializerAdapter.obj
 0001:00051bd0       ?requiresObjects@?$PxSerializerDefaultAdapter@VNpMaterial@physx@@@physx@@UBEXAAVPxBase@2@AAVPxProcessPxBaseCallback@2@@Z 10052bd0 f i NpSerializerAdapter.obj
 0001:00051be0       ?requiresObjects@?$PxSerializerDefaultAdapter@VNpRigidDynamic@physx@@@physx@@UBEXAAVPxBase@2@AAVPxProcessPxBaseCallback@2@@Z 10052be0 f i NpSerializerAdapter.obj
 0001:00051c00       ?requiresObjects@?$PxSerializerDefaultAdapter@VNpRigidStatic@physx@@@physx@@UBEXAAVPxBase@2@AAVPxProcessPxBaseCallback@2@@Z 10052c00 f i NpSerializerAdapter.obj
 0001:00051c10       ?requiresObjects@?$PxSerializerDefaultAdapter@VNpShape@physx@@@physx@@UBEXAAVPxBase@2@AAVPxProcessPxBaseCallback@2@@Z 10052c10 f i NpSerializerAdapter.obj
 0001:00051c30       ?requiresObjects@?$PxSerializerDefaultAdapter@VPruningStructure@Sq@physx@@@physx@@UBEXAAVPxBase@2@AAVPxProcessPxBaseCallback@2@@Z 10052c30 f i NpSerializerAdapter.obj
 0001:00051c40       ?requiresObjects@?$PxSerializerDefaultAdapter@VRTreeTriangleMesh@Gu@physx@@@physx@@UBEXAAVPxBase@2@AAVPxProcessPxBaseCallback@2@@Z 10052c40 f i NpSerializerAdapter.obj
 0001:00051c50       ?NpShapeGetScPtrOffset@physx@@YAIXZ 10052c50 f   NpShape.obj
 0001:00051c60       ?NpShapeIncRefCount@physx@@YAXAAVShape@Scb@1@@Z 10052c60 f   NpShape.obj
 0001:00051c70       ?NpShapeDecRefCount@physx@@YAXAAVShape@Scb@1@@Z 10052c70 f   NpShape.obj
 0001:00051ca0       ?NpShapeGetScRigidObjectFromScbSLOW@physx@@YAPAVRigidCore@Sc@1@ABVShape@Scb@1@@Z 10052ca0 f   NpShape.obj
 0001:00051cf0       ??0NpShape@physx@@QAE@V?$PxFlags@W4Enum@PxBaseFlag@physx@@G@1@@Z 10052cf0 f   NpShape.obj
 0001:00051d60       ?exportExtraData@NpShape@physx@@UAEXAAVPxSerializationContext@2@@Z 10052d60 f   NpShape.obj
 0001:00051d90       ?importExtraData@NpShape@physx@@QAEXAAVPxDeserializationContext@2@@Z 10052d90 f   NpShape.obj
 0001:00051dd0       ?requiresObjects@NpShape@physx@@UAEXAAVPxProcessPxBaseCallback@2@@Z 10052dd0 f   NpShape.obj
 0001:00051eb0       ?resolveReferences@NpShape@physx@@QAEXAAVPxDeserializationContext@2@@Z 10052eb0 f   NpShape.obj
 0001:00052020       ?createObject@NpShape@physx@@SAPAV12@AAPAEAAVPxDeserializationContext@2@@Z 10053020 f   NpShape.obj
 0001:000520e0       ??0NpShape@physx@@QAE@ABVPxGeometry@1@V?$PxFlags@W4Enum@PxShapeFlag@physx@@E@1@PBGG_N@Z 100530e0 f   NpShape.obj
 0001:000521d0       ??1NpShape@physx@@UAE@XZ   100531d0 f   NpShape.obj
 0001:000522b0       ?release@NpShape@physx@@UAEXXZ 100532b0 f   NpShape.obj
 0001:00052350       ?getReferenceCount@NpShape@physx@@UBEIXZ 10053350 f   NpShape.obj
 0001:00052360       ?acquireReference@NpShape@physx@@UAEXXZ 10053360 f   NpShape.obj
 0001:00052370       ?getGeometryType@NpShape@physx@@UBE?AW4Enum@PxGeometryType@2@XZ 10053370 f   NpShape.obj
 0001:000523b0       ?setGeometry@NpShape@physx@@UAEXABVPxGeometry@2@@Z 100533b0 f   NpShape.obj
 0001:000529e0       ?getGeometry@NpShape@physx@@UBE?AVPxGeometryHolder@2@XZ 100539e0 f   NpShape.obj
 0001:00052a10       ?getBoxGeometry@NpShape@physx@@UBE_NAAVPxBoxGeometry@2@@Z 10053a10 f   NpShape.obj
 0001:00052aa0       ?getSphereGeometry@NpShape@physx@@UBE_NAAVPxSphereGeometry@2@@Z 10053aa0 f   NpShape.obj
 0001:00052b20       ?getCapsuleGeometry@NpShape@physx@@UBE_NAAVPxCapsuleGeometry@2@@Z 10053b20 f   NpShape.obj
 0001:00052ba0       ?getPlaneGeometry@NpShape@physx@@UBE_NAAVPxPlaneGeometry@2@@Z 10053ba0 f   NpShape.obj
 0001:00052c10       ?getConvexMeshGeometry@NpShape@physx@@UBE_NAAVPxConvexMeshGeometry@2@@Z 10053c10 f   NpShape.obj
 0001:00052cd0       ?getTriangleMeshGeometry@NpShape@physx@@UBE_NAAVPxTriangleMeshGeometry@2@@Z 10053cd0 f   NpShape.obj
 0001:00052d90       ?getHeightFieldGeometry@NpShape@physx@@UBE_NAAVPxHeightFieldGeometry@2@@Z 10053d90 f   NpShape.obj
 0001:00052e40       ?getActor@NpShape@physx@@UBEPAVPxRigidActor@2@XZ 10053e40 f   NpShape.obj
 0001:00052e80       ?setLocalPose@NpShape@physx@@UAEXABVPxTransform@2@@Z 10053e80 f   NpShape.obj
 0001:00053000       ?getLocalPose@NpShape@physx@@UBE?AVPxTransform@2@XZ 10054000 f   NpShape.obj
 0001:00053080       ?setSimulationFilterData@NpShape@physx@@UAEXABUPxFilterData@2@@Z 10054080 f   NpShape.obj
 0001:00053130       ?getSimulationFilterData@NpShape@physx@@UBE?AUPxFilterData@2@XZ 10054130 f   NpShape.obj
 0001:000531a0       ?setQueryFilterData@NpShape@physx@@UAEXABUPxFilterData@2@@Z 100541a0 f   NpShape.obj
 0001:00053280       ?getQueryFilterData@NpShape@physx@@UBE?AUPxFilterData@2@XZ 10054280 f   NpShape.obj
 0001:000532e0       ?setMaterials@NpShape@physx@@UAEXPBQAVPxMaterial@2@G@Z 100542e0 f   NpShape.obj
 0001:00053580       ?getNbMaterials@NpShape@physx@@UBEGXZ 10054580 f   NpShape.obj
 0001:000535f0       ?getMaterials@NpShape@physx@@UBEIPAPAVPxMaterial@2@II@Z 100545f0 f   NpShape.obj
 0001:00053650       ?getMaterialFromInternalFaceIndex@NpShape@physx@@UBEPAVPxMaterial@2@I@Z 10054650 f   NpShape.obj
 0001:000537d0       ?setContactOffset@NpShape@physx@@UAEXM@Z 100547d0 f   NpShape.obj
 0001:00053920       ?getContactOffset@NpShape@physx@@UBEMXZ 10054920 f   NpShape.obj
 0001:00053980       ?setRestOffset@NpShape@physx@@UAEXM@Z 10054980 f   NpShape.obj
 0001:00053ac0       ?getRestOffset@NpShape@physx@@UBEMXZ 10054ac0 f   NpShape.obj
 0001:00053b20       ?setTorsionalPatchRadius@NpShape@physx@@UAEXM@Z 10054b20 f   NpShape.obj
 0001:00053bf0       ?getTorsionalPatchRadius@NpShape@physx@@UBEMXZ 10054bf0 f   NpShape.obj
 0001:00053c50       ?setMinTorsionalPatchRadius@NpShape@physx@@UAEXM@Z 10054c50 f   NpShape.obj
 0001:00053d20       ?getMinTorsionalPatchRadius@NpShape@physx@@UBEMXZ 10054d20 f   NpShape.obj
 0001:00053d80       ?setFlag@NpShape@physx@@UAEXW4Enum@PxShapeFlag@2@_N@Z 10054d80 f   NpShape.obj
 0001:00053eb0       ?setFlags@NpShape@physx@@UAEXV?$PxFlags@W4Enum@PxShapeFlag@physx@@E@2@@Z 10054eb0 f   NpShape.obj
 0001:00053fa0       ?getFlags@NpShape@physx@@UBE?AV?$PxFlags@W4Enum@PxShapeFlag@physx@@E@2@XZ 10054fa0 f   NpShape.obj
 0001:00054000       ?isExclusive@NpShape@physx@@UBE_NXZ 10055000 f   NpShape.obj
 0001:00054050       ?setName@NpShape@physx@@UAEXPBD@Z 10055050 f   NpShape.obj
 0001:00054120       ?getName@NpShape@physx@@UBEPBDXZ 10055120 f   NpShape.obj
 0001:00054160       ?onRefCountZero@NpShape@physx@@UAEXXZ 10055160 f   NpShape.obj
 0001:00054180       ?setFlagsInternal@NpShape@physx@@QAEXV?$PxFlags@W4Enum@PxShapeFlag@physx@@E@2@@Z 10055180 f   NpShape.obj
 0001:00054300       ?checkMaterialSetup@NpShape@physx@@SA_NABVPxGeometry@2@PBDPBQAVPxMaterial@2@G@Z 10055300 f   NpShape.obj
 0001:000544a0       ?onActorAttach@NpShape@physx@@QAEXAAVPxRigidActor@2@@Z 100554a0 f   NpShape.obj
 0001:000544e0       ?onActorDetach@NpShape@physx@@QAEXXZ 100554e0 f   NpShape.obj
 0001:00054520       ?getScRigidObjectExclusive@NpShape@physx@@QBEAAVRigidCore@Sc@2@XZ 10055520 f   NpShape.obj
 0001:00054530       ?releaseInternal@NpShape@physx@@QAEXXZ 10055530 f   NpShape.obj
 0001:00054550       ?getOwnerScene@NpShape@physx@@QBEPAVNpScene@2@XZ 10055550 f   NpShape.obj
 0001:00054570       ?getAPIScene@NpShape@physx@@ABEPAVNpScene@2@XZ 10055570 f   NpShape.obj
 0001:00054580       ?incMeshRefCount@NpShape@physx@@AAEXXZ 10055580 f   NpShape.obj
 0001:000545a0       ?decMeshRefCount@NpShape@physx@@AAEXXZ 100555a0 f   NpShape.obj
 0001:000545d0       ?getMeshRefCountable@NpShape@physx@@AAEPAVRefCountable@Cm@2@XZ 100555d0 f   NpShape.obj
 0001:00054640       ?isWritable@NpShape@physx@@AAE_NXZ 10055640 f   NpShape.obj
 0001:00054660       ?updateSQ@NpShape@physx@@AAEXPBD@Z 10055660 f   NpShape.obj
 0001:000546f0       ??$allocArrayBuffer@G@Scene@Scb@physx@@AAEPAGAAV?$Array@GVNamedAllocator@shdfnd@physx@@@shdfnd@2@IAAI@Z 100556f0 f i NpShape.obj
 0001:00054730       ??1PxShape@physx@@MAE@XZ   10055730 f i NpShape.obj
 0001:00054737       ??_ENpShape@physx@@WM@AEPAXI@Z 10055737 f i NpShape.obj
 0001:00054740       ??_GNpShape@physx@@UAEPAXI@Z 10055740 f i NpShape.obj
 0001:00054740       ??_ENpShape@physx@@UAEPAXI@Z 10055740 f i NpShape.obj
 0001:00054850       ??_GPxShape@physx@@MAEPAXI@Z 10055850 f i NpShape.obj
 0001:00054850       ??_EPxShape@physx@@MAEPAXI@Z 10055850 f i NpShape.obj
 0001:00054880       ?getConcreteTypeName@PxShape@physx@@UBEPBDXZ 10055880 f i NpShape.obj
 0001:00054890       ?getMaterials@Shape@Scb@physx@@QBEIPAPAVPxMaterial@3@II@Z 10055890 f i NpShape.obj
 0001:00054920       ?isKindOf@PxShape@physx@@MBE_NPBD@Z 10055920 f i NpShape.obj
 0001:000549a0       ?setContactOffset@Shape@Scb@physx@@QAEXM@Z 100559a0 f i NpShape.obj
 0001:00054ac0       ?setFlags@Shape@Scb@physx@@QAEXV?$PxFlags@W4Enum@PxShapeFlag@physx@@E@3@@Z 10055ac0 f i NpShape.obj
 0001:00054be0       ?setGeometry@Shape@Scb@physx@@QAEPAUShapeBuffer@23@ABVPxGeometry@3@@Z 10055be0 f i NpShape.obj
 0001:00054d10       ?setMinTorsionalPatchRadius@Shape@Scb@physx@@QAEXM@Z 10055d10 f i NpShape.obj
 0001:00054e30       ?setRestOffset@Shape@Scb@physx@@QAEXM@Z 10055e30 f i NpShape.obj
 0001:00054f50       ?setShape2Actor@Shape@Scb@physx@@QAEXABVPxTransform@3@@Z 10055f50 f i NpShape.obj
 0001:000550b0       ?setSimulationFilterData@Shape@Scb@physx@@QAEXABUPxFilterData@3@@Z 100560b0 f i NpShape.obj
 0001:000551f0       ?setTorsionalPatchRadius@Shape@Scb@physx@@QAEXM@Z 100561f0 f i NpShape.obj
 0001:00055310       ??0NpShapeManager@physx@@QAE@W4PxEMPTY@1@@Z 10056310 f   NpShapeManager.obj
 0001:00055350       ?exportExtraData@NpShapeManager@physx@@QAEXAAVPxSerializationContext@2@@Z 10056350 f   NpShapeManager.obj
 0001:00055370       ?importExtraData@NpShapeManager@physx@@QAEXAAVPxDeserializationContext@2@@Z 10056370 f   NpShapeManager.obj
 0001:00055390       ??0NpShapeManager@physx@@QAE@XZ 10056390 f   NpShapeManager.obj
 0001:000553c0       ??1NpShapeManager@physx@@QAE@XZ 100563c0 f   NpShapeManager.obj
 0001:00055400       ?getShapes@NpShapeManager@physx@@QBEIPAPAVPxShape@2@II@Z 10056400 f   NpShapeManager.obj
 0001:00055450       ?attachShape@NpShapeManager@physx@@QAEXAAVNpShape@2@AAVPxRigidActor@2@@Z 10056450 f   NpShapeManager.obj
 0001:000554e0       ?detachShape@NpShapeManager@physx@@QAE_NAAVNpShape@2@AAVPxRigidActor@2@_N@Z 100564e0 f   NpShapeManager.obj
 0001:000555f0       ?detachAll@NpShapeManager@physx@@QAEXPAVNpScene@2@ABVPxRigidActor@2@@Z 100565f0 f   NpShapeManager.obj
 0001:00055740       ?teardownSceneQuery@NpShapeManager@physx@@QAEXAAVSceneQueryManager@Sq@2@ABVNpShape@2@@Z 10056740 f   NpShapeManager.obj
 0001:000557a0       ?setupSceneQuery@NpShapeManager@physx@@QAEXAAVSceneQueryManager@Sq@2@ABVPxRigidActor@2@ABVNpShape@2@@Z 100567a0 f   NpShapeManager.obj
 0001:000557d0       ?addPrunerShape@NpShapeManager@physx@@QAEXAAVSceneQueryManager@Sq@2@IABVNpShape@2@ABVPxRigidActor@2@_NPBVPxBounds3@2@3@Z 100567d0 f   NpShapeManager.obj
 0001:00055830       ?setupAllSceneQuery@NpShapeManager@physx@@QAEXPAVNpScene@2@ABVPxRigidActor@2@_NPBVPxBounds3@2@PBVBVHStructure@Gu@2@@Z 10056830 f   NpShapeManager.obj
 0001:00055920       ?teardownAllSceneQuery@NpShapeManager@physx@@QAEXAAVSceneQueryManager@Sq@2@ABVPxRigidActor@2@@Z 10056920 f   NpShapeManager.obj
 0001:00055a00       ?markAllSceneQueryForUpdate@NpShapeManager@physx@@QAEXAAVSceneQueryManager@Sq@2@ABVPxRigidActor@2@@Z 10056a00 f   NpShapeManager.obj
 0001:00055a90       ?findSceneQueryData@NpShapeManager@physx@@QBEIABVNpShape@2@AAI@Z 10056a90 f   NpShapeManager.obj
 0001:00055ad0       ?findSceneQueryData@NpShapeManager@physx@@QBEIABVNpShape@2@@Z 10056ad0 f   NpShapeManager.obj
 0001:00055b00       ?getWorldBounds@NpShapeManager@physx@@QBE?AVPxBounds3@2@ABVPxRigidActor@2@@Z 10056b00 f   NpShapeManager.obj
 0001:00055e60       ?addBVHStructureShapes@NpShapeManager@physx@@QAEXAAVSceneQueryManager@Sq@2@ABVPxRigidActor@2@PBVBVHStructure@Gu@2@@Z 10056e60 f   NpShapeManager.obj
 0001:00055ff0       ?clearShapesOnRelease@NpShapeManager@physx@@QAEXAAVScene@Scb@2@AAVPxRigidActor@2@@Z 10056ff0 f   NpShapeManager.obj
 0001:00056070       ?releaseExclusiveUserReferences@NpShapeManager@physx@@QAEXXZ 10057070 f   NpShapeManager.obj
 0001:000560c0       ?visualize@NpShapeManager@physx@@QAEXAAVRenderOutput@Cm@2@PAVNpScene@2@ABVPxRigidActor@2@@Z 100570c0 f   NpShapeManager.obj
 0001:000569f0       ?setupSceneQuery@NpShapeManager@physx@@IAEXAAVSceneQueryManager@Sq@2@ABVPxRigidActor@2@I@Z 100579f0 f   NpShapeManager.obj
 0001:00056a70       ?teardownSceneQuery@NpShapeManager@physx@@IAEXAAVSceneQueryManager@Sq@2@I@Z 10057a70 f   NpShapeManager.obj
 0001:00056b10       ??0PxMat44@physx@@QAE@ABVPxMat33@1@ABVPxVec3@1@@Z 10057b10 f i NpShapeManager.obj
 0001:00056b90       ??0PxMat44@physx@@QAE@ABVPxTransform@1@@Z 10057b90 f i NpShapeManager.obj
 0001:00056d30       ??0PxVec4@physx@@QAE@XZ    10057d30 f i NpShapeManager.obj
 0001:00056d40       ?allocate@?$Array@PAVShape@Scb@physx@@V?$InlineAllocator@$0BA@VNamedAllocator@shdfnd@physx@@@shdfnd@3@@shdfnd@physx@@IAEPAPAVShape@Scb@3@I@Z 10057d40 f i NpShapeManager.obj
 0001:00056da0       ?allocate@?$Array@URemovedShape@Scb@physx@@V?$InlineAllocator@$0CA@VNamedAllocator@shdfnd@physx@@@shdfnd@3@@shdfnd@physx@@IAEPAURemovedShape@Scb@3@I@Z 10057da0 f i NpShapeManager.obj
 0001:00056e00       ?copy@?$Array@URemovedShape@Scb@physx@@V?$InlineAllocator@$0CA@VNamedAllocator@shdfnd@physx@@@shdfnd@3@@shdfnd@physx@@KAXPAURemovedShape@Scb@3@0PBU453@@Z 10057e00 f i NpShapeManager.obj
 0001:000570d0       ?growAndPushBack@?$Array@PAVShape@Scb@physx@@V?$InlineAllocator@$0BA@VNamedAllocator@shdfnd@physx@@@shdfnd@3@@shdfnd@physx@@IAEAAPAVShape@Scb@3@ABQAV453@@Z 100580d0 f i NpShapeManager.obj
 0001:00057190       ?growAndPushBack@?$Array@URemovedShape@Scb@physx@@V?$InlineAllocator@$0CA@VNamedAllocator@shdfnd@physx@@@shdfnd@3@@shdfnd@physx@@IAEAAURemovedShape@Scb@3@ABU453@@Z 10058190 f i NpShapeManager.obj
 0001:00057210       ?onShapeAttach@RigidObject@Scb@physx@@QAEXAAVShape@23@@Z 10058210 f i NpShapeManager.obj
 0001:000573c0       ?onShapeDetach@RigidObject@Scb@physx@@QAEXAAVShape@23@_N1@Z 100583c0 f i NpShapeManager.obj
 0001:0005a1d0       ??0NpWriteCheck@physx@@QAE@PAVNpScene@1@PBD_N@Z 1005b1d0 f   NpWriteCheck.obj
 0001:0005a280       ??1NpWriteCheck@physx@@QAE@XZ 1005b280 f   NpWriteCheck.obj
 0001:0005a2f0       ??0PvdMetaDataBinding@Vd@physx@@QAE@XZ 1005b2f0 f   PvdMetaDataPvdBinding.obj
 0001:0005a4e0       ??1PvdMetaDataBinding@Vd@physx@@QAE@XZ 1005b4e0 f   PvdMetaDataPvdBinding.obj
 0001:0005a650       ?registerSDKProperties@PvdMetaDataBinding@Vd@physx@@QAEXAAVPvdDataStream@pvdsdk@3@@Z 1005b650 f   PvdMetaDataPvdBinding.obj
 0001:0005f530       ?sendAllProperties@PvdMetaDataBinding@Vd@physx@@QAEXAAVPvdDataStream@pvdsdk@3@ABVPxPhysics@3@@Z 10060530 f   PvdMetaDataPvdBinding.obj
 0001:0005f690       ?sendAllProperties@PvdMetaDataBinding@Vd@physx@@QAEXAAVPvdDataStream@pvdsdk@3@ABVPxScene@3@@Z 10060690 f   PvdMetaDataPvdBinding.obj
 0001:0005fa80       ?sendBeginFrame@PvdMetaDataBinding@Vd@physx@@QAEXAAVPvdDataStream@pvdsdk@3@PBVPxScene@3@M@Z 10060a80 f   PvdMetaDataPvdBinding.obj
 0001:0005fb20       ?sendContacts@PvdMetaDataBinding@Vd@physx@@QAEXAAVPvdDataStream@pvdsdk@3@ABVPxScene@3@AAV?$Array@UContact@Sc@physx@@VNamedAllocator@shdfnd@3@@shdfnd@3@@Z 10060b20 f   PvdMetaDataPvdBinding.obj
 0001:0005fc90       ?sendContacts@PvdMetaDataBinding@Vd@physx@@QAEXAAVPvdDataStream@pvdsdk@3@ABVPxScene@3@@Z 10060c90 f   PvdMetaDataPvdBinding.obj
 0001:0005fce0       ?sendStats@PvdMetaDataBinding@Vd@physx@@QAEXAAVPvdDataStream@pvdsdk@3@PBVPxScene@3@@Z 10060ce0 f   PvdMetaDataPvdBinding.obj
 0001:0005fe10       ?sendSceneQueries@PvdMetaDataBinding@Vd@physx@@QAEXAAVPvdDataStream@pvdsdk@3@ABVPxScene@3@PAVPsPvd@53@@Z 10060e10 f   PvdMetaDataPvdBinding.obj
 0001:000601b0       ?sendEndFrame@PvdMetaDataBinding@Vd@physx@@QAEXAAVPvdDataStream@pvdsdk@3@PBVPxScene@3@@Z 100611b0 f   PvdMetaDataPvdBinding.obj
 0001:000601d0       ?createInstance@PvdMetaDataBinding@Vd@physx@@QAEXAAVPvdDataStream@pvdsdk@3@ABVPxMaterial@3@ABVPxPhysics@3@@Z 100611d0 f   PvdMetaDataPvdBinding.obj
 0001:00060290       ?sendAllProperties@PvdMetaDataBinding@Vd@physx@@QAEXAAVPvdDataStream@pvdsdk@3@ABVPxMaterial@3@@Z 10061290 f   PvdMetaDataPvdBinding.obj
 0001:000602e0       ?destroyInstance@PvdMetaDataBinding@Vd@physx@@QAEXAAVPvdDataStream@pvdsdk@3@ABVPxMaterial@3@ABVPxPhysics@3@@Z 100612e0 f   PvdMetaDataPvdBinding.obj
 0001:00060310       ?createInstance@PvdMetaDataBinding@Vd@physx@@QAEXAAVPvdDataStream@pvdsdk@3@ABVPxHeightField@3@ABVPxPhysics@3@@Z 10061310 f   PvdMetaDataPvdBinding.obj
 0001:000603a0       ?sendAllProperties@PvdMetaDataBinding@Vd@physx@@QAEXAAVPvdDataStream@pvdsdk@3@ABVPxHeightField@3@@Z 100613a0 f   PvdMetaDataPvdBinding.obj
 0001:00060500       ?destroyInstance@PvdMetaDataBinding@Vd@physx@@QAEXAAVPvdDataStream@pvdsdk@3@ABVPxHeightField@3@ABVPxPhysics@3@@Z 10061500 f   PvdMetaDataPvdBinding.obj
 0001:00060530       ?createInstance@PvdMetaDataBinding@Vd@physx@@QAEXAAVPvdDataStream@pvdsdk@3@ABVPxConvexMesh@3@ABVPxPhysics@3@@Z 10061530 f   PvdMetaDataPvdBinding.obj
 0001:000607b0       ?destroyInstance@PvdMetaDataBinding@Vd@physx@@QAEXAAVPvdDataStream@pvdsdk@3@ABVPxConvexMesh@3@ABVPxPhysics@3@@Z 100617b0 f   PvdMetaDataPvdBinding.obj
 0001:000607e0       ?createInstance@PvdMetaDataBinding@Vd@physx@@QAEXAAVPvdDataStream@pvdsdk@3@ABVPxTriangleMesh@3@ABVPxPhysics@3@@Z 100617e0 f   PvdMetaDataPvdBinding.obj
 0001:00060a00       ?destroyInstance@PvdMetaDataBinding@Vd@physx@@QAEXAAVPvdDataStream@pvdsdk@3@ABVPxTriangleMesh@3@ABVPxPhysics@3@@Z 10061a00 f   PvdMetaDataPvdBinding.obj
 0001:00060a30       ?createInstance@PvdMetaDataBinding@Vd@physx@@QAEXAAVPvdDataStream@pvdsdk@3@ABVPxRigidStatic@3@ABVPxScene@3@ABVPxPhysics@3@PAVPsPvd@53@@Z 10061a30 f   PvdMetaDataPvdBinding.obj
 0001:00060b00       ?sendAllProperties@PvdMetaDataBinding@Vd@physx@@QAEXAAVPvdDataStream@pvdsdk@3@ABVPxRigidStatic@3@@Z 10061b00 f   PvdMetaDataPvdBinding.obj
 0001:00060b50       ?destroyInstance@PvdMetaDataBinding@Vd@physx@@QAEXAAVPvdDataStream@pvdsdk@3@ABVPxRigidStatic@3@ABVPxScene@3@@Z 10061b50 f   PvdMetaDataPvdBinding.obj
 0001:00060b90       ?createInstance@PvdMetaDataBinding@Vd@physx@@QAEXAAVPvdDataStream@pvdsdk@3@ABVPxRigidDynamic@3@ABVPxScene@3@ABVPxPhysics@3@PAVPsPvd@53@@Z 10061b90 f   PvdMetaDataPvdBinding.obj
 0001:00060c80       ?sendAllProperties@PvdMetaDataBinding@Vd@physx@@QAEXAAVPvdDataStream@pvdsdk@3@ABVPxRigidDynamic@3@@Z 10061c80 f   PvdMetaDataPvdBinding.obj
 0001:00060ce0       ?destroyInstance@PvdMetaDataBinding@Vd@physx@@QAEXAAVPvdDataStream@pvdsdk@3@ABVPxRigidDynamic@3@ABVPxScene@3@@Z 10061ce0 f   PvdMetaDataPvdBinding.obj
 0001:00060d20       ?createInstance@PvdMetaDataBinding@Vd@physx@@QAEXAAVPvdDataStream@pvdsdk@3@ABVPxArticulationBase@3@ABVPxScene@3@ABVPxPhysics@3@PAVPsPvd@53@@Z 10061d20 f   PvdMetaDataPvdBinding.obj
 0001:00060f80       ?sendAllProperties@PvdMetaDataBinding@Vd@physx@@QAEXAAVPvdDataStream@pvdsdk@3@ABVPxArticulationBase@3@@Z 10061f80 f   PvdMetaDataPvdBinding.obj
 0001:00060fd0       ?destroyInstance@PvdMetaDataBinding@Vd@physx@@QAEXAAVPvdDataStream@pvdsdk@3@ABVPxArticulationBase@3@ABVPxScene@3@@Z 10061fd0 f   PvdMetaDataPvdBinding.obj
 0001:00061000       ?createInstance@PvdMetaDataBinding@Vd@physx@@QAEXAAVPvdDataStream@pvdsdk@3@ABVPxArticulationLink@3@ABVPxPhysics@3@PAVPsPvd@53@@Z 10062000 f   PvdMetaDataPvdBinding.obj
 0001:00061180       ?sendAllProperties@PvdMetaDataBinding@Vd@physx@@QAEXAAVPvdDataStream@pvdsdk@3@ABVPxArticulationLink@3@@Z 10062180 f   PvdMetaDataPvdBinding.obj
 0001:000611e0       ?destroyInstance@PvdMetaDataBinding@Vd@physx@@QAEXAAVPvdDataStream@pvdsdk@3@ABVPxArticulationLink@3@@Z 100621e0 f   PvdMetaDataPvdBinding.obj
 0001:00061220       ?createInstance@PvdMetaDataBinding@Vd@physx@@QAEXAAVPvdDataStream@pvdsdk@3@ABVPxShape@3@ABVPxRigidActor@3@ABVPxPhysics@3@PAVPsPvd@53@@Z 10062220 f   PvdMetaDataPvdBinding.obj
 0001:00061550       ?sendAllProperties@PvdMetaDataBinding@Vd@physx@@QAEXAAVPvdDataStream@pvdsdk@3@ABVPxShape@3@@Z 10062550 f   PvdMetaDataPvdBinding.obj
 0001:000615b0       ?releaseAndRecreateGeometry@PvdMetaDataBinding@Vd@physx@@QAEXAAVPvdDataStream@pvdsdk@3@ABVPxShape@3@AAVPxPhysics@3@PAVPsPvd@53@@Z 100625b0 f   PvdMetaDataPvdBinding.obj
 0001:00061690       ?updateMaterials@PvdMetaDataBinding@Vd@physx@@QAEXAAVPvdDataStream@pvdsdk@3@ABVPxShape@3@PAVPsPvd@53@@Z 10062690 f   PvdMetaDataPvdBinding.obj
 0001:000616f0       ?destroyInstance@PvdMetaDataBinding@Vd@physx@@QAEXAAVPvdDataStream@pvdsdk@3@ABVPxShape@3@ABVPxRigidActor@3@@Z 100626f0 f   PvdMetaDataPvdBinding.obj
 0001:00061930       ?sendAllProperties@PvdMetaDataBinding@Vd@physx@@QAEXAAVPvdDataStream@pvdsdk@3@ABVPxArticulationJointBase@3@@Z 10062930 f   PvdMetaDataPvdBinding.obj
 0001:00061980       ?updateDynamicActorsAndArticulations@PvdMetaDataBinding@Vd@physx@@QAEXAAVPvdDataStream@pvdsdk@3@PBVPxScene@3@PAVPvdVisualizer@23@@Z 10062980 f   PvdMetaDataPvdBinding.obj
 0001:00061ba0       ?originShift@PvdMetaDataBinding@Vd@physx@@QAEXAAVPvdDataStream@pvdsdk@3@PBVPxScene@3@VPxVec3@3@@Z 10062ba0 f   PvdMetaDataPvdBinding.obj
 0001:00061be0       ?createInstance@PvdMetaDataBinding@Vd@physx@@QAEXAAVPvdDataStream@pvdsdk@3@ABVPxAggregate@3@ABVPxScene@3@@Z 10062be0 f   PvdMetaDataPvdBinding.obj
 0001:00061ca0       ?sendAllProperties@PvdMetaDataBinding@Vd@physx@@QAEXAAVPvdDataStream@pvdsdk@3@ABVPxAggregate@3@@Z 10062ca0 f   PvdMetaDataPvdBinding.obj
 0001:00061cf0       ?destroyInstance@PvdMetaDataBinding@Vd@physx@@QAEXAAVPvdDataStream@pvdsdk@3@ABVPxAggregate@3@ABVPxScene@3@@Z 10062cf0 f   PvdMetaDataPvdBinding.obj
 0001:00061d20       ?detachAggregateActor@PvdMetaDataBinding@Vd@physx@@QAEXAAVPvdDataStream@pvdsdk@3@ABVPxAggregate@3@ABVPxActor@3@@Z 10062d20 f   PvdMetaDataPvdBinding.obj
 0001:00061d40       ?attachAggregateActor@PvdMetaDataBinding@Vd@physx@@QAEXAAVPvdDataStream@pvdsdk@3@ABVPxAggregate@3@ABVPxActor@3@@Z 10062d40 f   PvdMetaDataPvdBinding.obj
 0001:00061d60       ??$registrarPhysicsObject@VPxConvexMeshGeometry@physx@@@PvdMetaDataBinding@Vd@physx@@QAEXAAVPvdDataStream@pvdsdk@2@ABVPxConvexMeshGeometry@2@PAVPsPvd@42@@Z 10062d60 f   PvdMetaDataPvdBinding.obj
 0001:00061da0       ??$registrarPhysicsObject@VPxTriangleMeshGeometry@physx@@@PvdMetaDataBinding@Vd@physx@@QAEXAAVPvdDataStream@pvdsdk@2@ABVPxTriangleMeshGeometry@2@PAVPsPvd@42@@Z 10062da0 f   PvdMetaDataPvdBinding.obj
 0001:00061de0       ??$registrarPhysicsObject@VPxHeightFieldGeometry@physx@@@PvdMetaDataBinding@Vd@physx@@QAEXAAVPvdDataStream@pvdsdk@2@ABVPxHeightFieldGeometry@2@PAVPsPvd@42@@Z 10062de0 f   PvdMetaDataPvdBinding.obj
 0001:00061e90       ??$addPropertyMessage@VPxArticulationLink@physx@@UPxArticulationLinkUpdateBlock@Vd@2@@PvdPropertyDefinitionHelper@pvdsdk@physx@@QAEXXZ 10062e90 f i PvdMetaDataPvdBinding.obj
 0001:00061ed0       ??$addPropertyMessage@VPxRigidDynamic@physx@@UPxRigidDynamicUpdateBlock@Vd@2@@PvdPropertyDefinitionHelper@pvdsdk@physx@@QAEXXZ 10062ed0 f i PvdMetaDataPvdBinding.obj
 0001:00061f10       ??$addPropertyMessageArg@I@PvdPropertyDefinitionHelper@pvdsdk@physx@@QAEXI@Z 10062f10 f i PvdMetaDataPvdBinding.obj
 0001:00061f40       ??$addPropertyMessageArg@VPxTransform@physx@@@PvdPropertyDefinitionHelper@pvdsdk@physx@@QAEXI@Z 10062f40 f i PvdMetaDataPvdBinding.obj
 0001:00061f70       ??$addPropertyMessageArg@VPxVec3@physx@@@PvdPropertyDefinitionHelper@pvdsdk@physx@@QAEXI@Z 10062f70 f i PvdMetaDataPvdBinding.obj
 0001:00061fa0       ??$addPropertyMessageArg@_N@PvdPropertyDefinitionHelper@pvdsdk@physx@@QAEXI@Z 10062fa0 f i PvdMetaDataPvdBinding.obj
 0001:00062510       ??$createProperty@UPvdContact@Vd@physx@@I@PvdMetaDataStream@pvdsdk@physx@@QAE?AW4Enum@PvdErrorType@12@PBD0W43PropertyType@12@V?$DataRef@UNamedValue@pvdsdk@physx@@@12@@Z 10063510 f i PvdMetaDataPvdBinding.obj
 0001:00062570       ??$createProperty@UPvdContact@Vd@physx@@M@PvdMetaDataStream@pvdsdk@physx@@QAE?AW4Enum@PvdErrorType@12@PBD0W43PropertyType@12@V?$DataRef@UNamedValue@pvdsdk@physx@@@12@@Z 10063570 f i PvdMetaDataPvdBinding.obj
 0001:000625d0       ??$createProperty@UPvdContact@Vd@physx@@UObjectRef@pvdsdk@3@@PvdMetaDataStream@pvdsdk@physx@@QAE?AW4Enum@PvdErrorType@12@PBD0W43PropertyType@12@V?$DataRef@UNamedValue@pvdsdk@physx@@@12@@Z 100635d0 f i PvdMetaDataPvdBinding.obj
 0001:00062630       ??$createProperty@UPvdContact@Vd@physx@@VPxVec3@3@@PvdMetaDataStream@pvdsdk@physx@@QAE?AW4Enum@PvdErrorType@12@PBD0W43PropertyType@12@V?$DataRef@UNamedValue@pvdsdk@physx@@@12@@Z 10063630 f i PvdMetaDataPvdBinding.obj
 0001:00062690       ??$createProperty@UPvdHullPolygonData@Vd@physx@@G@PvdMetaDataStream@pvdsdk@physx@@QAE?AW4Enum@PvdErrorType@12@PBD0W43PropertyType@12@V?$DataRef@UNamedValue@pvdsdk@physx@@@12@@Z 10063690 f i PvdMetaDataPvdBinding.obj
 0001:000626f0       ??$createProperty@UPvdOverlap@Vd@physx@@I@PvdMetaDataStream@pvdsdk@physx@@QAE?AW4Enum@PvdErrorType@12@PBD0W43PropertyType@12@V?$DataRef@UNamedValue@pvdsdk@physx@@@12@@Z 100636f0 f i PvdMetaDataPvdBinding.obj
 0001:00062750       ??$createProperty@UPvdOverlap@Vd@physx@@PBD@PvdMetaDataStream@pvdsdk@physx@@QAE?AW4Enum@PvdErrorType@12@PBD0W43PropertyType@12@V?$DataRef@UNamedValue@pvdsdk@physx@@@12@@Z 10063750 f i PvdMetaDataPvdBinding.obj
 0001:000627b0       ??$createProperty@UPvdOverlap@Vd@physx@@UPxFilterData@3@@PvdMetaDataStream@pvdsdk@physx@@QAE?AW4Enum@PvdErrorType@12@PBD0W43PropertyType@12@V?$DataRef@UNamedValue@pvdsdk@physx@@@12@@Z 100637b0 f i PvdMetaDataPvdBinding.obj
 0001:00062810       ??$createProperty@UPvdOverlap@Vd@physx@@VPxTransform@3@@PvdMetaDataStream@pvdsdk@physx@@QAE?AW4Enum@PvdErrorType@12@PBD0W43PropertyType@12@V?$DataRef@UNamedValue@pvdsdk@physx@@@12@@Z 10063810 f i PvdMetaDataPvdBinding.obj
 0001:00062870       ??$createProperty@UPvdRaycast@Vd@physx@@I@PvdMetaDataStream@pvdsdk@physx@@QAE?AW4Enum@PvdErrorType@12@PBD0W43PropertyType@12@V?$DataRef@UNamedValue@pvdsdk@physx@@@12@@Z 10063870 f i PvdMetaDataPvdBinding.obj
 0001:000628d0       ??$createProperty@UPvdRaycast@Vd@physx@@M@PvdMetaDataStream@pvdsdk@physx@@QAE?AW4Enum@PvdErrorType@12@PBD0W43PropertyType@12@V?$DataRef@UNamedValue@pvdsdk@physx@@@12@@Z 100638d0 f i PvdMetaDataPvdBinding.obj
 0001:00062930       ??$createProperty@UPvdRaycast@Vd@physx@@PBD@PvdMetaDataStream@pvdsdk@physx@@QAE?AW4Enum@PvdErrorType@12@PBD0W43PropertyType@12@V?$DataRef@UNamedValue@pvdsdk@physx@@@12@@Z 10063930 f i PvdMetaDataPvdBinding.obj
 0001:00062990       ??$createProperty@UPvdRaycast@Vd@physx@@UPxFilterData@3@@PvdMetaDataStream@pvdsdk@physx@@QAE?AW4Enum@PvdErrorType@12@PBD0W43PropertyType@12@V?$DataRef@UNamedValue@pvdsdk@physx@@@12@@Z 10063990 f i PvdMetaDataPvdBinding.obj
 0001:000629f0       ??$createProperty@UPvdRaycast@Vd@physx@@VPxVec3@3@@PvdMetaDataStream@pvdsdk@physx@@QAE?AW4Enum@PvdErrorType@12@PBD0W43PropertyType@12@V?$DataRef@UNamedValue@pvdsdk@physx@@@12@@Z 100639f0 f i PvdMetaDataPvdBinding.obj
 0001:00062a50       ??$createProperty@UPvdSqHit@Vd@physx@@I@PvdMetaDataStream@pvdsdk@physx@@QAE?AW4Enum@PvdErrorType@12@PBD0W43PropertyType@12@V?$DataRef@UNamedValue@pvdsdk@physx@@@12@@Z 10063a50 f i PvdMetaDataPvdBinding.obj
 0001:00062ab0       ??$createProperty@UPvdSqHit@Vd@physx@@M@PvdMetaDataStream@pvdsdk@physx@@QAE?AW4Enum@PvdErrorType@12@PBD0W43PropertyType@12@V?$DataRef@UNamedValue@pvdsdk@physx@@@12@@Z 10063ab0 f i PvdMetaDataPvdBinding.obj
 0001:00062b10       ??$createProperty@UPvdSqHit@Vd@physx@@UObjectRef@pvdsdk@3@@PvdMetaDataStream@pvdsdk@physx@@QAE?AW4Enum@PvdErrorType@12@PBD0W43PropertyType@12@V?$DataRef@UNamedValue@pvdsdk@physx@@@12@@Z 10063b10 f i PvdMetaDataPvdBinding.obj
 0001:00062b70       ??$createProperty@UPvdSqHit@Vd@physx@@VPxVec3@3@@PvdMetaDataStream@pvdsdk@physx@@QAE?AW4Enum@PvdErrorType@12@PBD0W43PropertyType@12@V?$DataRef@UNamedValue@pvdsdk@physx@@@12@@Z 10063b70 f i PvdMetaDataPvdBinding.obj
 0001:00062bd0       ??$createProperty@UPvdSweep@Vd@physx@@I@PvdMetaDataStream@pvdsdk@physx@@QAE?AW4Enum@PvdErrorType@12@PBD0W43PropertyType@12@V?$DataRef@UNamedValue@pvdsdk@physx@@@12@@Z 10063bd0 f i PvdMetaDataPvdBinding.obj
 0001:00062c30       ??$createProperty@UPvdSweep@Vd@physx@@M@PvdMetaDataStream@pvdsdk@physx@@QAE?AW4Enum@PvdErrorType@12@PBD0W43PropertyType@12@V?$DataRef@UNamedValue@pvdsdk@physx@@@12@@Z 10063c30 f i PvdMetaDataPvdBinding.obj
 0001:00062c90       ??$createProperty@UPvdSweep@Vd@physx@@PBD@PvdMetaDataStream@pvdsdk@physx@@QAE?AW4Enum@PvdErrorType@12@PBD0W43PropertyType@12@V?$DataRef@UNamedValue@pvdsdk@physx@@@12@@Z 10063c90 f i PvdMetaDataPvdBinding.obj
 0001:00062cf0       ??$createProperty@UPvdSweep@Vd@physx@@VPxVec3@3@@PvdMetaDataStream@pvdsdk@physx@@QAE?AW4Enum@PvdErrorType@12@PBD0W43PropertyType@12@V?$DataRef@UNamedValue@pvdsdk@physx@@@12@@Z 10063cf0 f i PvdMetaDataPvdBinding.obj
 0001:00062d50       ??$createProperty@UPxHeightFieldSample@physx@@E@PvdMetaDataStream@pvdsdk@physx@@QAE?AW4Enum@PvdErrorType@12@PBD0W43PropertyType@12@V?$DataRef@UNamedValue@pvdsdk@physx@@@12@@Z 10063d50 f i PvdMetaDataPvdBinding.obj
 0001:00062db0       ??$createProperty@VPxAggregate@physx@@UObjectRef@pvdsdk@2@@PvdMetaDataStream@pvdsdk@physx@@QAE?AW4Enum@PvdErrorType@12@PBD0W43PropertyType@12@V?$DataRef@UNamedValue@pvdsdk@physx@@@12@@Z 10063db0 f i PvdMetaDataPvdBinding.obj
 0001:00062e10       ??$createProperty@VPxArticulationBase@physx@@UObjectRef@pvdsdk@2@@PvdMetaDataStream@pvdsdk@physx@@QAE?AW4Enum@PvdErrorType@12@PBD0W43PropertyType@12@V?$DataRef@UNamedValue@pvdsdk@physx@@@12@@Z 10063e10 f i PvdMetaDataPvdBinding.obj
 0001:00062e70       ??$createProperty@VPxArticulationJointBase@physx@@UObjectRef@pvdsdk@2@@PvdMetaDataStream@pvdsdk@physx@@QAE?AW4Enum@PvdErrorType@12@PBD0W43PropertyType@12@V?$DataRef@UNamedValue@pvdsdk@physx@@@12@@Z 10063e70 f i PvdMetaDataPvdBinding.obj
 0001:00062ed0       ??$createProperty@VPxArticulationLink@physx@@UObjectRef@pvdsdk@2@@PvdMetaDataStream@pvdsdk@physx@@QAE?AW4Enum@PvdErrorType@12@PBD0W43PropertyType@12@V?$DataRef@UNamedValue@pvdsdk@physx@@@12@@Z 10063ed0 f i PvdMetaDataPvdBinding.obj
 0001:00062f30       ??$createProperty@VPxConvexMesh@physx@@VPxVec3@2@@PvdMetaDataStream@pvdsdk@physx@@QAE?AW4Enum@PvdErrorType@12@PBD0W43PropertyType@12@V?$DataRef@UNamedValue@pvdsdk@physx@@@12@@Z 10063f30 f i PvdMetaDataPvdBinding.obj
 0001:00062f90       ??$createProperty@VPxRigidActor@physx@@UObjectRef@pvdsdk@2@@PvdMetaDataStream@pvdsdk@physx@@QAE?AW4Enum@PvdErrorType@12@PBD0W43PropertyType@12@V?$DataRef@UNamedValue@pvdsdk@physx@@@12@@Z 10063f90 f i PvdMetaDataPvdBinding.obj
 0001:00062ff0       ??$createProperty@VPxRigidDynamic@physx@@VPxTransform@2@@PvdMetaDataStream@pvdsdk@physx@@QAE?AW4Enum@PvdErrorType@12@PBD0W43PropertyType@12@V?$DataRef@UNamedValue@pvdsdk@physx@@@12@@Z 10063ff0 f i PvdMetaDataPvdBinding.obj
 0001:00063050       ??$createProperty@VPxScene@physx@@UObjectRef@pvdsdk@2@@PvdMetaDataStream@pvdsdk@physx@@QAE?AW4Enum@PvdErrorType@12@PBD0W43PropertyType@12@V?$DataRef@UNamedValue@pvdsdk@physx@@@12@@Z 10064050 f i PvdMetaDataPvdBinding.obj
 0001:000630b0       ??$createProperty@VPxScene@physx@@UPvdOverlap@Vd@2@@PvdMetaDataStream@pvdsdk@physx@@QAE?AW4Enum@PvdErrorType@12@PBD0W43PropertyType@12@V?$DataRef@UNamedValue@pvdsdk@physx@@@12@@Z 100640b0 f i PvdMetaDataPvdBinding.obj
 0001:00063110       ??$createProperty@VPxScene@physx@@UPvdRaycast@Vd@2@@PvdMetaDataStream@pvdsdk@physx@@QAE?AW4Enum@PvdErrorType@12@PBD0W43PropertyType@12@V?$DataRef@UNamedValue@pvdsdk@physx@@@12@@Z 10064110 f i PvdMetaDataPvdBinding.obj
 0001:00063170       ??$createProperty@VPxScene@physx@@UPvdSqHit@Vd@2@@PvdMetaDataStream@pvdsdk@physx@@QAE?AW4Enum@PvdErrorType@12@PBD0W43PropertyType@12@V?$DataRef@UNamedValue@pvdsdk@physx@@@12@@Z 10064170 f i PvdMetaDataPvdBinding.obj
 0001:000631d0       ??$createProperty@VPxScene@physx@@UPvdSweep@Vd@2@@PvdMetaDataStream@pvdsdk@physx@@QAE?AW4Enum@PvdErrorType@12@PBD0W43PropertyType@12@V?$DataRef@UNamedValue@pvdsdk@physx@@@12@@Z 100641d0 f i PvdMetaDataPvdBinding.obj
 0001:00063230       ??$createProperty@VPxScene@physx@@UPxFilterData@2@@PvdMetaDataStream@pvdsdk@physx@@QAE?AW4Enum@PvdErrorType@12@PBD0W43PropertyType@12@V?$DataRef@UNamedValue@pvdsdk@physx@@@12@@Z 10064230 f i PvdMetaDataPvdBinding.obj
 0001:00063290       ??$createProperty@VPxScene@physx@@VPxTransform@2@@PvdMetaDataStream@pvdsdk@physx@@QAE?AW4Enum@PvdErrorType@12@PBD0W43PropertyType@12@V?$DataRef@UNamedValue@pvdsdk@physx@@@12@@Z 10064290 f i PvdMetaDataPvdBinding.obj
 0001:000632f0       ??$createProperty@VPxShape@physx@@UObjectRef@pvdsdk@2@@PvdMetaDataStream@pvdsdk@physx@@QAE?AW4Enum@PvdErrorType@12@PBD0W43PropertyType@12@V?$DataRef@UNamedValue@pvdsdk@physx@@@12@@Z 100642f0 f i PvdMetaDataPvdBinding.obj
 0001:00063350       ??$createProperty@VPxTriangleMesh@physx@@I@PvdMetaDataStream@pvdsdk@physx@@QAE?AW4Enum@PvdErrorType@12@PBD0W43PropertyType@12@V?$DataRef@UNamedValue@pvdsdk@physx@@@12@@Z 10064350 f i PvdMetaDataPvdBinding.obj
 0001:00063e10       ??$makePvdPropertyFilter@UPvdClassInfoDefine@Vd@physx@@@Vd@physx@@YA?AU?$PvdPropertyFilter@UPvdClassInfoDefine@Vd@physx@@@01@UPvdClassInfoDefine@01@@Z 10064e10 f i PvdMetaDataPvdBinding.obj
 0001:00063e40       ??$registrarPhysicsObject@VPxBoxGeometry@physx@@@PvdMetaDataBinding@Vd@physx@@QAEXAAVPvdDataStream@pvdsdk@2@ABVPxBoxGeometry@2@PAVPsPvd@42@@Z 10064e40 f i PvdMetaDataPvdBinding.obj
 0001:00063e50       ??$registrarPhysicsObject@VPxCapsuleGeometry@physx@@@PvdMetaDataBinding@Vd@physx@@QAEXAAVPvdDataStream@pvdsdk@2@ABVPxCapsuleGeometry@2@PAVPsPvd@42@@Z 10064e50 f i PvdMetaDataPvdBinding.obj
 0001:00063e60       ??$registrarPhysicsObject@VPxSphereGeometry@physx@@@PvdMetaDataBinding@Vd@physx@@QAEXAAVPvdDataStream@pvdsdk@2@ABVPxSphereGeometry@2@PAVPsPvd@42@@Z 10064e60 f i PvdMetaDataPvdBinding.obj
 0001:00064ce0       ??$visitAllProperties@VPxArticulationLink@physx@@U?$PvdPropertyFilter@UPvdClassInfoValueStructDefine@Vd@physx@@@Vd@2@@physx@@YAIU?$PvdPropertyFilter@UPvdClassInfoValueStructDefine@Vd@physx@@@Vd@0@@Z 10065ce0 f i PvdMetaDataPvdBinding.obj
 0001:00064ea0       ??$visitAllProperties@VPxConvexMeshGeometry@physx@@U?$PvdPropertyFilter@UPvdClassInfoValueStructDefine@Vd@physx@@@Vd@2@@physx@@YAIU?$PvdPropertyFilter@UPvdClassInfoValueStructDefine@Vd@physx@@@Vd@0@@Z 10065ea0 f i PvdMetaDataPvdBinding.obj
 0001:00065000       ??$visitAllProperties@VPxTriangleMeshGeometry@physx@@U?$PvdPropertyFilter@UPvdClassInfoValueStructDefine@Vd@physx@@@Vd@2@@physx@@YAIU?$PvdPropertyFilter@UPvdClassInfoValueStructDefine@Vd@physx@@@Vd@0@@Z 10066000 f i PvdMetaDataPvdBinding.obj
 0001:00065160       ??$visitBaseProperties@U?$PvdPropertyFilter@UPvdClassInfoValueStructDefine@Vd@physx@@@Vd@physx@@@PxRigidActorGeneratedInfo@physx@@QBEIU?$PvdPropertyFilter@UPvdClassInfoValueStructDefine@Vd@physx@@@Vd@1@I@Z 10066160 f i PvdMetaDataPvdBinding.obj
 0001:00065190       ??$visitInstanceProperties@U?$PvdPropertyFilter@UPvdClassInfoDefine@Vd@physx@@@Vd@physx@@@PxActorGeneratedInfo@physx@@QBEIU?$PvdPropertyFilter@UPvdClassInfoDefine@Vd@physx@@@Vd@1@I@Z 10066190 f i PvdMetaDataPvdBinding.obj
 0001:00065340       ??$visitInstanceProperties@U?$PvdPropertyFilter@UPvdClassInfoDefine@Vd@physx@@@Vd@physx@@@PxArticulationBaseGeneratedInfo@physx@@QBEIU?$PvdPropertyFilter@UPvdClassInfoDefine@Vd@physx@@@Vd@1@I@Z 10066340 f i PvdMetaDataPvdBinding.obj
 0001:00065680       ??$visitInstanceProperties@U?$PvdPropertyFilter@UPvdClassInfoDefine@Vd@physx@@@Vd@physx@@@PxConstraintGeneratedInfo@physx@@QBEIU?$PvdPropertyFilter@UPvdClassInfoDefine@Vd@physx@@@Vd@1@I@Z 10066680 f i PvdMetaDataPvdBinding.obj
 0001:000659e0       ??$visitInstanceProperties@U?$PvdPropertyFilter@UPvdClassInfoDefine@Vd@physx@@@Vd@physx@@@PxConvexMeshGeometryGeneratedInfo@physx@@QBEIU?$PvdPropertyFilter@UPvdClassInfoDefine@Vd@physx@@@Vd@1@I@Z 100669e0 f i PvdMetaDataPvdBinding.obj
 0001:00065b60       ??$visitInstanceProperties@U?$PvdPropertyFilter@UPvdClassInfoDefine@Vd@physx@@@Vd@physx@@@PxHeightFieldDescGeneratedInfo@physx@@QBEIU?$PvdPropertyFilter@UPvdClassInfoDefine@Vd@physx@@@Vd@1@I@Z 10066b60 f i PvdMetaDataPvdBinding.obj
 0001:00065da0       ??$visitInstanceProperties@U?$PvdPropertyFilter@UPvdClassInfoDefine@Vd@physx@@@Vd@physx@@@PxHeightFieldGeometryGeneratedInfo@physx@@QBEIU?$PvdPropertyFilter@UPvdClassInfoDefine@Vd@physx@@@Vd@1@I@Z 10066da0 f i PvdMetaDataPvdBinding.obj
 0001:00065fa0       ??$visitInstanceProperties@U?$PvdPropertyFilter@UPvdClassInfoDefine@Vd@physx@@@Vd@physx@@@PxMaterialGeneratedInfo@physx@@QBEIU?$PvdPropertyFilter@UPvdClassInfoDefine@Vd@physx@@@Vd@1@I@Z 10066fa0 f i PvdMetaDataPvdBinding.obj
 0001:000662f0       ??$visitInstanceProperties@U?$PvdPropertyFilter@UPvdClassInfoDefine@Vd@physx@@@Vd@physx@@@PxMeshScaleGeneratedInfo@physx@@QBEIU?$PvdPropertyFilter@UPvdClassInfoDefine@Vd@physx@@@Vd@1@I@Z 100672f0 f i PvdMetaDataPvdBinding.obj
 0001:000663c0       ??$visitInstanceProperties@U?$PvdPropertyFilter@UPvdClassInfoDefine@Vd@physx@@@Vd@physx@@@PxRigidBodyGeneratedInfo@physx@@QBEIU?$PvdPropertyFilter@UPvdClassInfoDefine@Vd@physx@@@Vd@1@I@Z 100673c0 f i PvdMetaDataPvdBinding.obj
 0001:000669a0       ??$visitInstanceProperties@U?$PvdPropertyFilter@UPvdClassInfoDefine@Vd@physx@@@Vd@physx@@@PxRigidDynamicGeneratedInfo@physx@@QBEIU?$PvdPropertyFilter@UPvdClassInfoDefine@Vd@physx@@@Vd@1@I@Z 100679a0 f i PvdMetaDataPvdBinding.obj
 0001:00066d70       ??$visitInstanceProperties@U?$PvdPropertyFilter@UPvdClassInfoDefine@Vd@physx@@@Vd@physx@@@PxSceneDescGeneratedInfo@physx@@QBEIU?$PvdPropertyFilter@UPvdClassInfoDefine@Vd@physx@@@Vd@1@I@Z 10067d70 f i PvdMetaDataPvdBinding.obj
 0001:00067c10       ??$visitInstanceProperties@U?$PvdPropertyFilter@UPvdClassInfoDefine@Vd@physx@@@Vd@physx@@@PxSceneLimitsGeneratedInfo@physx@@QBEIU?$PvdPropertyFilter@UPvdClassInfoDefine@Vd@physx@@@Vd@1@I@Z 10068c10 f i PvdMetaDataPvdBinding.obj
 0001:00067f30       ??$visitInstanceProperties@U?$PvdPropertyFilter@UPvdClassInfoDefine@Vd@physx@@@Vd@physx@@@PxShapeGeneratedInfo@physx@@QBEIU?$PvdPropertyFilter@UPvdClassInfoDefine@Vd@physx@@@Vd@1@I@Z 10068f30 f i PvdMetaDataPvdBinding.obj
 0001:00068450       ??$visitInstanceProperties@U?$PvdPropertyFilter@UPvdClassInfoDefine@Vd@physx@@@Vd@physx@@@PxSimulationStatisticsGeneratedInfo@physx@@QBEIU?$PvdPropertyFilter@UPvdClassInfoDefine@Vd@physx@@@Vd@1@I@Z 10069450 f i PvdMetaDataPvdBinding.obj
 0001:00069000       ??$visitInstanceProperties@U?$PvdPropertyFilter@UPvdClassInfoDefine@Vd@physx@@@Vd@physx@@@PxTriangleMeshGeometryGeneratedInfo@physx@@QBEIU?$PvdPropertyFilter@UPvdClassInfoDefine@Vd@physx@@@Vd@1@I@Z 1006a000 f i PvdMetaDataPvdBinding.obj
 0001:00069180       ??$visitInstanceProperties@U?$PvdPropertyFilter@UPvdClassInfoDefine@Vd@physx@@@Vd@physx@@@PxgDynamicsMemoryConfigGeneratedInfo@physx@@QBEIU?$PvdPropertyFilter@UPvdClassInfoDefine@Vd@physx@@@Vd@1@I@Z 1006a180 f i PvdMetaDataPvdBinding.obj
 0001:00069490       ??$visitInstanceProperties@U?$PvdPropertyFilter@UPvdClassInfoValueStructDefine@Vd@physx@@@Vd@physx@@@PxActorGeneratedInfo@physx@@QBEIU?$PvdPropertyFilter@UPvdClassInfoValueStructDefine@Vd@physx@@@Vd@1@I@Z 1006a490 f i PvdMetaDataPvdBinding.obj
 0001:00069600       ??$visitInstanceProperties@U?$PvdPropertyFilter@UPvdClassInfoValueStructDefine@Vd@physx@@@Vd@physx@@@PxArticulationBaseGeneratedInfo@physx@@QBEIU?$PvdPropertyFilter@UPvdClassInfoValueStructDefine@Vd@physx@@@Vd@1@I@Z 1006a600 f i PvdMetaDataPvdBinding.obj
 0001:000698e0       ??$visitInstanceProperties@U?$PvdPropertyFilter@UPvdClassInfoValueStructDefine@Vd@physx@@@Vd@physx@@@PxConstraintGeneratedInfo@physx@@QBEIU?$PvdPropertyFilter@UPvdClassInfoValueStructDefine@Vd@physx@@@Vd@1@I@Z 1006a8e0 f i PvdMetaDataPvdBinding.obj
 0001:00069bd0       ??$visitInstanceProperties@U?$PvdPropertyFilter@UPvdClassInfoValueStructDefine@Vd@physx@@@Vd@physx@@@PxHeightFieldDescGeneratedInfo@physx@@QBEIU?$PvdPropertyFilter@UPvdClassInfoValueStructDefine@Vd@physx@@@Vd@1@I@Z 1006abd0 f i PvdMetaDataPvdBinding.obj
 0001:00069dc0       ??$visitInstanceProperties@U?$PvdPropertyFilter@UPvdClassInfoValueStructDefine@Vd@physx@@@Vd@physx@@@PxHeightFieldGeometryGeneratedInfo@physx@@QBEIU?$PvdPropertyFilter@UPvdClassInfoValueStructDefine@Vd@physx@@@Vd@1@I@Z 1006adc0 f i PvdMetaDataPvdBinding.obj
 0001:00069f80       ??$visitInstanceProperties@U?$PvdPropertyFilter@UPvdClassInfoValueStructDefine@Vd@physx@@@Vd@physx@@@PxMaterialGeneratedInfo@physx@@QBEIU?$PvdPropertyFilter@UPvdClassInfoValueStructDefine@Vd@physx@@@Vd@1@I@Z 1006af80 f i PvdMetaDataPvdBinding.obj
 0001:0006a250       ??$visitInstanceProperties@U?$PvdPropertyFilter@UPvdClassInfoValueStructDefine@Vd@physx@@@Vd@physx@@@PxMeshScaleGeneratedInfo@physx@@QBEIU?$PvdPropertyFilter@UPvdClassInfoValueStructDefine@Vd@physx@@@Vd@1@I@Z 1006b250 f i PvdMetaDataPvdBinding.obj
 0001:0006a310       ??$visitInstanceProperties@U?$PvdPropertyFilter@UPvdClassInfoValueStructDefine@Vd@physx@@@Vd@physx@@@PxRigidActorGeneratedInfo@physx@@QBEIU?$PvdPropertyFilter@UPvdClassInfoValueStructDefine@Vd@physx@@@Vd@1@I@Z 1006b310 f i PvdMetaDataPvdBinding.obj
 0001:0006a380       ??$visitInstanceProperties@U?$PvdPropertyFilter@UPvdClassInfoValueStructDefine@Vd@physx@@@Vd@physx@@@PxRigidBodyGeneratedInfo@physx@@QBEIU?$PvdPropertyFilter@UPvdClassInfoValueStructDefine@Vd@physx@@@Vd@1@I@Z 1006b380 f i PvdMetaDataPvdBinding.obj
 0001:0006a8f0       ??$visitInstanceProperties@U?$PvdPropertyFilter@UPvdClassInfoValueStructDefine@Vd@physx@@@Vd@physx@@@PxRigidDynamicGeneratedInfo@physx@@QBEIU?$PvdPropertyFilter@UPvdClassInfoValueStructDefine@Vd@physx@@@Vd@1@I@Z 1006b8f0 f i PvdMetaDataPvdBinding.obj
 0001:0006ac60       ??$visitInstanceProperties@U?$PvdPropertyFilter@UPvdClassInfoValueStructDefine@Vd@physx@@@Vd@physx@@@PxSceneDescGeneratedInfo@physx@@QBEIU?$PvdPropertyFilter@UPvdClassInfoValueStructDefine@Vd@physx@@@Vd@1@I@Z 1006bc60 f i PvdMetaDataPvdBinding.obj
 0001:0006b8d0       ??$visitInstanceProperties@U?$PvdPropertyFilter@UPvdClassInfoValueStructDefine@Vd@physx@@@Vd@physx@@@PxSceneLimitsGeneratedInfo@physx@@QBEIU?$PvdPropertyFilter@UPvdClassInfoValueStructDefine@Vd@physx@@@Vd@1@I@Z 1006c8d0 f i PvdMetaDataPvdBinding.obj
 0001:0006bba0       ??$visitInstanceProperties@U?$PvdPropertyFilter@UPvdClassInfoValueStructDefine@Vd@physx@@@Vd@physx@@@PxShapeGeneratedInfo@physx@@QBEIU?$PvdPropertyFilter@UPvdClassInfoValueStructDefine@Vd@physx@@@Vd@1@I@Z 1006cba0 f i PvdMetaDataPvdBinding.obj
 0001:0006c030       ??$visitInstanceProperties@U?$PvdPropertyFilter@UPvdClassInfoValueStructDefine@Vd@physx@@@Vd@physx@@@PxSimulationStatisticsGeneratedInfo@physx@@QBEIU?$PvdPropertyFilter@UPvdClassInfoValueStructDefine@Vd@physx@@@Vd@1@I@Z 1006d030 f i PvdMetaDataPvdBinding.obj
 0001:0006cbb0       ??$visitInstanceProperties@U?$PvdPropertyFilter@UPvdClassInfoValueStructDefine@Vd@physx@@@Vd@physx@@@PxgDynamicsMemoryConfigGeneratedInfo@physx@@QBEIU?$PvdPropertyFilter@UPvdClassInfoValueStructDefine@Vd@physx@@@Vd@1@I@Z 1006dbb0 f i PvdMetaDataPvdBinding.obj
 0001:0006ce80       ??0?$InlineArray@PAVPxShape@physx@@$04VNamedAllocator@shdfnd@2@@shdfnd@physx@@QAE@ABVNamedAllocator@12@@Z 1006de80 f i PvdMetaDataPvdBinding.obj
 0001:0006cf10       ??0PvdContact@Vd@physx@@QAE@XZ 1006df10 f i PvdMetaDataPvdBinding.obj
 0001:0006cf20       ??0PvdOverlap@Vd@physx@@QAE@XZ 1006df20 f i PvdMetaDataPvdBinding.obj
 0001:0006cf40       ??0PvdRaycast@Vd@physx@@QAE@XZ 1006df40 f i PvdMetaDataPvdBinding.obj
 0001:0006cf60       ??0PvdSqHit@Vd@physx@@QAE@XZ 1006df60 f i PvdMetaDataPvdBinding.obj
 0001:0006cfc0       ??0PvdSweep@Vd@physx@@QAE@XZ 1006dfc0 f i PvdMetaDataPvdBinding.obj
 0001:0006cfd0       ??0PxFilterData@physx@@QAE@XZ 1006dfd0 f i PvdMetaDataPvdBinding.obj
 0001:0006cff0       ??0PxHeightFieldGeometry@physx@@QAE@XZ 1006dff0 f i PvdMetaDataPvdBinding.obj
 0001:0006d030       ??1PvdCommand@PvdInstanceDataStream@pvdsdk@physx@@UAE@XZ 1006e030 f i PvdMetaDataPvdBinding.obj
 0001:0006d040       ??_GChangeOjectRefCmd@Vd@physx@@UAEPAXI@Z 1006e040 f i PvdMetaDataPvdBinding.obj
 0001:0006d040       ??_EChangeOjectRefCmd@Vd@physx@@UAEPAXI@Z 1006e040 f i PvdMetaDataPvdBinding.obj
 0001:0006d070       ??_GPvdCommand@PvdInstanceDataStream@pvdsdk@physx@@UAEPAXI@Z 1006e070 f i PvdMetaDataPvdBinding.obj
 0001:0006d070       ??_EPvdCommand@PvdInstanceDataStream@pvdsdk@physx@@UAEPAXI@Z 1006e070 f i PvdMetaDataPvdBinding.obj
 0001:0006d0a0       ?addPropertyMessageArg@?$SimplePropertyValueStructOp@PBD@Vd@physx@@QAEXAAVPvdPropertyDefinitionHelper@pvdsdk@3@I@Z 1006e0a0 f i PvdMetaDataPvdBinding.obj
 0001:0006d0d0       ?allocate@?$Array@PAVPxShape@physx@@V?$InlineAllocator@$0BE@VNamedAllocator@shdfnd@physx@@@shdfnd@2@@shdfnd@physx@@IAEPAPAVPxShape@3@I@Z 1006e0d0 f i PvdMetaDataPvdBinding.obj
 0001:0006d130       ?append@?$ScopedPropertyValueSender@UPvdSqHit@Vd@physx@@$0CA@U123@U?$NullConverter@UPvdSqHit@Vd@physx@@@23@@Vd@physx@@QAEXABUPvdSqHit@23@@Z 1006e130 f i PvdMetaDataPvdBinding.obj
 0001:0006d1d0       ?canRun@ChangeOjectRefCmd@Vd@physx@@UAE_NAAVPvdInstanceDataStream@pvdsdk@3@@Z 1006e1d0 f i PvdMetaDataPvdBinding.obj
 0001:0006d1f0       ?canRun@PvdCommand@PvdInstanceDataStream@pvdsdk@physx@@UAE_NAAV234@@Z 1006e1f0 f i PvdMetaDataPvdBinding.obj
 0001:0006d290       ?create@?$HashBase@PBVPxRigidActor@physx@@PBV12@U?$Hash@PBVPxRigidActor@physx@@@shdfnd@2@UGetKey@?$HashSetBase@PBVPxRigidActor@physx@@U?$Hash@PBVPxRigidActor@physx@@@shdfnd@2@VNonTrackingAllocator@42@$0A@@internal@42@VNonTrackingAllocator@42@$0A@@internal@shdfnd@physx@@QAEPAPBVPxRigidActor@4@ABQBV54@AA_N@Z 1006e290 f i PvdMetaDataPvdBinding.obj
 0001:0006d3c0       ?create@?$HashBase@V?$Pair@QBVPxShape@physx@@PAV?$HashSet@PBVPxRigidActor@physx@@U?$Hash@PBVPxRigidActor@physx@@@shdfnd@2@VNonTrackingAllocator@42@@shdfnd@2@@shdfnd@physx@@PBVPxShape@3@U?$Hash@PBVPxShape@physx@@@23@UGetKey@?$HashMapBase@PBVPxShape@physx@@PAV?$HashSet@PBVPxRigidActor@physx@@U?$Hash@PBVPxRigidActor@physx@@@shdfnd@2@VNonTrackingAllocator@42@@shdfnd@2@U?$Hash@PBVPxShape@physx@@@42@VNonTrackingAllocator@42@@internal@23@VNonTrackingAllocator@23@$00@internal@shdfnd@physx@@QAEPAV?$Pair@QBVPxShape@physx@@PAV?$HashSet@PBVPxRigidActor@physx@@U?$Hash@PBVPxRigidActor@physx@@@shdfnd@2@VNonTrackingAllocator@42@@shdfnd@2@@34@ABQBVPxShape@4@AA_N@Z 1006e3c0 f i PvdMetaDataPvdBinding.obj
 0001:0006d4d0       ?defineProperty@?$PropertyDefinitionOp@PBD@Vd@physx@@QAEXAAVPvdPropertyDefinitionHelper@pvdsdk@3@UNamespacedName@53@@Z 1006e4d0 f i PvdMetaDataPvdBinding.obj
 0001:0006d510       ?defineProperty@?$PropertyDefinitionOp@VPxTransform@physx@@@Vd@physx@@QAEXAAVPvdPropertyDefinitionHelper@pvdsdk@3@UNamespacedName@53@@Z 1006e510 f i PvdMetaDataPvdBinding.obj
 0001:0006d550       ?erase@?$HashBase@V?$Pair@QBVPxShape@physx@@PAV?$HashSet@PBVPxRigidActor@physx@@U?$Hash@PBVPxRigidActor@physx@@@shdfnd@2@VNonTrackingAllocator@42@@shdfnd@2@@shdfnd@physx@@PBVPxShape@3@U?$Hash@PBVPxShape@physx@@@23@UGetKey@?$HashMapBase@PBVPxShape@physx@@PAV?$HashSet@PBVPxRigidActor@physx@@U?$Hash@PBVPxRigidActor@physx@@@shdfnd@2@VNonTrackingAllocator@42@@shdfnd@2@U?$Hash@PBVPxShape@physx@@@42@VNonTrackingAllocator@42@@internal@23@VNonTrackingAllocator@23@$00@internal@shdfnd@physx@@QAE_NABQBVPxShape@4@@Z 1006e550 f i PvdMetaDataPvdBinding.obj
 0001:0006d670       ?erase@?$HashSetBase@PAVPxActor@physx@@U?$Hash@PAVPxActor@physx@@@shdfnd@2@VNonTrackingAllocator@42@$0A@@internal@shdfnd@physx@@QAE_NABQAVPxActor@4@@Z 1006e670 f i PvdMetaDataPvdBinding.obj
 0001:0006d710       ?find@?$HashMapBase@PBVPxShape@physx@@PAV?$HashSet@PBVPxRigidActor@physx@@U?$Hash@PBVPxRigidActor@physx@@@shdfnd@2@VNonTrackingAllocator@42@@shdfnd@2@U?$Hash@PBVPxShape@physx@@@42@VNonTrackingAllocator@42@@internal@shdfnd@physx@@QBEPBV?$Pair@QBVPxShape@physx@@PAV?$HashSet@PBVPxRigidActor@physx@@U?$Hash@PBVPxRigidActor@physx@@@shdfnd@2@VNonTrackingAllocator@42@@shdfnd@2@@34@ABQBVPxShape@4@@Z 1006e710 f i PvdMetaDataPvdBinding.obj
 0001:0006d790       ?recreate@?$Array@EVNamedAllocator@shdfnd@physx@@@shdfnd@physx@@IAEXI@Z 1006e790 f i PvdMetaDataPvdBinding.obj
 0001:0006d860       ?recreate@?$Array@PAVPxArticulationBase@physx@@VNamedAllocator@shdfnd@2@@shdfnd@physx@@IAEXI@Z 1006e860 f i PvdMetaDataPvdBinding.obj
 0001:0006d920       ?recreate@?$Array@PAVPxArticulationLink@physx@@VNamedAllocator@shdfnd@2@@shdfnd@physx@@IAEXI@Z 1006e920 f i PvdMetaDataPvdBinding.obj
 0001:0006d9e0       ?recreate@?$Array@PAVPxShape@physx@@V?$InlineAllocator@$0BE@VNamedAllocator@shdfnd@physx@@@shdfnd@2@@shdfnd@physx@@IAEXI@Z 1006e9e0 f i PvdMetaDataPvdBinding.obj
 0001:0006db50       ?reserveInternal@?$HashBase@PBVPxRigidActor@physx@@PBV12@U?$Hash@PBVPxRigidActor@physx@@@shdfnd@2@UGetKey@?$HashSetBase@PBVPxRigidActor@physx@@U?$Hash@PBVPxRigidActor@physx@@@shdfnd@2@VNonTrackingAllocator@42@$0A@@internal@42@VNonTrackingAllocator@42@$0A@@internal@shdfnd@physx@@AAEXI@Z 1006eb50 f i PvdMetaDataPvdBinding.obj
 0001:0006dec0       ?reserveInternal@?$HashBase@V?$Pair@QBVPxShape@physx@@PAV?$HashSet@PBVPxRigidActor@physx@@U?$Hash@PBVPxRigidActor@physx@@@shdfnd@2@VNonTrackingAllocator@42@@shdfnd@2@@shdfnd@physx@@PBVPxShape@3@U?$Hash@PBVPxShape@physx@@@23@UGetKey@?$HashMapBase@PBVPxShape@physx@@PAV?$HashSet@PBVPxRigidActor@physx@@U?$Hash@PBVPxRigidActor@physx@@@shdfnd@2@VNonTrackingAllocator@42@@shdfnd@2@U?$Hash@PBVPxShape@physx@@@42@VNonTrackingAllocator@42@@internal@23@VNonTrackingAllocator@23@$00@internal@shdfnd@physx@@AAEXI@Z 1006eec0 f i PvdMetaDataPvdBinding.obj
 0001:0006e050       ?resize@?$Array@EVNamedAllocator@shdfnd@physx@@@shdfnd@physx@@QAEXIABE@Z 1006f050 f i PvdMetaDataPvdBinding.obj
 0001:0006e110       ?resize@?$Array@PAVPxActor@physx@@VNamedAllocator@shdfnd@2@@shdfnd@physx@@QAEXIABQAVPxActor@3@@Z 1006f110 f i PvdMetaDataPvdBinding.obj
 0001:0006e1d0       ?resize@?$Array@PAVPxArticulationBase@physx@@VNamedAllocator@shdfnd@2@@shdfnd@physx@@QAEXIABQAVPxArticulationBase@3@@Z 1006f1d0 f i PvdMetaDataPvdBinding.obj
 0001:0006e290       ?resize@?$Array@PAVPxArticulationLink@physx@@VNamedAllocator@shdfnd@2@@shdfnd@physx@@QAEXIABQAVPxArticulationLink@3@@Z 1006f290 f i PvdMetaDataPvdBinding.obj
 0001:0006e350       ?resize@?$Array@PAVPxShape@physx@@V?$InlineAllocator@$0BE@VNamedAllocator@shdfnd@physx@@@shdfnd@2@@shdfnd@physx@@QAEXIABQAVPxShape@3@@Z 1006f350 f i PvdMetaDataPvdBinding.obj
 0001:0006e410       ?run@ChangeOjectRefCmd@Vd@physx@@UAEXAAVPvdInstanceDataStream@pvdsdk@3@@Z 1006f410 f i PvdMetaDataPvdBinding.obj
 0001:0006e470       ?run@PvdCommand@PvdInstanceDataStream@pvdsdk@physx@@UAEXAAV234@@Z 1006f470 f i PvdMetaDataPvdBinding.obj
 0001:0006ee50       ?setupValueStructOffset@?$PvdPropertyFilter@UPvdClassInfoDefine@Vd@physx@@@Vd@physx@@QAEXABUValueStructOffsetRecord@23@IPAI@Z 1006fe50 f i PvdMetaDataPvdBinding.obj
 0001:0006ee80       ?setupValueStructOffset@?$PvdPropertyFilter@UPvdClassInfoValueStructDefine@Vd@physx@@@Vd@physx@@QAEXABUValueStructOffsetRecord@23@IPAI@Z 1006fe80 f i PvdMetaDataPvdBinding.obj
 0001:0006eeb0       ??0PvdPhysicsClient@Vd@physx@@QAE@PAVPsPvd@pvdsdk@2@@Z 1006feb0 f   PvdPhysicsClient.obj
 0001:0006eef0       ??1PvdPhysicsClient@Vd@physx@@UAE@XZ 1006fef0 f   PvdPhysicsClient.obj
 0001:0006ef30       ?isConnected@PvdPhysicsClient@Vd@physx@@UBE_NXZ 1006ff30 f   PvdPhysicsClient.obj
 0001:0006ef40       ?onPvdConnected@PvdPhysicsClient@Vd@physx@@UAEXXZ 1006ff40 f   PvdPhysicsClient.obj
 0001:0006ef70       ?onPvdDisconnected@PvdPhysicsClient@Vd@physx@@UAEXXZ 1006ff70 f   PvdPhysicsClient.obj
 0001:0006ef90       ?flush@PvdPhysicsClient@Vd@physx@@UAEXXZ 1006ff90 f   PvdPhysicsClient.obj
 0001:0006efa0       ?getDataStream@PvdPhysicsClient@Vd@physx@@UAEPAVPvdDataStream@pvdsdk@3@XZ 1006ffa0 f   PvdPhysicsClient.obj
 0001:0006efb0       ?getMetaDataBinding@PvdPhysicsClient@Vd@physx@@QAEPAVPvdMetaDataBinding@23@XZ 1006ffb0 f   PvdPhysicsClient.obj
 0001:0006efc0       ?getUserRender@PvdPhysicsClient@Vd@physx@@UAEPAVPvdUserRenderer@pvdsdk@3@XZ 1006ffc0 f   PvdPhysicsClient.obj
 0001:0006efd0       ?sendEntireSDK@PvdPhysicsClient@Vd@physx@@QAEXXZ 1006ffd0 f   PvdPhysicsClient.obj
 0001:0006f370       ?destroyPvdInstance@PvdPhysicsClient@Vd@physx@@QAEXPBVPxPhysics@3@@Z 10070370 f   PvdPhysicsClient.obj
 0001:0006f380       ?onGuMeshFactoryBufferRelease@PvdPhysicsClient@Vd@physx@@UAEXPBVPxBase@3@G@Z 10070380 f   PvdPhysicsClient.obj
 0001:0006f410       ?reportError@PvdPhysicsClient@Vd@physx@@UAEXW4Enum@PxErrorCode@3@PBD1H@Z 10070410 f   PvdPhysicsClient.obj
 0001:0006f430       ?createPvdInstance@PvdPhysicsClient@Vd@physx@@AAEXPBVPxTriangleMesh@3@@Z 10070430 f   PvdPhysicsClient.obj
 0001:0006f450       ?destroyPvdInstance@PvdPhysicsClient@Vd@physx@@AAEXPBVPxTriangleMesh@3@@Z 10070450 f   PvdPhysicsClient.obj
 0001:0006f470       ?createPvdInstance@PvdPhysicsClient@Vd@physx@@AAEXPBVPxConvexMesh@3@@Z 10070470 f   PvdPhysicsClient.obj
 0001:0006f490       ?destroyPvdInstance@PvdPhysicsClient@Vd@physx@@AAEXPBVPxConvexMesh@3@@Z 10070490 f   PvdPhysicsClient.obj
 0001:0006f4b0       ?createPvdInstance@PvdPhysicsClient@Vd@physx@@AAEXPBVPxHeightField@3@@Z 100704b0 f   PvdPhysicsClient.obj
 0001:0006f4d0       ?destroyPvdInstance@PvdPhysicsClient@Vd@physx@@AAEXPBVPxHeightField@3@@Z 100704d0 f   PvdPhysicsClient.obj
 0001:0006f4f0       ?createPvdInstance@PvdPhysicsClient@Vd@physx@@AAEXPBVPxMaterial@3@@Z 100704f0 f   PvdPhysicsClient.obj
 0001:0006f510       ?destroyPvdInstance@PvdPhysicsClient@Vd@physx@@AAEXPBVPxMaterial@3@@Z 10070510 f   PvdPhysicsClient.obj
 0001:0006f530       ?updatePvdProperties@PvdPhysicsClient@Vd@physx@@AAEXPBVPxMaterial@3@@Z 10070530 f   PvdPhysicsClient.obj
 0001:0006f550       ??1NpFactoryListener@physx@@MAE@XZ 10070550 f i PvdPhysicsClient.obj
 0001:0006f560       ??1PvdClient@pvdsdk@physx@@MAE@XZ 10070560 f i PvdPhysicsClient.obj
 0001:0006f570       ??1PxErrorCallback@physx@@UAE@XZ 10070570 f i PvdPhysicsClient.obj
 0001:0006f577       ??_EPvdPhysicsClient@Vd@physx@@W3AEPAXI@Z 10070577 f i PvdPhysicsClient.obj
 0001:0006f57f       ??_EPvdPhysicsClient@Vd@physx@@W7AEPAXI@Z 1007057f f i PvdPhysicsClient.obj
 0001:0006f590       ??_GNpFactoryListener@physx@@MAEPAXI@Z 10070590 f i PvdPhysicsClient.obj
 0001:0006f590       ??_ENpFactoryListener@physx@@MAEPAXI@Z 10070590 f i PvdPhysicsClient.obj
 0001:0006f5c0       ??_EPvdClient@pvdsdk@physx@@MAEPAXI@Z 100705c0 f i PvdPhysicsClient.obj
 0001:0006f5c0       ??_GPvdClient@pvdsdk@physx@@MAEPAXI@Z 100705c0 f i PvdPhysicsClient.obj
 0001:0006f5f0       ??_GPvdPhysicsClient@Vd@physx@@UAEPAXI@Z 100705f0 f i PvdPhysicsClient.obj
 0001:0006f5f0       ??_EPvdPhysicsClient@Vd@physx@@UAEPAXI@Z 100705f0 f i PvdPhysicsClient.obj
 0001:0006f660       ??_GPxErrorCallback@physx@@UAEPAXI@Z 10070660 f i PvdPhysicsClient.obj
 0001:0006f660       ??_EPxErrorCallback@physx@@UAEPAXI@Z 10070660 f i PvdPhysicsClient.obj
 0001:0006f690       ?recreate@?$Array@PAVPxConvexMesh@physx@@VNamedAllocator@shdfnd@2@@shdfnd@physx@@IAEXI@Z 10070690 f i PvdPhysicsClient.obj
 0001:0006f750       ?recreate@?$Array@PAVPxHeightField@physx@@VNamedAllocator@shdfnd@2@@shdfnd@physx@@IAEXI@Z 10070750 f i PvdPhysicsClient.obj
 0001:0006f810       ?recreate@?$Array@PAVPxMaterial@physx@@VNamedAllocator@shdfnd@2@@shdfnd@physx@@IAEXI@Z 10070810 f i PvdPhysicsClient.obj
 0001:0006f8d0       ?recreate@?$Array@PAVPxTriangleMesh@physx@@VNamedAllocator@shdfnd@2@@shdfnd@physx@@IAEXI@Z 100708d0 f i PvdPhysicsClient.obj
 0001:0006f990       ?resize@?$Array@PAVPxConvexMesh@physx@@VNamedAllocator@shdfnd@2@@shdfnd@physx@@QAEXIABQAVPxConvexMesh@3@@Z 10070990 f i PvdPhysicsClient.obj
 0001:0006fa50       ?resize@?$Array@PAVPxHeightField@physx@@VNamedAllocator@shdfnd@2@@shdfnd@physx@@QAEXIABQAVPxHeightField@3@@Z 10070a50 f i PvdPhysicsClient.obj
 0001:0006fb10       ?resize@?$Array@PAVPxMaterial@physx@@VNamedAllocator@shdfnd@2@@shdfnd@physx@@QAEXIABQAVPxMaterial@3@@Z 10070b10 f i PvdPhysicsClient.obj
 0001:0006fbd0       ?resize@?$Array@PAVPxTriangleMesh@physx@@VNamedAllocator@shdfnd@2@@shdfnd@physx@@QAEXIABQAVPxTriangleMesh@3@@Z 10070bd0 f i PvdPhysicsClient.obj
 0001:0006fc90       ??0Offsets@Actor@Scb@physx@@QAE@XZ 10070c90 f   ScbActor.obj
 0001:0006fcc0       ?addActor@Aggregate@Scb@physx@@QAEXAAVActor@23@@Z 10070cc0 f   ScbAggregate.obj
 0001:0006fe40       ?removeActor@Aggregate@Scb@physx@@QAEXAAVActor@23@_N@Z 10070e40 f   ScbAggregate.obj
 0001:00070020       ??$allocArrayBuffer@PAVActor@Scb@physx@@@Scene@Scb@physx@@AAEPAPAVActor@12@AAV?$Array@PAVActor@Scb@physx@@VNamedAllocator@shdfnd@3@@shdfnd@2@IAAI@Z 10071020 f i ScbAggregate.obj
 0001:00070060       ?destroy@Base@Scb@physx@@QAEXXZ 10071060 f   ScbBase.obj
 0001:000700a0       ?getBinaryMetaData@Base@Scb@physx@@SAXAAVPxOutputStream@3@@Z 100710a0 f   ScbMetaData.obj
 0001:00070230       ?getBinaryMetaData@Shape@Scb@physx@@SAXAAVPxOutputStream@3@@Z 10071230 f   ScbMetaData.obj
 0001:00070330       ?getBinaryMetaData@Actor@Scb@physx@@SAXAAVPxOutputStream@3@@Z 10071330 f   ScbMetaData.obj
 0001:000703e0       ?getBinaryMetaData@RigidObject@Scb@physx@@SAXAAVPxOutputStream@3@@Z 100713e0 f   ScbMetaData.obj
 0001:00070490       ?getBinaryMetaData@Body@Scb@physx@@SAXAAVPxOutputStream@3@@Z 10071490 f   ScbMetaData.obj
 0001:00070760       ?getBinaryMetaData@RigidStatic@Scb@physx@@SAXAAVPxOutputStream@3@@Z 10071760 f   ScbMetaData.obj
 0001:00070860       ?getBinaryMetaData@Constraint@Scb@physx@@SAXAAVPxOutputStream@3@@Z 10071860 f   ScbMetaData.obj
 0001:00070a40       ?getBinaryMetaData@Articulation@Scb@physx@@SAXAAVPxOutputStream@3@@Z 10071a40 f   ScbMetaData.obj
 0001:00070c20       ?getBinaryMetaData@ArticulationJoint@Scb@physx@@SAXAAVPxOutputStream@3@@Z 10071c20 f   ScbMetaData.obj
 0001:00070d20       ?getBinaryMetaData@Aggregate@Scb@physx@@SAXAAVPxOutputStream@3@@Z 10071d20 f   ScbMetaData.obj
 0001:00070f00       ?scheduleForInsert@ObjectTracker@Scb@physx@@QAEXAAVBase@23@@Z 10071f00 f   ScbScene.obj
 0001:00070f70       ?scheduleForRemove@ObjectTracker@Scb@physx@@QAEXAAVBase@23@@Z 10071f70 f   ScbScene.obj
 0001:00070fe0       ?scheduleForUpdate@ObjectTracker@Scb@physx@@QAEXAAVBase@23@@Z 10071fe0 f   ScbScene.obj
 0001:00071030       ?clear@ObjectTracker@Scb@physx@@QAEXXZ 10072030 f   ScbScene.obj
 0001:00071100       ?insert@ObjectTracker@Scb@physx@@QAEXAAVBase@23@@Z 10072100 f   ScbScene.obj
 0001:00071130       ?remove@ObjectTracker@Scb@physx@@QAEXAAVBase@23@@Z 10072130 f   ScbScene.obj
 0001:00071150       ??0Scene@Scb@physx@@QAE@ABVPxSceneDesc@2@_K@Z 10072150 f   ScbScene.obj
 0001:00071600       ?release@Scene@Scb@physx@@QAEXXZ 10072600 f   ScbScene.obj
 0001:00071660       ?getPxScene@Scene@Scb@physx@@QAEPAVPxScene@3@XZ 10072660 f   ScbScene.obj
 0001:00071670       ?addActor@Scene@Scb@physx@@QAEXAAVRigidStatic@23@_NPAVPxBounds3@3@PBVBVHStructure@Gu@3@@Z 10072670 f   ScbScene.obj
 0001:00071830       ?removeActor@Scene@Scb@physx@@QAEXAAVRigidStatic@23@_N1@Z 10072830 f   ScbScene.obj
 0001:000719f0       ?addActor@Scene@Scb@physx@@QAEXAAVBody@23@_NPAVPxBounds3@3@PBVBVHStructure@Gu@3@@Z 100729f0 f   ScbScene.obj
 0001:00071cc0       ?removeActor@Scene@Scb@physx@@QAEXAAVBody@23@_N1@Z 10072cc0 f   ScbScene.obj
 0001:00071f70       ?addConstraint@Scene@Scb@physx@@QAEXAAVConstraint@23@@Z 10072f70 f   ScbScene.obj
 0001:00072040       ?removeConstraint@Scene@Scb@physx@@QAEXAAVConstraint@23@@Z 10073040 f   ScbScene.obj
 0001:00072140       ?addArticulation@Scene@Scb@physx@@QAEXAAVArticulation@23@@Z 10073140 f   ScbScene.obj
 0001:000721e0       ?removeArticulation@Scene@Scb@physx@@QAEXAAVArticulation@23@@Z 100731e0 f   ScbScene.obj
 0001:00072260       ?addArticulationJoint@Scene@Scb@physx@@QAEXAAVArticulationJoint@23@@Z 10073260 f   ScbScene.obj
 0001:00072300       ?removeArticulationJoint@Scene@Scb@physx@@QAEXAAVArticulationJoint@23@@Z 10073300 f   ScbScene.obj
 0001:00072370       ?addAggregate@Scene@Scb@physx@@QAEXAAVAggregate@23@@Z 10073370 f   ScbScene.obj
 0001:000723d0       ?removeAggregate@Scene@Scb@physx@@QAEXAAVAggregate@23@@Z 100733d0 f   ScbScene.obj
 0001:00072420       ?addMaterial@Scene@Scb@physx@@QAEXABVMaterialCore@Sc@3@@Z 10073420 f   ScbScene.obj
 0001:00072520       ?updateMaterial@Scene@Scb@physx@@QAEXABVMaterialCore@Sc@3@@Z 10073520 f   ScbScene.obj
 0001:00072630       ?removeMaterial@Scene@Scb@physx@@QAEXABVMaterialCore@Sc@3@@Z 10073630 f   ScbScene.obj
 0001:00072750       ?updateLowLevelMaterial@Scene@Scb@physx@@QAEXPAPAVNpMaterial@3@@Z 10073750 f   ScbScene.obj
 0001:000729b0       ?getBroadPhaseType@Scene@Scb@physx@@QBE?AW4Enum@PxBroadPhaseType@3@XZ 100739b0 f   ScbScene.obj
 0001:000729c0       ?getBroadPhaseCaps@Scene@Scb@physx@@QBE_NAAUPxBroadPhaseCaps@3@@Z 100739c0 f   ScbScene.obj
 0001:000729d0       ?getNbBroadPhaseRegions@Scene@Scb@physx@@QBEIXZ 100739d0 f   ScbScene.obj
 0001:000729e0       ?getBroadPhaseRegions@Scene@Scb@physx@@QBEIPAUPxBroadPhaseRegionInfo@3@II@Z 100739e0 f   ScbScene.obj
 0001:000729f0       ?addBroadPhaseRegion@Scene@Scb@physx@@QAEIABUPxBroadPhaseRegion@3@_N@Z 100739f0 f   ScbScene.obj
 0001:00072a30       ?removeBroadPhaseRegion@Scene@Scb@physx@@QAE_NI@Z 10073a30 f   ScbScene.obj
 0001:00072a70       ?shiftOrigin@Scene@Scb@physx@@QAEXABVPxVec3@3@@Z 10073a70 f   ScbScene.obj
 0001:00072b40       ?syncWriteThroughProperties@Scene@Scb@physx@@QAEXXZ 10073b40 f   ScbScene.obj
 0001:00072e40       ?syncEntireScene@Scene@Scb@physx@@QAEXXZ 10073e40 f   ScbScene.obj
 0001:00073310       ?processPendingRemove@Scene@Scb@physx@@QAEXXZ 10074310 f   ScbScene.obj
 0001:00073830       ?scheduleForUpdate@Scene@Scb@physx@@QAEXAAVBase@23@@Z 10074830 f   ScbScene.obj
 0001:000738e0       ?getStream@Scene@Scb@physx@@QAEPAEW4Enum@ScbType@3@@Z 100748e0 f   ScbScene.obj
 0001:00073a40       ?syncState@Scene@Scb@physx@@AAEXXZ 10074a40 f   ScbScene.obj
 0001:00073c90       ?switchRigidToNoSim@Scene@Scb@physx@@QAEXAAVRigidObject@23@_N@Z 10074c90 f   ScbScene.obj
 0001:00073d90       ?switchRigidFromNoSim@Scene@Scb@physx@@QAEXAAVRigidObject@23@_N@Z 10074d90 f   ScbScene.obj
 0001:00073e60       ??$add@VArticulation@Scb@physx@@@Scene@Scb@physx@@AAEXAAVArticulation@12@AAVObjectTracker@12@PAVPxBounds3@2@PBVBVHStructure@Gu@2@@Z 10074e60 f i ScbScene.obj
 0001:00073ee0       ??$add@VArticulationJoint@Scb@physx@@@Scene@Scb@physx@@AAEXAAVArticulationJoint@12@AAVObjectTracker@12@PAVPxBounds3@2@PBVBVHStructure@Gu@2@@Z 10074ee0 f i ScbScene.obj
 0001:00073f80       ??$add@VBody@Scb@physx@@@Scene@Scb@physx@@AAEXAAVBody@12@AAVObjectTracker@12@PAVPxBounds3@2@PBVBVHStructure@Gu@2@@Z 10074f80 f i ScbScene.obj
 0001:000741e0       ??$add@VConstraint@Scb@physx@@@Scene@Scb@physx@@AAEXAAVConstraint@12@AAVObjectTracker@12@PAVPxBounds3@2@PBVBVHStructure@Gu@2@@Z 100751e0 f i ScbScene.obj
 0001:000742b0       ??$add@VRigidStatic@Scb@physx@@@Scene@Scb@physx@@AAEXAAVRigidStatic@12@AAVObjectTracker@12@PAVPxBounds3@2@PBVBVHStructure@Gu@2@@Z 100752b0 f i ScbScene.obj
 0001:00074500       ??$addRigidNoSim@$00VBody@Scb@physx@@@Scene@Scb@physx@@AAEXAAVBody@12@AAVObjectTracker@12@PBVBVHStructure@Gu@2@@Z 10075500 f i ScbScene.obj
 0001:00074710       ??$addRigidNoSim@$0A@VRigidStatic@Scb@physx@@@Scene@Scb@physx@@AAEXAAVRigidStatic@12@AAVObjectTracker@12@PBVBVHStructure@Gu@2@@Z 10075710 f i ScbScene.obj
 0001:00074920       ??$pointerOffset@PAVShape@Scb@physx@@@shdfnd@physx@@YAPAVShape@Scb@1@PAXH@Z 10075920 f i ScbScene.obj
 0001:00074930       ??$processRemoves@VArticulation@Scb@physx@@$00$0A@@Scene@Scb@physx@@AAEXAAVObjectTracker@12@@Z 10075930 f i ScbScene.obj
 0001:00074a60       ??$processRemoves@VArticulationJoint@Scb@physx@@$0A@$0A@@Scene@Scb@physx@@AAEXAAVObjectTracker@12@@Z 10075a60 f i ScbScene.obj
 0001:00074b80       ??$processRemoves@VBody@Scb@physx@@$00$00@Scene@Scb@physx@@AAEXAAVObjectTracker@12@@Z 10075b80 f i ScbScene.obj
 0001:00074f00       ??$processRemoves@VConstraint@Scb@physx@@$00$0A@@Scene@Scb@physx@@AAEXAAVObjectTracker@12@@Z 10075f00 f i ScbScene.obj
 0001:00075030       ??$processRemoves@VRigidStatic@Scb@physx@@$0A@$00@Scene@Scb@physx@@AAEXAAVObjectTracker@12@@Z 10076030 f i ScbScene.obj
 0001:00075370       ??$processShapeRemoves@VBody@Scb@physx@@@Scene@Scb@physx@@AAEXAAVObjectTracker@12@@Z 10076370 f i ScbScene.obj
 0001:00075510       ??$processShapeRemoves@VRigidStatic@Scb@physx@@@Scene@Scb@physx@@AAEXAAVObjectTracker@12@@Z 10076510 f i ScbScene.obj
 0001:000756b0       ??$processSimUpdates@VArticulation@Scb@physx@@VArticulationCore@Sc@3@@Scene@Scb@physx@@AAEXPBQAVArticulationCore@Sc@2@I@Z 100766b0 f i ScbScene.obj
 0001:000758f0       ??$processSimUpdates@VBody@Scb@physx@@VBodyCore@Sc@3@@Scene@Scb@physx@@AAEXPBQAVBodyCore@Sc@2@I@Z 100768f0 f i ScbScene.obj
 0001:00075a30       ??$processSimUpdates@VConstraint@Scb@physx@@VConstraintCore@Sc@3@@Scene@Scb@physx@@AAEXPBQAVConstraintCore@Sc@2@I@Z 10076a30 f i ScbScene.obj
 0001:00075c40       ??$processUserUpdates@VArticulation@Scb@physx@@@Scene@Scb@physx@@AAEXAAVObjectTracker@12@@Z 10076c40 f i ScbScene.obj
 0001:00075ec0       ??$processUserUpdates@VArticulationJoint@Scb@physx@@@Scene@Scb@physx@@AAEXAAVObjectTracker@12@@Z 10076ec0 f i ScbScene.obj
 0001:000760d0       ??$processUserUpdates@VBody@Scb@physx@@@Scene@Scb@physx@@AAEXAAVObjectTracker@12@@Z 100770d0 f i ScbScene.obj
 0001:000763f0       ??$processUserUpdates@VConstraint@Scb@physx@@@Scene@Scb@physx@@AAEXAAVObjectTracker@12@@Z 100773f0 f i ScbScene.obj
 0001:00076680       ??$processUserUpdates@VRigidStatic@Scb@physx@@@Scene@Scb@physx@@AAEXAAVObjectTracker@12@@Z 10077680 f i ScbScene.obj
 0001:00076ac0       ??$remove@VArticulation@Scb@physx@@@Scene@Scb@physx@@AAEXAAVArticulation@12@AAVObjectTracker@12@_N@Z 10077ac0 f i ScbScene.obj
 0001:00076b40       ??$remove@VArticulationJoint@Scb@physx@@@Scene@Scb@physx@@AAEXAAVArticulationJoint@12@AAVObjectTracker@12@_N@Z 10077b40 f i ScbScene.obj
 0001:00076bb0       ??$remove@VBody@Scb@physx@@@Scene@Scb@physx@@AAEXAAVBody@12@AAVObjectTracker@12@_N@Z 10077bb0 f i ScbScene.obj
 0001:00076e70       ??$remove@VRigidStatic@Scb@physx@@@Scene@Scb@physx@@AAEXAAVRigidStatic@12@AAVObjectTracker@12@_N@Z 10077e70 f i ScbScene.obj
 0001:00077110       ??$removeRigidNoSim@$00VBody@Scb@physx@@@Scene@Scb@physx@@AAEXAAVBody@12@AAVObjectTracker@12@@Z 10078110 f i ScbScene.obj
 0001:00077370       ??$removeRigidNoSim@$0A@VRigidStatic@Scb@physx@@@Scene@Scb@physx@@AAEXAAVRigidStatic@12@AAVObjectTracker@12@@Z 10078370 f i ScbScene.obj
 0001:000775c0       ??0?$InlineArray@PBVShapeCore@Sc@physx@@$0EA@VNamedAllocator@shdfnd@3@@shdfnd@physx@@QAE@ABVNamedAllocator@12@@Z 100785c0 f i ScbScene.obj
 0001:00077680       ??0BodyBuffer@Scb@physx@@QAE@XZ 10078680 f i ScbScene.obj
 0001:000776f0       ??0RigidObjectBuffer@Scb@physx@@QAE@XZ 100786f0 f i ScbScene.obj
 0001:00077840       ?allocateNotThreadSafe@FlushPool@Cm@physx@@QAEPAXII@Z 10078840 f i ScbScene.obj
 0001:00077920       ?clearNotThreadSafe@FlushPool@Cm@physx@@QAEXI@Z 10078920 f i ScbScene.obj
 0001:00077970       ?copy@?$Array@VMaterialEvent@Scb@physx@@VNamedAllocator@shdfnd@3@@shdfnd@physx@@KAXPAVMaterialEvent@Scb@3@0PBV453@@Z 10078970 f i ScbScene.obj
 0001:000779c0       ?create@?$HashBase@PAVBase@Scb@physx@@PAV123@U?$Hash@PAVBase@Scb@physx@@@shdfnd@3@UGetKey@?$HashSetBase@PAVBase@Scb@physx@@U?$Hash@PAVBase@Scb@physx@@@shdfnd@3@VNonTrackingAllocator@53@$00@internal@53@VNonTrackingAllocator@53@$00@internal@shdfnd@physx@@QAEPAPAVBase@Scb@4@ABQAV564@AA_N@Z 100789c0 f i ScbScene.obj
 0001:00077af0       ?createInstance@?$PvdFns@VArticulation@Scb@physx@@@@SAXAAVScene@Scb@physx@@AAVScbScenePvdClient@Vd@4@PAVArticulation@34@@Z 10078af0 f i ScbScene.obj
 0001:00077b70       ?createInstance@?$PvdFns@VArticulationJoint@Scb@physx@@@@SAXAAVScene@Scb@physx@@AAVScbScenePvdClient@Vd@4@PAVArticulationJoint@34@@Z 10078b70 f i ScbScene.obj
 0001:00077bf0       ?createInstance@?$PvdFns@VBody@Scb@physx@@@@SAXAAVScene@Scb@physx@@AAVScbScenePvdClient@Vd@4@PAVBody@34@@Z 10078bf0 f i ScbScene.obj
 0001:00077c70       ?createInstance@?$PvdFns@VConstraint@Scb@physx@@@@SAXAAVScene@Scb@physx@@AAVScbScenePvdClient@Vd@4@PAVConstraint@34@@Z 10078c70 f i ScbScene.obj
 0001:00077cf0       ?createInstance@?$PvdFns@VRigidStatic@Scb@physx@@@@SAXAAVScene@Scb@physx@@AAVScbScenePvdClient@Vd@4@PAVRigidStatic@34@@Z 10078cf0 f i ScbScene.obj
 0001:00077d70       ?erase@?$HashBase@PAVBase@Scb@physx@@PAV123@U?$Hash@PAVBase@Scb@physx@@@shdfnd@3@UGetKey@?$HashSetBase@PAVBase@Scb@physx@@U?$Hash@PAVBase@Scb@physx@@@shdfnd@3@VNonTrackingAllocator@53@$00@internal@53@VNonTrackingAllocator@53@$00@internal@shdfnd@physx@@QAE_NABQAVBase@Scb@4@@Z 10078d70 f i ScbScene.obj
 0001:00077e90       ?growAndPushBack@?$Array@VMaterialEvent@Scb@physx@@VNamedAllocator@shdfnd@3@@shdfnd@physx@@IAEAAVMaterialEvent@Scb@3@ABV453@@Z 10078e90 f i ScbScene.obj
 0001:00077f40       ?recreate@?$Array@PAVShape@Scb@physx@@V?$InlineAllocator@$0BA@VNamedAllocator@shdfnd@physx@@@shdfnd@3@@shdfnd@physx@@IAEXI@Z 10078f40 f i ScbScene.obj
 0001:00077fe0       ?recreate@?$Array@URemovedShape@Scb@physx@@V?$InlineAllocator@$0CA@VNamedAllocator@shdfnd@physx@@@shdfnd@3@@shdfnd@physx@@IAEXI@Z 10078fe0 f i ScbScene.obj
 0001:00078040       ?recreate@?$Array@VMaterialEvent@Scb@physx@@VNamedAllocator@shdfnd@3@@shdfnd@physx@@IAEXI@Z 10079040 f i ScbScene.obj
 0001:000780c0       ?releaseInstance@?$PvdFns@VArticulation@Scb@physx@@@@SAXAAVScene@Scb@physx@@AAVScbScenePvdClient@Vd@4@PAVArticulation@34@@Z 100790c0 f i ScbScene.obj
 0001:00078140       ?releaseInstance@?$PvdFns@VArticulationJoint@Scb@physx@@@@SAXAAVScene@Scb@physx@@AAVScbScenePvdClient@Vd@4@PAVArticulationJoint@34@@Z 10079140 f i ScbScene.obj
 0001:000781c0       ?releaseInstance@?$PvdFns@VBody@Scb@physx@@@@SAXAAVScene@Scb@physx@@AAVScbScenePvdClient@Vd@4@PAVBody@34@@Z 100791c0 f i ScbScene.obj
 0001:00078240       ?releaseInstance@?$PvdFns@VRigidStatic@Scb@physx@@@@SAXAAVScene@Scb@physx@@AAVScbScenePvdClient@Vd@4@PAVRigidStatic@34@@Z 10079240 f i ScbScene.obj
 0001:000782c0       ?reserveInternal@?$HashBase@PAVBase@Scb@physx@@PAV123@U?$Hash@PAVBase@Scb@physx@@@shdfnd@3@UGetKey@?$HashSetBase@PAVBase@Scb@physx@@U?$Hash@PAVBase@Scb@physx@@@shdfnd@3@VNonTrackingAllocator@53@$00@internal@53@VNonTrackingAllocator@53@$00@internal@shdfnd@physx@@AAEXI@Z 100792c0 f i ScbScene.obj
 0001:00078450       ?resize@?$Array@PAVShape@Scb@physx@@V?$InlineAllocator@$0BA@VNamedAllocator@shdfnd@physx@@@shdfnd@3@@shdfnd@physx@@QAEXIABQAVShape@Scb@3@@Z 10079450 f i ScbScene.obj
 0001:00078510       ?resize@?$Array@URemovedShape@Scb@physx@@V?$InlineAllocator@$0CA@VNamedAllocator@shdfnd@physx@@@shdfnd@3@@shdfnd@physx@@QAEXIABURemovedShape@Scb@3@@Z 10079510 f i ScbScene.obj
 0001:00078570       ?resize@?$Array@VMaterialEvent@Scb@physx@@VNamedAllocator@shdfnd@3@@shdfnd@physx@@QAEXIABVMaterialEvent@Scb@3@@Z 10079570 f i ScbScene.obj
 0001:000785d0       ?syncCollisionWriteThroughState@Body@Scb@physx@@QAEXXZ 100795d0 f i ScbScene.obj
 0001:00078880       ?syncState@Aggregate@Scb@physx@@QAEXAAVScene@23@@Z 10079880 f i ScbScene.obj
 0001:00078a50       ?syncState@Articulation@Scb@physx@@QAEXXZ 10079a50 f i ScbScene.obj
 0001:00078b80       ?syncState@ArticulationJoint@Scb@physx@@QAEXXZ 10079b80 f i ScbScene.obj
 0001:00079020       ?syncState@Body@Scb@physx@@QAEXXZ 1007a020 f i ScbScene.obj
 0001:00079810       ?syncState@Constraint@Scb@physx@@QAEXXZ 1007a810 f i ScbScene.obj
 0001:00079900       ?syncState@RigidObject@Scb@physx@@QAEXXZ 1007a900 f i ScbScene.obj
 0001:00079b30       ?updateInstance@?$PvdFns@VArticulation@Scb@physx@@@@SAXAAVScene@Scb@physx@@AAVScbScenePvdClient@Vd@4@PAVArticulation@34@@Z 1007ab30 f i ScbScene.obj
 0001:00079bd0       ?updateInstance@?$PvdFns@VBody@Scb@physx@@@@SAXAAVScene@Scb@physx@@AAVScbScenePvdClient@Vd@4@PAVBody@34@@Z 1007abd0 f i ScbScene.obj
 0001:00079c70       ?updateInstance@?$PvdFns@VConstraint@Scb@physx@@@@SAXAAVScene@Scb@physx@@AAVScbScenePvdClient@Vd@4@PAVConstraint@34@@Z 1007ac70 f i ScbScene.obj
 0001:00079d10       ??0ScbScenePvdClient@Vd@physx@@QAE@AAVScene@Scb@2@@Z 1007ad10 f   ScbScenePvdClient.obj
 0001:00079d60       ??1ScbScenePvdClient@Vd@physx@@UAE@XZ 1007ad60 f   ScbScenePvdClient.obj
 0001:00079db0       ?setScenePvdFlag@ScbScenePvdClient@Vd@physx@@UAEXW4Enum@PxPvdSceneFlag@3@_N@Z 1007adb0 f   ScbScenePvdClient.obj
 0001:00079dd0       ?updateCamera@ScbScenePvdClient@Vd@physx@@UAEXPBDABVPxVec3@3@11@Z 1007add0 f   ScbScenePvdClient.obj
 0001:00079df0       ?drawPoints@ScbScenePvdClient@Vd@physx@@UAEXPBUPvdDebugPoint@pvdsdk@3@I@Z 1007adf0 f   ScbScenePvdClient.obj
 0001:00079e00       ?drawLines@ScbScenePvdClient@Vd@physx@@UAEXPBUPvdDebugLine@pvdsdk@3@I@Z 1007ae00 f   ScbScenePvdClient.obj
 0001:00079e10       ?drawTriangles@ScbScenePvdClient@Vd@physx@@UAEXPBUPvdDebugTriangle@pvdsdk@3@I@Z 1007ae10 f   ScbScenePvdClient.obj
 0001:00079e20       ?drawText@ScbScenePvdClient@Vd@physx@@UAEXABUPvdDebugText@pvdsdk@3@@Z 1007ae20 f   ScbScenePvdClient.obj
 0001:00079e30       ?onPvdConnected@ScbScenePvdClient@Vd@physx@@UAEXXZ 1007ae30 f   ScbScenePvdClient.obj
 0001:00079f20       ?onPvdDisconnected@ScbScenePvdClient@Vd@physx@@UAEXXZ 1007af20 f   ScbScenePvdClient.obj
 0001:00079f70       ?frameStart@ScbScenePvdClient@Vd@physx@@QAEXM@Z 1007af70 f   ScbScenePvdClient.obj
 0001:0007a020       ?frameEnd@ScbScenePvdClient@Vd@physx@@QAEXXZ 1007b020 f   ScbScenePvdClient.obj
 0001:0007a1b0       ?updatePvdProperties@ScbScenePvdClient@Vd@physx@@QAEXXZ 1007b1b0 f   ScbScenePvdClient.obj
 0001:0007a1d0       ?releasePvdInstance@ScbScenePvdClient@Vd@physx@@QAEXXZ 1007b1d0 f   ScbScenePvdClient.obj
 0001:0007a210       ?createPvdInstance@ScbScenePvdClient@Vd@physx@@QAEXPBVPxActor@3@@Z 1007b210 f   ScbScenePvdClient.obj
 0001:0007a2a0       ?updatePvdProperties@ScbScenePvdClient@Vd@physx@@QAEXPBVPxActor@3@@Z 1007b2a0 f   ScbScenePvdClient.obj
 0001:0007a310       ?releasePvdInstance@ScbScenePvdClient@Vd@physx@@QAEXPBVPxActor@3@@Z 1007b310 f   ScbScenePvdClient.obj
 0001:0007a390       ?createPvdInstance@ScbScenePvdClient@Vd@physx@@QAEXPBVActor@Scb@3@@Z 1007b390 f   ScbScenePvdClient.obj
 0001:0007a440       ?updatePvdProperties@ScbScenePvdClient@Vd@physx@@QAEXPBVActor@Scb@3@@Z 1007b440 f   ScbScenePvdClient.obj
 0001:0007a4e0       ?releasePvdInstance@ScbScenePvdClient@Vd@physx@@QAEXPBVActor@Scb@3@@Z 1007b4e0 f   ScbScenePvdClient.obj
 0001:0007a540       ?createPvdInstance@ScbScenePvdClient@Vd@physx@@QAEXPBVBody@Scb@3@@Z 1007b540 f   ScbScenePvdClient.obj
 0001:0007a5c0       ?updatePvdProperties@ScbScenePvdClient@Vd@physx@@QAEXPBVBody@Scb@3@@Z 1007b5c0 f   ScbScenePvdClient.obj
 0001:0007a620       ?updateKinematicTarget@ScbScenePvdClient@Vd@physx@@QAEXPBVBody@Scb@3@ABVPxTransform@3@@Z 1007b620 f   ScbScenePvdClient.obj
 0001:0007a690       ?createPvdInstance@ScbScenePvdClient@Vd@physx@@QAEXPBVRigidStatic@Scb@3@@Z 1007b690 f   ScbScenePvdClient.obj
 0001:0007a6e0       ?updatePvdProperties@ScbScenePvdClient@Vd@physx@@QAEXPBVRigidStatic@Scb@3@@Z 1007b6e0 f   ScbScenePvdClient.obj
 0001:0007a720       ?releasePvdInstance@ScbScenePvdClient@Vd@physx@@QAEXPBVRigidObject@Scb@3@@Z 1007b720 f   ScbScenePvdClient.obj
 0001:0007a780       ?createPvdInstance@ScbScenePvdClient@Vd@physx@@QAEXPBVConstraint@Scb@3@@Z 1007b780 f   ScbScenePvdClient.obj
 0001:0007a7e0       ?updatePvdProperties@ScbScenePvdClient@Vd@physx@@QAEXPBVConstraint@Scb@3@@Z 1007b7e0 f   ScbScenePvdClient.obj
 0001:0007a840       ?releasePvdInstance@ScbScenePvdClient@Vd@physx@@QAEXPBVConstraint@Scb@3@@Z 1007b840 f   ScbScenePvdClient.obj
 0001:0007a890       ?createPvdInstance@ScbScenePvdClient@Vd@physx@@QAEXPBVArticulation@Scb@3@@Z 1007b890 f   ScbScenePvdClient.obj
 0001:0007a8e0       ?updatePvdProperties@ScbScenePvdClient@Vd@physx@@QAEXPBVArticulation@Scb@3@@Z 1007b8e0 f   ScbScenePvdClient.obj
 0001:0007a920       ?releasePvdInstance@ScbScenePvdClient@Vd@physx@@QAEXPBVArticulation@Scb@3@@Z 1007b920 f   ScbScenePvdClient.obj
 0001:0007a960       ?createPvdInstance@ScbScenePvdClient@Vd@physx@@QAEXPBVArticulationJoint@Scb@3@@Z 1007b960 f   ScbScenePvdClient.obj
 0001:0007a970       ?updatePvdProperties@ScbScenePvdClient@Vd@physx@@QAEXPBVArticulationJoint@Scb@3@@Z 1007b970 f   ScbScenePvdClient.obj
 0001:0007a9b0       ?releasePvdInstance@ScbScenePvdClient@Vd@physx@@QAEXPBVArticulationJoint@Scb@3@@Z 1007b9b0 f   ScbScenePvdClient.obj
 0001:0007a9c0       ?createPvdInstance@ScbScenePvdClient@Vd@physx@@QAEXPBVMaterialCore@Sc@3@@Z 1007b9c0 f   ScbScenePvdClient.obj
 0001:0007aa10       ?updatePvdProperties@ScbScenePvdClient@Vd@physx@@QAEXPBVMaterialCore@Sc@3@@Z 1007ba10 f   ScbScenePvdClient.obj
 0001:0007aa50       ?releasePvdInstance@ScbScenePvdClient@Vd@physx@@QAEXPBVMaterialCore@Sc@3@@Z 1007ba50 f   ScbScenePvdClient.obj
 0001:0007aaa0       ?createPvdInstance@ScbScenePvdClient@Vd@physx@@QAEXPBVShape@Scb@3@AAVPxActor@3@@Z 1007baa0 f   ScbScenePvdClient.obj
 0001:0007ab60       ?updateMaterials@ScbScenePvdClient@Vd@physx@@QAEXPBVShape@Scb@3@@Z 1007bb60 f   ScbScenePvdClient.obj
 0001:0007aba0       ?updatePvdProperties@ScbScenePvdClient@Vd@physx@@QAEXPBVShape@Scb@3@@Z 1007bba0 f   ScbScenePvdClient.obj
 0001:0007abe0       ?releaseAndRecreateGeometry@ScbScenePvdClient@Vd@physx@@QAEXPBVShape@Scb@3@@Z 1007bbe0 f   ScbScenePvdClient.obj
 0001:0007ac20       ?releasePvdInstance@ScbScenePvdClient@Vd@physx@@QAEXPBVShape@Scb@3@AAVPxActor@3@@Z 1007bc20 f   ScbScenePvdClient.obj
 0001:0007ad90       ?addBodyAndShapesToPvd@ScbScenePvdClient@Vd@physx@@QAEXAAVBody@Scb@3@@Z 1007bd90 f   ScbScenePvdClient.obj
 0001:0007aef0       ?addStaticAndShapesToPvd@ScbScenePvdClient@Vd@physx@@QAEXAAVRigidStatic@Scb@3@@Z 1007bef0 f   ScbScenePvdClient.obj
 0001:0007b020       ?createPvdInstance@ScbScenePvdClient@Vd@physx@@QAEXPBVAggregate@Scb@3@@Z 1007c020 f   ScbScenePvdClient.obj
 0001:0007b0e0       ?updatePvdProperties@ScbScenePvdClient@Vd@physx@@QAEXPBVAggregate@Scb@3@@Z 1007c0e0 f   ScbScenePvdClient.obj
 0001:0007b120       ?attachAggregateActor@ScbScenePvdClient@Vd@physx@@QAEXPBVAggregate@Scb@3@PAVActor@53@@Z 1007c120 f   ScbScenePvdClient.obj
 0001:0007b180       ?detachAggregateActor@ScbScenePvdClient@Vd@physx@@QAEXPBVAggregate@Scb@3@PAVActor@53@@Z 1007c180 f   ScbScenePvdClient.obj
 0001:0007b1e0       ?releasePvdInstance@ScbScenePvdClient@Vd@physx@@QAEXPBVAggregate@Scb@3@@Z 1007c1e0 f   ScbScenePvdClient.obj
 0001:0007b2a0       ?originShift@ScbScenePvdClient@Vd@physx@@QAEXVPxVec3@3@@Z 1007c2a0 f   ScbScenePvdClient.obj
 0001:0007b2e0       ?updateJoints@ScbScenePvdClient@Vd@physx@@QAEXXZ 1007c2e0 f   ScbScenePvdClient.obj
 0001:0007b610       ?updateContacts@ScbScenePvdClient@Vd@physx@@QAEXXZ 1007c610 f   ScbScenePvdClient.obj
 0001:0007b8e0       ?updateSceneQueries@ScbScenePvdClient@Vd@physx@@QAEXXZ 1007c8e0 f   ScbScenePvdClient.obj
 0001:0007b920       ?visualize@ScbScenePvdClient@Vd@physx@@UAEXAAVPxArticulationLink@3@@Z 1007c920 f   ScbScenePvdClient.obj
 0001:0007b970       ?visualize@ScbScenePvdClient@Vd@physx@@QAEXABVPxRenderBuffer@3@@Z 1007c970 f   ScbScenePvdClient.obj
 0001:0007b9f0       ?sendEntireScene@ScbScenePvdClient@Vd@physx@@AAEXXZ 1007c9f0 f   ScbScenePvdClient.obj
 0001:0007bdf0       ?updateConstraint@ScbScenePvdClient@Vd@physx@@AAEXABVConstraintCore@Sc@3@I@Z 1007cdf0 f   ScbScenePvdClient.obj
 0001:0007be40       ?setCreateContactReports@ScbScenePvdClient@Vd@physx@@AAEX_N@Z 1007ce40 f   ScbScenePvdClient.obj
 0001:0007be50       ??0PxTransform@physx@@QAE@ABV01@@Z 1007ce50 f i ScbScenePvdClient.obj
 0001:0007be90       ??1PvdVisualizer@Vd@physx@@MAE@XZ 1007ce90 f i ScbScenePvdClient.obj
 0001:0007bea0       ??1PxPvdSceneClient@physx@@MAE@XZ 1007cea0 f i ScbScenePvdClient.obj
 0001:0007beb0       ??1RendererEventClient@pvdsdk@physx@@UAE@XZ 1007ceb0 f i ScbScenePvdClient.obj
 0001:0007beb7       ??_EScbScenePvdClient@Vd@physx@@W3AEPAXI@Z 1007ceb7 f i ScbScenePvdClient.obj
 0001:0007bebf       ??_EScbScenePvdClient@Vd@physx@@W7AEPAXI@Z 1007cebf f i ScbScenePvdClient.obj
 0001:0007bf00       ??_GPvdVisualizer@Vd@physx@@MAEPAXI@Z 1007cf00 f i ScbScenePvdClient.obj
 0001:0007bf00       ??_EPvdVisualizer@Vd@physx@@MAEPAXI@Z 1007cf00 f i ScbScenePvdClient.obj
 0001:0007bf30       ??_GPxPvdSceneClient@physx@@MAEPAXI@Z 1007cf30 f i ScbScenePvdClient.obj
 0001:0007bf30       ??_EPxPvdSceneClient@physx@@MAEPAXI@Z 1007cf30 f i ScbScenePvdClient.obj
 0001:0007bf60       ??_GRendererEventClient@pvdsdk@physx@@UAEPAXI@Z 1007cf60 f i ScbScenePvdClient.obj
 0001:0007bf60       ??_ERendererEventClient@pvdsdk@physx@@UAEPAXI@Z 1007cf60 f i ScbScenePvdClient.obj
 0001:0007bf90       ??_GScbScenePvdClient@Vd@physx@@UAEPAXI@Z 1007cf90 f i ScbScenePvdClient.obj
 0001:0007bf90       ??_EScbScenePvdClient@Vd@physx@@UAEPAXI@Z 1007cf90 f i ScbScenePvdClient.obj
 0001:0007c0a0       ?flush@ScbScenePvdClient@Vd@physx@@UAEXXZ 1007d0a0 f i ScbScenePvdClient.obj
 0001:0007c0b0       ?getClientInternal@ScbScenePvdClient@Vd@physx@@UAEPAVPvdClient@pvdsdk@3@XZ 1007d0b0 f i ScbScenePvdClient.obj
 0001:0007c0c0       ?getDataStream@ScbScenePvdClient@Vd@physx@@UAEPAVPvdDataStream@pvdsdk@3@XZ 1007d0c0 f i ScbScenePvdClient.obj
 0001:0007c0d0       ?getMetaDataBinding@ScbScenePvdClient@Vd@physx@@UAEPAVPvdMetaDataBinding@23@XZ 1007d0d0 f i ScbScenePvdClient.obj
 0001:0007c0e0       ?getScenePvdFlags@ScbScenePvdClient@Vd@physx@@UBE?AV?$PxFlags@W4Enum@PxPvdSceneFlag@physx@@E@3@XZ 1007d0e0 f i ScbScenePvdClient.obj
 0001:0007c0f0       ?getUserRender@ScbScenePvdClient@Vd@physx@@UAEPAVPvdUserRenderer@pvdsdk@3@XZ 1007d0f0 f i ScbScenePvdClient.obj
 0001:0007c100       ?growAndPushBack@?$Array@UContact@Sc@physx@@VNamedAllocator@shdfnd@3@@shdfnd@physx@@IAEAAUContact@Sc@3@ABU453@@Z 1007d100 f i ScbScenePvdClient.obj
 0001:0007c2d0       ?isConnected@ScbScenePvdClient@Vd@physx@@UBE_NXZ 1007d2d0 f i ScbScenePvdClient.obj
 0001:0007c2e0       ?setScenePvdFlags@ScbScenePvdClient@Vd@physx@@UAEXV?$PxFlags@W4Enum@PxPvdSceneFlag@physx@@E@3@@Z 1007d2e0 f i ScbScenePvdClient.obj
 0001:0007c420       ?syncState@Shape@Scb@physx@@QAEXXZ 1007d420 f   ScbShape.obj
 0001:0007c5f0       ?setMaterialsHelper@Shape@Scb@physx@@AAE_NPBQAVPxMaterial@3@G@Z 1007d5f0 f   ScbShape.obj
 0001:0007c6f0       _PxConstructSolverBodies   1007d6f0 f   NpImmediateMode.obj
 0001:0007c8f0       _PxConstructStaticSolverBody 1007d8f0 f   NpImmediateMode.obj
 0001:0007c950       _PxBatchConstraints        1007d950 f   NpImmediateMode.obj
 0001:0007cb10       _PxCreateContactConstraints 1007db10 f   NpImmediateMode.obj
 0001:0007ccc0       _PxCreateJointConstraints  1007dcc0 f   NpImmediateMode.obj
 0001:0007ce20       _PxCreateJointConstraintsWithShaders 1007de20 f   NpImmediateMode.obj
 0001:0007d010       _PxSolveConstraints        1007e010 f   NpImmediateMode.obj
 0001:0007d1e0       _PxIntegrateSolverBodies   1007e1e0 f   NpImmediateMode.obj
 0001:0007d6f0       _PxGenerateContacts        1007e6f0 f   NpImmediateMode.obj
 0001:0007db60       ?createCache@@YAXAAUCache@Gu@physx@@W4Enum@PxGeometryType@3@1AAVPxCacheAllocator@3@@Z 1007eb60 f   NpImmediateMode.obj
 0001:0007dfb0       ??0ContactPatchData@CorrelationBuffer@Dy@physx@@QAE@XZ 1007efb0 f i NpImmediateMode.obj
 0001:0007dfc0       ??0ContactPoint@Gu@physx@@QAE@XZ 1007efc0 f i NpImmediateMode.obj
 0001:0007dfd0       ??0FrictionPatch@Dy@physx@@QAE@XZ 1007efd0 f i NpImmediateMode.obj
 0001:0007dfe0       ??0PersistentContact@Gu@physx@@QAE@XZ 1007efe0 f i NpImmediateMode.obj
 0001:0007dff0       ??0Px1DConstraint@physx@@QAE@XZ 1007eff0 f i NpImmediateMode.obj
 0001:0007e000       ??0PhysXIndicator@physx@@QAE@_N@Z 1007f000 f   PhysXIndicatorWindows.obj
 0001:0007e1a0       ??1PhysXIndicator@physx@@QAE@XZ 1007f1a0 f   PhysXIndicatorWindows.obj
 0001:0007e1e0       ?setIsGpu@PhysXIndicator@physx@@QAEX_N@Z 1007f1e0 f   PhysXIndicatorWindows.obj
 0001:0007e210       ___local_stdio_printf_options 1007f210 f i PhysXIndicatorWindows.obj
 0001:0007e220       _sprintf                   1007f220 f i PhysXIndicatorWindows.obj
 0001:0007e250       _PxGetSuggestedCudaDeviceOrdinal 1007f250 f   PxGpu.obj
 0001:0007e280       _PxCreateCudaContextManager 1007f280 f   PxGpu.obj
 0001:0007e2b0       _PxCreateCudaClientContextManager 1007f2b0 f   PxGpu.obj
 0001:0007e2d0       _PxSetPhysXGpuLoadHook     1007f2d0 f   PxPhysXGpuModuleLoader.obj
 0001:0007e2e0       ?PxLoadPhysxGPUModule@physx@@YAXPBD@Z 1007f2e0 f   PxPhysXGpuModuleLoader.obj
 0001:0007e420       _PxSetPhysXDelayLoadHook   1007f420 f   NpWindowsDelayLoadHook.obj
 0001:0007e430       ?PxGetPhysXDelayLoadHook@physx@@YAPBVPxDelayLoadHook@1@XZ 1007f430 f   NpWindowsDelayLoadHook.obj
 0001:0007e440       ?delayHook@@YGP6GHXZIPAUDelayLoadInfo@@@Z 1007f440 f   NpWindowsDelayLoadHook.obj
 0001:0007e4e0       ?PxvInit@physx@@YAXABUPxvOffsetTable@1@@Z 1007f4e0 f   LowLevel_static_32:px_globals.obj
 0001:0007e510       ?PxvTerm@physx@@YAXXZ      1007f510 f   LowLevel_static_32:px_globals.obj
 0001:0007e530       ?PxvRegisterHeightFields@physx@@YAXXZ 1007f530 f   LowLevel_static_32:px_globals.obj
 0001:0007e590       ?PxvGetPhysXGpu@physx@@YAPAVPxPhysXGpu@1@_N@Z 1007f590 f   LowLevel_static_32:px_globals.obj
 0001:0007e5d0       ??0PxsContext@physx@@QAE@ABVPxSceneDesc@1@PAVPxTaskManager@1@AAVFlushPool@Cm@1@_K@Z 1007f5d0 f   LowLevel_static_32:PxsContext.obj
 0001:0007e940       ??1PxsContext@physx@@QAE@XZ 1007f940 f   LowLevel_static_32:PxsContext.obj
 0001:0007eae0       ?createTransformCache@PxsContext@physx@@QAEXAAVVirtualAllocatorCallback@shdfnd@2@@Z 1007fae0 f   LowLevel_static_32:PxsContext.obj
 0001:0007eb60       ?createContactManager@PxsContext@physx@@QAEPAVPxsContactManager@2@PAV32@_N@Z 1007fb60 f   LowLevel_static_32:PxsContext.obj
 0001:0007ecc0       ?createCache@PxsContext@physx@@QAEXAAUCache@Gu@2@PAVPxsContactManager@2@EE@Z 1007fcc0 f   LowLevel_static_32:PxsContext.obj
 0001:0007efa0       ?destroyCache@PxsContext@physx@@QAEXAAUCache@Gu@2@@Z 1007ffa0 f   LowLevel_static_32:PxsContext.obj
 0001:0007f000       ?destroyContactManager@PxsContext@physx@@QAEXPAVPxsContactManager@2@@Z 10080000 f   LowLevel_static_32:PxsContext.obj
 0001:0007f100       ?setScratchBlock@PxsContext@physx@@QAEXPAXI@Z 10080100 f   LowLevel_static_32:PxsContext.obj
 0001:0007f150       ?setContactDistance@PxsContext@physx@@QAEXPAV?$Array@MVVirtualAllocator@shdfnd@physx@@@shdfnd@2@@Z 10080150 f   LowLevel_static_32:PxsContext.obj
 0001:0007f160       ?updateContactManager@PxsContext@physx@@QAEXM_N0PAVPxBaseTask@2@1@Z 10080160 f   LowLevel_static_32:PxsContext.obj
 0001:0007f190       ?secondPassUpdateContactManager@PxsContext@physx@@QAEXMPAVPxBaseTask@2@@Z 10080190 f   LowLevel_static_32:PxsContext.obj
 0001:0007f1b0       ?fetchUpdateContactManager@PxsContext@physx@@QAEXXZ 100801b0 f   LowLevel_static_32:PxsContext.obj
 0001:0007f1d0       ?swapStreams@PxsContext@physx@@QAEXXZ 100801d0 f   LowLevel_static_32:PxsContext.obj
 0001:0007f1e0       ?resetThreadContexts@PxsContext@physx@@QAEXXZ 100801e0 f   LowLevel_static_32:PxsContext.obj
 0001:0007f240       ?getManagerTouchEventCount@PxsContext@physx@@QBE_NPAH00@Z 10080240 f   LowLevel_static_32:PxsContext.obj
 0001:0007f280       ?fillManagerTouchEvents@PxsContext@physx@@QAE_NPAUPxvContactManagerTouchEvent@2@AAH0101@Z 10080280 f   LowLevel_static_32:PxsContext.obj
 0001:0007f3d0       ?fillManagerPatchChangedEvents@PxsContext@physx@@QAE_NPAPAVPxsContactManager@2@AAI01@Z 100803d0 f   LowLevel_static_32:PxsContext.obj
 0001:0007f500       ?beginUpdate@PxsContext@physx@@QAEXXZ 10080500 f   LowLevel_static_32:PxsContext.obj
 0001:0007f520       ?getVisualizationParameter@PxsContext@physx@@QBEMW4Enum@PxVisualizationParameter@2@@Z 10080520 f   LowLevel_static_32:PxsContext.obj
 0001:0007f530       ?setVisualizationParameter@PxsContext@physx@@QAEXW4Enum@PxVisualizationParameter@2@M@Z 10080530 f   LowLevel_static_32:PxsContext.obj
 0001:0007f550       ?shiftOrigin@PxsContext@physx@@QAEXABVPxVec3@2@@Z 10080550 f   LowLevel_static_32:PxsContext.obj
 0001:0007f6c0       ?setCreateContactStream@PxsContext@physx@@QAEX_N@Z 100806c0 f   LowLevel_static_32:PxsContext.obj
 0001:0007f720       ?mergeCMDiscreteUpdateResults@PxsContext@physx@@AAEXPAVPxBaseTask@2@@Z 10080720 f   LowLevel_static_32:PxsContext.obj
 0001:0007f960       ??$combineInPlace@UOR@?$BitMapBase@VNonTrackingAllocator@shdfnd@physx@@@Cm@physx@@VNonTrackingAllocator@shdfnd@4@@?$BitMapBase@VNonTrackingAllocator@shdfnd@physx@@@Cm@physx@@QAEXABV012@@Z 10080960 f i LowLevel_static_32:PxsContext.obj
 0001:0007fab0       ??0PxcNpContext@physx@@QAE@XZ 10080ab0 f i LowLevel_static_32:PxsContext.obj
 0001:0007fd00       ??1?$PoolBase@VLargePersistentContactManifold@Gu@physx@@VNamedAllocator@shdfnd@3@@shdfnd@physx@@QAE@XZ 10080d00 f i LowLevel_static_32:PxsContext.obj
 0001:0007fed0       ??1?$PoolBase@VSpherePersistentContactManifold@Gu@physx@@VNamedAllocator@shdfnd@3@@shdfnd@physx@@QAE@XZ 10080ed0 f i LowLevel_static_32:PxsContext.obj
 0001:000800b0       ??1?$PxcThreadCoherentCache@VPxcNpThreadContext@physx@@UPxcNpContext@2@@physx@@QAE@XZ 100810b0 f i LowLevel_static_32:PxsContext.obj
 0001:00080120       ??1PxcNpContext@physx@@QAE@XZ 10081120 f i LowLevel_static_32:PxsContext.obj
 0001:00080180       ?destroy@?$PoolList@VPxsContactManager@physx@@VPxsContext@2@@Cm@physx@@QAEXXZ 10081180 f i LowLevel_static_32:PxsContext.obj
 0001:00080210       ?extend@?$BitMapBase@VNonTrackingAllocator@shdfnd@physx@@@Cm@physx@@IAEXI@Z 10081210 f i LowLevel_static_32:PxsContext.obj
 0001:000802c0       ?extend@?$PoolList@VPxsContactManager@physx@@VPxsContext@2@@Cm@physx@@QAE_NXZ 100812c0 f i LowLevel_static_32:PxsContext.obj
 0001:000803e0       ?recreate@?$Array@PAEVNamedAllocator@shdfnd@physx@@@shdfnd@physx@@IAEXI@Z 100813e0 f i LowLevel_static_32:PxsContext.obj
 0001:000804a0       ?PxcContactSphereSphere@physx@@YA_NABVGeometryUnion@Gu@1@0ABVPxTransform@1@1ABUNarrowPhaseParams@31@AAUCache@31@AAVContactBuffer@31@PAVRenderOutput@Cm@1@@Z 100814a0 f   LowLevel_static_32:PxcContact.obj
 0001:000804b0       ?PxcContactSphereCapsule@physx@@YA_NABVGeometryUnion@Gu@1@0ABVPxTransform@1@1ABUNarrowPhaseParams@31@AAUCache@31@AAVContactBuffer@31@PAVRenderOutput@Cm@1@@Z 100814b0 f   LowLevel_static_32:PxcContact.obj
 0001:000804c0       ?PxcContactSphereBox@physx@@YA_NABVGeometryUnion@Gu@1@0ABVPxTransform@1@1ABUNarrowPhaseParams@31@AAUCache@31@AAVContactBuffer@31@PAVRenderOutput@Cm@1@@Z 100814c0 f   LowLevel_static_32:PxcContact.obj
 0001:000804d0       ?PxcContactSpherePlane@physx@@YA_NABVGeometryUnion@Gu@1@0ABVPxTransform@1@1ABUNarrowPhaseParams@31@AAUCache@31@AAVContactBuffer@31@PAVRenderOutput@Cm@1@@Z 100814d0 f   LowLevel_static_32:PxcContact.obj
 0001:000804e0       ?PxcContactSphereConvex@physx@@YA_NABVGeometryUnion@Gu@1@0ABVPxTransform@1@1ABUNarrowPhaseParams@31@AAUCache@31@AAVContactBuffer@31@PAVRenderOutput@Cm@1@@Z 100814e0 f   LowLevel_static_32:PxcContact.obj
 0001:000804f0       ?PxcContactSphereHeightField@physx@@YA_NABVGeometryUnion@Gu@1@0ABVPxTransform@1@1ABUNarrowPhaseParams@31@AAUCache@31@AAVContactBuffer@31@PAVRenderOutput@Cm@1@@Z 100814f0 f   LowLevel_static_32:PxcContact.obj
 0001:00080500       ?PxcContactSphereMesh@physx@@YA_NABVGeometryUnion@Gu@1@0ABVPxTransform@1@1ABUNarrowPhaseParams@31@AAUCache@31@AAVContactBuffer@31@PAVRenderOutput@Cm@1@@Z 10081500 f   LowLevel_static_32:PxcContact.obj
 0001:00080510       ?PxcContactPlaneBox@physx@@YA_NABVGeometryUnion@Gu@1@0ABVPxTransform@1@1ABUNarrowPhaseParams@31@AAUCache@31@AAVContactBuffer@31@PAVRenderOutput@Cm@1@@Z 10081510 f   LowLevel_static_32:PxcContact.obj
 0001:00080520       ?PxcContactPlaneCapsule@physx@@YA_NABVGeometryUnion@Gu@1@0ABVPxTransform@1@1ABUNarrowPhaseParams@31@AAUCache@31@AAVContactBuffer@31@PAVRenderOutput@Cm@1@@Z 10081520 f   LowLevel_static_32:PxcContact.obj
 0001:00080530       ?PxcContactPlaneConvex@physx@@YA_NABVGeometryUnion@Gu@1@0ABVPxTransform@1@1ABUNarrowPhaseParams@31@AAUCache@31@AAVContactBuffer@31@PAVRenderOutput@Cm@1@@Z 10081530 f   LowLevel_static_32:PxcContact.obj
 0001:00080540       ?PxcContactCapsuleCapsule@physx@@YA_NABVGeometryUnion@Gu@1@0ABVPxTransform@1@1ABUNarrowPhaseParams@31@AAUCache@31@AAVContactBuffer@31@PAVRenderOutput@Cm@1@@Z 10081540 f   LowLevel_static_32:PxcContact.obj
 0001:00080550       ?PxcContactCapsuleBox@physx@@YA_NABVGeometryUnion@Gu@1@0ABVPxTransform@1@1ABUNarrowPhaseParams@31@AAUCache@31@AAVContactBuffer@31@PAVRenderOutput@Cm@1@@Z 10081550 f   LowLevel_static_32:PxcContact.obj
 0001:00080560       ?PxcContactCapsuleConvex@physx@@YA_NABVGeometryUnion@Gu@1@0ABVPxTransform@1@1ABUNarrowPhaseParams@31@AAUCache@31@AAVContactBuffer@31@PAVRenderOutput@Cm@1@@Z 10081560 f   LowLevel_static_32:PxcContact.obj
 0001:00080570       ?PxcContactCapsuleHeightField@physx@@YA_NABVGeometryUnion@Gu@1@0ABVPxTransform@1@1ABUNarrowPhaseParams@31@AAUCache@31@AAVContactBuffer@31@PAVRenderOutput@Cm@1@@Z 10081570 f   LowLevel_static_32:PxcContact.obj
 0001:00080580       ?PxcContactCapsuleMesh@physx@@YA_NABVGeometryUnion@Gu@1@0ABVPxTransform@1@1ABUNarrowPhaseParams@31@AAUCache@31@AAVContactBuffer@31@PAVRenderOutput@Cm@1@@Z 10081580 f   LowLevel_static_32:PxcContact.obj
 0001:00080590       ?PxcContactBoxBox@physx@@YA_NABVGeometryUnion@Gu@1@0ABVPxTransform@1@1ABUNarrowPhaseParams@31@AAUCache@31@AAVContactBuffer@31@PAVRenderOutput@Cm@1@@Z 10081590 f   LowLevel_static_32:PxcContact.obj
 0001:000805a0       ?PxcContactBoxConvex@physx@@YA_NABVGeometryUnion@Gu@1@0ABVPxTransform@1@1ABUNarrowPhaseParams@31@AAUCache@31@AAVContactBuffer@31@PAVRenderOutput@Cm@1@@Z 100815a0 f   LowLevel_static_32:PxcContact.obj
 0001:000805b0       ?PxcContactBoxHeightField@physx@@YA_NABVGeometryUnion@Gu@1@0ABVPxTransform@1@1ABUNarrowPhaseParams@31@AAUCache@31@AAVContactBuffer@31@PAVRenderOutput@Cm@1@@Z 100815b0 f   LowLevel_static_32:PxcContact.obj
 0001:000805c0       ?PxcContactBoxMesh@physx@@YA_NABVGeometryUnion@Gu@1@0ABVPxTransform@1@1ABUNarrowPhaseParams@31@AAUCache@31@AAVContactBuffer@31@PAVRenderOutput@Cm@1@@Z 100815c0 f   LowLevel_static_32:PxcContact.obj
 0001:000805d0       ?PxcContactConvexConvex@physx@@YA_NABVGeometryUnion@Gu@1@0ABVPxTransform@1@1ABUNarrowPhaseParams@31@AAUCache@31@AAVContactBuffer@31@PAVRenderOutput@Cm@1@@Z 100815d0 f   LowLevel_static_32:PxcContact.obj
 0001:000805e0       ?PxcContactConvexHeightField@physx@@YA_NABVGeometryUnion@Gu@1@0ABVPxTransform@1@1ABUNarrowPhaseParams@31@AAUCache@31@AAVContactBuffer@31@PAVRenderOutput@Cm@1@@Z 100815e0 f   LowLevel_static_32:PxcContact.obj
 0001:000805f0       ?PxcContactConvexMesh@physx@@YA_NABVGeometryUnion@Gu@1@0ABVPxTransform@1@1ABUNarrowPhaseParams@31@AAUCache@31@AAVContactBuffer@31@PAVRenderOutput@Cm@1@@Z 100815f0 f   LowLevel_static_32:PxcContact.obj
 0001:00080600       ?PxcPCMContactSphereSphere@physx@@YA_NABVGeometryUnion@Gu@1@0ABVPxTransform@1@1ABUNarrowPhaseParams@31@AAUCache@31@AAVContactBuffer@31@PAVRenderOutput@Cm@1@@Z 10081600 f   LowLevel_static_32:PxcContact.obj
 0001:00080610       ?PxcPCMContactSpherePlane@physx@@YA_NABVGeometryUnion@Gu@1@0ABVPxTransform@1@1ABUNarrowPhaseParams@31@AAUCache@31@AAVContactBuffer@31@PAVRenderOutput@Cm@1@@Z 10081610 f   LowLevel_static_32:PxcContact.obj
 0001:00080620       ?PxcPCMContactSphereCapsule@physx@@YA_NABVGeometryUnion@Gu@1@0ABVPxTransform@1@1ABUNarrowPhaseParams@31@AAUCache@31@AAVContactBuffer@31@PAVRenderOutput@Cm@1@@Z 10081620 f   LowLevel_static_32:PxcContact.obj
 0001:00080630       ?PxcPCMContactSphereBox@physx@@YA_NABVGeometryUnion@Gu@1@0ABVPxTransform@1@1ABUNarrowPhaseParams@31@AAUCache@31@AAVContactBuffer@31@PAVRenderOutput@Cm@1@@Z 10081630 f   LowLevel_static_32:PxcContact.obj
 0001:00080640       ?PxcPCMContactSphereConvex@physx@@YA_NABVGeometryUnion@Gu@1@0ABVPxTransform@1@1ABUNarrowPhaseParams@31@AAUCache@31@AAVContactBuffer@31@PAVRenderOutput@Cm@1@@Z 10081640 f   LowLevel_static_32:PxcContact.obj
 0001:00080650       ?PxcPCMContactSphereHeightField@physx@@YA_NABVGeometryUnion@Gu@1@0ABVPxTransform@1@1ABUNarrowPhaseParams@31@AAUCache@31@AAVContactBuffer@31@PAVRenderOutput@Cm@1@@Z 10081650 f   LowLevel_static_32:PxcContact.obj
 0001:00080660       ?PxcPCMContactSphereMesh@physx@@YA_NABVGeometryUnion@Gu@1@0ABVPxTransform@1@1ABUNarrowPhaseParams@31@AAUCache@31@AAVContactBuffer@31@PAVRenderOutput@Cm@1@@Z 10081660 f   LowLevel_static_32:PxcContact.obj
 0001:00080670       ?PxcPCMContactPlaneBox@physx@@YA_NABVGeometryUnion@Gu@1@0ABVPxTransform@1@1ABUNarrowPhaseParams@31@AAUCache@31@AAVContactBuffer@31@PAVRenderOutput@Cm@1@@Z 10081670 f   LowLevel_static_32:PxcContact.obj
 0001:00080680       ?PxcPCMContactPlaneCapsule@physx@@YA_NABVGeometryUnion@Gu@1@0ABVPxTransform@1@1ABUNarrowPhaseParams@31@AAUCache@31@AAVContactBuffer@31@PAVRenderOutput@Cm@1@@Z 10081680 f   LowLevel_static_32:PxcContact.obj
 0001:00080690       ?PxcPCMContactPlaneConvex@physx@@YA_NABVGeometryUnion@Gu@1@0ABVPxTransform@1@1ABUNarrowPhaseParams@31@AAUCache@31@AAVContactBuffer@31@PAVRenderOutput@Cm@1@@Z 10081690 f   LowLevel_static_32:PxcContact.obj
 0001:000806a0       ?PxcPCMContactCapsuleCapsule@physx@@YA_NABVGeometryUnion@Gu@1@0ABVPxTransform@1@1ABUNarrowPhaseParams@31@AAUCache@31@AAVContactBuffer@31@PAVRenderOutput@Cm@1@@Z 100816a0 f   LowLevel_static_32:PxcContact.obj
 0001:000806b0       ?PxcPCMContactCapsuleBox@physx@@YA_NABVGeometryUnion@Gu@1@0ABVPxTransform@1@1ABUNarrowPhaseParams@31@AAUCache@31@AAVContactBuffer@31@PAVRenderOutput@Cm@1@@Z 100816b0 f   LowLevel_static_32:PxcContact.obj
 0001:000806c0       ?PxcPCMContactCapsuleConvex@physx@@YA_NABVGeometryUnion@Gu@1@0ABVPxTransform@1@1ABUNarrowPhaseParams@31@AAUCache@31@AAVContactBuffer@31@PAVRenderOutput@Cm@1@@Z 100816c0 f   LowLevel_static_32:PxcContact.obj
 0001:000806d0       ?PxcPCMContactCapsuleHeightField@physx@@YA_NABVGeometryUnion@Gu@1@0ABVPxTransform@1@1ABUNarrowPhaseParams@31@AAUCache@31@AAVContactBuffer@31@PAVRenderOutput@Cm@1@@Z 100816d0 f   LowLevel_static_32:PxcContact.obj
 0001:000806e0       ?PxcPCMContactCapsuleMesh@physx@@YA_NABVGeometryUnion@Gu@1@0ABVPxTransform@1@1ABUNarrowPhaseParams@31@AAUCache@31@AAVContactBuffer@31@PAVRenderOutput@Cm@1@@Z 100816e0 f   LowLevel_static_32:PxcContact.obj
 0001:000806f0       ?PxcPCMContactBoxBox@physx@@YA_NABVGeometryUnion@Gu@1@0ABVPxTransform@1@1ABUNarrowPhaseParams@31@AAUCache@31@AAVContactBuffer@31@PAVRenderOutput@Cm@1@@Z 100816f0 f   LowLevel_static_32:PxcContact.obj
 0001:00080700       ?PxcPCMContactBoxConvex@physx@@YA_NABVGeometryUnion@Gu@1@0ABVPxTransform@1@1ABUNarrowPhaseParams@31@AAUCache@31@AAVContactBuffer@31@PAVRenderOutput@Cm@1@@Z 10081700 f   LowLevel_static_32:PxcContact.obj
 0001:00080710       ?PxcPCMContactBoxHeightField@physx@@YA_NABVGeometryUnion@Gu@1@0ABVPxTransform@1@1ABUNarrowPhaseParams@31@AAUCache@31@AAVContactBuffer@31@PAVRenderOutput@Cm@1@@Z 10081710 f   LowLevel_static_32:PxcContact.obj
 0001:00080720       ?PxcPCMContactBoxMesh@physx@@YA_NABVGeometryUnion@Gu@1@0ABVPxTransform@1@1ABUNarrowPhaseParams@31@AAUCache@31@AAVContactBuffer@31@PAVRenderOutput@Cm@1@@Z 10081720 f   LowLevel_static_32:PxcContact.obj
 0001:00080730       ?PxcPCMContactConvexConvex@physx@@YA_NABVGeometryUnion@Gu@1@0ABVPxTransform@1@1ABUNarrowPhaseParams@31@AAUCache@31@AAVContactBuffer@31@PAVRenderOutput@Cm@1@@Z 10081730 f   LowLevel_static_32:PxcContact.obj
 0001:00080740       ?PxcPCMContactConvexHeightField@physx@@YA_NABVGeometryUnion@Gu@1@0ABVPxTransform@1@1ABUNarrowPhaseParams@31@AAUCache@31@AAVContactBuffer@31@PAVRenderOutput@Cm@1@@Z 10081740 f   LowLevel_static_32:PxcContact.obj
 0001:00080750       ?PxcPCMContactConvexMesh@physx@@YA_NABVGeometryUnion@Gu@1@0ABVPxTransform@1@1ABUNarrowPhaseParams@31@AAUCache@31@AAVContactBuffer@31@PAVRenderOutput@Cm@1@@Z 10081750 f   LowLevel_static_32:PxcContact.obj
 0001:00080760       ??0PxcNpMemBlockPool@physx@@QAE@AAVPxcScratchAllocator@1@@Z 10081760 f   LowLevel_static_32:PxcNpMemBlockPool.obj
 0001:000809f0       ??1PxcNpMemBlockPool@physx@@QAE@XZ 100819f0 f   LowLevel_static_32:PxcNpMemBlockPool.obj
 0001:00080c50       ?init@PxcNpMemBlockPool@physx@@QAEXII@Z 10081c50 f   LowLevel_static_32:PxcNpMemBlockPool.obj
 0001:00080da0       ?setBlockCount@PxcNpMemBlockPool@physx@@QAEXI@Z 10081da0 f   LowLevel_static_32:PxcNpMemBlockPool.obj
 0001:00080e40       ?getUsedBlockCount@PxcNpMemBlockPool@physx@@QBEIXZ 10081e40 f   LowLevel_static_32:PxcNpMemBlockPool.obj
 0001:00080e50       ?getMaxUsedBlockCount@PxcNpMemBlockPool@physx@@QBEIXZ 10081e50 f   LowLevel_static_32:PxcNpMemBlockPool.obj
 0001:00080e60       ?getPeakConstraintBlockCount@PxcNpMemBlockPool@physx@@QBEIXZ 10081e60 f   LowLevel_static_32:PxcNpMemBlockPool.obj
 0001:00080e70       ?releaseUnusedBlocks@PxcNpMemBlockPool@physx@@QAEXXZ 10081e70 f   LowLevel_static_32:PxcNpMemBlockPool.obj
 0001:00080ed0       ?acquireConstraintBlock@PxcNpMemBlockPool@physx@@QAEPAUPxcNpMemBlock@2@XZ 10081ed0 f   LowLevel_static_32:PxcNpMemBlockPool.obj
 0001:00080ee0       ?acquireConstraintBlock@PxcNpMemBlockPool@physx@@QAEPAUPxcNpMemBlock@2@AAV?$Array@PAUPxcNpMemBlock@physx@@VNamedAllocator@shdfnd@2@@shdfnd@2@@Z 10081ee0 f   LowLevel_static_32:PxcNpMemBlockPool.obj
 0001:00080f00       ?acquireContactBlock@PxcNpMemBlockPool@physx@@QAEPAUPxcNpMemBlock@2@XZ 10081f00 f   LowLevel_static_32:PxcNpMemBlockPool.obj
 0001:00080f20       ?acquireFrictionBlock@PxcNpMemBlockPool@physx@@QAEPAUPxcNpMemBlock@2@XZ 10081f20 f   LowLevel_static_32:PxcNpMemBlockPool.obj
 0001:00080f40       ?acquireNpCacheBlock@PxcNpMemBlockPool@physx@@QAEPAUPxcNpMemBlock@2@XZ 10081f40 f   LowLevel_static_32:PxcNpMemBlockPool.obj
 0001:00080f60       ?acquireExceptionalConstraintMemory@PxcNpMemBlockPool@physx@@QAEPAEI@Z 10081f60 f   LowLevel_static_32:PxcNpMemBlockPool.obj
 0001:00080ff0       ?acquireConstraintMemory@PxcNpMemBlockPool@physx@@QAEXXZ 10081ff0 f   LowLevel_static_32:PxcNpMemBlockPool.obj
 0001:000810b0       ?releaseConstraintMemory@PxcNpMemBlockPool@physx@@QAEXXZ 100820b0 f   LowLevel_static_32:PxcNpMemBlockPool.obj
 0001:00081240       ?releaseConstraintBlocks@PxcNpMemBlockPool@physx@@QAEXAAV?$Array@PAUPxcNpMemBlock@physx@@VNamedAllocator@shdfnd@2@@shdfnd@2@@Z 10082240 f   LowLevel_static_32:PxcNpMemBlockPool.obj
 0001:00081300       ?releaseContacts@PxcNpMemBlockPool@physx@@QAEXXZ 10082300 f   LowLevel_static_32:PxcNpMemBlockPool.obj
 0001:00081340       ?swapFrictionStreams@PxcNpMemBlockPool@physx@@QAEXXZ 10082340 f   LowLevel_static_32:PxcNpMemBlockPool.obj
 0001:00081380       ?swapNpCacheStreams@PxcNpMemBlockPool@physx@@QAEXXZ 10082380 f   LowLevel_static_32:PxcNpMemBlockPool.obj
 0001:000813b0       ?flushUnused@PxcNpMemBlockPool@physx@@QAEXXZ 100823b0 f   LowLevel_static_32:PxcNpMemBlockPool.obj
 0001:000813f0       ?acquire@PxcNpMemBlockPool@physx@@AAEPAUPxcNpMemBlock@2@AAV?$Array@PAUPxcNpMemBlock@physx@@VNamedAllocator@shdfnd@2@@shdfnd@2@PAI1_N@Z 100823f0 f   LowLevel_static_32:PxcNpMemBlockPool.obj
 0001:000815e0       ?release@PxcNpMemBlockPool@physx@@AAEXAAV?$Array@PAUPxcNpMemBlock@physx@@VNamedAllocator@shdfnd@2@@shdfnd@2@PAI@Z 100825e0 f   LowLevel_static_32:PxcNpMemBlockPool.obj
 0001:00081660       ??1?$Array@PAUPxcNpMemBlock@physx@@VNamedAllocator@shdfnd@2@@shdfnd@physx@@QAE@XZ 10082660 f i LowLevel_static_32:PxcNpMemBlockPool.obj
 0001:00081690       ??_F?$Array@PAUPxcNpMemBlock@physx@@VNamedAllocator@shdfnd@2@@shdfnd@physx@@QAEXXZ 10082690 f i LowLevel_static_32:PxcNpMemBlockPool.obj
 0001:000816d0       ?growAndPushBack@?$Array@PAUPxcNpMemBlock@physx@@VNamedAllocator@shdfnd@2@@shdfnd@physx@@IAEAAPAUPxcNpMemBlock@3@ABQAU43@@Z 100826d0 f i LowLevel_static_32:PxcNpMemBlockPool.obj
 0001:000817b0       ?recreate@?$Array@PAUPxcNpMemBlock@physx@@VNamedAllocator@shdfnd@2@@shdfnd@physx@@IAEXI@Z 100827b0 f i LowLevel_static_32:PxcNpMemBlockPool.obj
 0001:00081870       ?resize@?$Array@PAUPxcNpMemBlock@physx@@VNamedAllocator@shdfnd@2@@shdfnd@physx@@QAEXIABQAUPxcNpMemBlock@3@@Z 10082870 f i LowLevel_static_32:PxcNpMemBlockPool.obj
 0001:00081930       ??0PxcNpThreadContext@physx@@QAE@PAUPxcNpContext@1@@Z 10082930 f   LowLevel_static_32:PxcNpThreadContext.obj
 0001:00081b00       ??1PxcNpThreadContext@physx@@QAE@XZ 10082b00 f   LowLevel_static_32:PxcNpThreadContext.obj
 0001:00081b90       ?clearStats@PxcNpThreadContext@physx@@QAEXXZ 10082b90 f   LowLevel_static_32:PxcNpThreadContext.obj
 0001:00081bd0       ?reset@PxcNpThreadContext@physx@@QAEXI@Z 10082bd0 f   LowLevel_static_32:PxcNpThreadContext.obj
 0001:00081c80       ?resize@?$BitMapBase@VNonTrackingAllocator@shdfnd@physx@@@Cm@physx@@QAEXI_N@Z 10082c80 f i LowLevel_static_32:PxcNpThreadContext.obj
 0001:00081d30       ??0PxsContactManager@physx@@QAE@PAVPxsContext@1@I@Z 10082d30 f   LowLevel_static_32:PxsContactManager.obj
 0001:00081d70       ??1PxsContactManager@physx@@QAE@XZ 10082d70 f   LowLevel_static_32:PxsContactManager.obj
 0001:00081d80       ?setCCD@PxsContactManager@physx@@QAEX_N@Z 10082d80 f   LowLevel_static_32:PxsContactManager.obj
 0001:00081da0       ?resetCachedState@PxsContactManager@physx@@QAEXXZ 10082da0 f   LowLevel_static_32:PxsContactManager.obj
 0001:00081dc0       ?resetFrictionCachedState@PxsContactManager@physx@@QAEXXZ 10082dc0 f   LowLevel_static_32:PxsContactManager.obj
 0001:00081de0       ??0PxcNpCacheStreamPair@physx@@QAE@AAVPxcNpMemBlockPool@1@@Z 10082de0 f   LowLevel_static_32:PxcNpCacheStreamPair.obj
 0001:00081e00       ?reserve@PxcNpCacheStreamPair@physx@@QAEPAEI@Z 10082e00 f   LowLevel_static_32:PxcNpCacheStreamPair.obj
 0001:00081e70       ?reset@PxcNpCacheStreamPair@physx@@QAEXXZ 10082e70 f   LowLevel_static_32:PxcNpCacheStreamPair.obj
 0001:00081e80       ?resize@ArticulationV@Dy@physx@@UAE_NI@Z 10082e80 f   LowLevelDynamics_static_32:DyArticulation.obj
 0001:00081eb0       ??0Articulation@Dy@physx@@QAE@PAVArticulationSim@Sc@2@@Z 10082eb0 f   LowLevelDynamics_static_32:DyArticulation.obj
 0001:000820c0       ??1Articulation@Dy@physx@@UAE@XZ 100830c0 f   LowLevelDynamics_static_32:DyArticulation.obj
 0001:000821f0       ?resize@Articulation@Dy@physx@@UAE_NI@Z 100831f0 f   LowLevelDynamics_static_32:DyArticulation.obj
 0001:000823c0       ?getDataSizes@Articulation@Dy@physx@@UAEXIAAI00@Z 100833c0 f   LowLevelDynamics_static_32:DyArticulation.obj
 0001:00082400       ?getImpulseResponse@Articulation@Dy@physx@@UBEXIPAUSpatialVectorF@Cm@3@ABVSpatialVector@53@AAV653@@Z 10083400 f   LowLevelDynamics_static_32:DyArticulation.obj
 0001:00082420       ?getImpulseSelfResponse@Articulation@Dy@physx@@UBEXIIPAUSpatialVectorF@Cm@3@ABVSpatialVector@53@1AAV653@2@Z 10083420 f   LowLevelDynamics_static_32:DyArticulation.obj
 0001:00082450       ?getLinkVelocity@Articulation@Dy@physx@@UBE?AUSpatialVectorV@Cm@3@I@Z 10083450 f   LowLevelDynamics_static_32:DyArticulation.obj
 0001:00082480       ?getLinkMotionVector@Articulation@Dy@physx@@UBE?AUSpatialVectorV@Cm@3@I@Z 10083480 f   LowLevelDynamics_static_32:DyArticulation.obj
 0001:000824b0       ?getMotionVelocity@Articulation@Dy@physx@@UBE?AVSpatialVector@Cm@3@I@Z 100834b0 f   LowLevelDynamics_static_32:DyArticulation.obj
 0001:00082510       ?getLinkMaxPenBias@Articulation@Dy@physx@@UBEMI@Z 10083510 f   LowLevelDynamics_static_32:DyArticulation.obj
 0001:00082540       ?computeUnconstrainedVelocities@Articulation@Dy@physx@@SAIABUArticulationSolverDesc@23@MAAVPxConstraintAllocator@3@PAUPxSolverConstraintDesc@3@AAIABVPxVec3@3@_KPAUSpatialVectorF@Cm@3@6@Z 10083540 f   LowLevelDynamics_static_32:DyArticulation.obj
 0001:00082650       ?computeUnconstrainedVelocitiesTGS@Articulation@Dy@physx@@SAXABUArticulationSolverDesc@23@MABVPxVec3@3@_KPAUSpatialVectorF@Cm@3@3@Z 10083650 f   LowLevelDynamics_static_32:DyArticulation.obj
 0001:000826b0       ?saveVelocity@Articulation@Dy@physx@@SAXABUArticulationSolverDesc@23@PAUSpatialVectorF@Cm@3@@Z 100836b0 f   LowLevelDynamics_static_32:DyArticulation.obj
 0001:00082730       ?saveVelocityTGS@Articulation@Dy@physx@@SAXABUArticulationSolverDesc@23@M@Z 10083730 f   LowLevelDynamics_static_32:DyArticulation.obj
 0001:000827d0       ?updateBodies@Articulation@Dy@physx@@SAXABUArticulationSolverDesc@23@M@Z 100837d0 f   LowLevelDynamics_static_32:DyArticulation.obj
 0001:000835f0       ?recordDeltaMotion@Articulation@Dy@physx@@SAXABUArticulationSolverDesc@23@MPAUSpatialVectorF@Cm@3@@Z 100845f0 f   LowLevelDynamics_static_32:DyArticulation.obj
 0001:00083880       ?deltaMotionToMotionVelocity@Articulation@Dy@physx@@SAXABUArticulationSolverDesc@23@M@Z 10084880 f   LowLevelDynamics_static_32:DyArticulation.obj
 0001:00083910       ?pxcFsApplyImpulse@Articulation@Dy@physx@@UAEXIT__m128@@0PAUSpatialVectorF@Cm@3@1@Z 10084910 f   LowLevelDynamics_static_32:DyArticulation.obj
 0001:00083a80       ?pxcFsApplyImpulses@Articulation@Dy@physx@@UAEXIABT__m128@@0I00PAUSpatialVectorF@Cm@3@1@Z 10084a80 f   LowLevelDynamics_static_32:DyArticulation.obj
 0001:00083ad0       ?solveInternalConstraints@Articulation@Dy@physx@@UAEXMMPAUSpatialVectorF@Cm@3@0_N@Z 10084ad0 f   LowLevelDynamics_static_32:DyArticulation.obj
 0001:00083ae0       ?pxcFsGetVelocity@Articulation@Dy@physx@@UAE?AUSpatialVectorV@Cm@3@I@Z 10084ae0 f   LowLevelDynamics_static_32:DyArticulation.obj
 0001:000840a0       ?pxcFsGetVelocities@Articulation@Dy@physx@@UAEXIIAAUSpatialVectorV@Cm@3@0@Z 100850a0 f   LowLevelDynamics_static_32:DyArticulation.obj
 0001:00084100       ?prepareDataBlock@Articulation@Dy@physx@@SAXAAUFsData@23@PBUArticulationLink@23@GPAVPxTransform@3@PAVPxQuat@3@PAUFsInertia@23@PAUArticulationJointTransforms@23@I@Z 10085100 f   LowLevelDynamics_static_32:DyArticulation.obj
 0001:00084500       ?prepareFsData@Articulation@Dy@physx@@SAXAAUFsData@23@PBUArticulationLink@23@@Z 10085500 f   LowLevelDynamics_static_32:DyArticulation.obj
 0001:00084690       ?getResistance@Articulation@Dy@physx@@SAMM@Z 10085690 f   LowLevelDynamics_static_32:DyArticulation.obj
 0001:000846a0       ?getFsDataSize@Articulation@Dy@physx@@SAII@Z 100856a0 f   LowLevelDynamics_static_32:DyArticulation.obj
 0001:000846b0       ?getLtbDataSize@Articulation@Dy@physx@@SAII@Z 100856b0 f   LowLevelDynamics_static_32:DyArticulation.obj
 0001:000846c0       ?setInertia@Articulation@Dy@physx@@SAXAAUFsInertia@23@ABUPxsBodyCore@3@ABVPxTransform@3@@Z 100856c0 f   LowLevelDynamics_static_32:DyArticulation.obj
 0001:00084b70       ?setJointTransforms@Articulation@Dy@physx@@SAXAAUArticulationJointTransforms@23@ABVPxTransform@3@1ABUArticulationJointCore@23@@Z 10085b70 f   LowLevelDynamics_static_32:DyArticulation.obj
 0001:000852c0       ?applyImpulses@Articulation@Dy@physx@@SAXABUFsData@23@PAUSpatialVectorV@Cm@3@1@Z 100862c0 f   LowLevelDynamics_static_32:DyArticulation.obj
 0001:000857c0       ?computeUnconstrainedVelocitiesInternal@Articulation@Dy@physx@@AAEXABUArticulationSolverDesc@23@MABVPxVec3@3@_KPIAUFsInertia@23@PIAUArticulationJointTransforms@23@AAUPxcFsScratchAllocator@23@@Z 100867c0 f   LowLevelDynamics_static_32:DyArticulation.obj
 0001:00086360       ?prepareLtbMatrix@Articulation@Dy@physx@@AAEXAAUFsData@23@PBUFsInertia@23@PBVPxTransform@3@PBUArticulationJointTransforms@23@M@Z 10087360 f   LowLevelDynamics_static_32:DyArticulation.obj
 0001:000866d0       ?computeJointDrives@Articulation@Dy@physx@@AAEXAAUFsData@23@PAT__m128@@PBUArticulationLink@23@PBVPxTransform@3@PBUArticulationJointTransforms@23@PBUMat33V@aos@shdfnd@3@M@Z 100876d0 f   LowLevelDynamics_static_32:DyArticulation.obj
 0001:00086cb0       ?initialize@PxvArticulationDriveCache@Dy@physx@@SAXAAUFsData@23@GPBUArticulationLink@23@MIPADI@Z 10087cb0 f   LowLevelDynamics_static_32:DyArticulation.obj
 0001:00086e40       ?getLinkCount@PxvArticulationDriveCache@Dy@physx@@SAIABUFsData@23@@Z 10087e40 f   LowLevelDynamics_static_32:DyArticulation.obj
 0001:00086e50       ?applyImpulses@PxvArticulationDriveCache@Dy@physx@@SAXABUFsData@23@PAUSpatialVectorV@Cm@3@1@Z 10087e50 f   LowLevelDynamics_static_32:DyArticulation.obj
 0001:00086e60       ?getImpulseResponse@PxvArticulationDriveCache@Dy@physx@@SAXABUFsData@23@IABUSpatialVectorV@Cm@3@AAU563@@Z 10087e60 f   LowLevelDynamics_static_32:DyArticulation.obj
 0001:00086e70       ?PxvRegisterArticulations@Dy@physx@@YAXXZ 10087e70 f   LowLevelDynamics_static_32:DyArticulation.obj
 0001:00086ee0       ?PxcLtbFactor@Dy@physx@@YAXAAUFsData@12@@Z 10087ee0 f   LowLevelDynamics_static_32:DyArticulation.obj
 0001:000880f0       ?PxcLtbComputeJv@Dy@physx@@YAXPAT__m128@@ABUFsData@12@PBUSpatialVectorV@Cm@2@@Z 100890f0 f   LowLevelDynamics_static_32:DyArticulation.obj
 0001:000881e0       ?PxcLtbSolve@Dy@physx@@YAXABUFsData@12@PAT__m128@@PAUSpatialVectorV@Cm@2@@Z 100891e0 f   LowLevelDynamics_static_32:DyArticulation.obj
 0001:00088760       ?PxcLtbProject@Dy@physx@@YAXABUFsData@12@PAUSpatialVectorV@Cm@2@PAT__m128@@@Z 10089760 f   LowLevelDynamics_static_32:DyArticulation.obj
 0001:000887d0       ?PxcFsComputeJointLoadsSimd@Dy@physx@@YAXABUFsData@12@PIBUFsInertia@12@PIAUMat33V@aos@shdfnd@2@PIBMIIUPxcFsScratchAllocator@12@@Z 100897d0 f   LowLevelDynamics_static_32:DyArticulation.obj
 0001:0008af10       ?PxcFsPropagateDrivenInertiaSimd@Dy@physx@@YAXAAUFsData@12@PBUFsInertia@12@PBMPBUMat33V@aos@shdfnd@2@UPxcFsScratchAllocator@12@@Z 1008bf10 f   LowLevelDynamics_static_32:DyArticulation.obj
 0001:0008be40       ?PxcFsApplyJointDrives@Dy@physx@@YAXAAUFsData@12@PBT__m128@@@Z 1008ce40 f   LowLevelDynamics_static_32:DyArticulation.obj
 0001:0008c370       ??0SpatialVectorV@Cm@physx@@QAE@XZ 1008d370 f i LowLevelDynamics_static_32:DyArticulation.obj
 0001:0008c380       ??1ArticulationV@Dy@physx@@UAE@XZ 1008d380 f i LowLevelDynamics_static_32:DyArticulation.obj
 0001:0008c3b0       ??1SpatialVector@Cm@physx@@QAE@XZ 1008d3b0 f i LowLevelDynamics_static_32:DyArticulation.obj
 0001:0008c3c0       ??_GArticulation@Dy@physx@@UAEPAXI@Z 1008d3c0 f i LowLevelDynamics_static_32:DyArticulation.obj
 0001:0008c3c0       ??_EArticulation@Dy@physx@@UAEPAXI@Z 1008d3c0 f i LowLevelDynamics_static_32:DyArticulation.obj
 0001:0008c3f0       ??_GArticulationV@Dy@physx@@UAEPAXI@Z 1008d3f0 f i LowLevelDynamics_static_32:DyArticulation.obj
 0001:0008c3f0       ??_EArticulationV@Dy@physx@@UAEPAXI@Z 1008d3f0 f i LowLevelDynamics_static_32:DyArticulation.obj
 0001:0008c440       ?addBody@ArticulationV@Dy@physx@@UAEXXZ 1008d440 f i LowLevelDynamics_static_32:DyArticulation.obj
 0001:0008c4d0       ?applyCache@ArticulationV@Dy@physx@@UAEXAAVPxArticulationCache@3@V?$PxFlags@W4Enum@PxArticulationCache@physx@@E@3@@Z 1008d4d0 f i LowLevelDynamics_static_32:DyArticulation.obj
 0001:0008c4e0       ?computeSIS@ArticulationFnsSimdBase@Dy@physx@@SA?AUMat33V@aos@shdfnd@3@ABUFsInertia@23@QBUSpatialVectorV@Cm@3@QAU893@@Z 1008d4e0 f i LowLevelDynamics_static_32:DyArticulation.obj
 0001:0008c9c0       ?copyInternalStateToCache@ArticulationV@Dy@physx@@UAEXAAVPxArticulationCache@3@V?$PxFlags@W4Enum@PxArticulationCache@physx@@E@3@@Z 1008d9c0 f i LowLevelDynamics_static_32:DyArticulation.obj
 0001:0008c9d0       ?getCoefficentMatrix@ArticulationV@Dy@physx@@UAEXMIPBVPxContactJoint@3@IAAVPxArticulationCache@3@@Z 1008d9d0 f i LowLevelDynamics_static_32:DyArticulation.obj
 0001:0008c9e0       ?getCoefficentMatrixWithLoopJoints@ArticulationV@Dy@physx@@UAEXPAUArticulationLoopConstraint@23@IAAVPxArticulationCache@3@@Z 1008d9e0 f i LowLevelDynamics_static_32:DyArticulation.obj
 0001:0008c9f0       ?getCoriolisAndCentrifugalForce@ArticulationV@Dy@physx@@UAEXAAVPxArticulationCache@3@@Z 1008d9f0 f i LowLevelDynamics_static_32:DyArticulation.obj
 0001:0008ca00       ?getCurrentTransform@Articulation@Dy@physx@@UBEABVPxTransform@3@I@Z 1008da00 f i LowLevelDynamics_static_32:DyArticulation.obj
 0001:0008ca20       ?getDeltaQ@Articulation@Dy@physx@@UBEABVPxQuat@3@I@Z 1008da20 f i LowLevelDynamics_static_32:DyArticulation.obj
 0001:0008ca30       ?getDof@ArticulationV@Dy@physx@@UAEII@Z 1008da30 f i LowLevelDynamics_static_32:DyArticulation.obj
 0001:0008ca40       ?getDofs@ArticulationV@Dy@physx@@UAEIXZ 1008da40 f i LowLevelDynamics_static_32:DyArticulation.obj
 0001:0008ca50       ?getGeneralizedExternalForce@ArticulationV@Dy@physx@@UAEXAAVPxArticulationCache@3@@Z 1008da50 f i LowLevelDynamics_static_32:DyArticulation.obj
 0001:0008ca60       ?getGeneralizedGravityForce@ArticulationV@Dy@physx@@UAEXABVPxVec3@3@AAVPxArticulationCache@3@@Z 1008da60 f i LowLevelDynamics_static_32:DyArticulation.obj
 0001:0008ca70       ?getGeneralizedMassMatrix@ArticulationV@Dy@physx@@UAEXAAVPxArticulationCache@3@@Z 1008da70 f i LowLevelDynamics_static_32:DyArticulation.obj
 0001:0008ca80       ?getGeneralizedMassMatrixCRB@ArticulationV@Dy@physx@@UAEXAAVPxArticulationCache@3@@Z 1008da80 f i LowLevelDynamics_static_32:DyArticulation.obj
 0001:0008ca90       ?getJointAcceleration@ArticulationV@Dy@physx@@UAEXABVPxVec3@3@AAVPxArticulationCache@3@@Z 1008da90 f i LowLevelDynamics_static_32:DyArticulation.obj
 0001:0008caa0       ?getJointForce@ArticulationV@Dy@physx@@UAEXAAVPxArticulationCache@3@@Z 1008daa0 f i LowLevelDynamics_static_32:DyArticulation.obj
 0001:0008cab0       ?getKinematicJacobian@ArticulationV@Dy@physx@@UAEXIAAVPxArticulationCache@3@@Z 1008dab0 f i LowLevelDynamics_static_32:DyArticulation.obj
 0001:0008cac0       ?getLambda@ArticulationV@Dy@physx@@UAE_NPAUArticulationLoopConstraint@23@IAAVPxArticulationCache@3@1PBMABVPxVec3@3@I@Z 1008dac0 f i LowLevelDynamics_static_32:DyArticulation.obj
 0001:0008cad0       ?growAndPushBack@?$Array@VSpatialVector@Cm@physx@@VNamedAllocator@shdfnd@3@@shdfnd@physx@@IAEAAVSpatialVector@Cm@3@ABV453@@Z 1008dad0 f i LowLevelDynamics_static_32:DyArticulation.obj
 0001:0008cc00       ?initializeCommonData@ArticulationV@Dy@physx@@UAEXXZ 1008dc00 f i LowLevelDynamics_static_32:DyArticulation.obj
 0001:0008cc10       ?onUpdateSolverDesc@Articulation@Dy@physx@@UAEXXZ 1008dc10 f i LowLevelDynamics_static_32:DyArticulation.obj
 0001:0008cc40       ?onUpdateSolverDesc@ArticulationV@Dy@physx@@UAEXXZ 1008dc40 f i LowLevelDynamics_static_32:DyArticulation.obj
 0001:0008cc50       ?packJointData@ArticulationV@Dy@physx@@UAEXPBMPAM@Z 1008dc50 f i LowLevelDynamics_static_32:DyArticulation.obj
 0001:0008cc60       ?pxcFsGetVelocityTGS@Articulation@Dy@physx@@UAE?AUSpatialVectorV@Cm@3@I@Z 1008dc60 f i LowLevelDynamics_static_32:DyArticulation.obj
 0001:0008cc80       ?recreate@?$Array@UMat33V@aos@shdfnd@physx@@VNamedAllocator@34@@shdfnd@physx@@IAEXI@Z 1008dc80 f i LowLevelDynamics_static_32:DyArticulation.obj
 0001:0008cd40       ?recreate@?$Array@USpatialVectorV@Cm@physx@@VNamedAllocator@shdfnd@3@@shdfnd@physx@@IAEXI@Z 1008dd40 f i LowLevelDynamics_static_32:DyArticulation.obj
 0001:0008cdf0       ?recreate@?$Array@VPxQuat@physx@@VNamedAllocator@shdfnd@2@@shdfnd@physx@@IAEXI@Z 1008ddf0 f i LowLevelDynamics_static_32:DyArticulation.obj
 0001:0008cf40       ?recreate@?$Array@VPxTransform@physx@@VNamedAllocator@shdfnd@2@@shdfnd@physx@@IAEXI@Z 1008df40 f i LowLevelDynamics_static_32:DyArticulation.obj
 0001:0008d060       ?removeBody@ArticulationV@Dy@physx@@UAEXXZ 1008e060 f i LowLevelDynamics_static_32:DyArticulation.obj
 0001:0008d070       ?resize@?$Array@DVNamedAllocator@shdfnd@physx@@@shdfnd@physx@@QAEXIABD@Z 1008e070 f i LowLevelDynamics_static_32:DyArticulation.obj
 0001:0008d130       ?resize@?$Array@UMat33V@aos@shdfnd@physx@@VNamedAllocator@34@@shdfnd@physx@@QAEXIABUMat33V@aos@23@@Z 1008e130 f i LowLevelDynamics_static_32:DyArticulation.obj
 0001:0008d190       ?resize@?$Array@USpatialVectorV@Cm@physx@@VNamedAllocator@shdfnd@3@@shdfnd@physx@@QAEXIABUSpatialVectorV@Cm@3@@Z 1008e190 f i LowLevelDynamics_static_32:DyArticulation.obj
 0001:0008d1e0       ?resize@?$Array@VPxQuat@physx@@VNamedAllocator@shdfnd@2@@shdfnd@physx@@QAEXIABVPxQuat@3@@Z 1008e1e0 f i LowLevelDynamics_static_32:DyArticulation.obj
 0001:0008d2e0       ?resize@?$Array@VPxTransform@physx@@VNamedAllocator@shdfnd@2@@shdfnd@physx@@QAEXIABVPxTransform@3@@Z 1008e2e0 f i LowLevelDynamics_static_32:DyArticulation.obj
 0001:0008d360       ?teleportRootLink@ArticulationV@Dy@physx@@UAEXXZ 1008e360 f i LowLevelDynamics_static_32:DyArticulation.obj
 0001:0008d370       ?unpackJointData@ArticulationV@Dy@physx@@UAEXPBMPAM@Z 1008e370 f i LowLevelDynamics_static_32:DyArticulation.obj
 0001:0008d380       ?setJointPose@ArticulationJointCore@Dy@physx@@QAEXAAVArticulationJointCoreData@23@@Z 1008e380 f   LowLevelDynamics_static_32:DyFeatherstoneArticulation.obj
 0001:0008dbd0       ??1ArticulationData@Dy@physx@@QAE@XZ 1008ebd0 f   LowLevelDynamics_static_32:DyFeatherstoneArticulation.obj
 0001:0008de70       ?resizeLinkData@ArticulationData@Dy@physx@@QAEXI@Z 1008ee70 f   LowLevelDynamics_static_32:DyFeatherstoneArticulation.obj
 0001:0008e2f0       ?resizeJointData@ArticulationData@Dy@physx@@QAEXI@Z 1008f2f0 f   LowLevelDynamics_static_32:DyFeatherstoneArticulation.obj
 0001:0008e3e0       ?getLinkData@ArticulationData@Dy@physx@@QBEAAVArticulationLinkData@23@I@Z 1008f3e0 f   LowLevelDynamics_static_32:DyFeatherstoneArticulation.obj
 0001:0008e400       ??0FeatherstoneArticulation@Dy@physx@@QAE@PAVArticulationSim@Sc@2@@Z 1008f400 f   LowLevelDynamics_static_32:DyFeatherstoneArticulation.obj
 0001:0008e4e0       ??1FeatherstoneArticulation@Dy@physx@@UAE@XZ 1008f4e0 f   LowLevelDynamics_static_32:DyFeatherstoneArticulation.obj
 0001:0008e550       ?getDataSizes@FeatherstoneArticulation@Dy@physx@@UAEXIAAI00@Z 1008f550 f   LowLevelDynamics_static_32:DyFeatherstoneArticulation.obj
 0001:0008e580       ?resize@FeatherstoneArticulation@Dy@physx@@UAE_NI@Z 1008f580 f   LowLevelDynamics_static_32:DyFeatherstoneArticulation.obj
 0001:0008e5f0       ?onUpdateSolverDesc@FeatherstoneArticulation@Dy@physx@@UAEXXZ 1008f5f0 f   LowLevelDynamics_static_32:DyFeatherstoneArticulation.obj
 0001:0008e630       ?getDofs@FeatherstoneArticulation@Dy@physx@@UAEIXZ 1008f630 f   LowLevelDynamics_static_32:DyFeatherstoneArticulation.obj
 0001:0008e650       ?getDof@FeatherstoneArticulation@Dy@physx@@UAEII@Z 1008f650 f   LowLevelDynamics_static_32:DyFeatherstoneArticulation.obj
 0001:0008e670       ?applyCache@FeatherstoneArticulation@Dy@physx@@UAEXAAVPxArticulationCache@3@V?$PxFlags@W4Enum@PxArticulationCache@physx@@E@3@@Z 1008f670 f   LowLevelDynamics_static_32:DyFeatherstoneArticulation.obj
 0001:0008e6a0       ?copyInternalStateToCache@FeatherstoneArticulation@Dy@physx@@UAEXAAVPxArticulationCache@3@V?$PxFlags@W4Enum@PxArticulationCache@physx@@E@3@@Z 1008f6a0 f   LowLevelDynamics_static_32:DyFeatherstoneArticulation.obj
 0001:0008e9c0       ?teleportRootLink@FeatherstoneArticulation@Dy@physx@@UAEXXZ 1008f9c0 f   LowLevelDynamics_static_32:DyFeatherstoneArticulation.obj
 0001:0008f790       ?getImpulseResponse@FeatherstoneArticulation@Dy@physx@@UBEXIPAUSpatialVectorF@Cm@3@ABVSpatialVector@53@AAV653@@Z 10090790 f   LowLevelDynamics_static_32:DyFeatherstoneArticulation.obj
 0001:0008fc90       ?getImpulseSelfResponse@FeatherstoneArticulation@Dy@physx@@UBEXIIPAUSpatialVectorF@Cm@3@ABVSpatialVector@53@1AAV653@2@Z 10090c90 f   LowLevelDynamics_static_32:DyFeatherstoneArticulation.obj
 0001:0008fcd0       ?getLinkVelocity@FeatherstoneArticulation@Dy@physx@@UBE?AUSpatialVectorV@Cm@3@I@Z 10090cd0 f   LowLevelDynamics_static_32:DyFeatherstoneArticulation.obj
 0001:0008fd20       ?getLinkMotionVector@FeatherstoneArticulation@Dy@physx@@UBE?AUSpatialVectorV@Cm@3@I@Z 10090d20 f   LowLevelDynamics_static_32:DyFeatherstoneArticulation.obj
 0001:0008fd70       ?getMotionVelocity@FeatherstoneArticulation@Dy@physx@@UBE?AVSpatialVector@Cm@3@I@Z 10090d70 f   LowLevelDynamics_static_32:DyFeatherstoneArticulation.obj
 0001:0008fdc0       ?getLinkMaxPenBias@FeatherstoneArticulation@Dy@physx@@UBEMI@Z 10090dc0 f   LowLevelDynamics_static_32:DyFeatherstoneArticulation.obj
 0001:0008fde0       ?setupSolverConstraintsTGS@FeatherstoneArticulation@Dy@physx@@SAIABUArticulationSolverDesc@23@AAVPxcConstraintBlockStream@3@PAUPxTGSSolverConstraintDesc@23@MMMAAIAAVPxsConstraintBlockManager@3@PAUSpatialVectorF@Cm@3@@Z 10090de0 f   LowLevelDynamics_static_32:DyFeatherstoneArticulation.obj
 0001:0008fe40       ?saveVelocity@FeatherstoneArticulation@Dy@physx@@SAXABUArticulationSolverDesc@23@PAUSpatialVectorF@Cm@3@@Z 10090e40 f   LowLevelDynamics_static_32:DyFeatherstoneArticulation.obj
 0001:0008fea0       ?saveVelocityTGS@FeatherstoneArticulation@Dy@physx@@SAXABUArticulationSolverDesc@23@M@Z 10090ea0 f   LowLevelDynamics_static_32:DyFeatherstoneArticulation.obj
 0001:0008feb0       ?recordDeltaMotion@FeatherstoneArticulation@Dy@physx@@SAXABUArticulationSolverDesc@23@MPAUSpatialVectorF@Cm@3@@Z 10090eb0 f   LowLevelDynamics_static_32:DyFeatherstoneArticulation.obj
 0001:000907b0       ?deltaMotionToMotionVelocity@FeatherstoneArticulation@Dy@physx@@SAXABUArticulationSolverDesc@23@M@Z 100917b0 f   LowLevelDynamics_static_32:DyFeatherstoneArticulation.obj
 0001:000908c0       ?pxcFsApplyImpulse@FeatherstoneArticulation@Dy@physx@@UAEXIT__m128@@0PAUSpatialVectorF@Cm@3@1@Z 100918c0 f   LowLevelDynamics_static_32:DyFeatherstoneArticulation.obj
 0001:00090d00       ?pxcFsApplyImpulses@FeatherstoneArticulation@Dy@physx@@UAEXIABT__m128@@0I00PAUSpatialVectorF@Cm@3@1@Z 10091d00 f   LowLevelDynamics_static_32:DyFeatherstoneArticulation.obj
 0001:00091a30       ?pxcFsApplyImpulses@FeatherstoneArticulation@Dy@physx@@UAEXPAUSpatialVectorF@Cm@3@@Z 10092a30 f   LowLevelDynamics_static_32:DyFeatherstoneArticulation.obj
 0001:00091c40       ?pxcFsGetVelocity@FeatherstoneArticulation@Dy@physx@@UAE?AUSpatialVectorV@Cm@3@I@Z 10092c40 f   LowLevelDynamics_static_32:DyFeatherstoneArticulation.obj
 0001:000923a0       ?pxcFsGetVelocities@FeatherstoneArticulation@Dy@physx@@UAEXIIAAUSpatialVectorV@Cm@3@0@Z 100933a0 f   LowLevelDynamics_static_32:DyFeatherstoneArticulation.obj
 0001:00093160       ?pxcFsGetVelocityTGS@FeatherstoneArticulation@Dy@physx@@UAE?AUSpatialVectorV@Cm@3@I@Z 10094160 f   LowLevelDynamics_static_32:DyFeatherstoneArticulation.obj
 0001:00093180       ?getCurrentTransform@FeatherstoneArticulation@Dy@physx@@UBEABVPxTransform@3@I@Z 10094180 f   LowLevelDynamics_static_32:DyFeatherstoneArticulation.obj
 0001:000931a0       ?getDeltaQ@FeatherstoneArticulation@Dy@physx@@UBEABVPxQuat@3@I@Z 100941a0 f   LowLevelDynamics_static_32:DyFeatherstoneArticulation.obj
 0001:000931b0       ?applyImpulses@FeatherstoneArticulation@Dy@physx@@QAEXPAUSpatialVectorF@Cm@3@0@Z 100941b0 f   LowLevelDynamics_static_32:DyFeatherstoneArticulation.obj
 0001:000932e0       ?getDeltaV@FeatherstoneArticulation@Dy@physx@@QAEXPAUSpatialVectorF@Cm@3@0@Z 100942e0 f   LowLevelDynamics_static_32:DyFeatherstoneArticulation.obj
 0001:00093c50       ?propagateVelocity@FeatherstoneArticulation@Dy@physx@@SA?AUSpatialVectorF@Cm@3@ABVArticulationLinkData@23@ABVArticulationJointCoreData@23@ABU453@PAM2@Z 10094c50 f   LowLevelDynamics_static_32:DyFeatherstoneArticulation.obj
 0001:00094600       ?propagateVelocityTestImpulse@FeatherstoneArticulation@Dy@physx@@SA?AUSpatialVectorF@Cm@3@ABVArticulationLinkData@23@ABVArticulationJointCoreData@23@ABU453@2@Z 10095600 f   LowLevelDynamics_static_32:DyFeatherstoneArticulation.obj
 0001:00094f80       ?propagateImpulse@FeatherstoneArticulation@Dy@physx@@SA?AUSpatialVectorF@Cm@3@ABVArticulationLinkData@23@ABVArticulationJointCoreData@23@ABU453@@Z 10095f80 f   LowLevelDynamics_static_32:DyFeatherstoneArticulation.obj
 0001:00095450       ?copyJointData@FeatherstoneArticulation@Dy@physx@@AAEXAAVArticulationData@23@PAMPBM@Z 10096450 f   LowLevelDynamics_static_32:DyFeatherstoneArticulation.obj
 0001:000954d0       ?computeDofs@FeatherstoneArticulation@Dy@physx@@AAEXXZ 100964d0 f   LowLevelDynamics_static_32:DyFeatherstoneArticulation.obj
 0001:00095680       ?jcalc@FeatherstoneArticulation@Dy@physx@@AAEXAAVArticulationData@23@@Z 10096680 f   LowLevelDynamics_static_32:DyFeatherstoneArticulation.obj
 0001:000959f0       ?computeSpatialInertia@FeatherstoneArticulation@Dy@physx@@AAEXAAVArticulationData@23@@Z 100969f0 f   LowLevelDynamics_static_32:DyFeatherstoneArticulation.obj
 0001:00095d10       ?computeZ@FeatherstoneArticulation@Dy@physx@@AAEXAAVArticulationData@23@ABVPxVec3@3@AAUScratchData@23@@Z 10096d10 f   LowLevelDynamics_static_32:DyFeatherstoneArticulation.obj
 0001:00096470       ?computeD@FeatherstoneArticulation@Dy@physx@@AAEXAAVArticulationData@23@AAUScratchData@23@PAUSpatialVectorF@Cm@3@2@Z 10097470 f   LowLevelDynamics_static_32:DyFeatherstoneArticulation.obj
 0001:00096c50       ?solveInternalConstraints@FeatherstoneArticulation@Dy@physx@@EAEXMMPAUSpatialVectorF@Cm@3@0_N@Z 10097c50 f   LowLevelDynamics_static_32:DyFeatherstoneArticulation.obj
 0001:00098e90       ?computeC@FeatherstoneArticulation@Dy@physx@@AAEXAAVArticulationData@23@AAUScratchData@23@@Z 10099e90 f   LowLevelDynamics_static_32:DyFeatherstoneArticulation.obj
 0001:000993d0       ?computeRelativeTransformC2P@FeatherstoneArticulation@Dy@physx@@AAEXAAVArticulationData@23@@Z 1009a3d0 f   LowLevelDynamics_static_32:DyFeatherstoneArticulation.obj
 0001:00099a40       ?computeRelativeTransformC2B@FeatherstoneArticulation@Dy@physx@@AAEXAAVArticulationData@23@@Z 1009aa40 f   LowLevelDynamics_static_32:DyFeatherstoneArticulation.obj
 0001:0009a070       ?computeLinkVelocities@FeatherstoneArticulation@Dy@physx@@AAEXAAVArticulationData@23@AAUScratchData@23@@Z 1009b070 f   LowLevelDynamics_static_32:DyFeatherstoneArticulation.obj
 0001:0009a680       ?transformInertia@FeatherstoneArticulation@Dy@physx@@AAEXABUSpatialTransform@23@AAUSpatialMatrix@23@@Z 1009b680 f   LowLevelDynamics_static_32:DyFeatherstoneArticulation.obj
 0001:0009c270       ?getDeltaVWithDeltaJV@FeatherstoneArticulation@Dy@physx@@CA?AUSpatialVectorF@Cm@3@_NIABVArticulationData@23@PAU453@PAM@Z 1009d270 f   LowLevelDynamics_static_32:DyFeatherstoneArticulation.obj
 0001:0009c700       ?getDeltaV@FeatherstoneArticulation@Dy@physx@@CA?AUSpatialVectorF@Cm@3@_NIABVArticulationData@23@PAU453@@Z 1009d700 f   LowLevelDynamics_static_32:DyFeatherstoneArticulation.obj
 0001:0009cb80       ?getZ@FeatherstoneArticulation@Dy@physx@@CAXIABVArticulationData@23@PAUSpatialVectorF@Cm@3@ABU563@@Z 1009db80 f   LowLevelDynamics_static_32:DyFeatherstoneArticulation.obj
 0001:0009cca0       ?getImpulseResponse@FeatherstoneArticulation@Dy@physx@@CA?AUSpatialVectorF@Cm@3@I_NABVArticulationData@23@PAU453@ABU453@@Z 1009dca0 f   LowLevelDynamics_static_32:DyFeatherstoneArticulation.obj
 0001:0009cce0       ?getImpulseResponseWithJ@FeatherstoneArticulation@Dy@physx@@CA?AUSpatialVectorF@Cm@3@I_NABVArticulationData@23@PAU453@ABU453@PAM@Z 1009dce0 f   LowLevelDynamics_static_32:DyFeatherstoneArticulation.obj
 0001:0009cd20       ?getImpulseSelfResponse@FeatherstoneArticulation@Dy@physx@@SAXPAUArticulationLink@23@_NPAUSpatialVectorF@Cm@3@ABVArticulationData@23@IABUSpatialVectorV@63@AAU863@I45@Z 1009dd20 f   LowLevelDynamics_static_32:DyFeatherstoneArticulation.obj
 0001:0009d950       ?createHardLimit@FeatherstoneArticulation@Dy@physx@@QAEXPAUArticulationLink@23@_NPAUSpatialVectorF@Cm@3@AAVArticulationData@23@IAAUSolverConstraint1DExt@23@ABVPxVec3@3@MM@Z 1009e950 f   LowLevelDynamics_static_32:DyFeatherstoneArticulation.obj
 0001:0009db50       ?createHardLimits@FeatherstoneArticulation@Dy@physx@@QAEXAAUSolverConstraint1DExt@23@0ABVPxVec3@3@MMMABUSpatialVectorV@Cm@3@2M@Z 1009eb50 f   LowLevelDynamics_static_32:DyFeatherstoneArticulation.obj
 0001:0009dd20       ?createTangentialSpring@FeatherstoneArticulation@Dy@physx@@QAEXPAUArticulationLink@23@_NPAUSpatialVectorF@Cm@3@AAVArticulationData@23@IAAUSolverConstraint1DExt@23@ABVPxVec3@3@MMM@Z 1009ed20 f   LowLevelDynamics_static_32:DyFeatherstoneArticulation.obj
 0001:0009df40       ?setupSolverConstraints@FeatherstoneArticulation@Dy@physx@@QAEIPAUArticulationLink@23@I_NAAVArticulationData@23@PAUSpatialVectorF@Cm@3@AAI@Z 1009ef40 f   LowLevelDynamics_static_32:DyFeatherstoneArticulation.obj
 0001:0009dfa0       ?setupInternalConstraints@FeatherstoneArticulation@Dy@physx@@QAEXPAUArticulationLink@23@I_NAAVArticulationData@23@PAUSpatialVectorF@Cm@3@MMM_N@Z 1009efa0 f   LowLevelDynamics_static_32:DyFeatherstoneArticulation.obj
 0001:0009fb90       ?createHardLimitTGS@FeatherstoneArticulation@Dy@physx@@QAEXAAUSolverConstraint1DExtStep@23@ABVPxVec3@3@MMABUSpatialVectorV@Cm@3@2M@Z 100a0b90 f   LowLevelDynamics_static_32:DyFeatherstoneArticulation.obj
 0001:0009fca0       ?createTangentialSpringTGS@FeatherstoneArticulation@Dy@physx@@QAEXPAUArticulationLink@23@_NPAUSpatialVectorF@Cm@3@AAVArticulationData@23@IAAUSolverConstraint1DExtStep@23@ABVPxVec3@3@MMM@Z 100a0ca0 f   LowLevelDynamics_static_32:DyFeatherstoneArticulation.obj
 0001:0009fee0       ?teleportLinks@FeatherstoneArticulation@Dy@physx@@QAEXAAVArticulationData@23@@Z 100a0ee0 f   LowLevelDynamics_static_32:DyFeatherstoneArticulation.obj
 0001:000a0bf0       ?allocateScratchSpatialData@FeatherstoneArticulation@Dy@physx@@QAEPAEPAVPxcScratchAllocator@3@IAAUScratchData@23@_N@Z 100a1bf0 f   LowLevelDynamics_static_32:DyFeatherstoneArticulation.obj
 0001:000a0cd0       ?propagateTransform@FeatherstoneArticulation@Dy@physx@@QAE?AVPxTransform@3@IPAUArticulationLink@23@AAVArticulationJointCoreData@23@PAUSpatialVectorF@Cm@3@MABV43@3PAM44@Z 100a1cd0 f   LowLevelDynamics_static_32:DyFeatherstoneArticulation.obj
 0001:000a1fb0       ?PxvRegisterArticulationsReducedCoordinate@Dy@physx@@YAXXZ 100a2fb0 f   LowLevelDynamics_static_32:DyFeatherstoneArticulation.obj
 0001:000a2020       ?PxcFsFlushVelocity@Dy@physx@@YAXAAVFeatherstoneArticulation@12@PAUSpatialVectorF@Cm@2@@Z 100a3020 f   LowLevelDynamics_static_32:DyFeatherstoneArticulation.obj
 0001:000a29c0       ?getImpulseResponseSlow@Dy@physx@@YAXPAUArticulationLink@12@ABVArticulationData@12@IABVSpatialVector@Cm@2@AAV562@I23@Z 100a39c0 f   LowLevelDynamics_static_32:DyFeatherstoneArticulation.obj
 0001:000a4270       ?createDriveOrLimit@Dy@physx@@YAXAAUSolverConstraint1DExt@12@MMM_N1ABUSpatialVectorV@Cm@2@2M@Z 100a5270 f   LowLevelDynamics_static_32:DyFeatherstoneArticulation.obj
 0001:000a4330       ?createSpringDrive@Dy@physx@@YAXAAUSolverConstraint1DExt@12@MMMMMMABUSpatialVectorV@Cm@2@1M@Z 100a5330 f   LowLevelDynamics_static_32:DyFeatherstoneArticulation.obj
 0001:000a4430       ?createSpringDrive@Dy@physx@@YAXAAUSolverConstraint1DExtStep@12@MMMMMMMABUSpatialVectorV@Cm@2@1M@Z 100a5430 f   LowLevelDynamics_static_32:DyFeatherstoneArticulation.obj
 0001:000a4550       ?createDriveOrLimit@Dy@physx@@YAXAAUSolverConstraint1DExtStep@12@MMM_NMMM1ABUSpatialVectorV@Cm@2@2M@Z 100a5550 f   LowLevelDynamics_static_32:DyFeatherstoneArticulation.obj
 0001:000a4620       ??0ArticulationData@Dy@physx@@QAE@XZ 100a5620 f i LowLevelDynamics_static_32:DyFeatherstoneArticulation.obj
 0001:000a49b0       ??0SpatialVector@Cm@physx@@QAE@XZ 100a59b0 f i LowLevelDynamics_static_32:DyFeatherstoneArticulation.obj
 0001:000a49c0       ??0SpatialVectorF@Cm@physx@@QAE@XZ 100a59c0 f i LowLevelDynamics_static_32:DyFeatherstoneArticulation.obj
 0001:000a49d0       ??1SpatialVectorF@Cm@physx@@QAE@XZ 100a59d0 f i LowLevelDynamics_static_32:DyFeatherstoneArticulation.obj
 0001:000a49e0       ??DPxQuat@physx@@QBE?AV01@ABV01@@Z 100a59e0 f i LowLevelDynamics_static_32:DyFeatherstoneArticulation.obj
 0001:000a4ac0       ??_EFeatherstoneArticulation@Dy@physx@@UAEPAXI@Z 100a5ac0 f i LowLevelDynamics_static_32:DyFeatherstoneArticulation.obj
 0001:000a4ac0       ??_GFeatherstoneArticulation@Dy@physx@@UAEPAXI@Z 100a5ac0 f i LowLevelDynamics_static_32:DyFeatherstoneArticulation.obj
 0001:000a4b50       ?exp@shdfnd@physx@@YA?AVPxQuat@2@ABVPxVec3@2@@Z 100a5b50 f i LowLevelDynamics_static_32:DyFeatherstoneArticulation.obj
 0001:000a4c10       ?recreate@?$Array@MVNamedAllocator@shdfnd@physx@@@shdfnd@physx@@IAEXI@Z 100a5c10 f i LowLevelDynamics_static_32:DyFeatherstoneArticulation.obj
 0001:000a4d00       ?recreate@?$Array@UArticulationInternalConstraint@Dy@physx@@VNamedAllocator@shdfnd@3@@shdfnd@physx@@IAEXI@Z 100a5d00 f i LowLevelDynamics_static_32:DyFeatherstoneArticulation.obj
 0001:000a4ed0       ?recreate@?$Array@UArticulationInternalLockedAxis@Dy@physx@@VNamedAllocator@shdfnd@3@@shdfnd@physx@@IAEXI@Z 100a5ed0 f i LowLevelDynamics_static_32:DyFeatherstoneArticulation.obj
 0001:000a5000       ?recreate@?$Array@USpatialVectorF@Cm@physx@@VNamedAllocator@shdfnd@3@@shdfnd@physx@@IAEXI@Z 100a6000 f i LowLevelDynamics_static_32:DyFeatherstoneArticulation.obj
 0001:000a50d0       ?resizeUninitialized@?$Array@UArticulationInternalConstraint@Dy@physx@@VNamedAllocator@shdfnd@3@@shdfnd@physx@@QAEXI@Z 100a60d0 f i LowLevelDynamics_static_32:DyFeatherstoneArticulation.obj
 0001:000a5100       ?resizeUninitialized@?$Array@UArticulationInternalLockedAxis@Dy@physx@@VNamedAllocator@shdfnd@3@@shdfnd@physx@@QAEXI@Z 100a6100 f i LowLevelDynamics_static_32:DyFeatherstoneArticulation.obj
 0001:000a5130       ?toRadiansAndUnitAxis@PxQuat@physx@@QBEXAAMAAVPxVec3@2@@Z 100a6130 f i LowLevelDynamics_static_32:DyFeatherstoneArticulation.obj
 0001:000a5220       ?copyToSolverBodyData@Dy@physx@@YAXABVPxVec3@2@0M0ABVPxTransform@2@MMIMAAUPxSolverBodyData@2@I@Z 100a6220 f   LowLevelDynamics_static_32:DyRigidBodyToSolverBody.obj
 0001:000a55f0       ?createFinalizeSolverContacts@Dy@physx@@YA_NAAUPxSolverContactDesc@2@AAUPxsContactManagerOutput@2@AAVThreadContext@12@MMMMMAAVPxConstraintAllocator@2@PAUSpatialVectorF@Cm@2@@Z 100a65f0 f   LowLevelDynamics_static_32:DyContactPrep.obj
 0001:000a5970       ?createFinalizeSolverContacts@Dy@physx@@YA_NAAUPxSolverContactDesc@2@AAUCorrelationBuffer@12@MMMMMAAVPxConstraintAllocator@2@PAUSpatialVectorF@Cm@2@@Z 100a6970 f   LowLevelDynamics_static_32:DyContactPrep.obj
 0001:000a5e00       ?getContactManagerConstraintDesc@Dy@physx@@YAIABUPxsContactManagerOutput@2@ABVPxsContactManager@2@AAUPxSolverConstraintDesc@2@@Z 100a6e00 f   LowLevelDynamics_static_32:DyContactPrep.obj
 0001:000a5e20       ?setupExtSolverContact@Dy@physx@@YA?AT__m128@@ABVSolverExtBody@12@0MMMMABVPxTransform@2@1ABT3@222222ABUContactPoint@Gu@2@AAUSolverContactPointExt@12@2PAUSpatialVectorF@Cm@2@@Z 100a6e20 f   LowLevelDynamics_static_32:DyContactPrep.obj
 0001:000a6250       ?getFrictionPatches@Dy@physx@@YA_NAAUCorrelationBuffer@12@PBEIABVPxTransform@2@2M@Z 100a7250 f i LowLevelDynamics_static_32:DyContactPrep.obj
 0001:000a7e40       ?createFinalizeSolverContacts4@Dy@physx@@YA?AW4Enum@SolverConstraintPrepState@12@PAPAUPxsContactManagerOutput@2@AAVThreadContext@12@PAUPxSolverContactDesc@2@MMMMMAAVPxConstraintAllocator@2@@Z 100a8e40 f   LowLevelDynamics_static_32:DyContactPrep4.obj
 0001:000a82a0       ?createFinalizeSolverContacts4@Dy@physx@@YA?AW4Enum@SolverConstraintPrepState@12@AAUCorrelationBuffer@12@PAUPxSolverContactDesc@2@MMMMMAAVPxConstraintAllocator@2@@Z 100a92a0 f   LowLevelDynamics_static_32:DyContactPrep4.obj
 0001:000a8870       ?computeBlockStreamByteSizes4@Dy@physx@@YAXPAUPxSolverContactDesc@2@AAIPAIABUCorrelationBuffer@12@@Z 100a9870 f   LowLevelDynamics_static_32:DyContactPrep4.obj
 0001:000ac2c0       ?setupSolverConstraint4@Dy@physx@@YA?AW4Enum@SolverConstraintPrepState@12@PIAUSolverConstraintShaderPrepDesc@12@PIAUPxSolverConstraintPrepDesc@2@MMAAIAAVPxConstraintAllocator@2@@Z 100ad2c0 f   LowLevelDynamics_static_32:DyConstraintSetupBlock.obj
 0001:000ac470       ?setupSolverConstraint4@Dy@physx@@YA?AW4Enum@SolverConstraintPrepState@12@PIAUPxSolverConstraintPrepDesc@2@MMAAIAAVPxConstraintAllocator@2@I@Z 100ad470 f   LowLevelDynamics_static_32:DyConstraintSetupBlock.obj
 0001:000ad850       ?SetupSolverConstraint@Dy@physx@@YAIAAUSolverConstraintShaderPrepDesc@12@AAUPxSolverConstraintPrepDesc@2@AAVPxConstraintAllocator@2@MMPAUSpatialVectorF@Cm@2@@Z 100ae850 f   LowLevelDynamics_static_32:DyConstraintSetup.obj
 0001:000ad970       ?setupSolverConstraint@ConstraintHelper@Dy@physx@@SAIAAUPxSolverConstraintPrepDesc@3@AAVPxConstraintAllocator@3@MMPAUSpatialVectorF@Cm@3@@Z 100ae970 f   LowLevelDynamics_static_32:DyConstraintSetup.obj
 0001:000ae4a0       ?preprocessRows@Dy@physx@@YAXPAPAUPx1DConstraint@2@PAU32@PAVPxVec4@2@2IABVPxMat33@2@3MMABUPxConstraintInvMassScale@2@_N55@Z 100af4a0 f   LowLevelDynamics_static_32:DyConstraintSetup.obj
 0001:000afbe0       ?create@SolverCoreGeneral@Dy@physx@@SAPAV123@_N@Z 100b0be0 f   LowLevelDynamics_static_32:DySolverControl.obj
 0001:000afc30       ?destroyV@SolverCoreGeneral@Dy@physx@@UAEXXZ 100b0c30 f   LowLevelDynamics_static_32:DySolverControl.obj
 0001:000afc50       ?solveVParallelAndWriteBack@SolverCoreGeneral@Dy@physx@@UBEHAAUSolverIslandParams@23@PAUSpatialVectorF@Cm@3@1@Z 100b0c50 f   LowLevelDynamics_static_32:DySolverControl.obj
 0001:000b0b10       ?solveV_Blocks@SolverCoreGeneral@Dy@physx@@UBEXAAUSolverIslandParams@23@@Z 100b1b10 f   LowLevelDynamics_static_32:DySolverControl.obj
 0001:000b1180       ?writeBackV@SolverCoreGeneral@Dy@physx@@UBEXPIBUPxSolverConstraintDesc@3@IPAUPxConstraintBatchHeader@3@IPIAUThresholdStreamElement@23@IAAIPAUPxSolverBodyData@3@QAP6AXPBU43@IAAUSolverContext@23@@Z@Z 100b2180 f   LowLevelDynamics_static_32:DySolverControl.obj
 0001:000b1210       ?solveVBlock@Dy@physx@@YAXPAVSolverCore@12@AAUSolverIslandParams@12@@Z 100b2210 f   LowLevelDynamics_static_32:DySolverControl.obj
 0001:000b1220       ?getSolveBlockTable@Dy@physx@@YAPAP6AXPBUPxSolverConstraintDesc@2@IAAUSolverContext@12@@ZXZ 100b2220 f   LowLevelDynamics_static_32:DySolverControl.obj
 0001:000b1230       ?getSolverConcludeBlockTable@Dy@physx@@YAPAP6AXPBUPxSolverConstraintDesc@2@IAAUSolverContext@12@@ZXZ 100b2230 f   LowLevelDynamics_static_32:DySolverControl.obj
 0001:000b1240       ?getSolveWritebackBlockTable@Dy@physx@@YAPAP6AXPBUPxSolverConstraintDesc@2@IAAUSolverContext@12@@ZXZ 100b2240 f   LowLevelDynamics_static_32:DySolverControl.obj
 0001:000b1250       ?SolverCoreRegisterArticulationFns@Dy@physx@@YAXXZ 100b2250 f   LowLevelDynamics_static_32:DySolverControl.obj
 0001:000b1290       ??0ThresholdStreamElement@Dy@physx@@QAE@XZ 100b2290 f i LowLevelDynamics_static_32:DySolverControl.obj
 0001:000b12b0       ??1SolverCore@Dy@physx@@UAE@XZ 100b22b0 f i LowLevelDynamics_static_32:DySolverControl.obj
 0001:000b12c0       ??_ESolverCore@Dy@physx@@UAEPAXI@Z 100b22c0 f i LowLevelDynamics_static_32:DySolverControl.obj
 0001:000b12c0       ??_GSolverCore@Dy@physx@@UAEPAXI@Z 100b22c0 f i LowLevelDynamics_static_32:DySolverControl.obj
 0001:000b12f0       ??_ESolverCoreGeneral@Dy@physx@@UAEPAXI@Z 100b22f0 f i LowLevelDynamics_static_32:DySolverControl.obj
 0001:000b12f0       ??_GSolverCoreGeneral@Dy@physx@@UAEPAXI@Z 100b22f0 f i LowLevelDynamics_static_32:DySolverControl.obj
 0001:000b1320       ?WaitForProgressCount@Dy@physx@@YAXPCHH@Z 100b2320 f i LowLevelDynamics_static_32:DySolverControl.obj
 0001:000b1370       ?setupSolverConstraintsTGS@Articulation@Dy@physx@@SAIABUArticulationSolverDesc@23@AAVPxcConstraintBlockStream@3@PAUPxTGSSolverConstraintDesc@23@MMMAAIAAVPxsConstraintBlockManager@3@PAUSpatialVectorF@Cm@3@@Z 100b2370 f   LowLevelDynamics_static_32:DyTGSContactPrep.obj
 0001:000b2200       ?createHardLimitTGS@ArticulationHelper@Dy@physx@@SAXABUFsData@23@PBUArticulationLink@23@IAAUSolverConstraint1DExtStep@23@ABVPxVec3@3@MM@Z 100b3200 f   LowLevelDynamics_static_32:DyTGSContactPrep.obj
 0001:000b2400       ?createTangentialSpringTGS@ArticulationHelper@Dy@physx@@SAXABUFsData@23@PBUArticulationLink@23@IAAUSolverConstraint1DExtStep@23@ABVPxVec3@3@MMM@Z 100b3400 f   LowLevelDynamics_static_32:DyTGSContactPrep.obj
 0001:000b2640       ?projectVelocity@SolverExtBodyStep@Dy@physx@@QBEMABVPxVec3@3@0@Z 100b3640 f   LowLevelDynamics_static_32:DyTGSContactPrep.obj
 0001:000b2750       ?getLinVel@SolverExtBodyStep@Dy@physx@@QBE?AVPxVec3@3@XZ 100b3750 f   LowLevelDynamics_static_32:DyTGSContactPrep.obj
 0001:000b27c0       ?createImpulseResponseVector@Dy@physx@@YA?AVSpatialVector@Cm@2@ABVPxVec3@2@0ABVSolverExtBodyStep@12@@Z 100b37c0 f   LowLevelDynamics_static_32:DyTGSContactPrep.obj
 0001:000b28c0       ?getImpulseResponse@Dy@physx@@YAMABVSolverExtBodyStep@12@ABVSpatialVector@Cm@2@AAV452@MM012MM_N@Z 100b38c0 f   LowLevelDynamics_static_32:DyTGSContactPrep.obj
 0001:000b2d90       ?setupFinalizeExtSolverContactsStep@Dy@physx@@YAXPBUContactPoint@Gu@2@ABUCorrelationBuffer@12@ABVPxTransform@2@2PAEABVSolverExtBodyStep@12@4MMMMMMMM3MMM@Z 100b3d90 f   LowLevelDynamics_static_32:DyTGSContactPrep.obj
 0001:000b5bc0       ?createFinalizeSolverContactsStep@Dy@physx@@YA_NAAUPxTGSSolverContactDesc@12@AAUCorrelationBuffer@12@MMMMMAAVPxConstraintAllocator@2@@Z 100b6bc0 f   LowLevelDynamics_static_32:DyTGSContactPrep.obj
 0001:000b60c0       ?createFinalizeSolverContactsStep@Dy@physx@@YA_NAAUPxTGSSolverContactDesc@12@AAUPxsContactManagerOutput@2@AAVThreadContext@12@MMMMMAAVPxConstraintAllocator@2@@Z 100b70c0 f   LowLevelDynamics_static_32:DyTGSContactPrep.obj
 0001:000b6480       ?solveContact@Dy@physx@@YAXABUPxTGSSolverConstraintDesc@12@_NMM@Z 100b7480 f   LowLevelDynamics_static_32:DyTGSContactPrep.obj
 0001:000b6a40       ?writeBackContact@Dy@physx@@YAXABUPxTGSSolverConstraintDesc@12@PAUSolverContext@12@@Z 100b7a40 f   LowLevelDynamics_static_32:DyTGSContactPrep.obj
 0001:000b6b20       ?setSolverConstantsStep@Dy@physx@@YAXAAM000000ABUPx1DConstraint@2@MMMMMMMMM@Z 100b7b20 f   LowLevelDynamics_static_32:DyTGSContactPrep.obj
 0001:000b6d10       ?setupSolverConstraintStep@Dy@physx@@YAIABUPxTGSSolverConstraintPrepDesc@12@AAVPxConstraintAllocator@2@MMMMIM@Z 100b7d10 f   LowLevelDynamics_static_32:DyTGSContactPrep.obj
 0001:000b7f80       ?SetupSolverConstraintStep@Dy@physx@@YAIAAUSolverConstraintShaderPrepDesc@12@AAUPxTGSSolverConstraintPrepDesc@12@AAVPxConstraintAllocator@2@MMMMIM@Z 100b8f80 f   LowLevelDynamics_static_32:DyTGSContactPrep.obj
 0001:000b8100       ?solveExt1DStep@Dy@physx@@YAXABUPxTGSSolverConstraintDesc@12@MAAUSolverContext@12@QBUPxTGSSolverBodyTxInertia@12@@Z 100b9100 f   LowLevelDynamics_static_32:DyTGSContactPrep.obj
 0001:000b8a60       ?solve1DStep@Dy@physx@@YAXABUPxTGSSolverConstraintDesc@12@QBUPxTGSSolverBodyTxInertia@12@M@Z 100b9a60 f   LowLevelDynamics_static_32:DyTGSContactPrep.obj
 0001:000b9600       ?conclude1DStep@Dy@physx@@YAXABUPxTGSSolverConstraintDesc@12@@Z 100ba600 f   LowLevelDynamics_static_32:DyTGSContactPrep.obj
 0001:000b9650       ?concludeContact@Dy@physx@@YAXABUPxTGSSolverConstraintDesc@12@@Z 100ba650 f   LowLevelDynamics_static_32:DyTGSContactPrep.obj
 0001:000b9660       ?writeBack1D@Dy@physx@@YAXABUPxTGSSolverConstraintDesc@12@@Z 100ba660 f   LowLevelDynamics_static_32:DyTGSContactPrep.obj
 0001:000b98a0       ?solveExtContactStep@Dy@physx@@YAXABUPxTGSSolverConstraintDesc@12@_NMMAAUSolverContext@12@@Z 100ba8a0 f   LowLevelDynamics_static_32:DyTGSContactPrep.obj
 0001:000ba100       ?solveContactBlock@Dy@physx@@YAXABUPxConstraintBatchHeader@2@PBUPxTGSSolverConstraintDesc@12@_NMM@Z 100bb100 f   LowLevelDynamics_static_32:DyTGSContactPrep.obj
 0001:000ba150       ?solve1DBlock@Dy@physx@@YAXABUPxConstraintBatchHeader@2@PBUPxTGSSolverConstraintDesc@12@QBUPxTGSSolverBodyTxInertia@12@M@Z 100bb150 f   LowLevelDynamics_static_32:DyTGSContactPrep.obj
 0001:000ba1a0       ?solveExtContactBlock@Dy@physx@@YAXABUPxConstraintBatchHeader@2@PBUPxTGSSolverConstraintDesc@12@_NMMAAUSolverContext@12@@Z 100bb1a0 f   LowLevelDynamics_static_32:DyTGSContactPrep.obj
 0001:000ba200       ?solveExt1DBlock@Dy@physx@@YAXABUPxConstraintBatchHeader@2@PBUPxTGSSolverConstraintDesc@12@MAAUSolverContext@12@QBUPxTGSSolverBodyTxInertia@12@@Z 100bb200 f   LowLevelDynamics_static_32:DyTGSContactPrep.obj
 0001:000ba250       ?writeBackContact@Dy@physx@@YAXABUPxConstraintBatchHeader@2@PBUPxTGSSolverConstraintDesc@12@PAUSolverContext@12@@Z 100bb250 f   LowLevelDynamics_static_32:DyTGSContactPrep.obj
 0001:000ba290       ?writeBack1D@Dy@physx@@YAXABUPxConstraintBatchHeader@2@PBUPxTGSSolverConstraintDesc@12@@Z 100bb290 f   LowLevelDynamics_static_32:DyTGSContactPrep.obj
 0001:000ba500       ?solveConclude1DBlock@Dy@physx@@YAXABUPxConstraintBatchHeader@2@PBUPxTGSSolverConstraintDesc@12@QBUPxTGSSolverBodyTxInertia@12@M@Z 100bb500 f   LowLevelDynamics_static_32:DyTGSContactPrep.obj
 0001:000ba550       ?solveConclude1DBlockExt@Dy@physx@@YAXABUPxConstraintBatchHeader@2@PBUPxTGSSolverConstraintDesc@12@MAAUSolverContext@12@QBUPxTGSSolverBodyTxInertia@12@@Z 100bb550 f   LowLevelDynamics_static_32:DyTGSContactPrep.obj
 0001:000ba5a0       ?solveConcludeContactBlock@Dy@physx@@YAXABUPxConstraintBatchHeader@2@PBUPxTGSSolverConstraintDesc@12@M@Z 100bb5a0 f   LowLevelDynamics_static_32:DyTGSContactPrep.obj
 0001:000ba5f0       ?solveConcludeContactExtBlock@Dy@physx@@YAXABUPxConstraintBatchHeader@2@PBUPxTGSSolverConstraintDesc@12@MAAUSolverContext@12@@Z 100bb5f0 f   LowLevelDynamics_static_32:DyTGSContactPrep.obj
 0001:000ba8b0       ?ellipseClamp@shdfnd@physx@@YA?AVPxVec3@2@ABV32@0@Z 100bb8b0 f i LowLevelDynamics_static_32:DyTGSContactPrep.obj
 0001:000bd0b0       ?getImpulseResponse@ArticulationHelper@Dy@physx@@SAXABUFsData@23@IABUSpatialVectorV@Cm@3@AAU563@@Z 100be0b0 f   LowLevelDynamics_static_32:DyArticulationHelper.obj
 0001:000bd4b0       ?getImpulseSelfResponse@ArticulationHelper@Dy@physx@@SAXABUFsData@23@IABUSpatialVectorV@Cm@3@AAU563@I12@Z 100be4b0 f   LowLevelDynamics_static_32:DyArticulationHelper.obj
 0001:000bdb80       ?getLtbDataSize@ArticulationHelper@Dy@physx@@SAII@Z 100beb80 f   LowLevelDynamics_static_32:DyArticulationHelper.obj
 0001:000bdb90       ?getFsDataSize@ArticulationHelper@Dy@physx@@SAII@Z 100beb90 f   LowLevelDynamics_static_32:DyArticulationHelper.obj
 0001:000bdba0       ?createHardLimit@ArticulationHelper@Dy@physx@@SAXABUFsData@23@PBUArticulationLink@23@IAAUSolverConstraint1DExt@23@ABVPxVec3@3@MM@Z 100beba0 f   LowLevelDynamics_static_32:DyArticulationHelper.obj
 0001:000bdd90       ?createTangentialSpring@ArticulationHelper@Dy@physx@@SAXABUFsData@23@PBUArticulationLink@23@IAAUSolverConstraint1DExt@23@ABVPxVec3@3@MMM@Z 100bed90 f   LowLevelDynamics_static_32:DyArticulationHelper.obj
 0001:000bdfb0       ?setupSolverConstraints@ArticulationHelper@Dy@physx@@SAIAAVArticulation@23@IAAVPxConstraintAllocator@3@PAUPxSolverConstraintDesc@3@PBUArticulationLink@23@PBUArticulationJointTransforms@23@MAAI@Z 100befb0 f   LowLevelDynamics_static_32:DyArticulationHelper.obj
 0001:000bed60       ?getImpulseResponseSlow@Dy@physx@@YAXABUFsData@12@IABUSpatialVectorV@Cm@2@AAU452@I12@Z 100bfd60 f   LowLevelDynamics_static_32:DyArticulationHelper.obj
 0001:000bf730       ?PxcFsGetImpulseResponse@Dy@physx@@YAXABUFsData@12@IABUSpatialVectorV@Cm@2@AAU452@@Z 100c0730 f   LowLevelDynamics_static_32:DyArticulationHelper.obj
 0001:000bfb70       ?PxcFsGetImpulseSelfResponse@Dy@physx@@YAXABUFsData@12@IABUSpatialVectorV@Cm@2@AAU452@I12@Z 100c0b70 f   LowLevelDynamics_static_32:DyArticulationHelper.obj
 0001:000bfca0       ?propagateImpulse@?$ArticulationFnsSimd@VArticulationFnsSimdBase@Dy@physx@@@Dy@physx@@SA?AUSpatialVectorV@Cm@3@ABUFsRow@23@ABUFsJointVectors@23@AAT__m128@@ABU453@ABUFsRowAux@23@@Z 100c0ca0 f i LowLevelDynamics_static_32:DyArticulationHelper.obj
 0001:000bfd70       ?propagateVelocity@?$ArticulationFnsSimd@VArticulationFnsSimdBase@Dy@physx@@@Dy@physx@@SA?AUSpatialVectorV@Cm@3@ABUFsRow@23@ABUFsJointVectors@23@ABT__m128@@ABU453@ABUFsRowAux@23@@Z 100c0d70 f i LowLevelDynamics_static_32:DyArticulationHelper.obj
 0001:000bfef0       ?create@SolverCoreGeneralPF@Dy@physx@@SAPAV123@XZ 100c0ef0 f   LowLevelDynamics_static_32:DySolverControlPF.obj
 0001:000bff30       ?destroyV@SolverCoreGeneralPF@Dy@physx@@UAEXXZ 100c0f30 f   LowLevelDynamics_static_32:DySolverControlPF.obj
 0001:000bff50       ?solveVParallelAndWriteBack@SolverCoreGeneralPF@Dy@physx@@UBEHAAUSolverIslandParams@23@PAUSpatialVectorF@Cm@3@1@Z 100c0f50 f   LowLevelDynamics_static_32:DySolverControlPF.obj
 0001:000c1000       ?solveV_Blocks@SolverCoreGeneralPF@Dy@physx@@UBEXAAUSolverIslandParams@23@@Z 100c2000 f   LowLevelDynamics_static_32:DySolverControlPF.obj
 0001:000c1740       ?writeBackV@SolverCoreGeneralPF@Dy@physx@@UBEXPIBUPxSolverConstraintDesc@3@IPAUPxConstraintBatchHeader@3@IPIAUThresholdStreamElement@23@IAAIPAUPxSolverBodyData@3@QAP6AXPBU43@IAAUSolverContext@23@@Z@Z 100c2740 f   LowLevelDynamics_static_32:DySolverControlPF.obj
 0001:000c17d0       ?SolverCoreRegisterArticulationFnsCoulomb@Dy@physx@@YAXXZ 100c27d0 f   LowLevelDynamics_static_32:DySolverControlPF.obj
 0001:000c1830       ??_ESolverCoreGeneralPF@Dy@physx@@UAEPAXI@Z 100c2830 f i LowLevelDynamics_static_32:DySolverControlPF.obj
 0001:000c1830       ??_GSolverCoreGeneralPF@Dy@physx@@UAEPAXI@Z 100c2830 f i LowLevelDynamics_static_32:DySolverControlPF.obj
 0001:000c1860       ?PxcFsGetMotionVector@Dy@physx@@YA?AUSpatialVectorV@Cm@2@AAVArticulationV@12@I@Z 100c2860 f   LowLevelDynamics_static_32:DyArticulationSIMD.obj
 0001:000c1880       ?PxcFsFlushVelocity@Dy@physx@@YAXAAUFsData@12@@Z 100c2880 f   LowLevelDynamics_static_32:DyArticulationSIMD.obj
 0001:000c1d20       ?packJointData@FeatherstoneArticulation@Dy@physx@@UAEXPBMPAM@Z 100c2d20 f   LowLevelDynamics_static_32:DyFeatherstoneInverseDynamic.obj
 0001:000c1e00       ?unpackJointData@FeatherstoneArticulation@Dy@physx@@UAEXPBMPAM@Z 100c2e00 f   LowLevelDynamics_static_32:DyFeatherstoneInverseDynamic.obj
 0001:000c1e90       ?initializeCommonData@FeatherstoneArticulation@Dy@physx@@UAEXXZ 100c2e90 f   LowLevelDynamics_static_32:DyFeatherstoneInverseDynamic.obj
 0001:000c1ec0       ?getGeneralizedGravityForce@FeatherstoneArticulation@Dy@physx@@UAEXABVPxVec3@3@AAVPxArticulationCache@3@@Z 100c2ec0 f   LowLevelDynamics_static_32:DyFeatherstoneInverseDynamic.obj
 0001:000c21c0       ?getCoriolisAndCentrifugalForce@FeatherstoneArticulation@Dy@physx@@UAEXAAVPxArticulationCache@3@@Z 100c31c0 f   LowLevelDynamics_static_32:DyFeatherstoneInverseDynamic.obj
 0001:000c2310       ?getGeneralizedExternalForce@FeatherstoneArticulation@Dy@physx@@UAEXAAVPxArticulationCache@3@@Z 100c3310 f   LowLevelDynamics_static_32:DyFeatherstoneInverseDynamic.obj
 0001:000c2870       ?getJointForce@FeatherstoneArticulation@Dy@physx@@UAEXAAVPxArticulationCache@3@@Z 100c3870 f   LowLevelDynamics_static_32:DyFeatherstoneInverseDynamic.obj
 0001:000c29b0       ?getKinematicJacobian@FeatherstoneArticulation@Dy@physx@@UAEXIAAVPxArticulationCache@3@@Z 100c39b0 f   LowLevelDynamics_static_32:DyFeatherstoneInverseDynamic.obj
 0001:000c2a90       ?getKMatrix@FeatherstoneArticulation@Dy@physx@@QAEXPAUArticulationJointCore@23@IIAAVPxArticulationCache@3@@Z 100c3a90 f   LowLevelDynamics_static_32:DyFeatherstoneInverseDynamic.obj
 0001:000c2aa0       ?getCoefficentMatrix@FeatherstoneArticulation@Dy@physx@@UAEXMIPBVPxContactJoint@3@IAAVPxArticulationCache@3@@Z 100c3aa0 f   LowLevelDynamics_static_32:DyFeatherstoneInverseDynamic.obj
 0001:000c3360       ?getCoefficentMatrixWithLoopJoints@FeatherstoneArticulation@Dy@physx@@UAEXPAUArticulationLoopConstraint@23@IAAVPxArticulationCache@3@@Z 100c4360 f   LowLevelDynamics_static_32:DyFeatherstoneInverseDynamic.obj
 0001:000c3ce0       ?getLambda@FeatherstoneArticulation@Dy@physx@@UAE_NPAUArticulationLoopConstraint@23@IAAVPxArticulationCache@3@1PBMABVPxVec3@3@I@Z 100c4ce0 f   LowLevelDynamics_static_32:DyFeatherstoneInverseDynamic.obj
 0001:000c45a0       ?getGeneralizedMassMatrix@FeatherstoneArticulation@Dy@physx@@UAEXAAVPxArticulationCache@3@@Z 100c55a0 f   LowLevelDynamics_static_32:DyFeatherstoneInverseDynamic.obj
 0001:000c47a0       ?getGeneralizedMassMatrixCRB@FeatherstoneArticulation@Dy@physx@@UAEXAAVPxArticulationCache@3@@Z 100c57a0 f   LowLevelDynamics_static_32:DyFeatherstoneInverseDynamic.obj
 0001:000c47f0       ?applyCacheToDest@FeatherstoneArticulation@Dy@physx@@QAEXAAVArticulationData@23@AAVPxArticulationCache@3@PAM222V?$PxFlags@W4Enum@PxArticulationCache@physx@@E@3@@Z 100c57f0 f   LowLevelDynamics_static_32:DyFeatherstoneInverseDynamic.obj
 0001:000c48d0       ?constraintPrep@FeatherstoneArticulation@Dy@physx@@AAEXPAUArticulationLoopConstraint@23@IPAUSpatialVectorF@Cm@3@AAUPxSolverConstraintPrepDesc@3@AAUPxSolverBody@3@AAUPxSolverBodyData@3@PAUPxSolverConstraintDesc@3@AAVPxConstraintAllocator@3@@Z 100c58d0 f   LowLevelDynamics_static_32:DyFeatherstoneInverseDynamic.obj
 0001:000c4ca0       ?jcalcLoopJointSubspace@FeatherstoneArticulation@Dy@physx@@AAEXPAUArticulationJointCore@23@AAVArticulationJointCoreData@23@AAUSpatialSubspaceMatrix@23@@Z 100c5ca0 f   LowLevelDynamics_static_32:DyFeatherstoneInverseDynamic.obj
 0001:000c6070       ?getImpulseSelfResponseInv@FeatherstoneArticulation@Dy@physx@@AAEX_NIIPAUSpatialVectorF@Cm@3@ABVSpatialVector@53@2AAV653@3PAM@Z 100c7070 f   LowLevelDynamics_static_32:DyFeatherstoneInverseDynamic.obj
 0001:000c6c60       ?getImpulseResponseSlowInv@FeatherstoneArticulation@Dy@physx@@AAEXPAUArticulationLink@23@ABVArticulationData@23@IABVSpatialVector@Cm@3@AAV673@I23PAM@Z 100c7c60 f   LowLevelDynamics_static_32:DyFeatherstoneInverseDynamic.obj
 0001:000c8570       ?getImpulseResponseInv@FeatherstoneArticulation@Dy@physx@@AAE?AUSpatialVectorF@Cm@3@_NIPAU453@ABVSpatialVector@53@PAM@Z 100c9570 f   LowLevelDynamics_static_32:DyFeatherstoneInverseDynamic.obj
 0001:000c8d40       ?inverseDynamic@FeatherstoneArticulation@Dy@physx@@AAEXAAVArticulationData@23@ABVPxVec3@3@AAUScratchData@23@@Z 100c9d40 f   LowLevelDynamics_static_32:DyFeatherstoneInverseDynamic.obj
 0001:000c8d90       ?inverseDynamicFloatingBase@FeatherstoneArticulation@Dy@physx@@AAEXAAVArticulationData@23@ABVPxVec3@3@AAUScratchData@23@@Z 100c9d90 f   LowLevelDynamics_static_32:DyFeatherstoneInverseDynamic.obj
 0001:000c8df0       ?computeZAForceInv@FeatherstoneArticulation@Dy@physx@@AAEXAAVArticulationData@23@AAUScratchData@23@@Z 100c9df0 f   LowLevelDynamics_static_32:DyFeatherstoneInverseDynamic.obj
 0001:000c9100       ?initCompositeSpatialInertia@FeatherstoneArticulation@Dy@physx@@AAEXAAVArticulationData@23@PAUSpatialMatrix@23@@Z 100ca100 f   LowLevelDynamics_static_32:DyFeatherstoneInverseDynamic.obj
 0001:000c9260       ?computeCompositeSpatialInertiaAndZAForceInv@FeatherstoneArticulation@Dy@physx@@AAEXAAVArticulationData@23@AAUScratchData@23@@Z 100ca260 f   LowLevelDynamics_static_32:DyFeatherstoneInverseDynamic.obj
 0001:000cb2b0       ?computeRelativeGeneralizedForceInv@FeatherstoneArticulation@Dy@physx@@AAEXAAVArticulationData@23@AAUScratchData@23@@Z 100cc2b0 f   LowLevelDynamics_static_32:DyFeatherstoneInverseDynamic.obj
 0001:000ccab0       ?computeLinkAccelerationInv@FeatherstoneArticulation@Dy@physx@@AAEXAAVArticulationData@23@AAUScratchData@23@@Z 100cdab0 f   LowLevelDynamics_static_32:DyFeatherstoneInverseDynamic.obj
 0001:000cd020       ?computeGeneralizedForceInv@FeatherstoneArticulation@Dy@physx@@AAEXAAVArticulationData@23@AAUScratchData@23@@Z 100ce020 f   LowLevelDynamics_static_32:DyFeatherstoneInverseDynamic.obj
 0001:000cd460       ?calculateMassMatrixColInv@FeatherstoneArticulation@Dy@physx@@AAEXAAUScratchData@23@@Z 100ce460 f   LowLevelDynamics_static_32:DyFeatherstoneInverseDynamic.obj
 0001:000cdd00       ?calculateHFixBase@FeatherstoneArticulation@Dy@physx@@AAEXAAVPxArticulationCache@3@@Z 100ced00 f   LowLevelDynamics_static_32:DyFeatherstoneInverseDynamic.obj
 0001:000ce330       ?calculateHFloatingBase@FeatherstoneArticulation@Dy@physx@@AAEXAAVPxArticulationCache@3@@Z 100cf330 f   LowLevelDynamics_static_32:DyFeatherstoneInverseDynamic.obj
 0001:000d00f0       ?computeHi@Dy@physx@@YAIAAVArticulationData@12@IPAMPAUSpatialVectorF@Cm@2@@Z 100d10f0 f   LowLevelDynamics_static_32:DyFeatherstoneInverseDynamic.obj
 0001:000d07a0       ??0BlockBasedAllocator@Dy@physx@@QAE@XZ 100d17a0 f i LowLevelDynamics_static_32:DyFeatherstoneInverseDynamic.obj
 0001:000d0800       ??0PxMat33@physx@@QAE@W4PxZERO@1@@Z 100d1800 f i LowLevelDynamics_static_32:DyFeatherstoneInverseDynamic.obj
 0001:000d0850       ??0ScratchData@Dy@physx@@QAE@XZ 100d1850 f i LowLevelDynamics_static_32:DyFeatherstoneInverseDynamic.obj
 0001:000d08a0       ??1ArticulationBlockAllocator@Dy@physx@@UAE@XZ 100d18a0 f i LowLevelDynamics_static_32:DyFeatherstoneInverseDynamic.obj
 0001:000d0940       ??1BlockBasedAllocator@Dy@physx@@UAE@XZ 100d1940 f i LowLevelDynamics_static_32:DyFeatherstoneInverseDynamic.obj
 0001:000d0980       ??1PxConstraintAllocator@physx@@UAE@XZ 100d1980 f i LowLevelDynamics_static_32:DyFeatherstoneInverseDynamic.obj
 0001:000d0990       ??_EArticulationBlockAllocator@Dy@physx@@UAEPAXI@Z 100d1990 f i LowLevelDynamics_static_32:DyFeatherstoneInverseDynamic.obj
 0001:000d0990       ??_GArticulationBlockAllocator@Dy@physx@@UAEPAXI@Z 100d1990 f i LowLevelDynamics_static_32:DyFeatherstoneInverseDynamic.obj
 0001:000d09b0       ??_EBlockBasedAllocator@Dy@physx@@UAEPAXI@Z 100d19b0 f i LowLevelDynamics_static_32:DyFeatherstoneInverseDynamic.obj
 0001:000d09b0       ??_GBlockBasedAllocator@Dy@physx@@UAEPAXI@Z 100d19b0 f i LowLevelDynamics_static_32:DyFeatherstoneInverseDynamic.obj
 0001:000d0a00       ??_EPxConstraintAllocator@physx@@UAEPAXI@Z 100d1a00 f i LowLevelDynamics_static_32:DyFeatherstoneInverseDynamic.obj
 0001:000d0a00       ??_GPxConstraintAllocator@physx@@UAEPAXI@Z 100d1a00 f i LowLevelDynamics_static_32:DyFeatherstoneInverseDynamic.obj
 0001:000d0a30       ?alloc@PxcScratchAllocator@physx@@QAEPAXI_N@Z 100d1a30 f i LowLevelDynamics_static_32:DyFeatherstoneInverseDynamic.obj
 0001:000d0b00       ?allocate@BlockBasedAllocator@Dy@physx@@UAEPAEI@Z 100d1b00 f i LowLevelDynamics_static_32:DyFeatherstoneInverseDynamic.obj
 0001:000d0e80       ?free@PxcScratchAllocator@physx@@QAEXPAX@Z 100d1e80 f i LowLevelDynamics_static_32:DyFeatherstoneInverseDynamic.obj
 0001:000d0f00       ?growAndPushBack@?$Array@PAUAllocationPage@BlockBasedAllocator@Dy@physx@@VNamedAllocator@shdfnd@4@@shdfnd@physx@@IAEAAPAUAllocationPage@BlockBasedAllocator@Dy@3@ABQAU4563@@Z 100d1f00 f i LowLevelDynamics_static_32:DyFeatherstoneInverseDynamic.obj
 0001:000d0fe0       ?release@BlockBasedAllocator@Dy@physx@@QAEXXZ 100d1fe0 f i LowLevelDynamics_static_32:DyFeatherstoneInverseDynamic.obj
 0001:000d1030       ?reserveConstraintData@ArticulationBlockAllocator@Dy@physx@@UAEPAEI@Z 100d2030 f i LowLevelDynamics_static_32:DyFeatherstoneInverseDynamic.obj
 0001:000d1040       ?reserveFrictionData@ArticulationBlockAllocator@Dy@physx@@UAEPAEI@Z 100d2040 f i LowLevelDynamics_static_32:DyFeatherstoneInverseDynamic.obj
 0001:000d1060       ?getJointAcceleration@FeatherstoneArticulation@Dy@physx@@UAEXABVPxVec3@3@AAVPxArticulationCache@3@@Z 100d2060 f   LowLevelDynamics_static_32:DyFeatherstoneForwardDynamic.obj
 0001:000d1ab0       ?computeUnconstrainedVelocities@FeatherstoneArticulation@Dy@physx@@SAIABUArticulationSolverDesc@23@MAAVPxConstraintAllocator@3@PAUPxSolverConstraintDesc@3@AAIABVPxVec3@3@_KPAUSpatialVectorF@Cm@3@6@Z 100d2ab0 f   LowLevelDynamics_static_32:DyFeatherstoneForwardDynamic.obj
 0001:000d1ae0       ?computeUnconstrainedVelocitiesTGS@FeatherstoneArticulation@Dy@physx@@SAXABUArticulationSolverDesc@23@MABVPxVec3@3@_KPAUSpatialVectorF@Cm@3@3@Z 100d2ae0 f   LowLevelDynamics_static_32:DyFeatherstoneForwardDynamic.obj
 0001:000d1b10       ?updateBodies@FeatherstoneArticulation@Dy@physx@@SAXABUArticulationSolverDesc@23@M@Z 100d2b10 f   LowLevelDynamics_static_32:DyFeatherstoneForwardDynamic.obj
 0001:000d1b30       ?updateBodiesTGS@FeatherstoneArticulation@Dy@physx@@SAXABUArticulationSolverDesc@23@M@Z 100d2b30 f   LowLevelDynamics_static_32:DyFeatherstoneForwardDynamic.obj
 0001:000d1b50       ?updateBodies@FeatherstoneArticulation@Dy@physx@@SAXABUArticulationSolverDesc@23@M_N@Z 100d2b50 f   LowLevelDynamics_static_32:DyFeatherstoneForwardDynamic.obj
 0001:000d1f50       ?updateArticulation@FeatherstoneArticulation@Dy@physx@@AAEXAAUScratchData@23@ABVPxVec3@3@PAUSpatialVectorF@Cm@3@2@Z 100d2f50 f   LowLevelDynamics_static_32:DyFeatherstoneForwardDynamic.obj
 0001:000d1fe0       ?computeUnconstrainedVelocitiesInternal@FeatherstoneArticulation@Dy@physx@@AAEIAAIABVPxVec3@3@PAUSpatialVectorF@Cm@3@2@Z 100d2fe0 f   LowLevelDynamics_static_32:DyFeatherstoneForwardDynamic.obj
 0001:000d2290       ?computeUnconstrainedVelocitiesTGSInternal@FeatherstoneArticulation@Dy@physx@@AAEXABVPxVec3@3@PAUSpatialVectorF@Cm@3@1@Z 100d3290 f   LowLevelDynamics_static_32:DyFeatherstoneForwardDynamic.obj
 0001:000d2500       ?initLinks@FeatherstoneArticulation@Dy@physx@@AAEXAAVArticulationData@23@ABVPxVec3@3@AAUScratchData@23@PAUSpatialVectorF@Cm@3@3@Z 100d3500 f   LowLevelDynamics_static_32:DyFeatherstoneForwardDynamic.obj
 0001:000d2580       ?computeIs@FeatherstoneArticulation@Dy@physx@@AAEXAAVArticulationLinkData@23@AAVArticulationJointCoreData@23@@Z 100d3580 f   LowLevelDynamics_static_32:DyFeatherstoneForwardDynamic.obj
 0001:000d28d0       ?computePropagateSpatialInertia@FeatherstoneArticulation@Dy@physx@@AAE?AUSpatialMatrix@23@EAAVArticulationLinkData@23@AAVArticulationJointCoreData@23@@Z 100d38d0 f   LowLevelDynamics_static_32:DyFeatherstoneForwardDynamic.obj
 0001:000d35f0       ?computeArticulatedSpatialInertia@FeatherstoneArticulation@Dy@physx@@AAEXAAVArticulationData@23@@Z 100d45f0 f   LowLevelDynamics_static_32:DyFeatherstoneForwardDynamic.obj
 0001:000d4af0       ?computeArticulatedSpatialZ@FeatherstoneArticulation@Dy@physx@@AAEXAAVArticulationData@23@AAUScratchData@23@@Z 100d5af0 f   LowLevelDynamics_static_32:DyFeatherstoneForwardDynamic.obj
 0001:000d5380       ?computeJointAcceleration@FeatherstoneArticulation@Dy@physx@@AAEXAAVArticulationLinkData@23@AAVArticulationJointCoreData@23@ABUSpatialVectorF@Cm@3@PAM@Z 100d6380 f   LowLevelDynamics_static_32:DyFeatherstoneForwardDynamic.obj
 0001:000d54c0       ?computeLinkAcceleration@FeatherstoneArticulation@Dy@physx@@AAEXAAVArticulationData@23@AAUScratchData@23@@Z 100d64c0 f   LowLevelDynamics_static_32:DyFeatherstoneForwardDynamic.obj
 0001:000d63d0       ?computeJointTransmittedFrictionForce@FeatherstoneArticulation@Dy@physx@@AAEXAAVArticulationData@23@AAUScratchData@23@PAUSpatialVectorF@Cm@3@2@Z 100d73d0 f   LowLevelDynamics_static_32:DyFeatherstoneForwardDynamic.obj
 0001:000d6780       ?updateBodies@FeatherstoneArticulation@Dy@physx@@AAEXXZ 100d7780 f   LowLevelDynamics_static_32:DyFeatherstoneForwardDynamic.obj
 0001:000d6840       ?applyExternalImpulse@FeatherstoneArticulation@Dy@physx@@AAEXPAUArticulationLink@23@I_NAAVArticulationData@23@PAUSpatialVectorF@Cm@3@3MABVPxVec3@3@PAVSpatialVector@73@@Z 100d7840 f   LowLevelDynamics_static_32:DyFeatherstoneForwardDynamic.obj
 0001:000d7640       ?enforcePrismaticLimits@FeatherstoneArticulation@Dy@physx@@AAEXPAMPAUArticulationJointCore@23@@Z 100d8640 f   LowLevelDynamics_static_32:DyFeatherstoneForwardDynamic.obj
 0001:000d7690       ?propagateLinksDown@FeatherstoneArticulation@Dy@physx@@QAEXAAVArticulationData@23@PAM1PAUSpatialVectorF@Cm@3@@Z 100d8690 f   LowLevelDynamics_static_32:DyFeatherstoneForwardDynamic.obj
 0001:000d88b0       ?computeAndEnforceJointPositions@FeatherstoneArticulation@Dy@physx@@QAEXAAVArticulationData@23@PAM@Z 100d98b0 f   LowLevelDynamics_static_32:DyFeatherstoneForwardDynamic.obj
 0001:000d8a10       ?updateRootBody@FeatherstoneArticulation@Dy@physx@@SAXABUSpatialVectorF@Cm@3@ABVPxTransform@3@AAVArticulationData@23@M@Z 100d9a10 f   LowLevelDynamics_static_32:DyFeatherstoneForwardDynamic.obj
 0001:000d8cc0       ?computeSphericalJointPositions@Dy@physx@@YA?AVPxQuat@2@PAUArticulationJointCore@12@V32@1PAM@Z 100d9cc0 f   LowLevelDynamics_static_32:DyFeatherstoneForwardDynamic.obj
 0001:000d9500       ??0PxMat33@physx@@QAE@W4PxIDENTITY@1@@Z 100da500 f i LowLevelDynamics_static_32:DyFeatherstoneForwardDynamic.obj
 0001:000d9550       ??4SpatialMatrix@Dy@physx@@QAEAAU012@$$QAU012@@Z 100da550 f i LowLevelDynamics_static_32:DyFeatherstoneForwardDynamic.obj
 0001:000d9600       ?constructSpatialMatrix@SpatialMatrix@Dy@physx@@SA?AU123@ABUSpatialVectorF@Cm@3@0@Z 100da600 f i LowLevelDynamics_static_32:DyFeatherstoneForwardDynamic.obj
 0001:000d98a0       ?getInverse@PxMat33@physx@@QBE?BV12@XZ 100da8a0 f i LowLevelDynamics_static_32:DyFeatherstoneForwardDynamic.obj
 0001:000d9af0       ?getInverse@SpatialMatrix@Dy@physx@@QAE?AU123@XZ 100daaf0 f i LowLevelDynamics_static_32:DyFeatherstoneForwardDynamic.obj
 0001:000daae0       ?createFinalizeSolverContactsCoulomb1D@Dy@physx@@YA_NAAUPxSolverContactDesc@2@AAUPxsContactManagerOutput@2@AAVThreadContext@12@MMMMMAAVPxConstraintAllocator@2@PAUSpatialVectorF@Cm@2@@Z 100dbae0 f   LowLevelDynamics_static_32:DyContactPrepPF.obj
 0001:000dab40       ?createFinalizeSolverContactsCoulomb2D@Dy@physx@@YA_NAAUPxSolverContactDesc@2@AAUPxsContactManagerOutput@2@AAVThreadContext@12@MMMMMAAVPxConstraintAllocator@2@PAUSpatialVectorF@Cm@2@@Z 100dbb40 f   LowLevelDynamics_static_32:DyContactPrepPF.obj
 0001:000daba0       ?createFinalizeSolverContactsCoulomb@Dy@physx@@YA_NAAUPxSolverContactDesc@2@AAUPxsContactManagerOutput@2@AAVThreadContext@12@MMMMMAAVPxConstraintAllocator@2@W4Enum@PxFrictionType@2@PAUSpatialVectorF@Cm@2@@Z 100dbba0 f   LowLevelDynamics_static_32:DyContactPrepPF.obj
 0001:000dc170       ?createContactPatches@Dy@physx@@YA_NAAUCorrelationBuffer@12@PBUContactPoint@Gu@2@IM@Z 100dd170 f   LowLevelDynamics_static_32:DyFrictionCorrelation.obj
 0001:000dc450       ?correlatePatches@Dy@physx@@YA_NAAUCorrelationBuffer@12@PBUContactPoint@Gu@2@ABVPxTransform@2@2MII@Z 100dd450 f   LowLevelDynamics_static_32:DyFrictionCorrelation.obj
 0001:000dca90       ?growPatches@Dy@physx@@YAXAAUCorrelationBuffer@12@PBUContactPoint@Gu@2@ABVPxTransform@2@2MIM@Z 100dda90 f   LowLevelDynamics_static_32:DyFrictionCorrelation.obj
 0001:000dd2d0       ?projectVelocity@SolverExtBody@Dy@physx@@QBEMABVPxVec3@3@0@Z 100de2d0 f   LowLevelDynamics_static_32:DyArticulationContactPrep.obj
 0001:000dd3e0       ?getLinVel@SolverExtBody@Dy@physx@@QBE?AVPxVec3@3@XZ 100de3e0 f   LowLevelDynamics_static_32:DyArticulationContactPrep.obj
 0001:000dd450       ?getAngVel@SolverExtBody@Dy@physx@@QBE?AVPxVec3@3@XZ 100de450 f   LowLevelDynamics_static_32:DyArticulationContactPrep.obj
 0001:000dd4c0       ?getImpulseResponse@Dy@physx@@YAMABVSolverExtBody@12@ABVSpatialVector@Cm@2@AAV452@MM012MMPAUSpatialVectorF@52@_N@Z 100de4c0 f   LowLevelDynamics_static_32:DyArticulationContactPrep.obj
 0001:000dd7b0       ?createImpulseResponseVector@Dy@physx@@YA?AVSpatialVector@Cm@2@ABVPxVec3@2@0ABVSolverExtBody@12@@Z 100de7b0 f   LowLevelDynamics_static_32:DyArticulationContactPrep.obj
 0001:000dd8b0       ?setupFinalizeExtSolverContacts@Dy@physx@@YAXPBUContactPoint@Gu@2@ABUCorrelationBuffer@12@ABVPxTransform@2@2PAEABVSolverExtBody@12@4MMMMMMM3MPAUSpatialVectorF@Cm@2@@Z 100de8b0 f   LowLevelDynamics_static_32:DyArticulationContactPrep.obj
 0001:000def50       ?createFinalizeSolverContacts4Coulomb1D@Dy@physx@@YA?AW4Enum@SolverConstraintPrepState@12@PAPAUPxsContactManagerOutput@2@AAVThreadContext@12@PAUPxSolverContactDesc@2@MMMMMAAVPxConstraintAllocator@2@@Z 100dff50 f   LowLevelDynamics_static_32:DyContactPrep4PF.obj
 0001:000defb0       ?createFinalizeSolverContacts4Coulomb2D@Dy@physx@@YA?AW4Enum@SolverConstraintPrepState@12@PAPAUPxsContactManagerOutput@2@AAVThreadContext@12@PAUPxSolverContactDesc@2@MMMMMAAVPxConstraintAllocator@2@@Z 100dffb0 f   LowLevelDynamics_static_32:DyContactPrep4PF.obj
 0001:000df010       ?createFinalizeSolverContacts4Coulomb@Dy@physx@@YA?AW4Enum@SolverConstraintPrepState@12@PAPAUPxsContactManagerOutput@2@AAVThreadContext@12@PAUPxSolverContactDesc@2@MMMMMAAVPxConstraintAllocator@2@W43PxFrictionType@2@@Z 100e0010 f   LowLevelDynamics_static_32:DyContactPrep4PF.obj
 0001:000df790       ?computeBlockStreamByteSizesCoulomb4@Dy@physx@@YAXPAUPxSolverContactDesc@2@AAVThreadContext@12@ABUCorrelationBuffer@12@IAAIPAI3@Z 100e0790 f   LowLevelDynamics_static_32:DyContactPrep4PF.obj
 0001:000e1d00       ?solveExtContacts@Dy@physx@@YA?AT__m128@@PAUSolverContactPointExt@12@IABT3@AAT3@2222222PIAM@Z 100e2d00 f   LowLevelDynamics_static_32:DySolverConstraints.obj
 0001:000e1e60       ?solve1D@Dy@physx@@YAXABUPxSolverConstraintDesc@2@AAUSolverContext@12@@Z 100e2e60 f   LowLevelDynamics_static_32:DySolverConstraints.obj
 0001:000e20a0       ?conclude1D@Dy@physx@@YAXABUPxSolverConstraintDesc@2@AAUSolverContext@12@@Z 100e30a0 f   LowLevelDynamics_static_32:DySolverConstraints.obj
 0001:000e20e0       ?solveContact@Dy@physx@@YAXABUPxSolverConstraintDesc@2@AAUSolverContext@12@@Z 100e30e0 f   LowLevelDynamics_static_32:DySolverConstraints.obj
 0001:000e25a0       ?solveContact_BStatic@Dy@physx@@YAXABUPxSolverConstraintDesc@2@AAUSolverContext@12@@Z 100e35a0 f   LowLevelDynamics_static_32:DySolverConstraints.obj
 0001:000e2900       ?concludeContact@Dy@physx@@YAXABUPxSolverConstraintDesc@2@AAUSolverContext@12@@Z 100e3900 f   LowLevelDynamics_static_32:DySolverConstraints.obj
 0001:000e2a80       ?writeBackContact@Dy@physx@@YAXABUPxSolverConstraintDesc@2@AAUSolverContext@12@AAUPxSolverBodyData@2@2@Z 100e3a80 f   LowLevelDynamics_static_32:DySolverConstraints.obj
 0001:000e2d10       ?writeBack1D@Dy@physx@@YAXABUPxSolverConstraintDesc@2@AAUSolverContext@12@AAUPxSolverBodyData@2@2@Z 100e3d10 f   LowLevelDynamics_static_32:DySolverConstraints.obj
 0001:000e2ec0       ?solve1DBlock@Dy@physx@@YAXPIBUPxSolverConstraintDesc@2@IAAUSolverContext@12@@Z 100e3ec0 f   LowLevelDynamics_static_32:DySolverConstraints.obj
 0001:000e3170       ?solve1DConcludeBlock@Dy@physx@@YAXPIBUPxSolverConstraintDesc@2@IAAUSolverContext@12@@Z 100e4170 f   LowLevelDynamics_static_32:DySolverConstraints.obj
 0001:000e3250       ?solve1DBlockWriteBack@Dy@physx@@YAXPIBUPxSolverConstraintDesc@2@IAAUSolverContext@12@@Z 100e4250 f   LowLevelDynamics_static_32:DySolverConstraints.obj
 0001:000e3300       ?writeBack1DBlock@Dy@physx@@YAXPIBUPxSolverConstraintDesc@2@IAAUSolverContext@12@@Z 100e4300 f   LowLevelDynamics_static_32:DySolverConstraints.obj
 0001:000e3390       ?solveContactBlock@Dy@physx@@YAXPIBUPxSolverConstraintDesc@2@IAAUSolverContext@12@@Z 100e4390 f   LowLevelDynamics_static_32:DySolverConstraints.obj
 0001:000e33f0       ?solveContactConcludeBlock@Dy@physx@@YAXPIBUPxSolverConstraintDesc@2@IAAUSolverContext@12@@Z 100e43f0 f   LowLevelDynamics_static_32:DySolverConstraints.obj
 0001:000e3460       ?solveContactBlockWriteBack@Dy@physx@@YAXPIBUPxSolverConstraintDesc@2@IAAUSolverContext@12@@Z 100e4460 f   LowLevelDynamics_static_32:DySolverConstraints.obj
 0001:000e3570       ?solveContact_BStaticBlock@Dy@physx@@YAXPIBUPxSolverConstraintDesc@2@IAAUSolverContext@12@@Z 100e4570 f   LowLevelDynamics_static_32:DySolverConstraints.obj
 0001:000e3940       ?solveContact_BStaticConcludeBlock@Dy@physx@@YAXPIBUPxSolverConstraintDesc@2@IAAUSolverContext@12@@Z 100e4940 f   LowLevelDynamics_static_32:DySolverConstraints.obj
 0001:000e39b0       ?solveContact_BStaticBlockWriteBack@Dy@physx@@YAXPIBUPxSolverConstraintDesc@2@IAAUSolverContext@12@@Z 100e49b0 f   LowLevelDynamics_static_32:DySolverConstraints.obj
 0001:000e3ac0       ?clearExt1D@Dy@physx@@YAXABUPxSolverConstraintDesc@2@AAUSolverContext@12@@Z 100e4ac0 f   LowLevelDynamics_static_32:DySolverConstraints.obj
 0001:000e3b00       ?solveExt1D@Dy@physx@@YAXABUPxSolverConstraintDesc@2@AAUSolverContext@12@@Z 100e4b00 f   LowLevelDynamics_static_32:DySolverConstraints.obj
 0001:000e3f80       ?solveExtContact@Dy@physx@@YAXABUPxSolverConstraintDesc@2@AAUSolverContext@12@@Z 100e4f80 f   LowLevelDynamics_static_32:DySolverConstraints.obj
 0001:000e4610       ?solveExtContactBlock@Dy@physx@@YAXPIBUPxSolverConstraintDesc@2@IAAUSolverContext@12@@Z 100e5610 f   LowLevelDynamics_static_32:DySolverConstraints.obj
 0001:000e4640       ?solveExtContactConcludeBlock@Dy@physx@@YAXPIBUPxSolverConstraintDesc@2@IAAUSolverContext@12@@Z 100e5640 f   LowLevelDynamics_static_32:DySolverConstraints.obj
 0001:000e4670       ?solveExtContactBlockWriteBack@Dy@physx@@YAXPIBUPxSolverConstraintDesc@2@IAAUSolverContext@12@@Z 100e5670 f   LowLevelDynamics_static_32:DySolverConstraints.obj
 0001:000e4750       ?solveExt1DBlock@Dy@physx@@YAXPIBUPxSolverConstraintDesc@2@IAAUSolverContext@12@@Z 100e5750 f   LowLevelDynamics_static_32:DySolverConstraints.obj
 0001:000e4780       ?solveExt1DConcludeBlock@Dy@physx@@YAXPIBUPxSolverConstraintDesc@2@IAAUSolverContext@12@@Z 100e5780 f   LowLevelDynamics_static_32:DySolverConstraints.obj
 0001:000e47e0       ?solveExt1DBlockWriteBack@Dy@physx@@YAXPIBUPxSolverConstraintDesc@2@IAAUSolverContext@12@@Z 100e57e0 f   LowLevelDynamics_static_32:DySolverConstraints.obj
 0001:000e4860       ?ext1DBlockWriteBack@Dy@physx@@YAXPIBUPxSolverConstraintDesc@2@IAAUSolverContext@12@@Z 100e5860 f   LowLevelDynamics_static_32:DySolverConstraints.obj
 0001:000e4a30       ?solveConcludeExtContact@Dy@physx@@YAXABUPxSolverConstraintDesc@2@AAUSolverContext@12@@Z 100e5a30 f   LowLevelDynamics_static_32:DySolverConstraints.obj
 0001:000e4a50       ?solveConcludeExt1D@Dy@physx@@YAXABUPxSolverConstraintDesc@2@AAUSolverContext@12@@Z 100e5a50 f   LowLevelDynamics_static_32:DySolverConstraints.obj
 0001:000e4aa0       ?solveConclude1D@Dy@physx@@YAXABUPxSolverConstraintDesc@2@AAUSolverContext@12@@Z 100e5aa0 f   LowLevelDynamics_static_32:DySolverConstraints.obj
 0001:000e4af0       ?solveConcludeContact@Dy@physx@@YAXABUPxSolverConstraintDesc@2@AAUSolverContext@12@@Z 100e5af0 f   LowLevelDynamics_static_32:DySolverConstraints.obj
 0001:000e4b10       ?solveConcludeContact_BStatic@Dy@physx@@YAXABUPxSolverConstraintDesc@2@AAUSolverContext@12@@Z 100e5b10 f   LowLevelDynamics_static_32:DySolverConstraints.obj
 0001:000e4b30       ?writeBackContact4_Block@Dy@physx@@YAXPIBUPxSolverConstraintDesc@2@AAUSolverContext@12@PIAPBUPxSolverBodyData@2@2@Z 100e5b30 f   LowLevelDynamics_static_32:DySolverConstraintsBlock.obj
 0001:000e4e70       ?writeBack1D4@Dy@physx@@YAXPIBUPxSolverConstraintDesc@2@AAUSolverContext@12@PIAPBUPxSolverBodyData@2@2@Z 100e5e70 f   LowLevelDynamics_static_32:DySolverConstraintsBlock.obj
 0001:000e5200       ?solveContactPreBlock@Dy@physx@@YAXPIBUPxSolverConstraintDesc@2@IAAUSolverContext@12@@Z 100e6200 f   LowLevelDynamics_static_32:DySolverConstraintsBlock.obj
 0001:000e5220       ?solveContactPreBlock_Static@Dy@physx@@YAXPIBUPxSolverConstraintDesc@2@IAAUSolverContext@12@@Z 100e6220 f   LowLevelDynamics_static_32:DySolverConstraintsBlock.obj
 0001:000e5240       ?solveContactPreBlock_Conclude@Dy@physx@@YAXPIBUPxSolverConstraintDesc@2@IAAUSolverContext@12@@Z 100e6240 f   LowLevelDynamics_static_32:DySolverConstraintsBlock.obj
 0001:000e5270       ?solveContactPreBlock_ConcludeStatic@Dy@physx@@YAXPIBUPxSolverConstraintDesc@2@IAAUSolverContext@12@@Z 100e6270 f   LowLevelDynamics_static_32:DySolverConstraintsBlock.obj
 0001:000e52a0       ?solveContactPreBlock_WriteBack@Dy@physx@@YAXPIBUPxSolverConstraintDesc@2@IAAUSolverContext@12@@Z 100e62a0 f   LowLevelDynamics_static_32:DySolverConstraintsBlock.obj
 0001:000e5380       ?solveContactPreBlock_WriteBackStatic@Dy@physx@@YAXPIBUPxSolverConstraintDesc@2@IAAUSolverContext@12@@Z 100e6380 f   LowLevelDynamics_static_32:DySolverConstraintsBlock.obj
 0001:000e5460       ?solve1D4_Block@Dy@physx@@YAXPIBUPxSolverConstraintDesc@2@IAAUSolverContext@12@@Z 100e6460 f   LowLevelDynamics_static_32:DySolverConstraintsBlock.obj
 0001:000e5480       ?solve1D4Block_Conclude@Dy@physx@@YAXPIBUPxSolverConstraintDesc@2@IAAUSolverContext@12@@Z 100e6480 f   LowLevelDynamics_static_32:DySolverConstraintsBlock.obj
 0001:000e54e0       ?solve1D4Block_WriteBack@Dy@physx@@YAXPIBUPxSolverConstraintDesc@2@IAAUSolverContext@12@@Z 100e64e0 f   LowLevelDynamics_static_32:DySolverConstraintsBlock.obj
 0001:000e5510       ?writeBack1D4Block@Dy@physx@@YAXPIBUPxSolverConstraintDesc@2@IAAUSolverContext@12@@Z 100e6510 f   LowLevelDynamics_static_32:DySolverConstraintsBlock.obj
 0001:000e6fd0       ?solveContactCoulomb@Dy@physx@@YAXABUPxSolverConstraintDesc@2@AAUSolverContext@12@@Z 100e7fd0 f   LowLevelDynamics_static_32:DySolverPFConstraints.obj
 0001:000e7220       ?solveFriction@Dy@physx@@YAXABUPxSolverConstraintDesc@2@AAUSolverContext@12@@Z 100e8220 f   LowLevelDynamics_static_32:DySolverPFConstraints.obj
 0001:000e7590       ?solveContactCoulomb_BStatic@Dy@physx@@YAXABUPxSolverConstraintDesc@2@AAUSolverContext@12@@Z 100e8590 f   LowLevelDynamics_static_32:DySolverPFConstraints.obj
 0001:000e7720       ?solveFriction_BStatic@Dy@physx@@YAXABUPxSolverConstraintDesc@2@AAUSolverContext@12@@Z 100e8720 f   LowLevelDynamics_static_32:DySolverPFConstraints.obj
 0001:000e7980       ?concludeContactCoulomb@Dy@physx@@YAXABUPxSolverConstraintDesc@2@AAUSolverContext@12@@Z 100e8980 f   LowLevelDynamics_static_32:DySolverPFConstraints.obj
 0001:000e7a80       ?writeBackContactCoulomb@Dy@physx@@YAXABUPxSolverConstraintDesc@2@AAUSolverContext@12@AAUPxSolverBodyData@2@2@Z 100e8a80 f   LowLevelDynamics_static_32:DySolverPFConstraints.obj
 0001:000e7cc0       ?solveFrictionBlock@Dy@physx@@YAXPIBUPxSolverConstraintDesc@2@IAAUSolverContext@12@@Z 100e8cc0 f   LowLevelDynamics_static_32:DySolverPFConstraints.obj
 0001:000e8050       ?solveFrictionBlockWriteBack@Dy@physx@@YAXPIBUPxSolverConstraintDesc@2@IAAUSolverContext@12@@Z 100e9050 f   LowLevelDynamics_static_32:DySolverPFConstraints.obj
 0001:000e83e0       ?solveFriction_BStaticBlock@Dy@physx@@YAXPIBUPxSolverConstraintDesc@2@IAAUSolverContext@12@@Z 100e93e0 f   LowLevelDynamics_static_32:DySolverPFConstraints.obj
 0001:000e8660       ?solveFriction_BStaticConcludeBlock@Dy@physx@@YAXPIBUPxSolverConstraintDesc@2@IAAUSolverContext@12@@Z 100e9660 f   LowLevelDynamics_static_32:DySolverPFConstraints.obj
 0001:000e88e0       ?solveFriction_BStaticBlockWriteBack@Dy@physx@@YAXPIBUPxSolverConstraintDesc@2@IAAUSolverContext@12@@Z 100e98e0 f   LowLevelDynamics_static_32:DySolverPFConstraints.obj
 0001:000e8b60       ?solveContactCoulombBlock@Dy@physx@@YAXPIBUPxSolverConstraintDesc@2@IAAUSolverContext@12@@Z 100e9b60 f   LowLevelDynamics_static_32:DySolverPFConstraints.obj
 0001:000e8dd0       ?solveContactCoulombConcludeBlock@Dy@physx@@YAXPIBUPxSolverConstraintDesc@2@IAAUSolverContext@12@@Z 100e9dd0 f   LowLevelDynamics_static_32:DySolverPFConstraints.obj
 0001:000e8e00       ?solveContactCoulombBlockWriteBack@Dy@physx@@YAXPIBUPxSolverConstraintDesc@2@IAAUSolverContext@12@@Z 100e9e00 f   LowLevelDynamics_static_32:DySolverPFConstraints.obj
 0001:000e8eb0       ?solveContactCoulomb_BStaticBlock@Dy@physx@@YAXPIBUPxSolverConstraintDesc@2@IAAUSolverContext@12@@Z 100e9eb0 f   LowLevelDynamics_static_32:DySolverPFConstraints.obj
 0001:000e9060       ?solveContactCoulomb_BStaticConcludeBlock@Dy@physx@@YAXPIBUPxSolverConstraintDesc@2@IAAUSolverContext@12@@Z 100ea060 f   LowLevelDynamics_static_32:DySolverPFConstraints.obj
 0001:000e9090       ?solveContactCoulomb_BStaticBlockWriteBack@Dy@physx@@YAXPIBUPxSolverConstraintDesc@2@IAAUSolverContext@12@@Z 100ea090 f   LowLevelDynamics_static_32:DySolverPFConstraints.obj
 0001:000e9140       ?solveExtContactCoulomb@Dy@physx@@YAXABUPxSolverConstraintDesc@2@AAUSolverContext@12@@Z 100ea140 f   LowLevelDynamics_static_32:DySolverPFConstraints.obj
 0001:000e9450       ?solveExtFriction@Dy@physx@@YAXABUPxSolverConstraintDesc@2@AAUSolverContext@12@@Z 100ea450 f   LowLevelDynamics_static_32:DySolverPFConstraints.obj
 0001:000e98f0       ?solveExtFrictionBlock@Dy@physx@@YAXPIBUPxSolverConstraintDesc@2@IAAUSolverContext@12@@Z 100ea8f0 f   LowLevelDynamics_static_32:DySolverPFConstraints.obj
 0001:000e9920       ?solveExtFrictionConcludeBlock@Dy@physx@@YAXPIBUPxSolverConstraintDesc@2@IAAUSolverContext@12@@Z 100ea920 f   LowLevelDynamics_static_32:DySolverPFConstraints.obj
 0001:000e9950       ?solveExtFrictionBlockWriteBack@Dy@physx@@YAXPIBUPxSolverConstraintDesc@2@IAAUSolverContext@12@@Z 100ea950 f   LowLevelDynamics_static_32:DySolverPFConstraints.obj
 0001:000e9980       ?solveConcludeExtContactCoulomb@Dy@physx@@YAXABUPxSolverConstraintDesc@2@AAUSolverContext@12@@Z 100ea980 f   LowLevelDynamics_static_32:DySolverPFConstraints.obj
 0001:000e99a0       ?solveExtContactCoulombBlock@Dy@physx@@YAXPIBUPxSolverConstraintDesc@2@IAAUSolverContext@12@@Z 100ea9a0 f   LowLevelDynamics_static_32:DySolverPFConstraints.obj
 0001:000e9ce0       ?solveExtContactCoulombConcludeBlock@Dy@physx@@YAXPIBUPxSolverConstraintDesc@2@IAAUSolverContext@12@@Z 100eace0 f   LowLevelDynamics_static_32:DySolverPFConstraints.obj
 0001:000e9d10       ?solveExtContactCoulombBlockWriteBack@Dy@physx@@YAXPIBUPxSolverConstraintDesc@2@IAAUSolverContext@12@@Z 100ead10 f   LowLevelDynamics_static_32:DySolverPFConstraints.obj
 0001:000e9df0       ?solveConcludeContactCoulomb@Dy@physx@@YAXABUPxSolverConstraintDesc@2@AAUSolverContext@12@@Z 100eadf0 f   LowLevelDynamics_static_32:DySolverPFConstraints.obj
 0001:000e9e10       ?solveConcludeContactCoulomb_BStatic@Dy@physx@@YAXABUPxSolverConstraintDesc@2@AAUSolverContext@12@@Z 100eae10 f   LowLevelDynamics_static_32:DySolverPFConstraints.obj
 0001:000e9e30       ?writeBackContactCoulomb4@Dy@physx@@YAXPBUPxSolverConstraintDesc@2@AAUSolverContext@12@PIAPBUPxSolverBodyData@2@2@Z 100eae30 f   LowLevelDynamics_static_32:DySolverPFConstraintsBlock.obj
 0001:000ea0c0       ?solveContactCoulombPreBlock@Dy@physx@@YAXPIBUPxSolverConstraintDesc@2@IAAUSolverContext@12@@Z 100eb0c0 f   LowLevelDynamics_static_32:DySolverPFConstraintsBlock.obj
 0001:000ea0e0       ?solveContactCoulombPreBlock_Static@Dy@physx@@YAXPIBUPxSolverConstraintDesc@2@IAAUSolverContext@12@@Z 100eb0e0 f   LowLevelDynamics_static_32:DySolverPFConstraintsBlock.obj
 0001:000ea100       ?solveContactCoulombPreBlock_Conclude@Dy@physx@@YAXPIBUPxSolverConstraintDesc@2@IAAUSolverContext@12@@Z 100eb100 f   LowLevelDynamics_static_32:DySolverPFConstraintsBlock.obj
 0001:000ea120       ?solveContactCoulombPreBlock_ConcludeStatic@Dy@physx@@YAXPIBUPxSolverConstraintDesc@2@IAAUSolverContext@12@@Z 100eb120 f   LowLevelDynamics_static_32:DySolverPFConstraintsBlock.obj
 0001:000ea140       ?solveContactCoulombPreBlock_WriteBack@Dy@physx@@YAXPIBUPxSolverConstraintDesc@2@IAAUSolverContext@12@@Z 100eb140 f   LowLevelDynamics_static_32:DySolverPFConstraintsBlock.obj
 0001:000ea220       ?solveContactCoulombPreBlock_WriteBackStatic@Dy@physx@@YAXPIBUPxSolverConstraintDesc@2@IAAUSolverContext@12@@Z 100eb220 f   LowLevelDynamics_static_32:DySolverPFConstraintsBlock.obj
 0001:000ea300       ?solveFrictionCoulombPreBlock@Dy@physx@@YAXPIBUPxSolverConstraintDesc@2@IAAUSolverContext@12@@Z 100eb300 f   LowLevelDynamics_static_32:DySolverPFConstraintsBlock.obj
 0001:000ea320       ?solveFrictionCoulombPreBlock_Static@Dy@physx@@YAXPIBUPxSolverConstraintDesc@2@IAAUSolverContext@12@@Z 100eb320 f   LowLevelDynamics_static_32:DySolverPFConstraintsBlock.obj
 0001:000ea340       ?solveFrictionCoulombPreBlock_Conclude@Dy@physx@@YAXPIBUPxSolverConstraintDesc@2@IAAUSolverContext@12@@Z 100eb340 f   LowLevelDynamics_static_32:DySolverPFConstraintsBlock.obj
 0001:000ea360       ?solveFrictionCoulombPreBlock_ConcludeStatic@Dy@physx@@YAXPIBUPxSolverConstraintDesc@2@IAAUSolverContext@12@@Z 100eb360 f   LowLevelDynamics_static_32:DySolverPFConstraintsBlock.obj
 0001:000ea380       ?solveFrictionCoulombPreBlock_WriteBack@Dy@physx@@YAXPIBUPxSolverConstraintDesc@2@IAAUSolverContext@12@@Z 100eb380 f   LowLevelDynamics_static_32:DySolverPFConstraintsBlock.obj
 0001:000ea3a0       ?solveFrictionCoulombPreBlock_WriteBackStatic@Dy@physx@@YAXPIBUPxSolverConstraintDesc@2@IAAUSolverContext@12@@Z 100eb3a0 f   LowLevelDynamics_static_32:DySolverPFConstraintsBlock.obj
 0001:000ebb60       ?setupFinalizeExtSolverContactsCoulomb@Dy@physx@@YA_NABVContactBuffer@Gu@2@ABUCorrelationBuffer@12@ABVPxTransform@2@2PAEMMABVSolverExtBody@12@4IMMMMMMPAUSpatialVectorF@Cm@2@@Z 100ecb60 f   LowLevelDynamics_static_32:DyArticulationContactPrepPF.obj
 0001:000ec830       ??0PruningStructure@Sq@physx@@QAE@V?$PxFlags@W4Enum@PxBaseFlag@physx@@G@2@@Z 100ed830 f   SceneQuery_static_32:SqPruningStructure.obj
 0001:000ec850       ?resolveReferences@PruningStructure@Sq@physx@@UAEXAAVPxDeserializationContext@3@@Z 100ed850 f   SceneQuery_static_32:SqPruningStructure.obj
 0001:000ec890       ?createObject@PruningStructure@Sq@physx@@SAPAV123@AAPAEAAVPxDeserializationContext@3@@Z 100ed890 f   SceneQuery_static_32:SqPruningStructure.obj
 0001:000ec9a0       ?exportExtraData@PruningStructure@Sq@physx@@QAEXAAVPxSerializationContext@3@@Z 100ed9a0 f   SceneQuery_static_32:SqPruningStructure.obj
 0001:000eca60       ?importExtraData@PruningStructure@Sq@physx@@QAEXAAVPxDeserializationContext@3@@Z 100eda60 f   SceneQuery_static_32:SqPruningStructure.obj
 0001:000ecb40       ?requiresObjects@PruningStructure@Sq@physx@@UAEXAAVPxProcessPxBaseCallback@3@@Z 100edb40 f   SceneQuery_static_32:SqPruningStructure.obj
 0001:000ecb70       ?getRigidActors@PruningStructure@Sq@physx@@UBEIPAPAVPxRigidActor@3@II@Z 100edb70 f   SceneQuery_static_32:SqPruningStructure.obj
 0001:000ecbf0       ?release@PruningStructure@Sq@physx@@UAEXXZ 100edbf0 f   SceneQuery_static_32:SqPruningStructure.obj
 0001:000ecc40       ??0PruningStructure@Sq@physx@@QAE@XZ 100edc40 f   SceneQuery_static_32:SqPruningStructure.obj
 0001:000ecca0       ??1PruningStructure@Sq@physx@@UAE@XZ 100edca0 f   SceneQuery_static_32:SqPruningStructure.obj
 0001:000ecd20       ?build@PruningStructure@Sq@physx@@QAE_NPBQAVPxRigidActor@3@I@Z 100edd20 f   SceneQuery_static_32:SqPruningStructure.obj
 0001:000ed320       ?invalidate@PruningStructure@Sq@physx@@QAEXPAVPxActor@3@@Z 100ee320 f   SceneQuery_static_32:SqPruningStructure.obj
 0001:000ed390       ??1PxPruningStructure@physx@@MAE@XZ 100ee390 f i SceneQuery_static_32:SqPruningStructure.obj
 0001:000ed3a0       ??_GPruningStructure@Sq@physx@@UAEPAXI@Z 100ee3a0 f i SceneQuery_static_32:SqPruningStructure.obj
 0001:000ed3a0       ??_EPruningStructure@Sq@physx@@UAEPAXI@Z 100ee3a0 f i SceneQuery_static_32:SqPruningStructure.obj
 0001:000ed450       ??_EPxPruningStructure@physx@@MAEPAXI@Z 100ee450 f i SceneQuery_static_32:SqPruningStructure.obj
 0001:000ed450       ??_GPxPruningStructure@physx@@MAEPAXI@Z 100ee450 f i SceneQuery_static_32:SqPruningStructure.obj
 0001:000ed480       ?getConcreteTypeName@PxPruningStructure@physx@@UBEPBDXZ 100ee480 f i SceneQuery_static_32:SqPruningStructure.obj
 0001:000ed490       ?getNbRigidActors@PruningStructure@Sq@physx@@UBEIXZ 100ee490 f i SceneQuery_static_32:SqPruningStructure.obj
 0001:000ed4a0       ?isKindOf@PxPruningStructure@physx@@MBE_NPBD@Z 100ee4a0 f i SceneQuery_static_32:SqPruningStructure.obj
 0001:000ed520       ??0PrunerExt@Sq@physx@@QAE@XZ 100ee520 f   SceneQuery_static_32:SqSceneQueryManager.obj
 0001:000ed590       ??1PrunerExt@Sq@physx@@QAE@XZ 100ee590 f   SceneQuery_static_32:SqSceneQueryManager.obj
 0001:000ed5f0       ?init@PrunerExt@Sq@physx@@QAEXW4Enum@PxPruningStructureType@3@_KI@Z 100ee5f0 f   SceneQuery_static_32:SqSceneQueryManager.obj
 0001:000ed750       ?flushMemory@PrunerExt@Sq@physx@@QAEXXZ 100ee750 f   SceneQuery_static_32:SqSceneQueryManager.obj
 0001:000ed780       ?preallocate@PrunerExt@Sq@physx@@QAEXI@Z 100ee780 f   SceneQuery_static_32:SqSceneQueryManager.obj
 0001:000ed7b0       ?flushShapes@PrunerExt@Sq@physx@@QAEXI@Z 100ee7b0 f   SceneQuery_static_32:SqSceneQueryManager.obj
 0001:000ed840       ?addToDirtyList@PrunerExt@Sq@physx@@QAEXI@Z 100ee840 f   SceneQuery_static_32:SqSceneQueryManager.obj
 0001:000ed8b0       ?isDirty@PrunerExt@Sq@physx@@QBEHI@Z 100ee8b0 f   SceneQuery_static_32:SqSceneQueryManager.obj
 0001:000ed8e0       ?removeFromDirtyList@PrunerExt@Sq@physx@@QAEXI@Z 100ee8e0 f   SceneQuery_static_32:SqSceneQueryManager.obj
 0001:000ed940       ?growDirtyList@PrunerExt@Sq@physx@@QAEXI@Z 100ee940 f   SceneQuery_static_32:SqSceneQueryManager.obj
 0001:000ed990       ??0CompoundPrunerExt@Sq@physx@@QAE@XZ 100ee990 f   SceneQuery_static_32:SqSceneQueryManager.obj
 0001:000ed9f0       ??1CompoundPrunerExt@Sq@physx@@QAE@XZ 100ee9f0 f   SceneQuery_static_32:SqSceneQueryManager.obj
 0001:000eda20       ?flushMemory@CompoundPrunerExt@Sq@physx@@QAEXXZ 100eea20 f   SceneQuery_static_32:SqSceneQueryManager.obj
 0001:000eda30       ?preallocate@CompoundPrunerExt@Sq@physx@@QAEXI@Z 100eea30 f   SceneQuery_static_32:SqSceneQueryManager.obj
 0001:000eda50       ?flushShapes@CompoundPrunerExt@Sq@physx@@QAEXXZ 100eea50 f   SceneQuery_static_32:SqSceneQueryManager.obj
 0001:000edb00       ?addToDirtyList@CompoundPrunerExt@Sq@physx@@QAEXII@Z 100eeb00 f   SceneQuery_static_32:SqSceneQueryManager.obj
 0001:000edbf0       ?isDirty@CompoundPrunerExt@Sq@physx@@QBEHII@Z 100eebf0 f   SceneQuery_static_32:SqSceneQueryManager.obj
 0001:000edc90       ?removeFromDirtyList@CompoundPrunerExt@Sq@physx@@QAEXII@Z 100eec90 f   SceneQuery_static_32:SqSceneQueryManager.obj
 0001:000edd70       ?sync@DynamicBoundsSync@Sq@physx@@UAEXPBI0PBVPxBounds3@3@IABV?$BitMapBase@VNonTrackingAllocator@shdfnd@physx@@@Cm@3@@Z 100eed70 f   SceneQuery_static_32:SqSceneQueryManager.obj
 0001:000ede50       ??0SceneQueryManager@Sq@physx@@QAE@AAVScene@Scb@2@W4Enum@PxPruningStructureType@2@1IABVPxSceneLimits@2@@Z 100eee50 f   SceneQuery_static_32:SqSceneQueryManager.obj
 0001:000ee0c0       ??1SceneQueryManager@Sq@physx@@QAE@XZ 100ef0c0 f   SceneQuery_static_32:SqSceneQueryManager.obj
 0001:000ee190       ?addPrunerShape@SceneQueryManager@Sq@physx@@QAEIABVShape@Scb@3@ABVActor@53@_NIPBVPxBounds3@3@2@Z 100ef190 f   SceneQuery_static_32:SqSceneQueryManager.obj
 0001:000ee320       ?removePrunerShape@SceneQueryManager@Sq@physx@@QAEXII@Z 100ef320 f   SceneQuery_static_32:SqSceneQueryManager.obj
 0001:000ee4a0       ?getPayload@SceneQueryManager@Sq@physx@@QBEABUPrunerPayload@23@II@Z 100ef4a0 f   SceneQuery_static_32:SqSceneQueryManager.obj
 0001:000ee4e0       ?addPruningStructure@SceneQueryManager@Sq@physx@@QAEXABVPruningStructure@23@@Z 100ef4e0 f   SceneQuery_static_32:SqSceneQueryManager.obj
 0001:000ee550       ?addCompoundShape@SceneQueryManager@Sq@physx@@QAEXABVBVHStructure@Gu@3@IABVPxTransform@3@PAIPAPBVShape@Scb@3@ABVActor@83@@Z 100ef550 f   SceneQuery_static_32:SqSceneQueryManager.obj
 0001:000ee740       ?preallocate@SceneQueryManager@Sq@physx@@QAEXII@Z 100ef740 f   SceneQuery_static_32:SqSceneQueryManager.obj
 0001:000ee790       ?markForUpdate@SceneQueryManager@Sq@physx@@QAEXII@Z 100ef790 f   SceneQuery_static_32:SqSceneQueryManager.obj
 0001:000ee910       ?setDynamicTreeRebuildRateHint@SceneQueryManager@Sq@physx@@QAEXI@Z 100ef910 f   SceneQuery_static_32:SqSceneQueryManager.obj
 0001:000ee950       ?flushUpdates@SceneQueryManager@Sq@physx@@QAEXXZ 100ef950 f   SceneQuery_static_32:SqSceneQueryManager.obj
 0001:000eea40       ?forceDynamicTreeRebuild@SceneQueryManager@Sq@physx@@QAEX_N0@Z 100efa40 f   SceneQuery_static_32:SqSceneQueryManager.obj
 0001:000eeb30       ?sceneQueryBuildStep@SceneQueryManager@Sq@physx@@QAEXW4Enum@PruningIndex@23@@Z 100efb30 f   SceneQuery_static_32:SqSceneQueryManager.obj
 0001:000eebe0       ?updateCompoundActors@SceneQueryManager@Sq@physx@@QAEXPBQAVBodyCore@Sc@3@I@Z 100efbe0 f   SceneQuery_static_32:SqSceneQueryManager.obj
 0001:000eec20       ?updateCompoundActor@SceneQueryManager@Sq@physx@@QAEXIABVPxTransform@3@_N@Z 100efc20 f   SceneQuery_static_32:SqSceneQueryManager.obj
 0001:000eec50       ?removeCompoundActor@SceneQueryManager@Sq@physx@@QAEXI_N@Z 100efc50 f   SceneQuery_static_32:SqSceneQueryManager.obj
 0001:000eec70       ?prepareSceneQueriesUpdate@SceneQueryManager@Sq@physx@@QAE_NW4Enum@PruningIndex@23@@Z 100efc70 f   SceneQuery_static_32:SqSceneQueryManager.obj
 0001:000eeca0       ?afterSync@SceneQueryManager@Sq@physx@@QAEXW4Enum@PxSceneQueryUpdateMode@3@@Z 100efca0 f   SceneQuery_static_32:SqSceneQueryManager.obj
 0001:000eed90       ?shiftOrigin@SceneQueryManager@Sq@physx@@QAEXABVPxVec3@3@@Z 100efd90 f   SceneQuery_static_32:SqSceneQueryManager.obj
 0001:000eedd0       ?flushMemory@SceneQueryManager@Sq@physx@@QAEXXZ 100efdd0 f   SceneQuery_static_32:SqSceneQueryManager.obj
 0001:000eee30       ?flushShapes@SceneQueryManager@Sq@physx@@AAEXXZ 100efe30 f   SceneQuery_static_32:SqSceneQueryManager.obj
 0001:000ef010       ??1SqBoundsSync@Sc@physx@@UAE@XZ 100f0010 f i SceneQuery_static_32:SqSceneQueryManager.obj
 0001:000ef020       ??_EDynamicBoundsSync@Sq@physx@@UAEPAXI@Z 100f0020 f i SceneQuery_static_32:SqSceneQueryManager.obj
 0001:000ef020       ??_GDynamicBoundsSync@Sq@physx@@UAEPAXI@Z 100f0020 f i SceneQuery_static_32:SqSceneQueryManager.obj
 0001:000ef050       ??_GSqBoundsSync@Sc@physx@@UAEPAXI@Z 100f0050 f i SceneQuery_static_32:SqSceneQueryManager.obj
 0001:000ef050       ??_ESqBoundsSync@Sc@physx@@UAEPAXI@Z 100f0050 f i SceneQuery_static_32:SqSceneQueryManager.obj
 0001:000ef080       ?clear@?$HashSetBase@V?$Pair@II@shdfnd@physx@@U?$Hash@V?$Pair@II@shdfnd@physx@@@23@VNonTrackingAllocator@23@$00@internal@shdfnd@physx@@QAEXXZ 100f0080 f i SceneQuery_static_32:SqSceneQueryManager.obj
 0001:000ef0f0       ?count@?$BitMapBase@VNonTrackingAllocator@shdfnd@physx@@@Cm@physx@@QBEIXZ 100f00f0 f i SceneQuery_static_32:SqSceneQueryManager.obj
 0001:000ef290       ?hash@?$HashBase@V?$Pair@II@shdfnd@physx@@V123@U?$Hash@V?$Pair@II@shdfnd@physx@@@23@UGetKey@?$HashSetBase@V?$Pair@II@shdfnd@physx@@U?$Hash@V?$Pair@II@shdfnd@physx@@@23@VNonTrackingAllocator@23@$00@internal@23@VNonTrackingAllocator@23@$00@internal@shdfnd@physx@@ABEIABV?$Pair@II@34@I@Z 100f0290 f i SceneQuery_static_32:SqSceneQueryManager.obj
 0001:000ef310       ?recreate@?$Array@IVNamedAllocator@shdfnd@physx@@@shdfnd@physx@@IAEXI@Z 100f0310 f i SceneQuery_static_32:SqSceneQueryManager.obj
 0001:000ef3d0       ?reserveInternal@?$HashBase@V?$Pair@II@shdfnd@physx@@V123@U?$Hash@V?$Pair@II@shdfnd@physx@@@23@UGetKey@?$HashSetBase@V?$Pair@II@shdfnd@physx@@U?$Hash@V?$Pair@II@shdfnd@physx@@@23@VNonTrackingAllocator@23@$00@internal@23@VNonTrackingAllocator@23@$00@internal@shdfnd@physx@@AAEXI@Z 100f03d0 f i SceneQuery_static_32:SqSceneQueryManager.obj
 0001:000ef5c0       ?resize@?$Array@IVNamedAllocator@shdfnd@physx@@@shdfnd@physx@@QAEXIABI@Z 100f05c0 f i SceneQuery_static_32:SqSceneQueryManager.obj
 0001:000ef680       ?init@BitArray@Sq@physx@@QAE_NI@Z 100f0680 f   SceneQuery_static_32:SqAABBTree.obj
 0001:000ef700       ?resize@BitArray@Sq@physx@@QAEXI@Z 100f0700 f   SceneQuery_static_32:SqAABBTree.obj
 0001:000ef7a0       ??0AABBTree@Sq@physx@@QAE@XZ 100f07a0 f   SceneQuery_static_32:SqAABBTree.obj
 0001:000ef800       ??1AABBTree@Sq@physx@@QAE@XZ 100f0800 f   SceneQuery_static_32:SqAABBTree.obj
 0001:000ef840       ?build@AABBTree@Sq@physx@@QAE_NAAVAABBTreeBuildParams@Gu@3@@Z 100f0840 f   SceneQuery_static_32:SqAABBTree.obj
 0001:000ef8b0       ?progressiveBuild@AABBTree@Sq@physx@@QAEIAAVAABBTreeBuildParams@Gu@3@AAUBuildStats@53@II@Z 100f08b0 f   SceneQuery_static_32:SqAABBTree.obj
 0001:000efb20       ?release@AABBTree@Sq@physx@@QAEX_N@Z 100f0b20 f   SceneQuery_static_32:SqAABBTree.obj
 0001:000efbf0       ?mergeTree@AABBTree@Sq@physx@@QAEXABVAABBTreeMergeData@23@@Z 100f0bf0 f   SceneQuery_static_32:SqAABBTree.obj
 0001:000efe60       ?initTree@AABBTree@Sq@physx@@QAEXABVAABBTreeMergeData@23@@Z 100f0e60 f   SceneQuery_static_32:SqAABBTree.obj
 0001:000eff60       ?shiftOrigin@AABBTree@Sq@physx@@QAEXABVPxVec3@3@@Z 100f0f60 f   SceneQuery_static_32:SqAABBTree.obj
 0001:000f0010       ?shiftIndices@AABBTree@Sq@physx@@QAEXI@Z 100f1010 f   SceneQuery_static_32:SqAABBTree.obj
 0001:000f0030       ?buildInit@AABBTree@Sq@physx@@AAE_NAAVAABBTreeBuildParams@Gu@3@AAUBuildStats@53@@Z 100f1030 f   SceneQuery_static_32:SqAABBTree.obj
 0001:000f0070       ?buildEnd@AABBTree@Sq@physx@@AAEXAAVAABBTreeBuildParams@Gu@3@AAUBuildStats@53@@Z 100f1070 f   SceneQuery_static_32:SqAABBTree.obj
 0001:000f0290       ?mergeRuntimeNode@AABBTree@Sq@physx@@AAEXAAVAABBTreeRuntimeNode@23@ABVAABBTreeMergeData@23@I@Z 100f1290 f   SceneQuery_static_32:SqAABBTree.obj
 0001:000f05b0       ?mergeRuntimeLeaf@AABBTree@Sq@physx@@AAEXAAVAABBTreeRuntimeNode@23@ABVAABBTreeMergeData@23@I@Z 100f15b0 f   SceneQuery_static_32:SqAABBTree.obj
 0001:000f07d0       ?addRuntimeChilds@AABBTree@Sq@physx@@AAEXAAIABVAABBTreeMergeData@23@@Z 100f17d0 f   SceneQuery_static_32:SqAABBTree.obj
 0001:000f08d0       ?traverseRuntimeNode@AABBTree@Sq@physx@@AAEXAAVAABBTreeRuntimeNode@23@ABVAABBTreeMergeData@23@I@Z 100f18d0 f   SceneQuery_static_32:SqAABBTree.obj
 0001:000f09e0       ?fullRefit@AABBTree@Sq@physx@@QAEXPBVPxBounds3@3@@Z 100f19e0 f   SceneQuery_static_32:SqAABBTree.obj
 0001:000f0b50       ?markNodeForRefit@AABBTree@Sq@physx@@QAEXI@Z 100f1b50 f   SceneQuery_static_32:SqAABBTree.obj
